
Block 1:
  0x00007f0f05a13969  b8 00 00 00 00       mov    $0x00000000 -> %eax 
  0x00007f0f05a1396e  c9                   leave  %rbp %rsp (%rbp)[8byte] -> %rsp %rbp 
  0x00007f0f05a1396f  c3                   ret    %rsp (%rsp)[8byte] -> %rsp 
Actual: 7f0f05c32d6a

Block 2:
  0x00007f0f05c32d6a  48 8b 93 08 01 00 00 mov    0x00000108(%rbx)[8byte] -> %rdx 
  0x00007f0f05c32d71  48 85 d2             test   %rdx %rdx 
  0x00007f0f05c32d74  74 3d                jz     $0x00007f0f05c32db3 
Actual: 7f0f05c32db3

Block 3:
  0x00007f0f05c32db3  5b                   pop    %rsp (%rsp)[8byte] -> %rbx %rsp 
  0x00007f0f05c32db4  5d                   pop    %rsp (%rsp)[8byte] -> %rbp %rsp 
  0x00007f0f05c32db5  41 5c                pop    %rsp (%rsp)[8byte] -> %r12 %rsp 
  0x00007f0f05c32db7  41 5d                pop    %rsp (%rsp)[8byte] -> %r13 %rsp 
  0x00007f0f05c32db9  41 5e                pop    %rsp (%rsp)[8byte] -> %r14 %rsp 
  0x00007f0f05c32dbb  c3                   ret    %rsp (%rsp)[8byte] -> %rsp 
Actual: 7f0f05c32ebb

Block 4:
  0x00007f0f05c32ebb  eb d3                jmp    $0x00007f0f05c32e90 
  0x00007f0f05c32e90  83 eb 01             sub    $0x00000001 %ebx -> %ebx 
  0x00007f0f05c32e93  83 fb ff             cmp    %ebx $0xffffffff 
  0x00007f0f05c32e96  74 28                jz     $0x00007f0f05c32ec0 
Actual: 7f0f05c32e98

Block 5:
  0x00007f0f05c32e98  49 8b 96 b8 03 00 00 mov    0x000003b8(%r14)[8byte] -> %rdx 
  0x00007f0f05c32e9f  89 d8                mov    %ebx -> %eax 
  0x00007f0f05c32ea1  48 8b 3c c2          mov    (%rdx,%rax,8)[8byte] -> %rdi 
  0x00007f0f05c32ea5  f6 87 14 03 00 00 08 test   0x00000314(%rdi)[1byte] $0x08 
  0x00007f0f05c32eac  75 e2                jnz    $0x00007f0f05c32e90 
Actual: 7f0f05c32eae

Block 6:
  0x00007f0f05c32eae  4c 89 e9             mov    %r13 -> %rcx 
  0x00007f0f05c32eb1  4c 89 e2             mov    %r12 -> %rdx 
  0x00007f0f05c32eb4  89 ee                mov    %ebp -> %esi 
  0x00007f0f05c32eb6  e8 55 fe ff ff       call   $0x00007f0f05c32d10 %rsp -> %rsp 0xfffffff8(%rsp)[8byte] 
  0x00007f0f05c32d10  0f b6 87 14 03 00 00 movzx  0x00000314(%rdi)[1byte] -> %eax 
  0x00007f0f05c32d17  4c 8b 47 08          mov    0x08(%rdi)[8byte] -> %r8 
  0x00007f0f05c32d1b  83 c8 08             or     $0x00000008 %eax -> %eax 
  0x00007f0f05c32d1e  88 87 14 03 00 00    mov    %al -> 0x00000314(%rdi)[1byte] 
  0x00007f0f05c32d24  45 0f b6 08          movzx  (%r8)[1byte] -> %r9d 
  0x00007f0f05c32d28  45 84 c9             test   %r9l %r9l 
  0x00007f0f05c32d2b  0f 84 d7 00 00 00    jz     $0x00007f0f05c32e08 
Actual: 7f0f05c32e08

Block 7:
  0x00007f0f05c32e08  a8 03                test   %al $0x03 
  0x00007f0f05c32e0a  0f 85 21 ff ff ff    jnz    $0x00007f0f05c32d31 
Actual: 7f0f05c32e10

Block 8:
  0x00007f0f05c32e10  f3 c3                ret    %rsp (%rsp)[8byte] -> %rsp 
Actual: 7f0f05c32ebb

Block 9:
  0x00007f0f05c32ec0  48 8d 05 b9 50 21 00 lea    <rel> 0x00007f0f05e47f80 -> %rax 
  0x00007f0f05c32ec7  c7 00 00 00 00 00    mov    $0x00000000 -> (%rax)[4byte] 
  0x00007f0f05c32ecd  48 83 c4 08          add    $0x0000000000000008 %rsp -> %rsp 
  0x00007f0f05c32ed1  5b                   pop    %rsp (%rsp)[8byte] -> %rbx %rsp 
  0x00007f0f05c32ed2  5d                   pop    %rsp (%rsp)[8byte] -> %rbp %rsp 
  0x00007f0f05c32ed3  41 5c                pop    %rsp (%rsp)[8byte] -> %r12 %rsp 
  0x00007f0f05c32ed5  41 5d                pop    %rsp (%rsp)[8byte] -> %r13 %rsp 
  0x00007f0f05c32ed7  41 5e                pop    %rsp (%rsp)[8byte] -> %r14 %rsp 
  0x00007f0f05c32ed9  41 5f                pop    %rsp (%rsp)[8byte] -> %r15 %rsp 
  0x00007f0f05c32edb  c3                   ret    %rsp (%rsp)[8byte] -> %rsp 
Actual: 7f0f05c23cba

Block 10:
  0x00007f0f05c23cba  48 8d 15 ff f4 00 00 lea    <rel> 0x00007f0f05c331c0 -> %rdx 
  0x00007f0f05c23cc1  4c 89 ec             mov    %r13 -> %rsp 
  0x00007f0f05c23cc4  41 ff e4             jmp    %r12 
Actual: 55e94ebe3ab0

Block 11:
  0x000055e94ebe3ab0  31 ed                xor    %ebp %ebp -> %ebp 
  0x000055e94ebe3ab2  49 89 d1             mov    %rdx -> %r9 
  0x000055e94ebe3ab5  5e                   pop    %rsp (%rsp)[8byte] -> %rsi %rsp 
  0x000055e94ebe3ab6  48 89 e2             mov    %rsp -> %rdx 
  0x000055e94ebe3ab9  48 83 e4 f0          and    $0xfffffffffffffff0 %rsp -> %rsp 
  0x000055e94ebe3abd  50                   push   %rax %rsp -> %rsp 0xfffffff8(%rsp)[8byte] 
  0x000055e94ebe3abe  54                   push   %rsp %rsp -> %rsp 0xfffffff8(%rsp)[8byte] 
  0x000055e94ebe3abf  4c 8d 05 6a 42 01 00 lea    <rel> 0x000055e94ebf7d30 -> %r8 
  0x000055e94ebe3ac6  48 8d 0d f3 41 01 00 lea    <rel> 0x000055e94ebf7cc0 -> %rcx 
  0x000055e94ebe3acd  48 8d 3d 5c f8 ff ff lea    <rel> 0x000055e94ebe3330 -> %rdi 
  0x000055e94ebe3ad4  e8 ef f5 ff ff       call   $0x000055e94ebe30c8 %rsp -> %rsp 0xfffffff8(%rsp)[8byte] 
  0x000055e94ebe30c8  ff 25 9a bc 21 00    jmp    <rel> 0x000055e94edfed68[8byte] 
Actual: 7f0f0480e640

Block 12:
  0x00007f0f0480e640  41 56                push   %r14 %rsp -> %rsp 0xfffffff8(%rsp)[8byte] 
  0x00007f0f0480e642  41 55                push   %r13 %rsp -> %rsp 0xfffffff8(%rsp)[8byte] 
  0x00007f0f0480e644  41 54                push   %r12 %rsp -> %rsp 0xfffffff8(%rsp)[8byte] 
  0x00007f0f0480e646  55                   push   %rbp %rsp -> %rsp 0xfffffff8(%rsp)[8byte] 
  0x00007f0f0480e647  48 89 cd             mov    %rcx -> %rbp 
  0x00007f0f0480e64a  53                   push   %rbx %rsp -> %rsp 0xfffffff8(%rsp)[8byte] 
  0x00007f0f0480e64b  48 81 ec 90 00 00 00 sub    $0x0000000000000090 %rsp -> %rsp 
  0x00007f0f0480e652  48 8b 05 47 b7 39 00 mov    <rel> 0x00007f0f04ba9da0[8byte] -> %rax 
  0x00007f0f0480e659  48 89 7c 24 18       mov    %rdi -> 0x18(%rsp)[8byte] 
  0x00007f0f0480e65e  89 74 24 14          mov    %esi -> 0x14(%rsp)[4byte] 
  0x00007f0f0480e662  48 89 54 24 08       mov    %rdx -> 0x08(%rsp)[8byte] 
  0x00007f0f0480e667  48 85 c0             test   %rax %rax 
  0x00007f0f0480e66a  0f 84 c8 00 00 00    jz     $0x00007f0f0480e738 
Actual: 7f0f0480e670

Block 13:
  0x00007f0f0480e670  8b 00                mov    (%rax)[4byte] -> %eax 
  0x00007f0f0480e672  85 c0                test   %eax %eax 
  0x00007f0f0480e674  0f 94 c0             setz   -> %al 
  0x00007f0f0480e677  48 8d 15 e2 b9 39 00 lea    <rel> 0x00007f0f04baa060 -> %rdx 
  0x00007f0f0480e67e  0f b6 c0             movzx  %al -> %eax 
  0x00007f0f0480e681  4d 85 c9             test   %r9 %r9 
  0x00007f0f0480e684  89 02                mov    %eax -> (%rdx)[4byte] 
  0x00007f0f0480e686  74 0c                jz     $0x00007f0f0480e694 
Actual: 7f0f0480e688

Block 14:
  0x00007f0f0480e688  31 d2                xor    %edx %edx -> %edx 
  0x00007f0f0480e68a  31 f6                xor    %esi %esi -> %esi 
  0x00007f0f0480e68c  4c 89 cf             mov    %r9 -> %rdi 
  0x00007f0f0480e68f  e8 bc 8d 01 00       call   $0x00007f0f04827450 %rsp -> %rsp 0xfffffff8(%rsp)[8byte] 
  0x00007f0f04827450  41 54                push   %r12 %rsp -> %rsp 0xfffffff8(%rsp)[8byte] 
  0x00007f0f04827452  55                   push   %rbp %rsp -> %rsp 0xfffffff8(%rsp)[8byte] 
  0x00007f0f04827453  49 89 f4             mov    %rsi -> %r12 
  0x00007f0f04827456  53                   push   %rbx %rsp -> %rsp 0xfffffff8(%rsp)[8byte] 
  0x00007f0f04827457  48 89 fb             mov    %rdi -> %rbx 
  0x00007f0f0482745a  48 8d 3d 77 31 38 00 lea    <rel> 0x00007f0f04baa5d8 -> %rdi 
  0x00007f0f04827461  48 89 d5             mov    %rdx -> %rbp 
  0x00007f0f04827464  e8 27 fe ff ff       call   $0x00007f0f04827290 %rsp -> %rsp 0xfffffff8(%rsp)[8byte] 
  0x00007f0f04827290  55                   push   %rbp %rsp -> %rsp 0xfffffff8(%rsp)[8byte] 
  0x00007f0f04827291  53                   push   %rbx %rsp -> %rsp 0xfffffff8(%rsp)[8byte] 
  0x00007f0f04827292  49 89 f8             mov    %rdi -> %r8 
  0x00007f0f04827295  be 01 00 00 00       mov    $0x00000001 -> %esi 
  0x00007f0f0482729a  31 c0                xor    %eax %eax -> %eax 
  0x00007f0f0482729c  48 83 ec 08          sub    $0x0000000000000008 %rsp -> %rsp 
  0x00007f0f048272a0  83 3d 59 84 38 00 00 cmp    <rel> 0x00007f0f04baf700[4byte] $0x00000000 
  0x00007f0f048272a7  74 0c                jz     $0x00007f0f048272b5 
Actual: 7f0f048272b5

Block 15:
  0x00007f0f048272b5  0f b1 35 74 4d 38 00 cmpxchg %esi <rel> 0x00007f0f04bac030[4byte] %eax -> <rel> 0x00007f0f04bac030[4byte] %eax 
  0x00007f0f048272bc  74 1a                jz     $0x00007f0f048272d8 
Actual: 7f0f048272d8

Block 16:
  0x00007f0f048272d8  49 8b 18             mov    (%r8)[8byte] -> %rbx 
  0x00007f0f048272db  31 ff                xor    %edi %edi -> %edi 
  0x00007f0f048272dd  48 85 db             test   %rbx %rbx 
  0x00007f0f048272e0  48 89 d8             mov    %rbx -> %rax 
  0x00007f0f048272e3  0f 84 ee 00 00 00    jz     $0x00007f0f048273d7 
Actual: 7f0f048272e9

Block 17:
  0x00007f0f048272e9  0f 1f 80 00 00 00 00 nop    0x00000000(%rax)[4byte] 
  0x00007f0f048272f0  48 8b 48 08          mov    0x08(%rax)[8byte] -> %rcx 
  0x00007f0f048272f4  48 85 c9             test   %rcx %rcx 
  0x00007f0f048272f7  74 3e                jz     $0x00007f0f04827337 
Actual: 7f0f04827337

Block 18:
  0x00007f0f04827337  48 8b 10             mov    (%rax)[8byte] -> %rdx 
  0x00007f0f0482733a  48 c7 40 08 00 00 00 mov    $0x0000000000000000 -> 0x08(%rax)[8byte] 
                      00
  0x00007f0f04827342  48 89 c7             mov    %rax -> %rdi 
  0x00007f0f04827345  48 85 d2             test   %rdx %rdx 
  0x00007f0f04827348  74 7f                jz     $0x00007f0f048273c9 
Actual: 7f0f048273c9

Block 19:
  0x00007f0f048273c9  48 8d 70 10          lea    0x10(%rax) -> %rsi 
  0x00007f0f048273cd  48 c7 40 08 01 00 00 mov    $0x0000000000000001 -> 0x08(%rax)[8byte] 
                      00
  0x00007f0f048273d5  eb 9b                jmp    $0x00007f0f04827372 
  0x00007f0f04827372  48 c7 06 01 00 00 00 mov    $0x0000000000000001 -> (%rsi)[8byte] 
  0x00007f0f04827379  48 83 05 7f 80 38 00 add    $0x0000000000000001 <rel> 0x00007f0f04baf400[8byte] -> <rel> 0x00007f0f04baf400[8byte] 
                      01
  0x00007f0f04827381  83 3d 78 83 38 00 00 cmp    <rel> 0x00007f0f04baf700[4byte] $0x00000000 
  0x00007f0f04827388  74 0b                jz     $0x00007f0f04827395 
Actual: 7f0f04827395

Block 20:
  0x00007f0f04827395  ff 0d 95 4c 38 00    dec    <rel> 0x00007f0f04bac030[4byte] -> <rel> 0x00007f0f04bac030[4byte] 
  0x00007f0f0482739b  74 1a                jz     $0x00007f0f048273b7 
Actual: 7f0f048273b7

Block 21:
  0x00007f0f048273b7  48 83 c4 08          add    $0x0000000000000008 %rsp -> %rsp 
  0x00007f0f048273bb  48 89 f0             mov    %rsi -> %rax 
  0x00007f0f048273be  5b                   pop    %rsp (%rsp)[8byte] -> %rbx %rsp 
  0x00007f0f048273bf  5d                   pop    %rsp (%rsp)[8byte] -> %rbp %rsp 
  0x00007f0f048273c0  c3                   ret    %rsp (%rsp)[8byte] -> %rsp 
Actual: 7f0f04827469

Block 22:
  0x00007f0f04827469  48 85 c0             test   %rax %rax 
  0x00007f0f0482746c  74 2a                jz     $0x00007f0f04827498 
Actual: 7f0f0482746e

Block 23:
  0x00007f0f0482746e  48 89 df             mov    %rbx -> %rdi 
  0x00007f0f04827471  4c 89 60 10          mov    %r12 -> 0x10(%rax)[8byte] 
  0x00007f0f04827475  48 89 68 18          mov    %rbp -> 0x18(%rax)[8byte] 
  0x00007f0f04827479  64 48 33 3c 25 30 00 xor    %fs:0x30[8byte] %rdi -> %rdi 
                      00 00
  0x00007f0f04827482  48 c1 c7 11          rol    $0x0000000000000011 %rdi -> %rdi 
  0x00007f0f04827486  48 89 78 08          mov    %rdi -> 0x08(%rax)[8byte] 
  0x00007f0f0482748a  48 c7 00 04 00 00 00 mov    $0x0000000000000004 -> (%rax)[8byte] 
  0x00007f0f04827491  31 c0                xor    %eax %eax -> %eax 
  0x00007f0f04827493  5b                   pop    %rsp (%rsp)[8byte] -> %rbx %rsp 
  0x00007f0f04827494  5d                   pop    %rsp (%rsp)[8byte] -> %rbp %rsp 
  0x00007f0f04827495  41 5c                pop    %rsp (%rsp)[8byte] -> %r12 %rsp 
  0x00007f0f04827497  c3                   ret    %rsp (%rsp)[8byte] -> %rsp 
Actual: 7f0f0480e694

Block 24:
  0x00007f0f0480e694  48 8b 15 c5 b7 39 00 mov    <rel> 0x00007f0f04ba9e60[8byte] -> %rdx 
  0x00007f0f0480e69b  8b 1a                mov    (%rdx)[4byte] -> %ebx 
  0x00007f0f0480e69d  83 e3 02             and    $0x00000002 %ebx -> %ebx 
  0x00007f0f0480e6a0  0f 85 d1 00 00 00    jnz    $0x00007f0f0480e777 
Actual: 7f0f0480e6a6

Block 25:
  0x00007f0f0480e6a6  48 85 ed             test   %rbp %rbp 
  0x00007f0f0480e6a9  74 15                jz     $0x00007f0f0480e6c0 
Actual: 7f0f0480e6ab

Block 26:
  0x00007f0f0480e6ab  48 8b 05 f6 b7 39 00 mov    <rel> 0x00007f0f04ba9ea8[8byte] -> %rax 
  0x00007f0f0480e6b2  48 8b 74 24 08       mov    0x08(%rsp)[8byte] -> %rsi 
  0x00007f0f0480e6b7  8b 7c 24 14          mov    0x14(%rsp)[4byte] -> %edi 
  0x00007f0f0480e6bb  48 8b 10             mov    (%rax)[8byte] -> %rdx 
  0x00007f0f0480e6be  ff d5                call   %rbp %rsp -> %rsp 0xfffffff8(%rsp)[8byte] 
Actual: 55e94ebf7cc0

Block 27:
  0x000055e94ebf7cc0  41 57                push   %r15 %rsp -> %rsp 0xfffffff8(%rsp)[8byte] 
  0x000055e94ebf7cc2  4c 8d 3d 7f 69 20 00 lea    <rel> 0x000055e94edfe648 -> %r15 
  0x000055e94ebf7cc9  41 56                push   %r14 %rsp -> %rsp 0xfffffff8(%rsp)[8byte] 
  0x000055e94ebf7ccb  41 55                push   %r13 %rsp -> %rsp 0xfffffff8(%rsp)[8byte] 
  0x000055e94ebf7ccd  41 54                push   %r12 %rsp -> %rsp 0xfffffff8(%rsp)[8byte] 
  0x000055e94ebf7ccf  41 89 fe             mov    %edi -> %r14d 
  0x000055e94ebf7cd2  55                   push   %rbp %rsp -> %rsp 0xfffffff8(%rsp)[8byte] 
  0x000055e94ebf7cd3  48 8d 2d 76 69 20 00 lea    <rel> 0x000055e94edfe650 -> %rbp 
  0x000055e94ebf7cda  53                   push   %rbx %rsp -> %rsp 0xfffffff8(%rsp)[8byte] 
  0x000055e94ebf7cdb  49 89 f5             mov    %rsi -> %r13 
  0x000055e94ebf7cde  49 89 d4             mov    %rdx -> %r12 
  0x000055e94ebf7ce1  4c 29 fd             sub    %r15 %rbp -> %rbp 
  0x000055e94ebf7ce4  48 83 ec 08          sub    $0x0000000000000008 %rsp -> %rsp 
  0x000055e94ebf7ce8  48 c1 fd 03          sar    $0x0000000000000003 %rbp -> %rbp 
  0x000055e94ebf7cec  e8 77 b1 fe ff       call   $0x000055e94ebe2e68 %rsp -> %rsp 0xfffffff8(%rsp)[8byte] 
  0x000055e94ebe2e68  48 83 ec 08          sub    $0x0000000000000008 %rsp -> %rsp 
  0x000055e94ebe2e6c  48 8b 05 75 bf 21 00 mov    <rel> 0x000055e94edfede8[8byte] -> %rax 
  0x000055e94ebe2e73  48 85 c0             test   %rax %rax 
  0x000055e94ebe2e76  74 05                jz     $0x000055e94ebe2e7d 
Actual: 55e94ebe2e7d

Block 28:
  0x000055e94ebe2e7d  48 83 c4 08          add    $0x0000000000000008 %rsp -> %rsp 
  0x000055e94ebe2e81  c3                   ret    %rsp (%rsp)[8byte] -> %rsp 
Actual: 55e94ebf7cf1

Block 29:
  0x000055e94ebf7cf1  48 85 ed             test   %rbp %rbp 
  0x000055e94ebf7cf4  74 22                jz     $0x000055e94ebf7d18 
Actual: 55e94ebf7cf6

Block 30:
  0x000055e94ebf7cf6  31 db                xor    %ebx %ebx -> %ebx 
  0x000055e94ebf7cf8  0f 1f 84 00 00 00 00 nop    0x00000000(%rax,%rax,1)[4byte] 
                      00
  0x000055e94ebf7d00  49 8b 04 df          mov    (%r15,%rbx,8)[8byte] -> %rax 
  0x000055e94ebf7d04  48 83 c3 01          add    $0x0000000000000001 %rbx -> %rbx 
  0x000055e94ebf7d08  4c 89 e2             mov    %r12 -> %rdx 
  0x000055e94ebf7d0b  4c 89 ee             mov    %r13 -> %rsi 
  0x000055e94ebf7d0e  44 89 f7             mov    %r14d -> %edi 
  0x000055e94ebf7d11  ff d0                call   %rax %rsp -> %rsp 0xfffffff8(%rsp)[8byte] 
Actual: 55e94ebe3bb0

Block 31:
  0x000055e94ebe3bb0  48 8d 3d a1 aa 21 00 lea    <rel> 0x000055e94edfe658 -> %rdi 
  0x000055e94ebe3bb7  48 83 3f 00          cmp    (%rdi)[8byte] $0x0000000000000000 
  0x000055e94ebe3bbb  75 0b                jnz    $0x000055e94ebe3bc8 
Actual: 55e94ebe3bbd

Block 32:
  0x000055e94ebe3bbd  e9 5e ff ff ff       jmp    $0x000055e94ebe3b20 
  0x000055e94ebe3b20  48 8d 3d 81 b5 21 00 lea    <rel> 0x000055e94edff0a8 -> %rdi 
  0x000055e94ebe3b27  48 8d 35 7a b5 21 00 lea    <rel> 0x000055e94edff0a8 -> %rsi 
  0x000055e94ebe3b2e  55                   push   %rbp %rsp -> %rsp 0xfffffff8(%rsp)[8byte] 
  0x000055e94ebe3b2f  48 29 fe             sub    %rdi %rsi -> %rsi 
  0x000055e94ebe3b32  48 89 e5             mov    %rsp -> %rbp 
  0x000055e94ebe3b35  48 c1 fe 03          sar    $0x0000000000000003 %rsi -> %rsi 
  0x000055e94ebe3b39  48 89 f0             mov    %rsi -> %rax 
  0x000055e94ebe3b3c  48 c1 e8 3f          shr    $0x000000000000003f %rax -> %rax 
  0x000055e94ebe3b40  48 01 c6             add    %rax %rsi -> %rsi 
  0x000055e94ebe3b43  48 d1 fe             sar    $0x0000000000000001 %rsi -> %rsi 
  0x000055e94ebe3b46  74 18                jz     $0x000055e94ebe3b60 
Actual: 55e94ebe3b60

Block 33:
  0x000055e94ebe3b60  5d                   pop    %rsp (%rsp)[8byte] -> %rbp %rsp 
  0x000055e94ebe3b61  c3                   ret    %rsp (%rsp)[8byte] -> %rsp 
Actual: 55e94ebf7d13

Block 34:
  0x000055e94ebf7d13  48 39 dd             cmp    %rbp %rbx 
  0x000055e94ebf7d16  75 e8                jnz    $0x000055e94ebf7d00 
Actual: 55e94ebf7d18

Block 35:
  0x000055e94ebf7d18  48 83 c4 08          add    $0x0000000000000008 %rsp -> %rsp 
  0x000055e94ebf7d1c  5b                   pop    %rsp (%rsp)[8byte] -> %rbx %rsp 
  0x000055e94ebf7d1d  5d                   pop    %rsp (%rsp)[8byte] -> %rbp %rsp 
  0x000055e94ebf7d1e  41 5c                pop    %rsp (%rsp)[8byte] -> %r12 %rsp 
  0x000055e94ebf7d20  41 5d                pop    %rsp (%rsp)[8byte] -> %r13 %rsp 
  0x000055e94ebf7d22  41 5e                pop    %rsp (%rsp)[8byte] -> %r14 %rsp 
  0x000055e94ebf7d24  41 5f                pop    %rsp (%rsp)[8byte] -> %r15 %rsp 
  0x000055e94ebf7d26  c3                   ret    %rsp (%rsp)[8byte] -> %rsp 
Actual: 7f0f0480e6c0

Block 36:
  0x00007f0f0480e6c0  48 8b 05 99 b7 39 00 mov    <rel> 0x00007f0f04ba9e60[8byte] -> %rax 
  0x00007f0f0480e6c7  44 8b b0 68 01 00 00 mov    0x00000168(%rax)[4byte] -> %r14d 
  0x00007f0f0480e6ce  45 85 f6             test   %r14d %r14d 
  0x00007f0f0480e6d1  0f 85 f4 00 00 00    jnz    $0x00007f0f0480e7cb 
Actual: 7f0f0480e6d7

Block 37:
  0x00007f0f0480e6d7  85 db                test   %ebx %ebx 
  0x00007f0f0480e6d9  0f 85 c9 00 00 00    jnz    $0x00007f0f0480e7a8 
Actual: 7f0f0480e6df

Block 38:
  0x00007f0f0480e6df  48 8d 7c 24 20       lea    0x20(%rsp) -> %rdi 
  0x00007f0f0480e6e4  e8 47 3e 01 00       call   $0x00007f0f04822530 %rsp -> %rsp 0xfffffff8(%rsp)[8byte] 
  0x00007f0f04822530  31 f6                xor    %esi %esi -> %esi 
  0x00007f0f04822532  e9 59 ff ff ff       jmp    $0x00007f0f04822490 
  0x00007f0f04822490  48 89 1f             mov    %rbx -> (%rdi)[8byte] 
  0x00007f0f04822493  48 89 e8             mov    %rbp -> %rax 
  0x00007f0f04822496  64 48 33 04 25 30 00 xor    %fs:0x30[8byte] %rax -> %rax 
                      00 00
  0x00007f0f0482249f  48 c1 c0 11          rol    $0x0000000000000011 %rax -> %rax 
  0x00007f0f048224a3  48 89 47 08          mov    %rax -> 0x08(%rdi)[8byte] 
  0x00007f0f048224a7  4c 89 67 10          mov    %r12 -> 0x10(%rdi)[8byte] 
  0x00007f0f048224ab  4c 89 6f 18          mov    %r13 -> 0x18(%rdi)[8byte] 
  0x00007f0f048224af  4c 89 77 20          mov    %r14 -> 0x20(%rdi)[8byte] 
  0x00007f0f048224b3  4c 89 7f 28          mov    %r15 -> 0x28(%rdi)[8byte] 
  0x00007f0f048224b7  48 8d 54 24 08       lea    0x08(%rsp) -> %rdx 
  0x00007f0f048224bc  64 48 33 14 25 30 00 xor    %fs:0x30[8byte] %rdx -> %rdx 
                      00 00
  0x00007f0f048224c5  48 c1 c2 11          rol    $0x0000000000000011 %rdx -> %rdx 
  0x00007f0f048224c9  48 89 57 30          mov    %rdx -> 0x30(%rdi)[8byte] 
  0x00007f0f048224cd  48 8b 04 24          mov    (%rsp)[8byte] -> %rax 
  0x00007f0f048224d1  90                   nop    
  0x00007f0f048224d2  64 48 33 04 25 30 00 xor    %fs:0x30[8byte] %rax -> %rax 
                      00 00
  0x00007f0f048224db  48 c1 c0 11          rol    $0x0000000000000011 %rax -> %rax 
  0x00007f0f048224df  48 89 47 38          mov    %rax -> 0x38(%rdi)[8byte] 
  0x00007f0f048224e3  e9 08 00 00 00       jmp    $0x00007f0f048224f0 
  0x00007f0f048224f0  85 f6                test   %esi %esi 
  0x00007f0f048224f2  53                   push   %rbx %rsp -> %rsp 0xfffffff8(%rsp)[8byte] 
  0x00007f0f048224f3  48 89 fb             mov    %rdi -> %rbx 
  0x00007f0f048224f6  74 15                jz     $0x00007f0f0482250d 
Actual: 7f0f0482250d

Block 39:
  0x00007f0f0482250d  89 73 40             mov    %esi -> 0x40(%rbx)[4byte] 
  0x00007f0f04822510  31 c0                xor    %eax %eax -> %eax 
  0x00007f0f04822512  5b                   pop    %rsp (%rsp)[8byte] -> %rbx %rsp 
  0x00007f0f04822513  c3                   ret    %rsp (%rsp)[8byte] -> %rsp 
Actual: 7f0f0480e6e9

Block 40:
  0x00007f0f0480e6e9  85 c0                test   %eax %eax 
  0x00007f0f0480e6eb  75 52                jnz    $0x00007f0f0480e73f 
Actual: 7f0f0480e6ed

Block 41:
  0x00007f0f0480e6ed  64 48 8b 04 25 00 03 mov    %fs:0x00000300[8byte] -> %rax 
                      00 00
  0x00007f0f0480e6f6  48 89 44 24 68       mov    %rax -> 0x68(%rsp)[8byte] 
  0x00007f0f0480e6fb  64 48 8b 04 25 f8 02 mov    %fs:0x000002f8[8byte] -> %rax 
                      00 00
  0x00007f0f0480e704  48 89 44 24 70       mov    %rax -> 0x70(%rsp)[8byte] 
  0x00007f0f0480e709  48 8d 44 24 20       lea    0x20(%rsp) -> %rax 
  0x00007f0f0480e70e  64 48 89 04 25 00 03 mov    %rax -> %fs:0x00000300[8byte] 
                      00 00
  0x00007f0f0480e717  48 8b 05 8a b7 39 00 mov    <rel> 0x00007f0f04ba9ea8[8byte] -> %rax 
  0x00007f0f0480e71e  48 8b 74 24 08       mov    0x08(%rsp)[8byte] -> %rsi 
  0x00007f0f0480e723  8b 7c 24 14          mov    0x14(%rsp)[4byte] -> %edi 
  0x00007f0f0480e727  48 8b 10             mov    (%rax)[8byte] -> %rdx 
  0x00007f0f0480e72a  48 8b 44 24 18       mov    0x18(%rsp)[8byte] -> %rax 
  0x00007f0f0480e72f  ff d0                call   %rax %rsp -> %rsp 0xfffffff8(%rsp)[8byte] 
Actual: 55e94ebe3330

Block 42:
  0x000055e94ebe3330  41 57                push   %r15 %rsp -> %rsp 0xfffffff8(%rsp)[8byte] 
  0x000055e94ebe3332  41 56                push   %r14 %rsp -> %rsp 0xfffffff8(%rsp)[8byte] 
  0x000055e94ebe3334  41 55                push   %r13 %rsp -> %rsp 0xfffffff8(%rsp)[8byte] 
  0x000055e94ebe3336  41 54                push   %r12 %rsp -> %rsp 0xfffffff8(%rsp)[8byte] 
  0x000055e94ebe3338  55                   push   %rbp %rsp -> %rsp 0xfffffff8(%rsp)[8byte] 
  0x000055e94ebe3339  53                   push   %rbx %rsp -> %rsp 0xfffffff8(%rsp)[8byte] 
  0x000055e94ebe333a  48 89 f3             mov    %rsi -> %rbx 
  0x000055e94ebe333d  89 fd                mov    %edi -> %ebp 
  0x000055e94ebe333f  48 81 ec 28 01 00 00 sub    $0x0000000000000128 %rsp -> %rsp 
  0x000055e94ebe3346  64 48 8b 04 25 28 00 mov    %fs:0x28[8byte] -> %rax 
                      00 00
  0x000055e94ebe334f  48 89 84 24 18 01 00 mov    %rax -> 0x00000118(%rsp)[8byte] 
                      00
  0x000055e94ebe3357  31 c0                xor    %eax %eax -> %eax 
  0x000055e94ebe3359  e8 72 fb ff ff       call   $0x000055e94ebe2ed0 %rsp -> %rsp 0xfffffff8(%rsp)[8byte] 
  0x000055e94ebe2ed0  ff 25 7a bc 21 00    jmp    <rel> 0x000055e94edfeb50[8byte] 
Actual: 7f0f04fda1e0

Block 43:
  0x00007f0f04fda1e0  48 8b 05 59 78 20 00 mov    <rel> 0x00007f0f051e1a40[8byte] -> %rax 
  0x00007f0f04fda1e7  48 83 38 00          cmp    (%rax)[8byte] $0x0000000000000000 
  0x00007f0f04fda1eb  74 13                jz     $0x00007f0f04fda200 
Actual: 7f0f04fda200

Block 44:
  0x00007f0f04fda200  31 c0                xor    %eax %eax -> %eax 
  0x00007f0f04fda202  0f b6 c0             movzx  %al -> %eax 
  0x00007f0f04fda205  c3                   ret    %rsp (%rsp)[8byte] -> %rsp 
Actual: 55e94ebe335e

Block 45:
  0x000055e94ebe335e  48 8b 3b             mov    (%rbx)[8byte] -> %rdi 
  0x000055e94ebe3361  89 44 24 10          mov    %eax -> 0x10(%rsp)[4byte] 
  0x000055e94ebe3365  4c 8d 64 24 30       lea    0x30(%rsp) -> %r12 
  0x000055e94ebe336a  e8 41 a8 00 00       call   $0x000055e94ebedbb0 %rsp -> %rsp 0xfffffff8(%rsp)[8byte] 
  0x000055e94ebedbb0  48 85 ff             test   %rdi %rdi 
  0x000055e94ebedbb3  53                   push   %rbx %rsp -> %rsp 0xfffffff8(%rsp)[8byte] 
  0x000055e94ebedbb4  74 7a                jz     $0x000055e94ebedc30 
Actual: 55e94ebedbb6

Block 46:
  0x000055e94ebedbb6  be 2f 00 00 00       mov    $0x0000002f -> %esi 
  0x000055e94ebedbbb  48 89 fb             mov    %rdi -> %rbx 
  0x000055e94ebedbbe  e8 65 54 ff ff       call   $0x000055e94ebe3028 %rsp -> %rsp 0xfffffff8(%rsp)[8byte] 
  0x000055e94ebe3028  ff 25 9a bc 21 00    jmp    <rel> 0x000055e94edfecc8[8byte] 
Actual: 7f0f04877e90

Block 47:
  0x00007f0f04877e90  66 0f 6e ce          movd   %esi -> %xmm1 
  0x00007f0f04877e94  48 89 f8             mov    %rdi -> %rax 
  0x00007f0f04877e97  25 ff 0f 00 00       and    $0x00000fff %eax -> %eax 
  0x00007f0f04877e9c  66 0f 60 c9          punpcklbw %xmm1 %xmm1 -> %xmm1 
  0x00007f0f04877ea0  48 3d c0 0f 00 00    cmp    %rax $0x0000000000000fc0 
  0x00007f0f04877ea6  66 0f 61 c9          punpcklwd %xmm1 %xmm1 -> %xmm1 
  0x00007f0f04877eaa  66 0f 70 c9 00       pshufd %xmm1 $0x00 -> %xmm1 
  0x00007f0f04877eaf  0f 87 fb 01 00 00    jnbe   $0x00007f0f048780b0 
Actual: 7f0f04877eb5

Block 48:
  0x00007f0f04877eb5  f3 0f 6f 07          movdqu (%rdi)[16byte] -> %xmm0 
  0x00007f0f04877eb9  66 0f ef d2          pxor   %xmm2 %xmm2 -> %xmm2 
  0x00007f0f04877ebd  66 0f 6f d8          movdqa %xmm0 -> %xmm3 
  0x00007f0f04877ec1  66 0f 74 c1          pcmpeqb %xmm1 %xmm0 -> %xmm0 
  0x00007f0f04877ec5  66 0f 74 da          pcmpeqb %xmm2 %xmm3 -> %xmm3 
  0x00007f0f04877ec9  66 0f d7 c8          pmovmskb %xmm0 -> %ecx 
  0x00007f0f04877ecd  66 0f d7 d3          pmovmskb %xmm3 -> %edx 
  0x00007f0f04877ed1  48 85 d2             test   %rdx %rdx 
  0x00007f0f04877ed4  74 1a                jz     $0x00007f0f04877ef0 
Actual: 7f0f04877ed6

Block 49:
  0x00007f0f04877ed6  48 8d 42 ff          lea    0xffffffff(%rdx) -> %rax 
  0x00007f0f04877eda  48 31 d0             xor    %rdx %rax -> %rax 
  0x00007f0f04877edd  48 21 c8             and    %rcx %rax -> %rax 
  0x00007f0f04877ee0  0f 84 ba 01 00 00    jz     $0x00007f0f048780a0 
Actual: 7f0f048780a0

Block 50:
  0x00007f0f048780a0  31 c0                xor    %eax %eax -> %eax 
  0x00007f0f048780a2  c3                   ret    %rsp (%rsp)[8byte] -> %rsp 
Actual: 55e94ebedbc3

Block 51:
  0x000055e94ebedbc3  48 85 c0             test   %rax %rax 
  0x000055e94ebedbc6  74 52                jz     $0x000055e94ebedc1a 
Actual: 55e94ebedc1a

Block 52:
  0x000055e94ebedc1a  48 8d 05 17 19 21 00 lea    <rel> 0x000055e94edff538 -> %rax 
  0x000055e94ebedc21  48 89 18             mov    %rbx -> (%rax)[8byte] 
  0x000055e94ebedc24  48 8b 05 e5 11 21 00 mov    <rel> 0x000055e94edfee10[8byte] -> %rax 
  0x000055e94ebedc2b  48 89 18             mov    %rbx -> (%rax)[8byte] 
  0x000055e94ebedc2e  5b                   pop    %rsp (%rsp)[8byte] -> %rbx %rsp 
  0x000055e94ebedc2f  c3                   ret    %rsp (%rsp)[8byte] -> %rsp 
Actual: 55e94ebe336f

Block 53:
  0x000055e94ebe336f  48 8d 35 70 62 01 00 lea    <rel> 0x000055e94ebf95e6 -> %rsi 
  0x000055e94ebe3376  bf 06 00 00 00       mov    $0x00000006 -> %edi 
  0x000055e94ebe337b  e8 88 fe ff ff       call   $0x000055e94ebe3208 %rsp -> %rsp 0xfffffff8(%rsp)[8byte] 
  0x000055e94ebe3208  ff 25 aa bc 21 00    jmp    <rel> 0x000055e94edfeeb8[8byte] 
Actual: 7f0f048180d0

Block 54:
  0x00007f0f048180d0  41 57                push   %r15 %rsp -> %rsp 0xfffffff8(%rsp)[8byte] 
  0x00007f0f048180d2  41 56                push   %r14 %rsp -> %rsp 0xfffffff8(%rsp)[8byte] 
  0x00007f0f048180d4  41 55                push   %r13 %rsp -> %rsp 0xfffffff8(%rsp)[8byte] 
  0x00007f0f048180d6  41 54                push   %r12 %rsp -> %rsp 0xfffffff8(%rsp)[8byte] 
  0x00007f0f048180d8  55                   push   %rbp %rsp -> %rsp 0xfffffff8(%rsp)[8byte] 
  0x00007f0f048180d9  53                   push   %rbx %rsp -> %rsp 0xfffffff8(%rsp)[8byte] 
  0x00007f0f048180da  48 81 ec 18 01 00 00 sub    $0x0000000000000118 %rsp -> %rsp 
  0x00007f0f048180e1  83 ff 0c             cmp    %edi $0x0000000c 
  0x00007f0f048180e4  0f 87 a6 01 00 00    jnbe   $0x00007f0f04818290 
Actual: 7f0f048180ea

Block 55:
  0x00007f0f048180ea  48 85 f6             test   %rsi %rsi 
  0x00007f0f048180ed  0f 84 6d 04 00 00    jz     $0x00007f0f04818560 
Actual: 7f0f048180f3

Block 56:
  0x00007f0f048180f3  44 8b 0d f6 75 39 00 mov    <rel> 0x00007f0f04baf6f0[4byte] -> %r9d 
  0x00007f0f048180fa  48 89 f5             mov    %rsi -> %rbp 
  0x00007f0f048180fd  89 fb                mov    %edi -> %ebx 
  0x00007f0f048180ff  45 85 c9             test   %r9d %r9d 
  0x00007f0f04818102  0f 85 a8 01 00 00    jnz    $0x00007f0f048182b0 
Actual: 7f0f048182b0

Block 57:
  0x00007f0f048182b0  4c 63 eb             movsxd %ebx -> %r13 
  0x00007f0f048182b3  4c 8d 25 46 31 39 00 lea    <rel> 0x00007f0f04bab400 -> %r12 
  0x00007f0f048182ba  48 8b 05 c7 73 39 00 mov    <rel> 0x00007f0f04baf688[8byte] -> %rax 
  0x00007f0f048182c1  4d 8d 7d 10          lea    0x10(%r13) -> %r15 
  0x00007f0f048182c5  48 8d 3d 34 36 39 00 lea    <rel> 0x00007f0f04bab900 -> %rdi 
  0x00007f0f048182cc  48 c1 c8 11          ror    $0x0000000000000011 %rax -> %rax 
  0x00007f0f048182d0  64 48 33 04 25 30 00 xor    %fs:0x30[8byte] %rax -> %rax 
                      00 00
  0x00007f0f048182d9  ff d0                call   %rax %rsp -> %rsp 0xfffffff8(%rsp)[8byte] 
Actual: 7f0f051f1040

Block 58:
  0x00007f0f051f1040  48 89 fa             mov    %rdi -> %rdx 
  0x00007f0f051f1043  90                   nop    
  0x00007f0f051f1044  0f b6 47 20          movzx  0x20(%rdi)[1byte] -> %eax 
  0x00007f0f051f1048  84 c0                test   %al %al 
  0x00007f0f051f104a  7e 6c                jle    $0x00007f0f051f10b8 
Actual: 7f0f051f10b8

Block 59:
  0x00007f0f051f10b8  8b 0d da b1 20 00    mov    <rel> 0x00007f0f053fc298[4byte] -> %ecx 
  0x00007f0f051f10be  bf ff ff ff ff       mov    $0xffffffff -> %edi 
  0x00007f0f051f10c3  85 c9                test   %ecx %ecx 
  0x00007f0f051f10c5  7f 39                jnle   $0x00007f0f051f1100 
Actual: 7f0f051f10c7

Block 60:
  0x00007f0f051f10c7  eb 89                jmp    $0x00007f0f051f1052 
  0x00007f0f051f1052  bf 01 00 00 00       mov    $0x00000001 -> %edi 
  0x00007f0f051f1057  31 c0                xor    %eax %eax -> %eax 
  0x00007f0f051f1059  8b 72 1c             mov    0x1c(%rdx)[4byte] -> %esi 
  0x00007f0f051f105c  f0 0f b1 3a          lock cmpxchg %edi (%rdx)[4byte] %eax -> (%rdx)[4byte] %eax 
  0x00007f0f051f1060  74 16                jz     $0x00007f0f051f1078 
Actual: 7f0f051f1078

Block 61:
  0x00007f0f051f1078  8b 42 18             mov    0x18(%rdx)[4byte] -> %eax 
  0x00007f0f051f107b  0b 42 04             or     0x04(%rdx)[4byte] %eax -> %eax 
  0x00007f0f051f107e  0f 85 bc 00 00 00    jnz    $0x00007f0f051f1140 
Actual: 7f0f051f1084

Block 62:
  0x00007f0f051f1084  64 8b 04 25 d0 02 00 mov    %fs:0x000002d0[4byte] -> %eax 
                      00
  0x00007f0f051f108c  89 42 18             mov    %eax -> 0x18(%rdx)[4byte] 
  0x00007f0f051f108f  90                   nop    
  0x00007f0f051f1090  8b 72 1c             mov    0x1c(%rdx)[4byte] -> %esi 
  0x00007f0f051f1093  f0 ff 0a             lock dec    (%rdx)[4byte] -> (%rdx)[4byte] 
  0x00007f0f051f1096  74 16                jz     $0x00007f0f051f10ae 
Actual: 7f0f051f10ae

Block 63:
  0x00007f0f051f10ae  31 c0                xor    %eax %eax -> %eax 
  0x00007f0f051f10b0  c3                   ret    %rsp (%rsp)[8byte] -> %rsp 
Actual: 7f0f048182db

Block 64:
  0x00007f0f048182db  4f 8b 34 fc          mov    (%r12,%r15,8)[8byte] -> %r14 
  0x00007f0f048182df  48 89 ef             mov    %rbp -> %rdi 
  0x00007f0f048182e2  4c 89 f6             mov    %r14 -> %rsi 
  0x00007f0f048182e5  e8 b6 c4 05 00       call   $0x00007f0f048747a0 %rsp -> %rsp 0xfffffff8(%rsp)[8byte] 
  0x00007f0f048747a0  89 f1                mov    %esi -> %ecx 
  0x00007f0f048747a2  89 f8                mov    %edi -> %eax 
  0x00007f0f048747a4  48 83 e1 3f          and    $0x000000000000003f %rcx -> %rcx 
  0x00007f0f048747a8  48 83 e0 3f          and    $0x000000000000003f %rax -> %rax 
  0x00007f0f048747ac  83 f9 30             cmp    %ecx $0x00000030 
  0x00007f0f048747af  77 3f                jnbe   $0x00007f0f048747f0 
Actual: 7f0f048747f0

Block 65:
  0x00007f0f048747f0  48 83 e6 f0          and    $0xfffffffffffffff0 %rsi -> %rsi 
  0x00007f0f048747f4  48 83 e7 f0          and    $0xfffffffffffffff0 %rdi -> %rdi 
  0x00007f0f048747f8  ba ff ff 00 00       mov    $0x0000ffff -> %edx 
  0x00007f0f048747fd  45 31 c0             xor    %r8d %r8d -> %r8d 
  0x00007f0f04874800  83 e1 0f             and    $0x0000000f %ecx -> %ecx 
  0x00007f0f04874803  83 e0 0f             and    $0x0000000f %eax -> %eax 
  0x00007f0f04874806  39 c1                cmp    %ecx %eax 
  0x00007f0f04874808  74 26                jz     $0x00007f0f04874830 
Actual: 7f0f0487480a

Block 66:
  0x00007f0f0487480a  77 07                jnbe   $0x00007f0f04874813 
Actual: 7f0f04874813

Block 67:
  0x00007f0f04874813  4c 8d 48 0f          lea    0x0f(%rax) -> %r9 
  0x00007f0f04874817  49 29 c9             sub    %rcx %r9 -> %r9 
  0x00007f0f0487481a  4c 8d 15 af d4 0f 00 lea    <rel> 0x00007f0f04971cd0 -> %r10 
  0x00007f0f04874821  4f 63 0c 8a          movsxd (%r10,%r9,4)[4byte] -> %r9 
  0x00007f0f04874825  4f 8d 14 0a          lea    (%r10,%r9,1) -> %r10 
  0x00007f0f04874829  41 ff e2             jmp    %r10 
Actual: 7f0f04875910

Block 68:
  0x00007f0f04875910  66 0f ef c0          pxor   %xmm0 %xmm0 -> %xmm0 
  0x00007f0f04875914  66 0f 6f 17          movdqa (%rdi)[16byte] -> %xmm2 
  0x00007f0f04875918  66 0f 6f 0e          movdqa (%rsi)[16byte] -> %xmm1 
  0x00007f0f0487591c  66 0f 74 c1          pcmpeqb %xmm1 %xmm0 -> %xmm0 
  0x00007f0f04875920  66 0f 73 fa 02       pslldq $0x02 %xmm2 -> %xmm2 
  0x00007f0f04875925  66 0f 74 d1          pcmpeqb %xmm1 %xmm2 -> %xmm2 
  0x00007f0f04875929  66 0f f8 d0          psubb  %xmm0 %xmm2 -> %xmm2 
  0x00007f0f0487592d  66 44 0f d7 ca       pmovmskb %xmm2 -> %r9d 
  0x00007f0f04875932  d3 ea                shr    %cl %edx -> %edx 
  0x00007f0f04875934  41 d3 e9             shr    %cl %r9d -> %r9d 
  0x00007f0f04875937  44 29 ca             sub    %r9d %edx -> %edx 
  0x00007f0f0487593a  0f 85 55 02 00 00    jnz    $0x00007f0f04875b95 
Actual: 7f0f04875b95

Block 69:
  0x00007f0f04875b95  48 8d 3c 07          lea    (%rdi,%rax,1) -> %rdi 
  0x00007f0f04875b99  48 8d 34 0e          lea    (%rsi,%rcx,1) -> %rsi 
  0x00007f0f04875b9d  45 85 c0             test   %r8d %r8d 
  0x00007f0f04875ba0  74 0e                jz     $0x00007f0f04875bb0 
Actual: 7f0f04875bb0

Block 70:
  0x00007f0f04875bb0  48 0f bc d2          bsf    %rdx -> %rdx 
  0x00007f0f04875bb4  0f b6 0c 16          movzx  (%rsi,%rdx,1)[1byte] -> %ecx 
  0x00007f0f04875bb8  0f b6 04 17          movzx  (%rdi,%rdx,1)[1byte] -> %eax 
  0x00007f0f04875bbc  29 c8                sub    %ecx %eax -> %eax 
  0x00007f0f04875bbe  c3                   ret    %rsp (%rsp)[8byte] -> %rsp 
Actual: 7f0f048182ea

Block 71:
  0x00007f0f048182ea  85 c0                test   %eax %eax 
  0x00007f0f048182ec  0f 85 56 fe ff ff    jnz    $0x00007f0f04818148 
Actual: 7f0f04818148

Block 72:
  0x00007f0f04818148  48 8d 3d d7 e7 15 00 lea    <rel> 0x00007f0f04976926 -> %rdi 
  0x00007f0f0481814f  48 c7 44 24 20 00 00 mov    $0x0000000000000000 -> 0x20(%rsp)[8byte] 
                      00 00
  0x00007f0f04818158  48 c7 44 24 28 00 00 mov    $0x0000000000000000 -> 0x28(%rsp)[8byte] 
                      00 00
  0x00007f0f04818161  e8 0a e8 00 00       call   $0x00007f0f04826970 %rsp -> %rsp 0xfffffff8(%rsp)[8byte] 
  0x00007f0f04826970  41 57                push   %r15 %rsp -> %rsp 0xfffffff8(%rsp)[8byte] 
  0x00007f0f04826972  41 56                push   %r14 %rsp -> %rsp 0xfffffff8(%rsp)[8byte] 
  0x00007f0f04826974  49 89 ff             mov    %rdi -> %r15 
  0x00007f0f04826977  41 55                push   %r13 %rsp -> %rsp 0xfffffff8(%rsp)[8byte] 
  0x00007f0f04826979  41 54                push   %r12 %rsp -> %rsp 0xfffffff8(%rsp)[8byte] 
  0x00007f0f0482697b  55                   push   %rbp %rsp -> %rsp 0xfffffff8(%rsp)[8byte] 
  0x00007f0f0482697c  53                   push   %rbx %rsp -> %rsp 0xfffffff8(%rsp)[8byte] 
  0x00007f0f0482697d  48 83 ec 08          sub    $0x0000000000000008 %rsp -> %rsp 
  0x00007f0f04826981  e8 2a f8 04 00       call   $0x00007f0f048761b0 %rsp -> %rsp 0xfffffff8(%rsp)[8byte] 
  0x00007f0f048761b0  66 0f ef c0          pxor   %xmm0 %xmm0 -> %xmm0 
  0x00007f0f048761b4  66 0f ef c9          pxor   %xmm1 %xmm1 -> %xmm1 
  0x00007f0f048761b8  66 0f ef d2          pxor   %xmm2 %xmm2 -> %xmm2 
  0x00007f0f048761bc  66 0f ef db          pxor   %xmm3 %xmm3 -> %xmm3 
  0x00007f0f048761c0  48 89 f8             mov    %rdi -> %rax 
  0x00007f0f048761c3  48 89 f9             mov    %rdi -> %rcx 
  0x00007f0f048761c6  48 81 e1 ff 0f 00 00 and    $0x0000000000000fff %rcx -> %rcx 
  0x00007f0f048761cd  48 81 f9 cf 0f 00 00 cmp    %rcx $0x0000000000000fcf 
  0x00007f0f048761d4  77 6a                jnbe   $0x00007f0f04876240 
Actual: 7f0f048761d6

Block 73:
  0x00007f0f048761d6  f3 0f 6f 20          movdqu (%rax)[16byte] -> %xmm4 
  0x00007f0f048761da  66 0f 74 e0          pcmpeqb %xmm0 %xmm4 -> %xmm4 
  0x00007f0f048761de  66 0f d7 d4          pmovmskb %xmm4 -> %edx 
  0x00007f0f048761e2  85 d2                test   %edx %edx 
  0x00007f0f048761e4  74 04                jz     $0x00007f0f048761ea 
Actual: 7f0f048761e6

Block 74:
  0x00007f0f048761e6  0f bc c2             bsf    %edx -> %eax 
  0x00007f0f048761e9  c3                   ret    %rsp (%rsp)[8byte] -> %rsp 
Actual: 7f0f04826986

Block 75:
  0x00007f0f04826986  49 89 c5             mov    %rax -> %r13 
  0x00007f0f04826989  48 8b 05 18 35 38 00 mov    <rel> 0x00007f0f04ba9ea8[8byte] -> %rax 
  0x00007f0f04826990  48 8b 28             mov    (%rax)[8byte] -> %rbp 
  0x00007f0f04826993  48 85 ed             test   %rbp %rbp 
  0x00007f0f04826996  0f 84 ac 00 00 00    jz     $0x00007f0f04826a48 
Actual: 7f0f0482699c

Block 76:
  0x00007f0f0482699c  41 0f b6 07          movzx  (%r15)[1byte] -> %eax 
  0x00007f0f048269a0  84 c0                test   %al %al 
  0x00007f0f048269a2  0f 84 a0 00 00 00    jz     $0x00007f0f04826a48 
Actual: 7f0f048269a8

Block 77:
  0x00007f0f048269a8  41 80 7f 01 00       cmp    0x01(%r15)[1byte] $0x00 
  0x00007f0f048269ad  75 41                jnz    $0x00007f0f048269f0 
Actual: 7f0f048269f0

Block 78:
  0x00007f0f048269f0  48 8b 5d 00          mov    0x00(%rbp)[8byte] -> %rbx 
  0x00007f0f048269f4  45 0f b7 27          movzx  (%r15)[2byte] -> %r12d 
  0x00007f0f048269f8  49 83 c7 02          add    $0x0000000000000002 %r15 -> %r15 
  0x00007f0f048269fc  4d 8d 75 fe          lea    0xfffffffe(%r13) -> %r14 
  0x00007f0f04826a00  48 85 db             test   %rbx %rbx 
  0x00007f0f04826a03  75 18                jnz    $0x00007f0f04826a1d 
Actual: 7f0f04826a1d

Block 79:
  0x00007f0f04826a1d  66 44 3b 23          data16 cmp    %r12w (%rbx)[2byte] 
  0x00007f0f04826a21  75 ed                jnz    $0x00007f0f04826a10 
Actual: 7f0f04826a10

Block 80:
  0x00007f0f04826a10  48 83 c5 08          add    $0x0000000000000008 %rbp -> %rbp 
  0x00007f0f04826a14  48 8b 5d 00          mov    0x00(%rbp)[8byte] -> %rbx 
  0x00007f0f04826a18  48 85 db             test   %rbx %rbx 
  0x00007f0f04826a1b  74 b9                jz     $0x00007f0f048269d6 
Actual: 7f0f04826a1d

Block 81:
  0x00007f0f04826a23  48 8d 7b 02          lea    0x02(%rbx) -> %rdi 
  0x00007f0f04826a27  4c 89 f2             mov    %r14 -> %rdx 
  0x00007f0f04826a2a  4c 89 fe             mov    %r15 -> %rsi 
  0x00007f0f04826a2d  e8 ce fb 04 00       call   $0x00007f0f04876600 %rsp -> %rsp 0xfffffff8(%rsp)[8byte] 
  0x00007f0f04876600  48 85 d2             test   %rdx %rdx 
  0x00007f0f04876603  0f 84 2b 18 00 00    jz     $0x00007f0f04877e34 
Actual: 7f0f04876609

Block 82:
  0x00007f0f04876609  48 83 fa 01          cmp    %rdx $0x0000000000000001 
  0x00007f0f0487660d  0f 84 2d 18 00 00    jz     $0x00007f0f04877e40 
Actual: 7f0f04876613

Block 83:
  0x00007f0f04876613  49 89 d3             mov    %rdx -> %r11 
  0x00007f0f04876616  89 f1                mov    %esi -> %ecx 
  0x00007f0f04876618  89 f8                mov    %edi -> %eax 
  0x00007f0f0487661a  48 83 e1 3f          and    $0x000000000000003f %rcx -> %rcx 
  0x00007f0f0487661e  48 83 e0 3f          and    $0x000000000000003f %rax -> %rax 
  0x00007f0f04876622  83 f9 30             cmp    %ecx $0x00000030 
  0x00007f0f04876625  77 49                jnbe   $0x00007f0f04876670 
Actual: 7f0f04876627

Block 84:
  0x00007f0f04876627  83 f8 30             cmp    %eax $0x00000030 
  0x00007f0f0487662a  77 44                jnbe   $0x00007f0f04876670 
Actual: 7f0f0487662c

Block 85:
  0x00007f0f0487662c  66 0f 12 0f          movlpd (%rdi)[8byte] -> %xmm1[8byte] 
  0x00007f0f04876630  66 0f 12 16          movlpd (%rsi)[8byte] -> %xmm2[8byte] 
  0x00007f0f04876634  66 0f 16 4f 08       movhpd 0x08(%rdi)[8byte] -> %xmm1[8byte] 
  0x00007f0f04876639  66 0f 16 56 08       movhpd 0x08(%rsi)[8byte] -> %xmm2[8byte] 
  0x00007f0f0487663e  66 0f ef c0          pxor   %xmm0 %xmm0 -> %xmm0 
  0x00007f0f04876642  66 0f 74 c1          pcmpeqb %xmm1 %xmm0 -> %xmm0 
  0x00007f0f04876646  66 0f 74 ca          pcmpeqb %xmm2 %xmm1 -> %xmm1 
  0x00007f0f0487664a  66 0f f8 c8          psubb  %xmm0 %xmm1 -> %xmm1 
  0x00007f0f0487664e  66 0f d7 d1          pmovmskb %xmm1 -> %edx 
  0x00007f0f04876652  81 ea ff ff 00 00    sub    $0x0000ffff %edx -> %edx 
  0x00007f0f04876658  0f 85 c2 17 00 00    jnz    $0x00007f0f04877e20 
Actual: 7f0f04877e20

Block 86:
  0x00007f0f04877e20  48 0f bc d2          bsf    %rdx -> %rdx 
  0x00007f0f04877e24  49 29 d3             sub    %rdx %r11 -> %r11 
  0x00007f0f04877e27  76 0b                jbe    $0x00007f0f04877e34 
Actual: 7f0f04877e29

Block 87:
  0x00007f0f04877e29  0f b6 0c 16          movzx  (%rsi,%rdx,1)[1byte] -> %ecx 
  0x00007f0f04877e2d  0f b6 04 17          movzx  (%rdi,%rdx,1)[1byte] -> %eax 
  0x00007f0f04877e31  29 c8                sub    %ecx %eax -> %eax 
  0x00007f0f04877e33  c3                   ret    %rsp (%rsp)[8byte] -> %rsp 
Actual: 7f0f04826a32

Block 88:
  0x00007f0f04826a32  85 c0                test   %eax %eax 
  0x00007f0f04826a34  75 da                jnz    $0x00007f0f04826a10 
Actual: 7f0f04826a10

Block 89:
  0x00007f0f048269d6  48 83 c4 08          add    $0x0000000000000008 %rsp -> %rsp 
  0x00007f0f048269da  48 89 d8             mov    %rbx -> %rax 
  0x00007f0f048269dd  5b                   pop    %rsp (%rsp)[8byte] -> %rbx %rsp 
  0x00007f0f048269de  5d                   pop    %rsp (%rsp)[8byte] -> %rbp %rsp 
  0x00007f0f048269df  41 5c                pop    %rsp (%rsp)[8byte] -> %r12 %rsp 
  0x00007f0f048269e1  41 5d                pop    %rsp (%rsp)[8byte] -> %r13 %rsp 
  0x00007f0f048269e3  41 5e                pop    %rsp (%rsp)[8byte] -> %r14 %rsp 
  0x00007f0f048269e5  41 5f                pop    %rsp (%rsp)[8byte] -> %r15 %rsp 
  0x00007f0f048269e7  c3                   ret    %rsp (%rsp)[8byte] -> %rsp 
Actual: 7f0f04818166

Block 90:
  0x00007f0f04818166  48 85 c0             test   %rax %rax 
  0x00007f0f04818169  74 09                jz     $0x00007f0f04818174 
Actual: 7f0f04818174

Block 91:
  0x00007f0f04818174  83 fb 06             cmp    %ebx $0x00000006 
  0x00007f0f04818177  0f 85 d3 02 00 00    jnz    $0x00007f0f04818450 
Actual: 7f0f0481817d

Block 92:
  0x00007f0f0481817d  be 3b 00 00 00       mov    $0x0000003b -> %esi 
  0x00007f0f04818182  48 89 ef             mov    %rbp -> %rdi 
  0x00007f0f04818185  48 89 6c 24 30       mov    %rbp -> 0x30(%rsp)[8byte] 
  0x00007f0f0481818a  48 89 6c 24 38       mov    %rbp -> 0x38(%rsp)[8byte] 
  0x00007f0f0481818f  48 89 6c 24 40       mov    %rbp -> 0x40(%rsp)[8byte] 
  0x00007f0f04818194  48 89 6c 24 48       mov    %rbp -> 0x48(%rsp)[8byte] 
  0x00007f0f04818199  48 89 6c 24 50       mov    %rbp -> 0x50(%rsp)[8byte] 
  0x00007f0f0481819e  48 89 6c 24 58       mov    %rbp -> 0x58(%rsp)[8byte] 
  0x00007f0f048181a3  48 89 6c 24 68       mov    %rbp -> 0x68(%rsp)[8byte] 
  0x00007f0f048181a8  48 89 6c 24 70       mov    %rbp -> 0x70(%rsp)[8byte] 
  0x00007f0f048181ad  48 89 6c 24 78       mov    %rbp -> 0x78(%rsp)[8byte] 
  0x00007f0f048181b2  48 89 ac 24 80 00 00 mov    %rbp -> 0x00000080(%rsp)[8byte] 
                      00
  0x00007f0f048181ba  48 89 ac 24 88 00 00 mov    %rbp -> 0x00000088(%rsp)[8byte] 
                      00
  0x00007f0f048181c2  48 89 ac 24 90 00 00 mov    %rbp -> 0x00000090(%rsp)[8byte] 
                      00
  0x00007f0f048181ca  e8 71 c3 05 00       call   $0x00007f0f04874540 %rsp -> %rsp 0xfffffff8(%rsp)[8byte] 
  0x00007f0f04874540  66 0f 6e ce          movd   %esi -> %xmm1 
  0x00007f0f04874544  89 f8                mov    %edi -> %eax 
  0x00007f0f04874546  25 ff 0f 00 00       and    $0x00000fff %eax -> %eax 
  0x00007f0f0487454b  66 0f 60 c9          punpcklbw %xmm1 %xmm1 -> %xmm1 
  0x00007f0f0487454f  3d c0 0f 00 00       cmp    %eax $0x00000fc0 
  0x00007f0f04874554  66 0f 61 c9          punpcklwd %xmm1 %xmm1 -> %xmm1 
  0x00007f0f04874558  66 0f 70 c9 00       pshufd %xmm1 $0x00 -> %xmm1 
  0x00007f0f0487455d  0f 8f 5d 01 00 00    jnle   $0x00007f0f048746c0 
Actual: 7f0f04874563

Block 93:
  0x00007f0f04874563  f3 0f 6f 07          movdqu (%rdi)[16byte] -> %xmm0 
  0x00007f0f04874567  66 0f ef db          pxor   %xmm3 %xmm3 -> %xmm3 
  0x00007f0f0487456b  66 0f 6f e0          movdqa %xmm0 -> %xmm4 
  0x00007f0f0487456f  66 0f 74 c1          pcmpeqb %xmm1 %xmm0 -> %xmm0 
  0x00007f0f04874573  66 0f 74 e3          pcmpeqb %xmm3 %xmm4 -> %xmm4 
  0x00007f0f04874577  66 0f eb c4          por    %xmm4 %xmm0 -> %xmm0 
  0x00007f0f0487457b  66 0f d7 c0          pmovmskb %xmm0 -> %eax 
  0x00007f0f0487457f  85 c0                test   %eax %eax 
  0x00007f0f04874581  74 15                jz     $0x00007f0f04874598 
Actual: 7f0f04874583

Block 94:
  0x00007f0f04874583  0f bc c0             bsf    %eax -> %eax 
  0x00007f0f04874586  ba 00 00 00 00       mov    $0x00000000 -> %edx 
  0x00007f0f0487458b  48 8d 04 07          lea    (%rdi,%rax,1) -> %rax 
  0x00007f0f0487458f  40 38 30             cmp    (%rax)[1byte] %sil 
  0x00007f0f04874592  48 0f 45 c2          cmovnz %rdx %rax -> %rax 
  0x00007f0f04874596  c3                   ret    %rsp (%rsp)[8byte] -> %rsp 
Actual: 7f0f048181cf

Block 95:
  0x00007f0f048181cf  48 85 c0             test   %rax %rax 
  0x00007f0f048181d2  48 89 44 24 18       mov    %rax -> 0x18(%rsp)[8byte] 
  0x00007f0f048181d7  0f 84 f3 05 00 00    jz     $0x00007f0f048187d0 
Actual: 7f0f048187d0

Block 96:
  0x00007f0f048187d0  48 8d 5c 24 30       lea    0x30(%rsp) -> %rbx 
  0x00007f0f048187d5  e9 52 fe ff ff       jmp    $0x00007f0f0481862c 
  0x00007f0f0481862c  41 bd 0c 00 00 00    mov    $0x0000000c -> %r13d 
  0x00007f0f04818632  c7 44 24 14 0d 00 00 mov    $0x0000000d -> 0x14(%rsp)[4byte] 
                      00
  0x00007f0f0481863a  eb 27                jmp    $0x00007f0f04818663 
  0x00007f0f04818663  4d 63 f5             movsxd %r13d -> %r14 
  0x00007f0f04818666  48 8b 74 24 28       mov    0x28(%rsp)[8byte] -> %rsi 
  0x00007f0f0481866b  48 8b 7c 24 20       mov    0x20(%rsp)[8byte] -> %rdi 
  0x00007f0f04818670  4a 8d 0c f3          lea    (%rbx,%r14,8) -> %rcx 
  0x00007f0f04818674  44 89 ea             mov    %r13d -> %edx 
  0x00007f0f04818677  e8 94 03 00 00       call   $0x00007f0f04818a10 %rsp -> %rsp 0xfffffff8(%rsp)[8byte] 
  0x00007f0f04818a10  55                   push   %rbp %rsp -> %rsp 0xfffffff8(%rsp)[8byte] 
  0x00007f0f04818a11  48 89 e5             mov    %rsp -> %rbp 
  0x00007f0f04818a14  41 57                push   %r15 %rsp -> %rsp 0xfffffff8(%rsp)[8byte] 
  0x00007f0f04818a16  41 56                push   %r14 %rsp -> %rsp 0xfffffff8(%rsp)[8byte] 
  0x00007f0f04818a18  41 55                push   %r13 %rsp -> %rsp 0xfffffff8(%rsp)[8byte] 
  0x00007f0f04818a1a  41 54                push   %r12 %rsp -> %rsp 0xfffffff8(%rsp)[8byte] 
  0x00007f0f04818a1c  49 89 fd             mov    %rdi -> %r13 
  0x00007f0f04818a1f  53                   push   %rbx %rsp -> %rsp 0xfffffff8(%rsp)[8byte] 
  0x00007f0f04818a20  49 89 f6             mov    %rsi -> %r14 
  0x00007f0f04818a23  89 d3                mov    %edx -> %ebx 
  0x00007f0f04818a25  49 89 cc             mov    %rcx -> %r12 
  0x00007f0f04818a28  48 83 ec 58          sub    $0x0000000000000058 %rsp -> %rsp 
  0x00007f0f04818a2c  4c 8b 39             mov    (%rcx)[8byte] -> %r15 
  0x00007f0f04818a2f  4c 89 7d a0          mov    %r15 -> 0xffffffa0(%rbp)[8byte] 
  0x00007f0f04818a33  41 80 3f 00          cmp    (%r15)[1byte] $0x00 
  0x00007f0f04818a37  0f 84 8b 00 00 00    jz     $0x00007f0f04818ac8 
Actual: 7f0f04818ac8

Block 97:
  0x00007f0f04818ac8  48 8d 3d 5f de 15 00 lea    <rel> 0x00007f0f0497692e -> %rdi 
  0x00007f0f04818acf  e8 9c de 00 00       call   $0x00007f0f04826970 %rsp -> %rsp 0xfffffff8(%rsp)[8byte] 
  0x00007f0f04826970  41 57                push   %r15 %rsp -> %rsp 0xfffffff8(%rsp)[8byte] 
  0x00007f0f04826972  41 56                push   %r14 %rsp -> %rsp 0xfffffff8(%rsp)[8byte] 
  0x00007f0f04826974  49 89 ff             mov    %rdi -> %r15 
  0x00007f0f04826977  41 55                push   %r13 %rsp -> %rsp 0xfffffff8(%rsp)[8byte] 
  0x00007f0f04826979  41 54                push   %r12 %rsp -> %rsp 0xfffffff8(%rsp)[8byte] 
  0x00007f0f0482697b  55                   push   %rbp %rsp -> %rsp 0xfffffff8(%rsp)[8byte] 
  0x00007f0f0482697c  53                   push   %rbx %rsp -> %rsp 0xfffffff8(%rsp)[8byte] 
  0x00007f0f0482697d  48 83 ec 08          sub    $0x0000000000000008 %rsp -> %rsp 
  0x00007f0f04826981  e8 2a f8 04 00       call   $0x00007f0f048761b0 %rsp -> %rsp 0xfffffff8(%rsp)[8byte] 
  0x00007f0f048761b0  66 0f ef c0          pxor   %xmm0 %xmm0 -> %xmm0 
  0x00007f0f048761b4  66 0f ef c9          pxor   %xmm1 %xmm1 -> %xmm1 
  0x00007f0f048761b8  66 0f ef d2          pxor   %xmm2 %xmm2 -> %xmm2 
  0x00007f0f048761bc  66 0f ef db          pxor   %xmm3 %xmm3 -> %xmm3 
  0x00007f0f048761c0  48 89 f8             mov    %rdi -> %rax 
  0x00007f0f048761c3  48 89 f9             mov    %rdi -> %rcx 
  0x00007f0f048761c6  48 81 e1 ff 0f 00 00 and    $0x0000000000000fff %rcx -> %rcx 
  0x00007f0f048761cd  48 81 f9 cf 0f 00 00 cmp    %rcx $0x0000000000000fcf 
  0x00007f0f048761d4  77 6a                jnbe   $0x00007f0f04876240 
Actual: 7f0f048761d6

Block 98:
  0x00007f0f04818ad4  48 85 c0             test   %rax %rax 
  0x00007f0f04818ad7  48 89 45 a0          mov    %rax -> 0xffffffa0(%rbp)[8byte] 
  0x00007f0f04818adb  74 05                jz     $0x00007f0f04818ae2 
Actual: 7f0f04818ae2

Block 99:
  0x00007f0f04818ae2  48 8d 05 27 6f 14 00 lea    <rel> 0x00007f0f0495fa10 -> %rax 
  0x00007f0f04818ae9  4c 63 d3             movsxd %ebx -> %r10 
  0x00007f0f04818aec  4c 89 55 98          mov    %r10 -> 0xffffff98(%rbp)[8byte] 
  0x00007f0f04818af0  42 0f b6 3c 10       movzx  (%rax,%r10,1)[1byte] -> %edi 
  0x00007f0f04818af5  48 8d 05 24 6f 14 00 lea    <rel> 0x00007f0f0495fa20 -> %rax 
  0x00007f0f04818afc  48 01 c7             add    %rax %rdi -> %rdi 
  0x00007f0f04818aff  e8 6c de 00 00       call   $0x00007f0f04826970 %rsp -> %rsp 0xfffffff8(%rsp)[8byte] 
  0x00007f0f04826970  41 57                push   %r15 %rsp -> %rsp 0xfffffff8(%rsp)[8byte] 
  0x00007f0f04826972  41 56                push   %r14 %rsp -> %rsp 0xfffffff8(%rsp)[8byte] 
  0x00007f0f04826974  49 89 ff             mov    %rdi -> %r15 
  0x00007f0f04826977  41 55                push   %r13 %rsp -> %rsp 0xfffffff8(%rsp)[8byte] 
  0x00007f0f04826979  41 54                push   %r12 %rsp -> %rsp 0xfffffff8(%rsp)[8byte] 
  0x00007f0f0482697b  55                   push   %rbp %rsp -> %rsp 0xfffffff8(%rsp)[8byte] 
  0x00007f0f0482697c  53                   push   %rbx %rsp -> %rsp 0xfffffff8(%rsp)[8byte] 
  0x00007f0f0482697d  48 83 ec 08          sub    $0x0000000000000008 %rsp -> %rsp 
  0x00007f0f04826981  e8 2a f8 04 00       call   $0x00007f0f048761b0 %rsp -> %rsp 0xfffffff8(%rsp)[8byte] 
  0x00007f0f048761b0  66 0f ef c0          pxor   %xmm0 %xmm0 -> %xmm0 
  0x00007f0f048761b4  66 0f ef c9          pxor   %xmm1 %xmm1 -> %xmm1 
  0x00007f0f048761b8  66 0f ef d2          pxor   %xmm2 %xmm2 -> %xmm2 
  0x00007f0f048761bc  66 0f ef db          pxor   %xmm3 %xmm3 -> %xmm3 
  0x00007f0f048761c0  48 89 f8             mov    %rdi -> %rax 
  0x00007f0f048761c3  48 89 f9             mov    %rdi -> %rcx 
  0x00007f0f048761c6  48 81 e1 ff 0f 00 00 and    $0x0000000000000fff %rcx -> %rcx 
  0x00007f0f048761cd  48 81 f9 cf 0f 00 00 cmp    %rcx $0x0000000000000fcf 
  0x00007f0f048761d4  77 6a                jnbe   $0x00007f0f04876240 
Actual: 7f0f048761d6

Block 100:
  0x00007f0f048761ea  48 83 e0 f0          and    $0xfffffffffffffff0 %rax -> %rax 
  0x00007f0f048761ee  66 0f 74 48 10       pcmpeqb 0x10(%rax)[16byte] %xmm1 -> %xmm1 
  0x00007f0f048761f3  66 0f 74 50 20       pcmpeqb 0x20(%rax)[16byte] %xmm2 -> %xmm2 
  0x00007f0f048761f8  66 0f 74 58 30       pcmpeqb 0x30(%rax)[16byte] %xmm3 -> %xmm3 
  0x00007f0f048761fd  66 0f d7 d1          pmovmskb %xmm1 -> %edx 
  0x00007f0f04876201  66 44 0f d7 c2       pmovmskb %xmm2 -> %r8d 
  0x00007f0f04876206  66 0f d7 cb          pmovmskb %xmm3 -> %ecx 
  0x00007f0f0487620a  48 c1 e2 10          shl    $0x0000000000000010 %rdx -> %rdx 
  0x00007f0f0487620e  48 c1 e1 10          shl    $0x0000000000000010 %rcx -> %rcx 
  0x00007f0f04876212  4c 09 c1             or     %r8 %rcx -> %rcx 
  0x00007f0f04876215  48 c1 e1 20          shl    $0x0000000000000020 %rcx -> %rcx 
  0x00007f0f04876219  48 09 ca             or     %rcx %rdx -> %rdx 
  0x00007f0f0487621c  48 89 f9             mov    %rdi -> %rcx 
  0x00007f0f0487621f  48 31 c1             xor    %rax %rcx -> %rcx 
  0x00007f0f04876222  48 83 e0 c0          and    $0xffffffffffffffc0 %rax -> %rax 
  0x00007f0f04876226  48 d3 fa             sar    %cl %rdx -> %rdx 
  0x00007f0f04876229  48 85 d2             test   %rdx %rdx 
  0x00007f0f0487622c  0f 84 7e 00 00 00    jz     $0x00007f0f048762b0 
Actual: 7f0f04876232

Block 101:
  0x00007f0f04876232  48 0f bc c2          bsf    %rdx -> %rax 
  0x00007f0f04876236  c3                   ret    %rsp (%rsp)[8byte] -> %rsp 
Actual: 7f0f04826986

Block 102:
  0x00007f0f04818b04  48 85 c0             test   %rax %rax 
  0x00007f0f04818b07  48 89 45 a0          mov    %rax -> 0xffffffa0(%rbp)[8byte] 
  0x00007f0f04818b0b  4c 8b 55 98          mov    0xffffff98(%rbp)[8byte] -> %r10 
  0x00007f0f04818b0f  74 05                jz     $0x00007f0f04818b16 
Actual: 7f0f04818b16

Block 103:
  0x00007f0f04818b16  48 8d 3d 18 de 15 00 lea    <rel> 0x00007f0f04976935 -> %rdi 
  0x00007f0f04818b1d  4c 89 55 98          mov    %r10 -> 0xffffff98(%rbp)[8byte] 
  0x00007f0f04818b21  e8 4a de 00 00       call   $0x00007f0f04826970 %rsp -> %rsp 0xfffffff8(%rsp)[8byte] 
  0x00007f0f04826970  41 57                push   %r15 %rsp -> %rsp 0xfffffff8(%rsp)[8byte] 
  0x00007f0f04826972  41 56                push   %r14 %rsp -> %rsp 0xfffffff8(%rsp)[8byte] 
  0x00007f0f04826974  49 89 ff             mov    %rdi -> %r15 
  0x00007f0f04826977  41 55                push   %r13 %rsp -> %rsp 0xfffffff8(%rsp)[8byte] 
  0x00007f0f04826979  41 54                push   %r12 %rsp -> %rsp 0xfffffff8(%rsp)[8byte] 
  0x00007f0f0482697b  55                   push   %rbp %rsp -> %rsp 0xfffffff8(%rsp)[8byte] 
  0x00007f0f0482697c  53                   push   %rbx %rsp -> %rsp 0xfffffff8(%rsp)[8byte] 
  0x00007f0f0482697d  48 83 ec 08          sub    $0x0000000000000008 %rsp -> %rsp 
  0x00007f0f04826981  e8 2a f8 04 00       call   $0x00007f0f048761b0 %rsp -> %rsp 0xfffffff8(%rsp)[8byte] 
  0x00007f0f048761b0  66 0f ef c0          pxor   %xmm0 %xmm0 -> %xmm0 
  0x00007f0f048761b4  66 0f ef c9          pxor   %xmm1 %xmm1 -> %xmm1 
  0x00007f0f048761b8  66 0f ef d2          pxor   %xmm2 %xmm2 -> %xmm2 
  0x00007f0f048761bc  66 0f ef db          pxor   %xmm3 %xmm3 -> %xmm3 
  0x00007f0f048761c0  48 89 f8             mov    %rdi -> %rax 
  0x00007f0f048761c3  48 89 f9             mov    %rdi -> %rcx 
  0x00007f0f048761c6  48 81 e1 ff 0f 00 00 and    $0x0000000000000fff %rcx -> %rcx 
  0x00007f0f048761cd  48 81 f9 cf 0f 00 00 cmp    %rcx $0x0000000000000fcf 
  0x00007f0f048761d4  77 6a                jnbe   $0x00007f0f04876240 
Actual: 7f0f048761d6

Block 104:
  0x00007f0f04876670  48 83 e6 f0          and    $0xfffffffffffffff0 %rsi -> %rsi 
  0x00007f0f04876674  48 83 e7 f0          and    $0xfffffffffffffff0 %rdi -> %rdi 
  0x00007f0f04876678  ba ff ff 00 00       mov    $0x0000ffff -> %edx 
  0x00007f0f0487667d  45 31 c0             xor    %r8d %r8d -> %r8d 
  0x00007f0f04876680  83 e1 0f             and    $0x0000000f %ecx -> %ecx 
  0x00007f0f04876683  83 e0 0f             and    $0x0000000f %eax -> %eax 
  0x00007f0f04876686  39 c1                cmp    %ecx %eax 
  0x00007f0f04876688  74 26                jz     $0x00007f0f048766b0 
Actual: 7f0f048766b0

Block 105:
  0x00007f0f048766b0  66 0f 6f 0e          movdqa (%rsi)[16byte] -> %xmm1 
  0x00007f0f048766b4  66 0f ef c0          pxor   %xmm0 %xmm0 -> %xmm0 
  0x00007f0f048766b8  66 0f 74 c1          pcmpeqb %xmm1 %xmm0 -> %xmm0 
  0x00007f0f048766bc  66 0f 74 0f          pcmpeqb (%rdi)[16byte] %xmm1 -> %xmm1 
  0x00007f0f048766c0  66 0f f8 c8          psubb  %xmm0 %xmm1 -> %xmm1 
  0x00007f0f048766c4  66 44 0f d7 c9       pmovmskb %xmm1 -> %r9d 
  0x00007f0f048766c9  d3 ea                shr    %cl %edx -> %edx 
  0x00007f0f048766cb  41 d3 e9             shr    %cl %r9d -> %r9d 
  0x00007f0f048766ce  44 29 ca             sub    %r9d %edx -> %edx 
  0x00007f0f048766d1  0f 85 2e 17 00 00    jnz    $0x00007f0f04877e05 
Actual: 7f0f04877e05

Block 106:
  0x00007f0f04877e05  48 8d 3c 07          lea    (%rdi,%rax,1) -> %rdi 
  0x00007f0f04877e09  48 8d 34 0e          lea    (%rsi,%rcx,1) -> %rsi 
  0x00007f0f04877e0d  45 85 c0             test   %r8d %r8d 
  0x00007f0f04877e10  74 0e                jz     $0x00007f0f04877e20 
Actual: 7f0f04877e20

Block 107:
  0x00007f0f04877e34  31 c0                xor    %eax %eax -> %eax 
  0x00007f0f04877e36  c3                   ret    %rsp (%rsp)[8byte] -> %rsp 
Actual: 7f0f04826a32

Block 108:
  0x00007f0f04826a36  42 80 3c 2b 3d       cmp    (%rbx,%r13,1)[1byte] $0x3d 
  0x00007f0f04826a3b  75 d3                jnz    $0x00007f0f04826a10 
Actual: 7f0f04826a3d

Block 109:
  0x00007f0f04826a3d  4a 8d 5c 2b 01       lea    0x01(%rbx,%r13,1) -> %rbx 
  0x00007f0f04826a42  eb 92                jmp    $0x00007f0f048269d6 
  0x00007f0f048269d6  48 83 c4 08          add    $0x0000000000000008 %rsp -> %rsp 
  0x00007f0f048269da  48 89 d8             mov    %rbx -> %rax 
  0x00007f0f048269dd  5b                   pop    %rsp (%rsp)[8byte] -> %rbx %rsp 
  0x00007f0f048269de  5d                   pop    %rsp (%rsp)[8byte] -> %rbp %rsp 
  0x00007f0f048269df  41 5c                pop    %rsp (%rsp)[8byte] -> %r12 %rsp 
  0x00007f0f048269e1  41 5d                pop    %rsp (%rsp)[8byte] -> %r13 %rsp 
  0x00007f0f048269e3  41 5e                pop    %rsp (%rsp)[8byte] -> %r14 %rsp 
  0x00007f0f048269e5  41 5f                pop    %rsp (%rsp)[8byte] -> %r15 %rsp 
  0x00007f0f048269e7  c3                   ret    %rsp (%rsp)[8byte] -> %rsp 
Actual: 7f0f04818b26

Block 110:
  0x00007f0f04818b26  48 85 c0             test   %rax %rax 
  0x00007f0f04818b29  48 89 45 a0          mov    %rax -> 0xffffffa0(%rbp)[8byte] 
  0x00007f0f04818b2d  4c 8b 55 98          mov    0xffffff98(%rbp)[8byte] -> %r10 
  0x00007f0f04818b31  0f 84 32 ff ff ff    jz     $0x00007f0f04818a69 
Actual: 7f0f04818b37

Block 111:
  0x00007f0f04818b37  80 38 00             cmp    (%rax)[1byte] $0x00 
  0x00007f0f04818b3a  0f 84 29 ff ff ff    jz     $0x00007f0f04818a69 
Actual: 7f0f04818b40

Block 112:
  0x00007f0f04818b40  49 89 c7             mov    %rax -> %r15 
  0x00007f0f04818b43  e9 f5 fe ff ff       jmp    $0x00007f0f04818a3d 
  0x00007f0f04818a3d  48 8d 35 b4 f1 15 00 lea    <rel> 0x00007f0f04977bf8 -> %rsi 
  0x00007f0f04818a44  4c 89 ff             mov    %r15 -> %rdi 
  0x00007f0f04818a47  e8 54 bd 05 00       call   $0x00007f0f048747a0 %rsp -> %rsp 0xfffffff8(%rsp)[8byte] 
  0x00007f0f048747a0  89 f1                mov    %esi -> %ecx 
  0x00007f0f048747a2  89 f8                mov    %edi -> %eax 
  0x00007f0f048747a4  48 83 e1 3f          and    $0x000000000000003f %rcx -> %rcx 
  0x00007f0f048747a8  48 83 e0 3f          and    $0x000000000000003f %rax -> %rax 
  0x00007f0f048747ac  83 f9 30             cmp    %ecx $0x00000030 
  0x00007f0f048747af  77 3f                jnbe   $0x00007f0f048747f0 
Actual: 7f0f048747f0

Block 113:
  0x00007f0f0487480c  41 89 d0             mov    %edx -> %r8d 
  0x00007f0f0487480f  91                   xchg   %ecx %eax -> %ecx %eax 
  0x00007f0f04874810  48 87 f7             xchg   %rdi %rsi -> %rdi %rsi 
  0x00007f0f04874813  4c 8d 48 0f          lea    0x0f(%rax) -> %r9 
  0x00007f0f04874817  49 29 c9             sub    %rcx %r9 -> %r9 
  0x00007f0f0487481a  4c 8d 15 af d4 0f 00 lea    <rel> 0x00007f0f04971cd0 -> %r10 
  0x00007f0f04874821  4f 63 0c 8a          movsxd (%r10,%r9,4)[4byte] -> %r9 
  0x00007f0f04874825  4f 8d 14 0a          lea    (%r10,%r9,1) -> %r10 
  0x00007f0f04874829  41 ff e2             jmp    %r10 
Actual: 7f0f04875910

Block 114:
  0x00007f0f04875ba2  48 87 f7             xchg   %rdi %rsi -> %rdi %rsi 
  0x00007f0f04875ba5  90                   nop    
  0x00007f0f04875ba6  66 2e 0f 1f 84 00 00 data16 nop    %cs:0x00000000(%rax,%rax,1)[4byte] 
                      00 00 00
  0x00007f0f04875bb0  48 0f bc d2          bsf    %rdx -> %rdx 
  0x00007f0f04875bb4  0f b6 0c 16          movzx  (%rsi,%rdx,1)[1byte] -> %ecx 
  0x00007f0f04875bb8  0f b6 04 17          movzx  (%rdi,%rdx,1)[1byte] -> %eax 
  0x00007f0f04875bbc  29 c8                sub    %ecx %eax -> %eax 
  0x00007f0f04875bbe  c3                   ret    %rsp (%rsp)[8byte] -> %rsp 
Actual: 7f0f04818a4c

Block 115:
  0x00007f0f04818a4c  85 c0                test   %eax %eax 
  0x00007f0f04818a4e  4c 63 d3             movsxd %ebx -> %r10 
  0x00007f0f04818a51  74 16                jz     $0x00007f0f04818a69 
Actual: 7f0f04818a53

Block 116:
  0x00007f0f04818a53  48 8d 35 af e0 15 00 lea    <rel> 0x00007f0f04976b09 -> %rsi 
  0x00007f0f04818a5a  4c 89 ff             mov    %r15 -> %rdi 
  0x00007f0f04818a5d  e8 3e bd 05 00       call   $0x00007f0f048747a0 %rsp -> %rsp 0xfffffff8(%rsp)[8byte] 
  0x00007f0f048747a0  89 f1                mov    %esi -> %ecx 
  0x00007f0f048747a2  89 f8                mov    %edi -> %eax 
  0x00007f0f048747a4  48 83 e1 3f          and    $0x000000000000003f %rcx -> %rcx 
  0x00007f0f048747a8  48 83 e0 3f          and    $0x000000000000003f %rax -> %rax 
  0x00007f0f048747ac  83 f9 30             cmp    %ecx $0x00000030 
  0x00007f0f048747af  77 3f                jnbe   $0x00007f0f048747f0 
Actual: 7f0f048747b1

Block 117:
  0x00007f0f048747b1  83 f8 30             cmp    %eax $0x00000030 
  0x00007f0f048747b4  77 3a                jnbe   $0x00007f0f048747f0 
Actual: 7f0f048747b6

Block 118:
  0x00007f0f048747b6  66 0f 12 0f          movlpd (%rdi)[8byte] -> %xmm1[8byte] 
  0x00007f0f048747ba  66 0f 12 16          movlpd (%rsi)[8byte] -> %xmm2[8byte] 
  0x00007f0f048747be  66 0f 16 4f 08       movhpd 0x08(%rdi)[8byte] -> %xmm1[8byte] 
  0x00007f0f048747c3  66 0f 16 56 08       movhpd 0x08(%rsi)[8byte] -> %xmm2[8byte] 
  0x00007f0f048747c8  66 0f ef c0          pxor   %xmm0 %xmm0 -> %xmm0 
  0x00007f0f048747cc  66 0f 74 c1          pcmpeqb %xmm1 %xmm0 -> %xmm0 
  0x00007f0f048747d0  66 0f 74 ca          pcmpeqb %xmm2 %xmm1 -> %xmm1 
  0x00007f0f048747d4  66 0f f8 c8          psubb  %xmm0 %xmm1 -> %xmm1 
  0x00007f0f048747d8  66 0f d7 d1          pmovmskb %xmm1 -> %edx 
  0x00007f0f048747dc  81 ea ff ff 00 00    sub    $0x0000ffff %edx -> %edx 
  0x00007f0f048747e2  0f 85 c8 13 00 00    jnz    $0x00007f0f04875bb0 
Actual: 7f0f04875bb0

Block 119:
  0x00007f0f04818a62  85 c0                test   %eax %eax 
  0x00007f0f04818a64  4c 63 d3             movsxd %ebx -> %r10 
  0x00007f0f04818a67  75 27                jnz    $0x00007f0f04818a90 
Actual: 7f0f04818a90

Block 120:
  0x00007f0f04818a90  4c 89 ff             mov    %r15 -> %rdi 
  0x00007f0f04818a93  e8 18 d7 05 00       call   $0x00007f0f048761b0 %rsp -> %rsp 0xfffffff8(%rsp)[8byte] 
  0x00007f0f048761b0  66 0f ef c0          pxor   %xmm0 %xmm0 -> %xmm0 
  0x00007f0f048761b4  66 0f ef c9          pxor   %xmm1 %xmm1 -> %xmm1 
  0x00007f0f048761b8  66 0f ef d2          pxor   %xmm2 %xmm2 -> %xmm2 
  0x00007f0f048761bc  66 0f ef db          pxor   %xmm3 %xmm3 -> %xmm3 
  0x00007f0f048761c0  48 89 f8             mov    %rdi -> %rax 
  0x00007f0f048761c3  48 89 f9             mov    %rdi -> %rcx 
  0x00007f0f048761c6  48 81 e1 ff 0f 00 00 and    $0x0000000000000fff %rcx -> %rcx 
  0x00007f0f048761cd  48 81 f9 cf 0f 00 00 cmp    %rcx $0x0000000000000fcf 
  0x00007f0f048761d4  77 6a                jnbe   $0x00007f0f04876240 
Actual: 7f0f048761d6

Block 121:
  0x00007f0f04818a98  48 3d ff 00 00 00    cmp    %rax $0x00000000000000ff 
  0x00007f0f04818a9e  0f 86 ac 00 00 00    jbe    $0x00007f0f04818b50 
Actual: 7f0f04818b50

Block 122:
  0x00007f0f04818b50  48 8d 15 69 6f 14 00 lea    <rel> 0x00007f0f0495fac0 -> %rdx 
  0x00007f0f04818b57  b9 04 00 00 00       mov    $0x00000004 -> %ecx 
  0x00007f0f04818b5c  48 89 c6             mov    %rax -> %rsi 
  0x00007f0f04818b5f  4c 89 ff             mov    %r15 -> %rdi 
  0x00007f0f04818b62  48 89 45 98          mov    %rax -> 0xffffff98(%rbp)[8byte] 
  0x00007f0f04818b66  e8 95 81 06 00       call   $0x00007f0f04880d00 %rsp -> %rsp 0xfffffff8(%rsp)[8byte] 
  0x00007f0f04880d00  48 85 c9             test   %rcx %rcx 
  0x00007f0f04880d03  0f 84 5f 02 00 00    jz     $0x00007f0f04880f68 
Actual: 7f0f04880d09

Block 123:
  0x00007f0f04880d09  48 39 f1             cmp    %rcx %rsi 
  0x00007f0f04880d0c  0f 87 ba 03 00 00    jnbe   $0x00007f0f048810cc 
Actual: 7f0f04880d12

Block 124:
  0x00007f0f04880d12  48 83 f9 1f          cmp    %rcx $0x000000000000001f 
  0x00007f0f04880d16  0f 87 7e 02 00 00    jnbe   $0x00007f0f04880f9a 
Actual: 7f0f04880d1c

Block 125:
  0x00007f0f04880d1c  41 57                push   %r15 %rsp -> %rsp 0xfffffff8(%rsp)[8byte] 
  0x00007f0f04880d1e  41 56                push   %r14 %rsp -> %rsp 0xfffffff8(%rsp)[8byte] 
  0x00007f0f04880d20  49 89 f6             mov    %rsi -> %r14 
  0x00007f0f04880d23  41 55                push   %r13 %rsp -> %rsp 0xfffffff8(%rsp)[8byte] 
  0x00007f0f04880d25  41 54                push   %r12 %rsp -> %rsp 0xfffffff8(%rsp)[8byte] 
  0x00007f0f04880d27  49 89 fc             mov    %rdi -> %r12 
  0x00007f0f04880d2a  55                   push   %rbp %rsp -> %rsp 0xfffffff8(%rsp)[8byte] 
  0x00007f0f04880d2b  53                   push   %rbx %rsp -> %rsp 0xfffffff8(%rsp)[8byte] 
  0x00007f0f04880d2c  48 89 d3             mov    %rdx -> %rbx 
  0x00007f0f04880d2f  48 89 cd             mov    %rcx -> %rbp 
  0x00007f0f04880d32  48 83 ec 18          sub    $0x0000000000000018 %rsp -> %rsp 
  0x00007f0f04880d36  0f b6 32             movzx  (%rdx)[1byte] -> %esi 
  0x00007f0f04880d39  4c 89 f2             mov    %r14 -> %rdx 
  0x00007f0f04880d3c  e8 4f 85 ff ff       call   $0x00007f0f04879290 %rsp -> %rsp 0xfffffff8(%rsp)[8byte] 
  0x00007f0f04879290  66 48 0f 6e ce       movd   %rsi -> %xmm1 
  0x00007f0f04879295  48 89 f9             mov    %rdi -> %rcx 
  0x00007f0f04879298  66 0f 60 c9          punpcklbw %xmm1 %xmm1 -> %xmm1 
  0x00007f0f0487929c  48 85 d2             test   %rdx %rdx 
  0x00007f0f0487929f  0f 84 2b 03 00 00    jz     $0x00007f0f048795d0 
Actual: 7f0f048792a5

Block 126:
  0x00007f0f048792a5  66 0f 60 c9          punpcklbw %xmm1 %xmm1 -> %xmm1 
  0x00007f0f048792a9  48 83 e1 3f          and    $0x000000000000003f %rcx -> %rcx 
  0x00007f0f048792ad  66 0f 70 c9 00       pshufd %xmm1 $0x00 -> %xmm1 
  0x00007f0f048792b2  48 83 f9 30          cmp    %rcx $0x0000000000000030 
  0x00007f0f048792b6  77 48                jnbe   $0x00007f0f04879300 
Actual: 7f0f048792b8

Block 127:
  0x00007f0f048792b8  f3 0f 6f 07          movdqu (%rdi)[16byte] -> %xmm0 
  0x00007f0f048792bc  66 0f 74 c1          pcmpeqb %xmm1 %xmm0 -> %xmm0 
  0x00007f0f048792c0  66 0f d7 c0          pmovmskb %xmm0 -> %eax 
  0x00007f0f048792c4  85 c0                test   %eax %eax 
  0x00007f0f048792c6  0f 85 c4 02 00 00    jnz    $0x00007f0f04879590 
Actual: 7f0f048792cc

Block 128:
  0x00007f0f048792cc  48 83 ea 10          sub    $0x0000000000000010 %rdx -> %rdx 
  0x00007f0f048792d0  0f 86 fa 02 00 00    jbe    $0x00007f0f048795d0 
Actual: 7f0f048795d0

Block 129:
  0x00007f0f048795d0  48 31 c0             xor    %rax %rax -> %rax 
  0x00007f0f048795d3  c3                   ret    %rsp (%rsp)[8byte] -> %rsp 
Actual: 7f0f04880d41

Block 130:
  0x00007f0f04880d41  48 85 c0             test   %rax %rax 
  0x00007f0f04880d44  49 89 c5             mov    %rax -> %r13 
  0x00007f0f04880d47  0f 84 c3 01 00 00    jz     $0x00007f0f04880f10 
Actual: 7f0f04880f10

Block 131:
  0x00007f0f04880f10  31 c0                xor    %eax %eax -> %eax 
  0x00007f0f04880f12  48 83 c4 18          add    $0x0000000000000018 %rsp -> %rsp 
  0x00007f0f04880f16  5b                   pop    %rsp (%rsp)[8byte] -> %rbx %rsp 
  0x00007f0f04880f17  5d                   pop    %rsp (%rsp)[8byte] -> %rbp %rsp 
  0x00007f0f04880f18  41 5c                pop    %rsp (%rsp)[8byte] -> %r12 %rsp 
  0x00007f0f04880f1a  41 5d                pop    %rsp (%rsp)[8byte] -> %r13 %rsp 
  0x00007f0f04880f1c  41 5e                pop    %rsp (%rsp)[8byte] -> %r14 %rsp 
  0x00007f0f04880f1e  41 5f                pop    %rsp (%rsp)[8byte] -> %r15 %rsp 
  0x00007f0f04880f20  c3                   ret    %rsp (%rsp)[8byte] -> %rsp 
Actual: 7f0f04818b6b

Block 132:
  0x00007f0f04818b6b  48 85 c0             test   %rax %rax 
  0x00007f0f04818b6e  4c 8b 45 98          mov    0xffffff98(%rbp)[8byte] -> %r8 
  0x00007f0f04818b72  0f 85 2c ff ff ff    jnz    $0x00007f0f04818aa4 
Actual: 7f0f04818b78

Block 133:
  0x00007f0f04818b78  49 83 f8 02          cmp    %r8 $0x0000000000000002 
  0x00007f0f04818b7c  0f 84 b6 05 00 00    jz     $0x00007f0f04819138 
Actual: 7f0f04818b82

Block 134:
  0x00007f0f04818b82  76 16                jbe    $0x00007f0f04818b9a 
Actual: 7f0f04818b84

Block 135:
  0x00007f0f04818b84  41 80 3f 2e          cmp    (%r15)[1byte] $0x2e 
  0x00007f0f04818b88  0f 84 2a 06 00 00    jz     $0x00007f0f048191b8 
Actual: 7f0f04818b8e

Block 136:
  0x00007f0f04818b8e  43 80 7c 07 fd 2f    cmp    0xfffffffd(%r15,%r8,1)[1byte] $0x2f 
  0x00007f0f04818b94  0f 84 fc 05 00 00    jz     $0x00007f0f04819196 
Actual: 7f0f04818b9a

Block 137:
  0x00007f0f04818b9a  4c 89 c2             mov    %r8 -> %rdx 
  0x00007f0f04818b9d  be 2f 00 00 00       mov    $0x0000002f -> %esi 
  0x00007f0f04818ba2  4c 89 ff             mov    %r15 -> %rdi 
  0x00007f0f04818ba5  e8 e6 06 06 00       call   $0x00007f0f04879290 %rsp -> %rsp 0xfffffff8(%rsp)[8byte] 
  0x00007f0f04879290  66 48 0f 6e ce       movd   %rsi -> %xmm1 
  0x00007f0f04879295  48 89 f9             mov    %rdi -> %rcx 
  0x00007f0f04879298  66 0f 60 c9          punpcklbw %xmm1 %xmm1 -> %xmm1 
  0x00007f0f0487929c  48 85 d2             test   %rdx %rdx 
  0x00007f0f0487929f  0f 84 2b 03 00 00    jz     $0x00007f0f048795d0 
Actual: 7f0f048792a5

Block 138:
  0x00007f0f04818baa  48 85 c0             test   %rax %rax 
  0x00007f0f04818bad  74 0a                jz     $0x00007f0f04818bb9 
Actual: 7f0f04818bb9

Block 139:
  0x00007f0f04818bb9  48 8b 7d a0          mov    0xffffffa0(%rbp)[8byte] -> %rdi 
  0x00007f0f04818bbd  4d 85 ed             test   %r13 %r13 
  0x00007f0f04818bc0  49 89 3c 24          mov    %rdi -> (%r12)[8byte] 
  0x00007f0f04818bc4  0f 84 f6 03 00 00    jz     $0x00007f0f04818fc0 
Actual: 7f0f04818fc0

Block 140:
  0x00007f0f04818fc0  4c 89 e6             mov    %r12 -> %rsi 
  0x00007f0f04818fc3  89 df                mov    %ebx -> %edi 
  0x00007f0f04818fc5  e8 76 08 00 00       call   $0x00007f0f04819840 %rsp -> %rsp 0xfffffff8(%rsp)[8byte] 
  0x00007f0f04819840  55                   push   %rbp %rsp -> %rsp 0xfffffff8(%rsp)[8byte] 
  0x00007f0f04819841  48 89 e5             mov    %rsp -> %rbp 
  0x00007f0f04819844  41 57                push   %r15 %rsp -> %rsp 0xfffffff8(%rsp)[8byte] 
  0x00007f0f04819846  41 56                push   %r14 %rsp -> %rsp 0xfffffff8(%rsp)[8byte] 
  0x00007f0f04819848  41 55                push   %r13 %rsp -> %rsp 0xfffffff8(%rsp)[8byte] 
  0x00007f0f0481984a  41 54                push   %r12 %rsp -> %rsp 0xfffffff8(%rsp)[8byte] 
  0x00007f0f0481984c  49 89 f5             mov    %rsi -> %r13 
  0x00007f0f0481984f  53                   push   %rbx %rsp -> %rsp 0xfffffff8(%rsp)[8byte] 
  0x00007f0f04819850  48 81 ec 08 01 00 00 sub    $0x0000000000000108 %rsp -> %rsp 
  0x00007f0f04819857  89 bd dc fe ff ff    mov    %edi -> 0xfffffedc(%rbp)[4byte] 
  0x00007f0f0481985d  bf 1e 00 00 00       mov    $0x0000001e -> %edi 
  0x00007f0f04819862  48 8b 1e             mov    (%rsi)[8byte] -> %rbx 
  0x00007f0f04819865  e8 c6 eb 09 00       call   $0x00007f0f048b8430 %rsp -> %rsp 0xfffffff8(%rsp)[8byte] 
  0x00007f0f048b8430  55                   push   %rbp %rsp -> %rsp 0xfffffff8(%rsp)[8byte] 
  0x00007f0f048b8431  53                   push   %rbx %rsp -> %rsp 0xfffffff8(%rsp)[8byte] 
  0x00007f0f048b8432  89 fb                mov    %edi -> %ebx 
  0x00007f0f048b8434  8d 83 47 ff ff ff    lea    0xffffff47(%rbx) -> %eax 
  0x00007f0f048b843a  48 83 ec 38          sub    $0x0000000000000038 %rsp -> %rsp 
  0x00007f0f048b843e  83 f8 0e             cmp    %eax $0x0000000e 
  0x00007f0f048b8441  0f 86 21 01 00 00    jbe    $0x00007f0f048b8568 
Actual: 7f0f048b8447

Block 141:
  0x00007f0f048b8447  83 fb 22             cmp    %ebx $0x00000022 
  0x00007f0f048b844a  0f 84 90 01 00 00    jz     $0x00007f0f048b85e0 
Actual: 7f0f048b8450

Block 142:
  0x00007f0f048b8450  0f 8f c2 00 00 00    jnle   $0x00007f0f048b8518 
Actual: 7f0f048b8456

Block 143:
  0x00007f0f048b8456  85 db                test   %ebx %ebx 
  0x00007f0f048b8458  0f 84 22 01 00 00    jz     $0x00007f0f048b8580 
Actual: 7f0f048b845e

Block 144:
  0x00007f0f048b845e  83 fb 03             cmp    %ebx $0x00000003 
  0x00007f0f048b8461  48 8d 3d 58 f9 0b 00 lea    <rel> 0x00007f0f04977dc0 -> %rdi 
  0x00007f0f048b8468  0f 85 8a 00 00 00    jnz    $0x00007f0f048b84f8 
Actual: 7f0f048b84f8

Block 145:
  0x00007f0f048b84f8  81 fb f6 00 00 00    cmp    %ebx $0x000000f6 
  0x00007f0f048b84fe  0f 87 35 06 00 00    jnbe   $0x00007f0f048b8b39 
Actual: 7f0f048b8504

Block 146:
  0x00007f0f048b8504  48 8d 15 09 af 0b 00 lea    <rel> 0x00007f0f04973414 -> %rdx 
  0x00007f0f048b850b  48 63 04 9a          movsxd (%rdx,%rbx,4)[4byte] -> %rax 
  0x00007f0f048b850f  48 01 d0             add    %rdx %rax -> %rax 
  0x00007f0f048b8512  ff e0                jmp    %rax 
Actual: 7f0f048b8766

Block 147:
  0x00007f0f048b8766  e8 c5 e7 02 00       call   $0x00007f0f048e6f30 %rsp -> %rsp 0xfffffff8(%rsp)[8byte] 
  0x00007f0f048e6f30  48 8b 05 29 2f 2c 00 mov    <rel> 0x00007f0f04ba9e60[8byte] -> %rax 
  0x00007f0f048e6f37  48 8b 40 18          mov    0x18(%rax)[8byte] -> %rax 
  0x00007f0f048e6f3b  c3                   ret    %rsp (%rsp)[8byte] -> %rsp 
Actual: 7f0f048b876b

Block 148:
  0x00007f0f048b876b  48 98                cwde   %ax -> %rax 
  0x00007f0f048b876d  e9 e8 fd ff ff       jmp    $0x00007f0f048b855a 
  0x00007f0f048b855a  48 83 c4 38          add    $0x0000000000000038 %rsp -> %rsp 
  0x00007f0f048b855e  5b                   pop    %rsp (%rsp)[8byte] -> %rbx %rsp 
  0x00007f0f048b855f  5d                   pop    %rsp (%rsp)[8byte] -> %rbp %rsp 
  0x00007f0f048b8560  c3                   ret    %rsp (%rsp)[8byte] -> %rsp 
Actual: 7f0f0481986a

Block 149:
  0x00007f0f0481986a  4c 8b 35 cf 20 39 00 mov    <rel> 0x00007f0f04bab940[8byte] -> %r14 
  0x00007f0f04819871  4d 85 f6             test   %r14 %r14 
  0x00007f0f04819874  75 21                jnz    $0x00007f0f04819897 
Actual: 7f0f04819876

Block 150:
  0x00007f0f04819876  eb 48                jmp    $0x00007f0f048198c0 
  0x00007f0f048198c0  be 2e 00 00 00       mov    $0x0000002e -> %esi 
  0x00007f0f048198c5  48 89 df             mov    %rbx -> %rdi 
  0x00007f0f048198c8  e8 73 ac 05 00       call   $0x00007f0f04874540 %rsp -> %rsp 0xfffffff8(%rsp)[8byte] 
  0x00007f0f04874540  66 0f 6e ce          movd   %esi -> %xmm1 
  0x00007f0f04874544  89 f8                mov    %edi -> %eax 
  0x00007f0f04874546  25 ff 0f 00 00       and    $0x00000fff %eax -> %eax 
  0x00007f0f0487454b  66 0f 60 c9          punpcklbw %xmm1 %xmm1 -> %xmm1 
  0x00007f0f0487454f  3d c0 0f 00 00       cmp    %eax $0x00000fc0 
  0x00007f0f04874554  66 0f 61 c9          punpcklwd %xmm1 %xmm1 -> %xmm1 
  0x00007f0f04874558  66 0f 70 c9 00       pshufd %xmm1 $0x00 -> %xmm1 
  0x00007f0f0487455d  0f 8f 5d 01 00 00    jnle   $0x00007f0f048746c0 
Actual: 7f0f04874563

Block 151:
  0x00007f0f048198cd  48 85 c0             test   %rax %rax 
  0x00007f0f048198d0  74 0a                jz     $0x00007f0f048198dc 
Actual: 7f0f048198d2

Block 152:
  0x00007f0f048198d2  f6 40 01 bf          test   0x01(%rax)[1byte] $0xbf 
  0x00007f0f048198d6  0f 85 84 02 00 00    jnz    $0x00007f0f04819b60 
Actual: 7f0f04819b60

Block 153:
  0x00007f0f04819b60  4c 8d 70 01          lea    0x01(%rax) -> %r14 
  0x00007f0f04819b64  be 40 00 00 00       mov    $0x00000040 -> %esi 
  0x00007f0f04819b69  4c 89 f7             mov    %r14 -> %rdi 
  0x00007f0f04819b6c  e8 7f 77 06 00       call   $0x00007f0f048812f0 %rsp -> %rsp 0xfffffff8(%rsp)[8byte] 
  0x00007f0f048812f0  66 0f 6e ce          movd   %esi -> %xmm1 
  0x00007f0f048812f4  89 f8                mov    %edi -> %eax 
  0x00007f0f048812f6  25 ff 0f 00 00       and    $0x00000fff %eax -> %eax 
  0x00007f0f048812fb  66 0f 60 c9          punpcklbw %xmm1 %xmm1 -> %xmm1 
  0x00007f0f048812ff  3d c0 0f 00 00       cmp    %eax $0x00000fc0 
  0x00007f0f04881304  66 0f 61 c9          punpcklwd %xmm1 %xmm1 -> %xmm1 
  0x00007f0f04881308  66 0f 70 c9 00       pshufd %xmm1 $0x00 -> %xmm1 
  0x00007f0f0488130d  0f 8f 4d 01 00 00    jnle   $0x00007f0f04881460 
Actual: 7f0f04881313

Block 154:
  0x00007f0f04881313  f3 0f 6f 07          movdqu (%rdi)[16byte] -> %xmm0 
  0x00007f0f04881317  66 0f ef db          pxor   %xmm3 %xmm3 -> %xmm3 
  0x00007f0f0488131b  66 0f 6f e0          movdqa %xmm0 -> %xmm4 
  0x00007f0f0488131f  66 0f 74 c1          pcmpeqb %xmm1 %xmm0 -> %xmm0 
  0x00007f0f04881323  66 0f 74 e3          pcmpeqb %xmm3 %xmm4 -> %xmm4 
  0x00007f0f04881327  66 0f eb c4          por    %xmm4 %xmm0 -> %xmm0 
  0x00007f0f0488132b  66 0f d7 c0          pmovmskb %xmm0 -> %eax 
  0x00007f0f0488132f  85 c0                test   %eax %eax 
  0x00007f0f04881331  74 0d                jz     $0x00007f0f04881340 
Actual: 7f0f04881333

Block 155:
  0x00007f0f04881333  0f bc c0             bsf    %eax -> %eax 
  0x00007f0f04881336  48 8d 04 07          lea    (%rdi,%rax,1) -> %rax 
  0x00007f0f0488133a  c3                   ret    %rsp (%rsp)[8byte] -> %rsp 
Actual: 7f0f04819b71

Block 156:
  0x00007f0f04819b71  49 89 c7             mov    %rax -> %r15 
  0x00007f0f04819b74  4c 89 f7             mov    %r14 -> %rdi 
  0x00007f0f04819b77  48 89 85 f8 fe ff ff mov    %rax -> 0xfffffef8(%rbp)[8byte] 
  0x00007f0f04819b7e  4d 29 f7             sub    %r14 %r15 -> %r15 
  0x00007f0f04819b81  4c 89 fe             mov    %r15 -> %rsi 
  0x00007f0f04819b84  e8 87 64 00 00       call   $0x00007f0f04820010 %rsp -> %rsp 0xfffffff8(%rsp)[8byte] 
  0x00007f0f04820010  41 55                push   %r13 %rsp -> %rsp 0xfffffff8(%rsp)[8byte] 
  0x00007f0f04820012  41 54                push   %r12 %rsp -> %rsp 0xfffffff8(%rsp)[8byte] 
  0x00007f0f04820014  49 89 f5             mov    %rsi -> %r13 
  0x00007f0f04820017  55                   push   %rbp %rsp -> %rsp 0xfffffff8(%rsp)[8byte] 
  0x00007f0f04820018  53                   push   %rbx %rsp -> %rsp 0xfffffff8(%rsp)[8byte] 
  0x00007f0f04820019  48 89 fb             mov    %rdi -> %rbx 
  0x00007f0f0482001c  48 83 ec 08          sub    $0x0000000000000008 %rsp -> %rsp 
  0x00007f0f04820020  48 85 f6             test   %rsi %rsi 
  0x00007f0f04820023  0f 84 ec 00 00 00    jz     $0x00007f0f04820115 
Actual: 7f0f04820029

Block 157:
  0x00007f0f04820029  48 8b 2d 58 8b 38 00 mov    <rel> 0x00007f0f04ba8b88[8byte] -> %rbp 
  0x00007f0f04820030  4c 8d 24 37          lea    (%rdi,%rsi,1) -> %r12 
  0x00007f0f04820034  48 89 fa             mov    %rdi -> %rdx 
  0x00007f0f04820037  41 b8 01 00 00 00    mov    $0x00000001 -> %r8d 
  0x00007f0f0482003d  31 ff                xor    %edi %edi -> %edi 
  0x00007f0f0482003f  31 f6                xor    %esi %esi -> %esi 
  0x00007f0f04820041  0f 1f 80 00 00 00 00 nop    0x00000000(%rax)[4byte] 
  0x00007f0f04820048  0f b6 0a             movzx  (%rdx)[1byte] -> %ecx 
  0x00007f0f0482004b  f6 44 4d 00 08       test   0x00(%rbp,%rcx,2)[1byte] $0x08 
  0x00007f0f04820050  48 89 c8             mov    %rcx -> %rax 
  0x00007f0f04820053  74 0e                jz     $0x00007f0f04820063 
Actual: 7f0f04820055

Block 158:
  0x00007f0f04820055  83 e8 30             sub    $0x00000030 %eax -> %eax 
  0x00007f0f04820058  48 83 c7 01          add    $0x0000000000000001 %rdi -> %rdi 
  0x00007f0f0482005c  83 f8 0a             cmp    %eax $0x0000000a 
  0x00007f0f0482005f  44 0f 43 c6          cmovnb %esi %r8d -> %r8d 
  0x00007f0f04820063  48 83 c2 01          add    $0x0000000000000001 %rdx -> %rdx 
  0x00007f0f04820067  49 39 d4             cmp    %r12 %rdx 
  0x00007f0f0482006a  75 dc                jnz    $0x00007f0f04820048 
Actual: 7f0f04820048

Block 159:
  0x00007f0f04820048  0f b6 0a             movzx  (%rdx)[1byte] -> %ecx 
  0x00007f0f0482004b  f6 44 4d 00 08       test   0x00(%rbp,%rcx,2)[1byte] $0x08 
  0x00007f0f04820050  48 89 c8             mov    %rcx -> %rax 
  0x00007f0f04820053  74 0e                jz     $0x00007f0f04820063 
Actual: 7f0f04820055

Block 160:
  0x00007f0f04820063  48 83 c2 01          add    $0x0000000000000001 %rdx -> %rdx 
  0x00007f0f04820067  49 39 d4             cmp    %r12 %rdx 
  0x00007f0f0482006a  75 dc                jnz    $0x00007f0f04820048 
Actual: 7f0f04820048

Block 161:
  0x00007f0f0482006c  45 85 c0             test   %r8d %r8d 
  0x00007f0f0482006f  75 77                jnz    $0x00007f0f048200e8 
Actual: 7f0f04820071

Block 162:
  0x00007f0f04820071  48 83 c7 01          add    $0x0000000000000001 %rdi -> %rdi 
  0x00007f0f04820075  e8 6e d8 fe ff       call   $0x00007f0f0480d8e8 %rsp -> %rsp 0xfffffff8(%rsp)[8byte] 
  0x00007f0f0480d8e8  ff 25 3a c5 39 00    jmp    <rel> 0x00007f0f04ba9e28[8byte] 
Actual: 7f0f0486ef00

Block 163:
  0x00007f0f0486ef00  55                   push   %rbp %rsp -> %rsp 0xfffffff8(%rsp)[8byte] 
  0x00007f0f0486ef01  53                   push   %rbx %rsp -> %rsp 0xfffffff8(%rsp)[8byte] 
  0x00007f0f0486ef02  48 83 ec 08          sub    $0x0000000000000008 %rsp -> %rsp 
  0x00007f0f0486ef06  48 8b 05 d3 af 33 00 mov    <rel> 0x00007f0f04ba9ee0[8byte] -> %rax 
  0x00007f0f0486ef0d  48 8b 00             mov    (%rax)[8byte] -> %rax 
  0x00007f0f0486ef10  48 85 c0             test   %rax %rax 
  0x00007f0f0486ef13  0f 85 0f 01 00 00    jnz    $0x00007f0f0486f028 
Actual: 7f0f0486ef19

Block 164:
  0x00007f0f0486ef19  48 8b 05 40 ae 33 00 mov    <rel> 0x00007f0f04ba9d60[8byte] -> %rax 
  0x00007f0f0486ef20  48 89 fd             mov    %rdi -> %rbp 
  0x00007f0f0486ef23  64 48 8b 18          mov    %fs:(%rax)[8byte] -> %rbx 
  0x00007f0f0486ef27  48 85 db             test   %rbx %rbx 
  0x00007f0f0486ef2a  74 08                jz     $0x00007f0f0486ef34 
Actual: 7f0f0486ef2c

Block 165:
  0x00007f0f0486ef2c  8b 43 04             mov    0x04(%rbx)[4byte] -> %eax 
  0x00007f0f0486ef2f  83 e0 04             and    $0x00000004 %eax -> %eax 
  0x00007f0f0486ef32  74 5c                jz     $0x00007f0f0486ef90 
Actual: 7f0f0486ef90

Block 166:
  0x00007f0f0486ef90  be 01 00 00 00       mov    $0x00000001 -> %esi 
  0x00007f0f0486ef95  83 3d 64 07 34 00 00 cmp    <rel> 0x00007f0f04baf700[4byte] $0x00000000 
  0x00007f0f0486ef9c  74 08                jz     $0x00007f0f0486efa6 
Actual: 7f0f0486efa6

Block 167:
  0x00007f0f0486efa6  0f b1 33             cmpxchg %esi (%rbx)[4byte] %eax -> (%rbx)[4byte] %eax 
  0x00007f0f0486efa9  74 16                jz     $0x00007f0f0486efc1 
Actual: 7f0f0486efc1

Block 168:
  0x00007f0f0486efc1  e9 7f ff ff ff       jmp    $0x00007f0f0486ef45 
  0x00007f0f0486ef45  48 89 ee             mov    %rbp -> %rsi 
  0x00007f0f0486ef48  48 89 df             mov    %rbx -> %rdi 
  0x00007f0f0486ef4b  e8 d0 e0 ff ff       call   $0x00007f0f0486d020 %rsp -> %rsp 0xfffffff8(%rsp)[8byte] 
  0x00007f0f0486d020  48 83 fe bf          cmp    %rsi $0xffffffffffffffbf 
  0x00007f0f0486d024  0f 87 97 08 00 00    jnbe   $0x00007f0f0486d8c1 
Actual: 7f0f0486d02a

Block 169:
  0x00007f0f0486d02a  48 89 f0             mov    %rsi -> %rax 
  0x00007f0f0486d02d  41 57                push   %r15 %rsp -> %rsp 0xfffffff8(%rsp)[8byte] 
  0x00007f0f0486d02f  41 56                push   %r14 %rsp -> %rsp 0xfffffff8(%rsp)[8byte] 
  0x00007f0f0486d031  48 83 c0 17          add    $0x0000000000000017 %rax -> %rax 
  0x00007f0f0486d035  41 55                push   %r13 %rsp -> %rsp 0xfffffff8(%rsp)[8byte] 
  0x00007f0f0486d037  41 54                push   %r12 %rsp -> %rsp 0xfffffff8(%rsp)[8byte] 
  0x00007f0f0486d039  55                   push   %rbp %rsp -> %rsp 0xfffffff8(%rsp)[8byte] 
  0x00007f0f0486d03a  53                   push   %rbx %rsp -> %rsp 0xfffffff8(%rsp)[8byte] 
  0x00007f0f0486d03b  49 89 c4             mov    %rax -> %r12 
  0x00007f0f0486d03e  49 83 e4 f0          and    $0xfffffffffffffff0 %r12 -> %r12 
  0x00007f0f0486d042  48 89 fd             mov    %rdi -> %rbp 
  0x00007f0f0486d045  48 81 ec a8 00 00 00 sub    $0x00000000000000a8 %rsp -> %rsp 
  0x00007f0f0486d04c  48 83 f8 20          cmp    %rax $0x0000000000000020 
  0x00007f0f0486d050  b8 20 00 00 00       mov    $0x00000020 -> %eax 
  0x00007f0f0486d055  4c 0f 42 e0          cmovb  %rax %r12 -> %r12 
  0x00007f0f0486d059  48 89 74 24 10       mov    %rsi -> 0x10(%rsp)[8byte] 
  0x00007f0f0486d05e  31 f6                xor    %esi %esi -> %esi 
  0x00007f0f0486d060  48 85 ff             test   %rdi %rdi 
  0x00007f0f0486d063  0f 84 73 08 00 00    jz     $0x00007f0f0486d8dc 
Actual: 7f0f0486d069

Block 170:
  0x00007f0f0486d069  4c 3b 25 68 f7 33 00 cmp    %r12 <rel> 0x00007f0f04bac7d8[8byte] 
  0x00007f0f0486d070  77 71                jnbe   $0x00007f0f0486d0e3 
Actual: 7f0f0486d072

Block 171:
  0x00007f0f0486d072  44 89 e7             mov    %r12d -> %edi 
  0x00007f0f0486d075  c1 ef 04             shr    $0x00000004 %edi -> %edi 
  0x00007f0f0486d078  8d 47 fe             lea    0xfffffffe(%rdi) -> %eax 
  0x00007f0f0486d07b  4c 8b 54 c5 08       mov    0x08(%rbp,%rax,8)[8byte] -> %r10 
  0x00007f0f0486d080  48 89 c7             mov    %rax -> %rdi 
  0x00007f0f0486d083  48 8d 4c c5 08       lea    0x08(%rbp,%rax,8) -> %rcx 
  0x00007f0f0486d088  4d 85 d2             test   %r10 %r10 
  0x00007f0f0486d08b  74 56                jz     $0x00007f0f0486d0e3 
Actual: 7f0f0486d0e3

Block 172:
  0x00007f0f0486d0e3  49 81 fc ff 03 00 00 cmp    %r12 $0x00000000000003ff 
  0x00007f0f0486d0ea  77 64                jnbe   $0x00007f0f0486d150 
Actual: 7f0f0486d0ec

Block 173:
  0x00007f0f0486d0ec  44 89 e0             mov    %r12d -> %eax 
  0x00007f0f0486d0ef  c1 e8 04             shr    $0x00000004 %eax -> %eax 
  0x00007f0f0486d0f2  89 04 24             mov    %eax -> (%rsp)[4byte] 
  0x00007f0f0486d0f5  05 ff ff ff 7f       add    $0x7fffffff %eax -> %eax 
  0x00007f0f0486d0fa  01 c0                add    %eax %eax -> %eax 
  0x00007f0f0486d0fc  48 8d 44 c5 68       lea    0x68(%rbp,%rax,8) -> %rax 
  0x00007f0f0486d101  4c 8b 70 08          mov    0x08(%rax)[8byte] -> %r14 
  0x00007f0f0486d105  48 8d 48 f0          lea    0xfffffff0(%rax) -> %rcx 
  0x00007f0f0486d109  4c 39 f1             cmp    %rcx %r14 
  0x00007f0f0486d10c  74 67                jz     $0x00007f0f0486d175 
Actual: 7f0f0486d175

Block 174:
  0x00007f0f0486d175  4c 89 e0             mov    %r12 -> %rax 
  0x00007f0f0486d178  4c 89 e7             mov    %r12 -> %rdi 
  0x00007f0f0486d17b  4c 8d 6d 58          lea    0x58(%rbp) -> %r13 
  0x00007f0f0486d17f  48 c1 e8 06          shr    $0x0000000000000006 %rax -> %rax 
  0x00007f0f0486d183  48 c1 ef 09          shr    $0x0000000000000009 %rdi -> %rdi 
  0x00007f0f0486d187  4c 89 e1             mov    %r12 -> %rcx 
  0x00007f0f0486d18a  48 89 44 24 40       mov    %rax -> 0x40(%rsp)[8byte] 
  0x00007f0f0486d18f  83 c0 30             add    $0x00000030 %eax -> %eax 
  0x00007f0f0486d192  48 89 7c 24 50       mov    %rdi -> 0x50(%rsp)[8byte] 
  0x00007f0f0486d197  89 44 24 4c          mov    %eax -> 0x4c(%rsp)[4byte] 
  0x00007f0f0486d19b  83 c7 5b             add    $0x0000005b %edi -> %edi 
  0x00007f0f0486d19e  44 89 e0             mov    %r12d -> %eax 
  0x00007f0f0486d1a1  c1 e8 04             shr    $0x00000004 %eax -> %eax 
  0x00007f0f0486d1a4  89 7c 24 60          mov    %edi -> 0x60(%rsp)[4byte] 
  0x00007f0f0486d1a8  48 8d bc 24 80 00 00 lea    0x00000080(%rsp) -> %rdi 
                      00
  0x00007f0f0486d1b0  4c 89 e3             mov    %r12 -> %rbx 
  0x00007f0f0486d1b3  4c 89 e6             mov    %r12 -> %rsi 
  0x00007f0f0486d1b6  89 44 24 48          mov    %eax -> 0x48(%rsp)[4byte] 
  0x00007f0f0486d1ba  b8 01 00 00 00       mov    $0x00000001 -> %eax 
  0x00007f0f0486d1bf  48 c1 e9 0c          shr    $0x000000000000000c %rcx -> %rcx 
  0x00007f0f0486d1c3  48 c1 eb 0f          shr    $0x000000000000000f %rbx -> %rbx 
  0x00007f0f0486d1c7  48 c1 ee 12          shr    $0x0000000000000012 %rsi -> %rsi 
  0x00007f0f0486d1cb  48 29 f8             sub    %rdi %rax -> %rax 
  0x00007f0f0486d1ce  48 89 4c 24 58       mov    %rcx -> 0x58(%rsp)[8byte] 
  0x00007f0f0486d1d3  48 89 5c 24 68       mov    %rbx -> 0x68(%rsp)[8byte] 
  0x00007f0f0486d1d8  48 89 74 24 70       mov    %rsi -> 0x70(%rsp)[8byte] 
  0x00007f0f0486d1dd  83 c3 77             add    $0x00000077 %ebx -> %ebx 
  0x00007f0f0486d1e0  83 c6 7c             add    $0x0000007c %esi -> %esi 
  0x00007f0f0486d1e3  83 c1 6e             add    $0x0000006e %ecx -> %ecx 
  0x00007f0f0486d1e6  48 89 44 24 38       mov    %rax -> 0x38(%rsp)[8byte] 
  0x00007f0f0486d1eb  4c 89 e8             mov    %r13 -> %rax 
  0x00007f0f0486d1ee  89 74 24 7c          mov    %esi -> 0x7c(%rsp)[4byte] 
  0x00007f0f0486d1f2  4d 89 e5             mov    %r12 -> %r13 
  0x00007f0f0486d1f5  89 5c 24 78          mov    %ebx -> 0x78(%rsp)[4byte] 
  0x00007f0f0486d1f9  89 4c 24 64          mov    %ecx -> 0x64(%rsp)[4byte] 
  0x00007f0f0486d1fd  49 89 c4             mov    %rax -> %r12 
  0x00007f0f0486d200  48 89 7c 24 08       mov    %rdi -> 0x08(%rsp)[8byte] 
  0x00007f0f0486d205  48 8d 44 24 7f       lea    0x7f(%rsp) -> %rax 
  0x00007f0f0486d20a  41 bf 10 27 00 00    mov    $0x00002710 -> %r15d 
  0x00007f0f0486d210  48 89 44 24 18       mov    %rax -> 0x18(%rsp)[8byte] 
  0x00007f0f0486d215  eb 53                jmp    $0x00007f0f0486d26a 
  0x00007f0f0486d26a  48 8b 5d 70          mov    0x70(%rbp)[8byte] -> %rbx 
  0x00007f0f0486d26e  4c 39 e3             cmp    %rbx %r12 
  0x00007f0f0486d271  0f 84 79 03 00 00    jz     $0x00007f0f0486d5f0 
Actual: 7f0f0486d5f0

Block 175:
  0x00007f0f0486d5f0  49 81 fd ff 03 00 00 cmp    %r13 $0x00000000000003ff 
  0x00007f0f0486d5f7  0f 87 a1 01 00 00    jnbe   $0x00007f0f0486d79e 
Actual: 7f0f0486d5fd

Block 176:
  0x00007f0f0486d5fd  8b 04 24             mov    (%rsp)[4byte] -> %eax 
  0x00007f0f0486d600  8d 48 01             lea    0x01(%rax) -> %ecx 
  0x00007f0f0486d603  01 c0                add    %eax %eax -> %eax 
  0x00007f0f0486d605  48 8d 54 c5 58       lea    0x58(%rbp,%rax,8) -> %rdx 
  0x00007f0f0486d60a  89 cf                mov    %ecx -> %edi 
  0x00007f0f0486d60c  c1 ef 05             shr    $0x00000005 %edi -> %edi 
  0x00007f0f0486d60f  89 f8                mov    %edi -> %eax 
  0x00007f0f0486d611  8b b4 85 58 08 00 00 mov    0x00000858(%rbp,%rax,4)[4byte] -> %esi 
  0x00007f0f0486d618  b8 01 00 00 00       mov    $0x00000001 -> %eax 
  0x00007f0f0486d61d  d3 e0                shl    %cl %eax -> %eax 
  0x00007f0f0486d61f  39 f0                cmp    %eax %esi 
  0x00007f0f0486d621  77 3d                jnbe   $0x00007f0f0486d660 
Actual: 7f0f0486d660

Block 177:
  0x00007f0f0486d660  8d 47 01             lea    0x01(%rdi) -> %eax 
  0x00007f0f0486d663  83 f8 03             cmp    %eax $0x00000003 
  0x00007f0f0486d666  77 3d                jnbe   $0x00007f0f0486d6a5 
Actual: 7f0f0486d668

Block 178:
  0x00007f0f0486d668  89 c2                mov    %eax -> %edx 
  0x00007f0f0486d66a  8b b4 95 58 08 00 00 mov    0x00000858(%rbp,%rdx,4)[4byte] -> %esi 
  0x00007f0f0486d671  85 f6                test   %esi %esi 
  0x00007f0f0486d673  0f 85 d8 02 00 00    jnz    $0x00007f0f0486d951 
Actual: 7f0f0486d679

Block 179:
  0x00007f0f0486d679  8d 47 02             lea    0x02(%rdi) -> %eax 
  0x00007f0f0486d67c  83 f8 04             cmp    %eax $0x00000004 
  0x00007f0f0486d67f  74 24                jz     $0x00007f0f0486d6a5 
Actual: 7f0f0486d681

Block 180:
  0x00007f0f0486d681  89 c2                mov    %eax -> %edx 
  0x00007f0f0486d683  8b b4 95 58 08 00 00 mov    0x00000858(%rbp,%rdx,4)[4byte] -> %esi 
  0x00007f0f0486d68a  85 f6                test   %esi %esi 
  0x00007f0f0486d68c  0f 85 bf 02 00 00    jnz    $0x00007f0f0486d951 
Actual: 7f0f0486d692

Block 181:
  0x00007f0f0486d692  83 ff 01             cmp    %edi $0x00000001 
  0x00007f0f0486d695  74 0e                jz     $0x00007f0f0486d6a5 
Actual: 7f0f0486d697

Block 182:
  0x00007f0f0486d697  8b b5 64 08 00 00    mov    0x00000864(%rbp)[4byte] -> %esi 
  0x00007f0f0486d69d  85 f6                test   %esi %esi 
  0x00007f0f0486d69f  0f 85 8b 03 00 00    jnz    $0x00007f0f0486da30 
Actual: 7f0f0486d6a5

Block 183:
  0x00007f0f0486d6a5  4c 8b 55 58          mov    0x58(%rbp)[8byte] -> %r10 
  0x00007f0f0486d6a9  49 8d 55 20          lea    0x20(%r13) -> %rdx 
  0x00007f0f0486d6ad  49 8b 42 08          mov    0x08(%r10)[8byte] -> %rax 
  0x00007f0f0486d6b1  48 83 e0 f8          and    $0xfffffffffffffff8 %rax -> %rax 
  0x00007f0f0486d6b5  48 39 d0             cmp    %rax %rdx 
  0x00007f0f0486d6b8  0f 83 f2 04 00 00    jnb    $0x00007f0f0486dbb0 
Actual: 7f0f0486dbb0

Block 184:
  0x00007f0f0486dbb0  48 8d 15 49 cf 33 00 lea    <rel> 0x00007f0f04baab00 -> %rdx 
  0x00007f0f0486dbb7  4c 29 e8             sub    %r13 %rax -> %rax 
  0x00007f0f0486dbba  31 c9                xor    %ecx %ecx -> %ecx 
  0x00007f0f0486dbbc  4b 8d 34 2a          lea    (%r10,%r13,1) -> %rsi 
  0x00007f0f0486dbc0  48 39 d5             cmp    %rbp %rdx 
  0x00007f0f0486dbc3  4c 89 ea             mov    %r13 -> %rdx 
  0x00007f0f0486dbc6  0f 95 c1             setnz  -> %cl 
  0x00007f0f0486dbc9  48 83 ca 01          or     $0x0000000000000001 %rdx -> %rdx 
  0x00007f0f0486dbcd  48 83 c8 01          or     $0x0000000000000001 %rax -> %rax 
  0x00007f0f0486dbd1  48 c1 e1 02          shl    $0x0000000000000002 %rcx -> %rcx 
  0x00007f0f0486dbd5  48 89 75 58          mov    %rsi -> 0x58(%rbp)[8byte] 
  0x00007f0f0486dbd9  49 83 c2 10          add    $0x0000000000000010 %r10 -> %r10 
  0x00007f0f0486dbdd  48 09 ca             or     %rcx %rdx -> %rdx 
  0x00007f0f0486dbe0  49 89 52 f8          mov    %rdx -> 0xfffffff8(%r10)[8byte] 
  0x00007f0f0486dbe4  48 89 46 08          mov    %rax -> 0x08(%rsi)[8byte] 
  0x00007f0f0486dbe8  8b 05 e6 eb 33 00    mov    <rel> 0x00007f0f04bac7d4[4byte] -> %eax 
  0x00007f0f0486dbee  85 c0                test   %eax %eax 
  0x00007f0f0486dbf0  0f 84 e5 f9 ff ff    jz     $0x00007f0f0486d5db 
Actual: 7f0f0486d5db

Block 185:
  0x00007f0f0486d5db  48 81 c4 a8 00 00 00 add    $0x00000000000000a8 %rsp -> %rsp 
  0x00007f0f0486d5e2  4c 89 d0             mov    %r10 -> %rax 
  0x00007f0f0486d5e5  5b                   pop    %rsp (%rsp)[8byte] -> %rbx %rsp 
  0x00007f0f0486d5e6  5d                   pop    %rsp (%rsp)[8byte] -> %rbp %rsp 
  0x00007f0f0486d5e7  41 5c                pop    %rsp (%rsp)[8byte] -> %r12 %rsp 
  0x00007f0f0486d5e9  41 5d                pop    %rsp (%rsp)[8byte] -> %r13 %rsp 
  0x00007f0f0486d5eb  41 5e                pop    %rsp (%rsp)[8byte] -> %r14 %rsp 
  0x00007f0f0486d5ed  41 5f                pop    %rsp (%rsp)[8byte] -> %r15 %rsp 
  0x00007f0f0486d5ef  c3                   ret    %rsp (%rsp)[8byte] -> %rsp 
Actual: 7f0f0486ef50

Block 186:
  0x00007f0f0486ef50  48 85 c0             test   %rax %rax 
  0x00007f0f0486ef53  48 89 c2             mov    %rax -> %rdx 
  0x00007f0f0486ef56  0f 84 9c 00 00 00    jz     $0x00007f0f0486eff8 
Actual: 7f0f0486ef5c

Block 187:
  0x00007f0f0486ef5c  83 3d 9d 07 34 00 00 cmp    <rel> 0x00007f0f04baf700[4byte] $0x00000000 
  0x00007f0f0486ef63  74 07                jz     $0x00007f0f0486ef6c 
Actual: 7f0f0486ef6c

Block 188:
  0x00007f0f0486ef6c  ff 0b                dec    (%rbx)[4byte] -> (%rbx)[4byte] 
  0x00007f0f0486ef6e  74 16                jz     $0x00007f0f0486ef86 
Actual: 7f0f0486ef86

Block 189:
  0x00007f0f0486ef86  48 83 c4 08          add    $0x0000000000000008 %rsp -> %rsp 
  0x00007f0f0486ef8a  48 89 d0             mov    %rdx -> %rax 
  0x00007f0f0486ef8d  5b                   pop    %rsp (%rsp)[8byte] -> %rbx %rsp 
  0x00007f0f0486ef8e  5d                   pop    %rsp (%rsp)[8byte] -> %rbp %rsp 
  0x00007f0f0486ef8f  c3                   ret    %rsp (%rsp)[8byte] -> %rsp 
Actual: 7f0f0482007a

Block 190:
  0x00007f0f0482007a  48 85 c0             test   %rax %rax 
  0x00007f0f0482007d  48 89 c1             mov    %rax -> %rcx 
  0x00007f0f04820080  0f 84 a0 00 00 00    jz     $0x00007f0f04820126 
Actual: 7f0f04820086

Block 191:
  0x00007f0f04820086  48 89 c8             mov    %rcx -> %rax 
  0x00007f0f04820089  4c 8b 05 00 8b 38 00 mov    <rel> 0x00007f0f04ba8b90[8byte] -> %r8 
  0x00007f0f04820090  48 89 df             mov    %rbx -> %rdi 
  0x00007f0f04820093  eb 17                jmp    $0x00007f0f048200ac 
  0x00007f0f048200ac  0f b6 37             movzx  (%rdi)[1byte] -> %esi 
  0x00007f0f048200af  f6 44 75 01 04       test   0x01(%rbp,%rsi,2)[1byte] $0x04 
  0x00007f0f048200b4  48 89 f2             mov    %rsi -> %rdx 
  0x00007f0f048200b7  75 df                jnz    $0x00007f0f04820098 
Actual: 7f0f04820098

Block 192:
  0x00007f0f04820098  41 8b 14 b0          mov    (%r8,%rsi,4)[4byte] -> %edx 
  0x00007f0f0482009c  48 83 c1 01          add    $0x0000000000000001 %rcx -> %rcx 
  0x00007f0f048200a0  88 51 ff             mov    %dl -> 0xffffffff(%rcx)[1byte] 
  0x00007f0f048200a3  48 83 c7 01          add    $0x0000000000000001 %rdi -> %rdi 
  0x00007f0f048200a7  49 39 fc             cmp    %r12 %rdi 
  0x00007f0f048200aa  74 28                jz     $0x00007f0f048200d4 
Actual: 7f0f048200ac

Block 193:
  0x00007f0f048200ac  0f b6 37             movzx  (%rdi)[1byte] -> %esi 
  0x00007f0f048200af  f6 44 75 01 04       test   0x01(%rbp,%rsi,2)[1byte] $0x04 
  0x00007f0f048200b4  48 89 f2             mov    %rsi -> %rdx 
  0x00007f0f048200b7  75 df                jnz    $0x00007f0f04820098 
Actual: 7f0f04820098

Block 194:
  0x00007f0f048200b9  40 0f b6 f6          movzx  %sil -> %esi 
  0x00007f0f048200bd  83 ee 30             sub    $0x00000030 %esi -> %esi 
  0x00007f0f048200c0  83 fe 09             cmp    %esi $0x00000009 
  0x00007f0f048200c3  77 de                jnbe   $0x00007f0f048200a3 
Actual: 7f0f048200a3

Block 195:
  0x00007f0f048200a3  48 83 c7 01          add    $0x0000000000000001 %rdi -> %rdi 
  0x00007f0f048200a7  49 39 fc             cmp    %r12 %rdi 
  0x00007f0f048200aa  74 28                jz     $0x00007f0f048200d4 
Actual: 7f0f048200ac

Block 196:
  0x00007f0f048200c5  48 83 c7 01          add    $0x0000000000000001 %rdi -> %rdi 
  0x00007f0f048200c9  88 11                mov    %dl -> (%rcx)[1byte] 
  0x00007f0f048200cb  48 83 c1 01          add    $0x0000000000000001 %rcx -> %rcx 
  0x00007f0f048200cf  49 39 fc             cmp    %r12 %rdi 
  0x00007f0f048200d2  75 d8                jnz    $0x00007f0f048200ac 
Actual: 7f0f048200d4

Block 197:
  0x00007f0f048200d4  c6 01 00             mov    $0x00 -> (%rcx)[1byte] 
  0x00007f0f048200d7  48 83 c4 08          add    $0x0000000000000008 %rsp -> %rsp 
  0x00007f0f048200db  5b                   pop    %rsp (%rsp)[8byte] -> %rbx %rsp 
  0x00007f0f048200dc  5d                   pop    %rsp (%rsp)[8byte] -> %rbp %rsp 
  0x00007f0f048200dd  41 5c                pop    %rsp (%rsp)[8byte] -> %r12 %rsp 
  0x00007f0f048200df  41 5d                pop    %rsp (%rsp)[8byte] -> %r13 %rsp 
  0x00007f0f048200e1  c3                   ret    %rsp (%rsp)[8byte] -> %rsp 
Actual: 7f0f04819b89

Block 198:
  0x00007f0f04819b89  48 85 c0             test   %rax %rax 
  0x00007f0f04819b8c  49 89 c4             mov    %rax -> %r12 
  0x00007f0f04819b8f  74 ac                jz     $0x00007f0f04819b3d 
Actual: 7f0f04819b91

Block 199:
  0x00007f0f04819b91  4c 89 fa             mov    %r15 -> %rdx 
  0x00007f0f04819b94  4c 89 f6             mov    %r14 -> %rsi 
  0x00007f0f04819b97  48 89 c7             mov    %rax -> %rdi 
  0x00007f0f04819b9a  e8 61 ca 05 00       call   $0x00007f0f04876600 %rsp -> %rsp 0xfffffff8(%rsp)[8byte] 
  0x00007f0f04876600  48 85 d2             test   %rdx %rdx 
  0x00007f0f04876603  0f 84 2b 18 00 00    jz     $0x00007f0f04877e34 
Actual: 7f0f04876609

Block 200:
  0x00007f0f04819b9f  85 c0                test   %eax %eax 
  0x00007f0f04819ba1  75 07                jnz    $0x00007f0f04819baa 
Actual: 7f0f04819baa

Block 201:
  0x00007f0f04819baa  4c 89 e7             mov    %r12 -> %rdi 
  0x00007f0f04819bad  e8 fe c5 05 00       call   $0x00007f0f048761b0 %rsp -> %rsp 0xfffffff8(%rsp)[8byte] 
  0x00007f0f048761b0  66 0f ef c0          pxor   %xmm0 %xmm0 -> %xmm0 
  0x00007f0f048761b4  66 0f ef c9          pxor   %xmm1 %xmm1 -> %xmm1 
  0x00007f0f048761b8  66 0f ef d2          pxor   %xmm2 %xmm2 -> %xmm2 
  0x00007f0f048761bc  66 0f ef db          pxor   %xmm3 %xmm3 -> %xmm3 
  0x00007f0f048761c0  48 89 f8             mov    %rdi -> %rax 
  0x00007f0f048761c3  48 89 f9             mov    %rdi -> %rcx 
  0x00007f0f048761c6  48 81 e1 ff 0f 00 00 and    $0x0000000000000fff %rcx -> %rcx 
  0x00007f0f048761cd  48 81 f9 cf 0f 00 00 cmp    %rcx $0x0000000000000fcf 
  0x00007f0f048761d4  77 6a                jnbe   $0x00007f0f04876240 
Actual: 7f0f048761d6

Block 202:
  0x00007f0f04819bb2  48 8b bd f8 fe ff ff mov    0xfffffef8(%rbp)[8byte] -> %rdi 
  0x00007f0f04819bb9  49 89 c7             mov    %rax -> %r15 
  0x00007f0f04819bbc  e8 ef c5 05 00       call   $0x00007f0f048761b0 %rsp -> %rsp 0xfffffff8(%rsp)[8byte] 
  0x00007f0f048761b0  66 0f ef c0          pxor   %xmm0 %xmm0 -> %xmm0 
  0x00007f0f048761b4  66 0f ef c9          pxor   %xmm1 %xmm1 -> %xmm1 
  0x00007f0f048761b8  66 0f ef d2          pxor   %xmm2 %xmm2 -> %xmm2 
  0x00007f0f048761bc  66 0f ef db          pxor   %xmm3 %xmm3 -> %xmm3 
  0x00007f0f048761c0  48 89 f8             mov    %rdi -> %rax 
  0x00007f0f048761c3  48 89 f9             mov    %rdi -> %rcx 
  0x00007f0f048761c6  48 81 e1 ff 0f 00 00 and    $0x0000000000000fff %rcx -> %rcx 
  0x00007f0f048761cd  48 81 f9 cf 0f 00 00 cmp    %rcx $0x0000000000000fcf 
  0x00007f0f048761d4  77 6a                jnbe   $0x00007f0f04876240 
Actual: 7f0f048761d6

Block 203:
  0x00007f0f04819bc1  4c 89 f2             mov    %r14 -> %rdx 
  0x00007f0f04819bc4  4c 8d 40 01          lea    0x01(%rax) -> %r8 
  0x00007f0f04819bc8  48 89 de             mov    %rbx -> %rsi 
  0x00007f0f04819bcb  48 29 da             sub    %rbx %rdx -> %rdx 
  0x00007f0f04819bce  49 8d 04 17          lea    (%r15,%rdx,1) -> %rax 
  0x00007f0f04819bd2  4c 89 85 f0 fe ff ff mov    %r8 -> 0xfffffef0(%rbp)[8byte] 
  0x00007f0f04819bd9  49 8d 44 00 1e       lea    0x1e(%r8,%rax,1) -> %rax 
  0x00007f0f04819bde  48 83 e0 f0          and    $0xfffffffffffffff0 %rax -> %rax 
  0x00007f0f04819be2  48 29 c4             sub    %rax %rsp -> %rsp 
  0x00007f0f04819be5  4c 8d 74 24 0f       lea    0x0f(%rsp) -> %r14 
  0x00007f0f04819bea  49 83 e6 f0          and    $0xfffffffffffffff0 %r14 -> %r14 
  0x00007f0f04819bee  4c 89 f7             mov    %r14 -> %rdi 
  0x00007f0f04819bf1  4c 89 f3             mov    %r14 -> %rbx 
  0x00007f0f04819bf4  e8 97 03 06 00       call   $0x00007f0f04879f90 %rsp -> %rsp 0xfffffff8(%rsp)[8byte] 
  0x00007f0f04879f90  48 83 fa 20          cmp    %rdx $0x0000000000000020 
  0x00007f0f04879f94  73 7a                jnb    $0x00007f0f0487a010 
Actual: 7f0f04879f96

Block 204:
  0x00007f0f04879f96  f6 c2 01             test   %dl $0x01 
  0x00007f0f04879f99  74 0b                jz     $0x00007f0f04879fa6 
Actual: 7f0f04879fa6

Block 205:
  0x00007f0f04879fa6  f6 c2 02             test   %dl $0x02 
  0x00007f0f04879fa9  74 0e                jz     $0x00007f0f04879fb9 
Actual: 7f0f04879fab

Block 206:
  0x00007f0f04879fab  0f b7 0e             movzx  (%rsi)[2byte] -> %ecx 
  0x00007f0f04879fae  66 89 0f             data16 mov    %cx -> (%rdi)[2byte] 
  0x00007f0f04879fb1  48 83 c6 02          add    $0x0000000000000002 %rsi -> %rsi 
  0x00007f0f04879fb5  48 83 c7 02          add    $0x0000000000000002 %rdi -> %rdi 
  0x00007f0f04879fb9  f6 c2 04             test   %dl $0x04 
  0x00007f0f04879fbc  74 0c                jz     $0x00007f0f04879fca 
Actual: 7f0f04879fbe

Block 207:
  0x00007f0f04879fbe  8b 0e                mov    (%rsi)[4byte] -> %ecx 
  0x00007f0f04879fc0  89 0f                mov    %ecx -> (%rdi)[4byte] 
  0x00007f0f04879fc2  48 83 c6 04          add    $0x0000000000000004 %rsi -> %rsi 
  0x00007f0f04879fc6  48 83 c7 04          add    $0x0000000000000004 %rdi -> %rdi 
  0x00007f0f04879fca  f6 c2 08             test   %dl $0x08 
  0x00007f0f04879fcd  74 11                jz     $0x00007f0f04879fe0 
Actual: 7f0f04879fe0

Block 208:
  0x00007f0f04879fe0  81 e2 f0 00 00 00    and    $0x000000f0 %edx -> %edx 
  0x00007f0f04879fe6  74 23                jz     $0x00007f0f0487a00b 
Actual: 7f0f0487a00b

Block 209:
  0x00007f0f0487a00b  48 89 f8             mov    %rdi -> %rax 
  0x00007f0f0487a00e  c3                   ret    %rsp (%rsp)[8byte] -> %rsp 
Actual: 7f0f04819bf9

Block 210:
  0x00007f0f04819bf9  4c 89 fa             mov    %r15 -> %rdx 
  0x00007f0f04819bfc  4c 89 e6             mov    %r12 -> %rsi 
  0x00007f0f04819bff  48 89 c7             mov    %rax -> %rdi 
  0x00007f0f04819c02  e8 89 03 06 00       call   $0x00007f0f04879f90 %rsp -> %rsp 0xfffffff8(%rsp)[8byte] 
  0x00007f0f04879f90  48 83 fa 20          cmp    %rdx $0x0000000000000020 
  0x00007f0f04879f94  73 7a                jnb    $0x00007f0f0487a010 
Actual: 7f0f04879f96

Block 211:
  0x00007f0f04879fb9  f6 c2 04             test   %dl $0x04 
  0x00007f0f04879fbc  74 0c                jz     $0x00007f0f04879fca 
Actual: 7f0f04879fbe

Block 212:
  0x00007f0f04819c07  4c 8b 85 f0 fe ff ff mov    0xfffffef0(%rbp)[8byte] -> %r8 
  0x00007f0f04819c0e  48 8b b5 f8 fe ff ff mov    0xfffffef8(%rbp)[8byte] -> %rsi 
  0x00007f0f04819c15  48 89 c7             mov    %rax -> %rdi 
  0x00007f0f04819c18  4c 89 c2             mov    %r8 -> %rdx 
  0x00007f0f04819c1b  e8 30 54 06 00       call   $0x00007f0f0487f050 %rsp -> %rsp 0xfffffff8(%rsp)[8byte] 
  0x00007f0f0487f050  48 83 fa 20          cmp    %rdx $0x0000000000000020 
  0x00007f0f0487f054  48 89 f8             mov    %rdi -> %rax 
  0x00007f0f0487f057  73 77                jnb    $0x00007f0f0487f0d0 
Actual: 7f0f0487f059

Block 213:
  0x00007f0f0487f059  f6 c2 01             test   %dl $0x01 
  0x00007f0f0487f05c  74 0b                jz     $0x00007f0f0487f069 
Actual: 7f0f0487f05e

Block 214:
  0x00007f0f0487f05e  0f b6 0e             movzx  (%rsi)[1byte] -> %ecx 
  0x00007f0f0487f061  88 0f                mov    %cl -> (%rdi)[1byte] 
  0x00007f0f0487f063  48 ff c6             inc    %rsi -> %rsi 
  0x00007f0f0487f066  48 ff c7             inc    %rdi -> %rdi 
  0x00007f0f0487f069  f6 c2 02             test   %dl $0x02 
  0x00007f0f0487f06c  74 12                jz     $0x00007f0f0487f080 
Actual: 7f0f0487f080

Block 215:
  0x00007f0f0487f080  f6 c2 04             test   %dl $0x04 
  0x00007f0f0487f083  74 0c                jz     $0x00007f0f0487f091 
Actual: 7f0f0487f091

Block 216:
  0x00007f0f0487f091  f6 c2 08             test   %dl $0x08 
  0x00007f0f0487f094  74 0e                jz     $0x00007f0f0487f0a4 
Actual: 7f0f0487f0a4

Block 217:
  0x00007f0f0487f0a4  81 e2 f0 00 00 00    and    $0x000000f0 %edx -> %edx 
  0x00007f0f0487f0aa  74 1f                jz     $0x00007f0f0487f0cb 
Actual: 7f0f0487f0cb

Block 218:
  0x00007f0f0487f0cb  f3 c3                ret    %rsp (%rsp)[8byte] -> %rsp 
Actual: 7f0f04819c20

Block 219:
  0x00007f0f04819c20  4c 89 e7             mov    %r12 -> %rdi 
  0x00007f0f04819c23  e8 e8 3c ff ff       call   $0x00007f0f0480d910 %rsp -> %rsp 0xfffffff8(%rsp)[8byte] 
  0x00007f0f0480d910  ff 25 7a c6 39 00    jmp    <rel> 0x00007f0f04ba9f90[8byte] 
Actual: 7f0f0486f260

Block 220:
  0x00007f0f0486f260  41 55                push   %r13 %rsp -> %rsp 0xfffffff8(%rsp)[8byte] 
  0x00007f0f0486f262  41 54                push   %r12 %rsp -> %rsp 0xfffffff8(%rsp)[8byte] 
  0x00007f0f0486f264  55                   push   %rbp %rsp -> %rsp 0xfffffff8(%rsp)[8byte] 
  0x00007f0f0486f265  53                   push   %rbx %rsp -> %rsp 0xfffffff8(%rsp)[8byte] 
  0x00007f0f0486f266  48 83 ec 28          sub    $0x0000000000000028 %rsp -> %rsp 
  0x00007f0f0486f26a  48 8b 05 77 ac 33 00 mov    <rel> 0x00007f0f04ba9ee8[8byte] -> %rax 
  0x00007f0f0486f271  48 8b 00             mov    (%rax)[8byte] -> %rax 
  0x00007f0f0486f274  48 85 c0             test   %rax %rax 
  0x00007f0f0486f277  0f 85 d3 00 00 00    jnz    $0x00007f0f0486f350 
Actual: 7f0f0486f27d

Block 221:
  0x00007f0f0486f27d  48 85 ff             test   %rdi %rdi 
  0x00007f0f0486f280  74 2a                jz     $0x00007f0f0486f2ac 
Actual: 7f0f0486f282

Block 222:
  0x00007f0f0486f282  48 8b 47 f8          mov    0xfffffff8(%rdi)[8byte] -> %rax 
  0x00007f0f0486f286  48 8d 77 f0          lea    0xfffffff0(%rdi) -> %rsi 
  0x00007f0f0486f28a  a8 02                test   %al $0x02 
  0x00007f0f0486f28c  75 32                jnz    $0x00007f0f0486f2c0 
Actual: 7f0f0486f28e

Block 223:
  0x00007f0f0486f28e  a8 04                test   %al $0x04 
  0x00007f0f0486f290  48 8d 3d 69 b8 33 00 lea    <rel> 0x00007f0f04baab00 -> %rdi 
  0x00007f0f0486f297  74 0c                jz     $0x00007f0f0486f2a5 
Actual: 7f0f0486f2a5

Block 224:
  0x00007f0f0486f2a5  31 d2                xor    %edx %edx -> %edx 
  0x00007f0f0486f2a7  e8 34 c5 ff ff       call   $0x00007f0f0486b7e0 %rsp -> %rsp 0xfffffff8(%rsp)[8byte] 
  0x00007f0f0486b7e0  41 57                push   %r15 %rsp -> %rsp 0xfffffff8(%rsp)[8byte] 
  0x00007f0f0486b7e2  41 56                push   %r14 %rsp -> %rsp 0xfffffff8(%rsp)[8byte] 
  0x00007f0f0486b7e4  41 89 d6             mov    %edx -> %r14d 
  0x00007f0f0486b7e7  41 55                push   %r13 %rsp -> %rsp 0xfffffff8(%rsp)[8byte] 
  0x00007f0f0486b7e9  41 54                push   %r12 %rsp -> %rsp 0xfffffff8(%rsp)[8byte] 
  0x00007f0f0486b7eb  55                   push   %rbp %rsp -> %rsp 0xfffffff8(%rsp)[8byte] 
  0x00007f0f0486b7ec  53                   push   %rbx %rsp -> %rsp 0xfffffff8(%rsp)[8byte] 
  0x00007f0f0486b7ed  48 89 fd             mov    %rdi -> %rbp 
  0x00007f0f0486b7f0  48 89 f3             mov    %rsi -> %rbx 
  0x00007f0f0486b7f3  48 83 ec 78          sub    $0x0000000000000078 %rsp -> %rsp 
  0x00007f0f0486b7f7  48 8b 46 08          mov    0x08(%rsi)[8byte] -> %rax 
  0x00007f0f0486b7fb  49 89 c4             mov    %rax -> %r12 
  0x00007f0f0486b7fe  49 83 e4 f8          and    $0xfffffffffffffff8 %r12 -> %r12 
  0x00007f0f0486b802  4c 89 e2             mov    %r12 -> %rdx 
  0x00007f0f0486b805  48 f7 da             neg    %rdx -> %rdx 
  0x00007f0f0486b808  48 39 d6             cmp    %rsi %rdx 
  0x00007f0f0486b80b  0f 87 9f 04 00 00    jnbe   $0x00007f0f0486bcb0 
Actual: 7f0f0486b811

Block 225:
  0x00007f0f0486b811  40 f6 c6 0f          test   %sil $0x0f 
  0x00007f0f0486b815  0f 85 95 04 00 00    jnz    $0x00007f0f0486bcb0 
Actual: 7f0f0486b81b

Block 226:
  0x00007f0f0486b81b  49 83 fc 1f          cmp    %r12 $0x000000000000001f 
  0x00007f0f0486b81f  0f 86 3b 05 00 00    jbe    $0x00007f0f0486bd60 
Actual: 7f0f0486b825

Block 227:
  0x00007f0f0486b825  a8 08                test   %al $0x08 
  0x00007f0f0486b827  0f 85 33 05 00 00    jnz    $0x00007f0f0486bd60 
Actual: 7f0f0486b82d

Block 228:
  0x00007f0f0486b82d  4c 3b 25 a4 0f 34 00 cmp    %r12 <rel> 0x00007f0f04bac7d8[8byte] 
  0x00007f0f0486b834  0f 87 fe 00 00 00    jnbe   $0x00007f0f0486b938 
Actual: 7f0f0486b83a

Block 229:
  0x00007f0f0486b83a  4a 8d 14 26          lea    (%rsi,%r12,1) -> %rdx 
  0x00007f0f0486b83e  48 8b 42 08          mov    0x08(%rdx)[8byte] -> %rax 
  0x00007f0f0486b842  48 83 f8 10          cmp    %rax $0x0000000000000010 
  0x00007f0f0486b846  0f 86 84 06 00 00    jbe    $0x00007f0f0486bed0 
Actual: 7f0f0486b84c

Block 230:
  0x00007f0f0486b84c  48 83 e0 f8          and    $0xfffffffffffffff8 %rax -> %rax 
  0x00007f0f0486b850  48 3b 87 80 08 00 00 cmp    %rax 0x00000880(%rdi)[8byte] 
  0x00007f0f0486b857  0f 83 73 06 00 00    jnb    $0x00007f0f0486bed0 
Actual: 7f0f0486b85d

Block 231:
  0x00007f0f0486b85d  8b 35 71 0f 34 00    mov    <rel> 0x00007f0f04bac7d4[4byte] -> %esi 
  0x00007f0f0486b863  4c 8d 43 10          lea    0x10(%rbx) -> %r8 
  0x00007f0f0486b867  85 f6                test   %esi %esi 
  0x00007f0f0486b869  0f 85 21 08 00 00    jnz    $0x00007f0f0486c090 
Actual: 7f0f0486b86f

Block 232:
  0x00007f0f0486b86f  64 83 3c 25 18 00 00 cmp    %fs:0x18[4byte] $0x00000000 
                      00 00
  0x00007f0f0486b878  74 01                jz     $0x00007f0f0486b87b 
Actual: 7f0f0486b87b

Block 233:
  0x00007f0f0486b87b  83 65 04 fe          and    $0xfffffffe 0x04(%rbp)[4byte] -> 0x04(%rbp)[4byte] 
  0x00007f0f0486b87f  41 c1 ec 04          shr    $0x00000004 %r12d -> %r12d 
  0x00007f0f0486b883  41 8d 44 24 fe       lea    0xfffffffe(%r12) -> %eax 
  0x00007f0f0486b888  48 8b 54 c5 08       mov    0x08(%rbp,%rax,8)[8byte] -> %rdx 
  0x00007f0f0486b88d  49 89 c4             mov    %rax -> %r12 
  0x00007f0f0486b890  48 8d 74 c5 08       lea    0x08(%rbp,%rax,8) -> %rsi 
  0x00007f0f0486b895  48 39 d3             cmp    %rbx %rdx 
  0x00007f0f0486b898  74 52                jz     $0x00007f0f0486b8ec 
Actual: 7f0f0486b89a

Block 234:
  0x00007f0f0486b89a  45 85 f6             test   %r14d %r14d 
  0x00007f0f0486b89d  bf ff ff ff ff       mov    $0xffffffff -> %edi 
  0x00007f0f0486b8a2  41 0f 95 c1          setnz  -> %r9l 
  0x00007f0f0486b8a6  66 2e 0f 1f 84 00 00 data16 nop    %cs:0x00000000(%rax,%rax,1)[4byte] 
                      00 00 00
  0x00007f0f0486b8b0  48 85 d2             test   %rdx %rdx 
  0x00007f0f0486b8b3  0f 95 c1             setnz  -> %cl 
  0x00007f0f0486b8b6  44 20 c9             and    %r9l %cl -> %cl 
  0x00007f0f0486b8b9  74 09                jz     $0x00007f0f0486b8c4 
Actual: 7f0f0486b8c4

Block 235:
  0x00007f0f0486b8c4  48 89 53 10          mov    %rdx -> 0x10(%rbx)[8byte] 
  0x00007f0f0486b8c8  48 89 d0             mov    %rdx -> %rax 
  0x00007f0f0486b8cb  64 83 3c 25 18 00 00 cmp    %fs:0x18[4byte] $0x00000000 
                      00 00
  0x00007f0f0486b8d4  74 01                jz     $0x00007f0f0486b8d7 
Actual: 7f0f0486b8d7

Block 236:
  0x00007f0f0486b8d7  48 0f b1 1e          cmpxchg %rbx (%rsi)[8byte] %rax -> (%rsi)[8byte] %rax 
  0x00007f0f0486b8db  48 39 d0             cmp    %rax %rdx 
  0x00007f0f0486b8de  0f 84 9c 05 00 00    jz     $0x00007f0f0486be80 
Actual: 7f0f0486be80

Block 237:
  0x00007f0f0486be80  44 39 e7             cmp    %edi %r12d 
  0x00007f0f0486be83  0f 84 9b fa ff ff    jz     $0x00007f0f0486b924 
Actual: 7f0f0486be89

Block 238:
  0x00007f0f0486be89  84 c9                test   %cl %cl 
  0x00007f0f0486be8b  0f 84 93 fa ff ff    jz     $0x00007f0f0486b924 
Actual: 7f0f0486b924

Block 239:
  0x00007f0f0486b924  48 83 c4 78          add    $0x0000000000000078 %rsp -> %rsp 
  0x00007f0f0486b928  5b                   pop    %rsp (%rsp)[8byte] -> %rbx %rsp 
  0x00007f0f0486b929  5d                   pop    %rsp (%rsp)[8byte] -> %rbp %rsp 
  0x00007f0f0486b92a  41 5c                pop    %rsp (%rsp)[8byte] -> %r12 %rsp 
  0x00007f0f0486b92c  41 5d                pop    %rsp (%rsp)[8byte] -> %r13 %rsp 
  0x00007f0f0486b92e  41 5e                pop    %rsp (%rsp)[8byte] -> %r14 %rsp 
  0x00007f0f0486b930  41 5f                pop    %rsp (%rsp)[8byte] -> %r15 %rsp 
  0x00007f0f0486b932  c3                   ret    %rsp (%rsp)[8byte] -> %rsp 
Actual: 7f0f0486f2ac

Block 240:
  0x00007f0f0486f2ac  48 83 c4 28          add    $0x0000000000000028 %rsp -> %rsp 
  0x00007f0f0486f2b0  5b                   pop    %rsp (%rsp)[8byte] -> %rbx %rsp 
  0x00007f0f0486f2b1  5d                   pop    %rsp (%rsp)[8byte] -> %rbp %rsp 
  0x00007f0f0486f2b2  41 5c                pop    %rsp (%rsp)[8byte] -> %r12 %rsp 
  0x00007f0f0486f2b4  41 5d                pop    %rsp (%rsp)[8byte] -> %r13 %rsp 
  0x00007f0f0486f2b6  c3                   ret    %rsp (%rsp)[8byte] -> %rsp 
Actual: 7f0f04819c28

Block 241:
  0x00007f0f04819c28  e9 af fc ff ff       jmp    $0x00007f0f048198dc 
  0x00007f0f048198dc  48 83 3d 24 21 39 00 cmp    <rel> 0x00007f0f04baba08[8byte] $0x0000000000000000 
                      00
  0x00007f0f048198e4  0f 84 43 03 00 00    jz     $0x00007f0f04819c2d 
Actual: 7f0f04819c2d

Block 242:
  0x00007f0f04819c2d  48 8d 05 bc 1d 39 00 lea    <rel> 0x00007f0f04bab9f0 -> %rax 
  0x00007f0f04819c34  ba 02 00 00 00       mov    $0x00000002 -> %edx 
  0x00007f0f04819c39  be 00 00 08 00       mov    $0x00080000 -> %esi 
  0x00007f0f04819c3e  48 8d 3d 9b 1b 16 00 lea    <rel> 0x00007f0f0497b7e0 -> %rdi 
  0x00007f0f04819c45  48 89 05 bc 1d 39 00 mov    %rax -> <rel> 0x00007f0f04baba08[8byte] 
  0x00007f0f04819c4c  89 d0                mov    %edx -> %eax 
  0x00007f0f04819c4e  0f 05                syscall -> %rcx 
Actual: 7f0f04819c50

Block 243:
  0x00007f0f04819c50  48 3d 00 f0 ff ff    cmp    %rax $0xfffffffffffff000 
  0x00007f0f04819c56  49 89 c7             mov    %rax -> %r15 
  0x00007f0f04819c59  0f 87 b1 00 00 00    jnbe   $0x00007f0f04819d10 
Actual: 7f0f04819c5f

Block 244:
  0x00007f0f04819c5f  85 c0                test   %eax %eax 
  0x00007f0f04819c61  0f 88 d6 fe ff ff    js     $0x00007f0f04819b3d 
Actual: 7f0f04819c67

Block 245:
  0x00007f0f04819c67  48 8d 15 f2 1c 39 00 lea    <rel> 0x00007f0f04bab960 -> %rdx 
  0x00007f0f04819c6e  89 c6                mov    %eax -> %esi 
  0x00007f0f04819c70  bf 01 00 00 00       mov    $0x00000001 -> %edi 
  0x00007f0f04819c75  e8 b6 6c 0c 00       call   $0x00007f0f048e0930 %rsp -> %rsp 0xfffffff8(%rsp)[8byte] 
  0x00007f0f048e0930  83 ff 01             cmp    %edi $0x00000001 
  0x00007f0f048e0933  89 f0                mov    %esi -> %eax 
  0x00007f0f048e0935  77 31                jnbe   $0x00007f0f048e0968 
Actual: 7f0f048e0937

Block 246:
  0x00007f0f048e0937  48 63 f8             movsxd %eax -> %rdi 
  0x00007f0f048e093a  48 89 d6             mov    %rdx -> %rsi 
  0x00007f0f048e093d  b8 05 00 00 00       mov    $0x00000005 -> %eax 
  0x00007f0f048e0942  0f 05                syscall -> %rcx 
  0x00007f0f048e0944  48 3d 00 f0 ff ff    cmp    %rax $0xfffffffffffff000 
  0x00007f0f048e094a  77 04                jnbe   $0x00007f0f048e0950 
Actual: 7f0f048e094c

Block 247:
  0x00007f0f048e094c  f3 c3                ret    %rsp (%rsp)[8byte] -> %rsp 
Actual: 7f0f04819c7a

Block 248:
  0x00007f0f04819c7a  83 f8 ff             cmp    %eax $0xffffffff 
  0x00007f0f04819c7d  0f 84 b0 fe ff ff    jz     $0x00007f0f04819b33 
Actual: 7f0f04819c83

Block 249:
  0x00007f0f04819c83  4c 8b 25 06 1d 39 00 mov    <rel> 0x00007f0f04bab990[8byte] -> %r12 
  0x00007f0f04819c8a  45 31 c9             xor    %r9d %r9d -> %r9d 
  0x00007f0f04819c8d  31 ff                xor    %edi %edi -> %edi 
  0x00007f0f04819c8f  45 89 f8             mov    %r15d -> %r8d 
  0x00007f0f04819c92  b9 02 00 00 00       mov    $0x00000002 -> %ecx 
  0x00007f0f04819c97  ba 01 00 00 00       mov    $0x00000001 -> %edx 
  0x00007f0f04819c9c  4c 89 e6             mov    %r12 -> %rsi 
  0x00007f0f04819c9f  e8 fc 14 0d 00       call   $0x00007f0f048eb1a0 %rsp -> %rsp 0xfffffff8(%rsp)[8byte] 
  0x00007f0f048eb1a0  48 85 ff             test   %rdi %rdi 
  0x00007f0f048eb1a3  41 57                push   %r15 %rsp -> %rsp 0xfffffff8(%rsp)[8byte] 
  0x00007f0f048eb1a5  4d 89 cf             mov    %r9 -> %r15 
  0x00007f0f048eb1a8  41 56                push   %r14 %rsp -> %rsp 0xfffffff8(%rsp)[8byte] 
  0x00007f0f048eb1aa  41 89 ce             mov    %ecx -> %r14d 
  0x00007f0f048eb1ad  41 55                push   %r13 %rsp -> %rsp 0xfffffff8(%rsp)[8byte] 
  0x00007f0f048eb1af  49 89 f5             mov    %rsi -> %r13 
  0x00007f0f048eb1b2  41 54                push   %r12 %rsp -> %rsp 0xfffffff8(%rsp)[8byte] 
  0x00007f0f048eb1b4  49 89 fc             mov    %rdi -> %r12 
  0x00007f0f048eb1b7  55                   push   %rbp %rsp -> %rsp 0xfffffff8(%rsp)[8byte] 
  0x00007f0f048eb1b8  53                   push   %rbx %rsp -> %rsp 0xfffffff8(%rsp)[8byte] 
  0x00007f0f048eb1b9  74 35                jz     $0x00007f0f048eb1f0 
Actual: 7f0f048eb1f0

Block 250:
  0x00007f0f048eb1f0  f6 c2 04             test   %dl $0x04 
  0x00007f0f048eb1f3  74 c6                jz     $0x00007f0f048eb1bb 
Actual: 7f0f048eb1bb

Block 251:
  0x00007f0f048eb1bb  49 63 e8             movsxd %r8d -> %rbp 
  0x00007f0f048eb1be  48 63 da             movsxd %edx -> %rbx 
  0x00007f0f048eb1c1  4d 89 f9             mov    %r15 -> %r9 
  0x00007f0f048eb1c4  49 89 e8             mov    %rbp -> %r8 
  0x00007f0f048eb1c7  4d 63 d6             movsxd %r14d -> %r10 
  0x00007f0f048eb1ca  48 89 da             mov    %rbx -> %rdx 
  0x00007f0f048eb1cd  4c 89 ee             mov    %r13 -> %rsi 
  0x00007f0f048eb1d0  4c 89 e7             mov    %r12 -> %rdi 
  0x00007f0f048eb1d3  b8 09 00 00 00       mov    $0x00000009 -> %eax 
  0x00007f0f048eb1d8  0f 05                syscall -> %rcx 
Actual: 7f0f048eb1da

Block 252:
  0x00007f0f048eb1da  48 3d 00 f0 ff ff    cmp    %rax $0xfffffffffffff000 
  0x00007f0f048eb1e0  77 56                jnbe   $0x00007f0f048eb238 
Actual: 7f0f048eb1e2

Block 253:
  0x00007f0f048eb1e2  5b                   pop    %rsp (%rsp)[8byte] -> %rbx %rsp 
  0x00007f0f048eb1e3  5d                   pop    %rsp (%rsp)[8byte] -> %rbp %rsp 
  0x00007f0f048eb1e4  41 5c                pop    %rsp (%rsp)[8byte] -> %r12 %rsp 
  0x00007f0f048eb1e6  41 5d                pop    %rsp (%rsp)[8byte] -> %r13 %rsp 
  0x00007f0f048eb1e8  41 5e                pop    %rsp (%rsp)[8byte] -> %r14 %rsp 
  0x00007f0f048eb1ea  41 5f                pop    %rsp (%rsp)[8byte] -> %r15 %rsp 
  0x00007f0f048eb1ec  c3                   ret    %rsp (%rsp)[8byte] -> %rsp 
Actual: 7f0f04819ca4

Block 254:
  0x00007f0f04819ca4  48 83 f8 ff          cmp    %rax $0xffffffffffffffff 
  0x00007f0f04819ca8  49 89 c6             mov    %rax -> %r14 
  0x00007f0f04819cab  0f 84 82 fe ff ff    jz     $0x00007f0f04819b33 
Actual: 7f0f04819cb1

Block 255:
  0x00007f0f04819cb1  8b 40 10             mov    0x10(%rax)[4byte] -> %eax 
  0x00007f0f04819cb4  48 8d 14 40          lea    (%rax,%rax,2) -> %rdx 
  0x00007f0f04819cb8  41 8b 46 08          mov    0x08(%r14)[4byte] -> %eax 
  0x00007f0f04819cbc  48 8d 04 90          lea    (%rax,%rdx,4) -> %rax 
  0x00007f0f04819cc0  41 8b 56 24          mov    0x24(%r14)[4byte] -> %edx 
  0x00007f0f04819cc4  48 8d 14 52          lea    (%rdx,%rdx,2) -> %rdx 
  0x00007f0f04819cc8  48 8d 0c d2          lea    (%rdx,%rdx,8) -> %rcx 
  0x00007f0f04819ccc  41 8b 56 20          mov    0x20(%r14)[4byte] -> %edx 
  0x00007f0f04819cd0  48 8d 14 8a          lea    (%rdx,%rcx,4) -> %rdx 
  0x00007f0f04819cd4  48 39 d0             cmp    %rax %rdx 
  0x00007f0f04819cd7  48 0f 4c c2          cmovl  %rdx %rax -> %rax 
  0x00007f0f04819cdb  41 8b 56 18          mov    0x18(%r14)[4byte] -> %edx 
  0x00007f0f04819cdf  41 03 56 14          add    0x14(%r14)[4byte] %edx -> %edx 
  0x00007f0f04819ce3  48 39 d0             cmp    %rax %rdx 
  0x00007f0f04819ce6  48 0f 4c c2          cmovl  %rdx %rax -> %rax 
  0x00007f0f04819cea  49 39 c4             cmp    %r12 %rax 
  0x00007f0f04819ced  0f 82 35 fe ff ff    jb     $0x00007f0f04819b28 
Actual: 7f0f04819cf3

Block 256:
  0x00007f0f04819cf3  49 63 ff             movsxd %r15d -> %rdi 
  0x00007f0f04819cf6  b8 03 00 00 00       mov    $0x00000003 -> %eax 
  0x00007f0f04819cfb  0f 05                syscall -> %rcx 
Actual: 7f0f04819cfd

Block 257:
  0x00007f0f04819cfd  4c 89 35 ec 1c 39 00 mov    %r14 -> <rel> 0x00007f0f04bab9f0[8byte] 
  0x00007f0f04819d04  44 89 25 f1 1c 39 00 mov    %r12d -> <rel> 0x00007f0f04bab9fc[4byte] 
  0x00007f0f04819d0b  e9 ea fb ff ff       jmp    $0x00007f0f048198fa 
  0x00007f0f048198fa  48 89 df             mov    %rbx -> %rdi 
  0x00007f0f048198fd  e8 ae c8 05 00       call   $0x00007f0f048761b0 %rsp -> %rsp 0xfffffff8(%rsp)[8byte] 
  0x00007f0f048761b0  66 0f ef c0          pxor   %xmm0 %xmm0 -> %xmm0 
  0x00007f0f048761b4  66 0f ef c9          pxor   %xmm1 %xmm1 -> %xmm1 
  0x00007f0f048761b8  66 0f ef d2          pxor   %xmm2 %xmm2 -> %xmm2 
  0x00007f0f048761bc  66 0f ef db          pxor   %xmm3 %xmm3 -> %xmm3 
  0x00007f0f048761c0  48 89 f8             mov    %rdi -> %rax 
  0x00007f0f048761c3  48 89 f9             mov    %rdi -> %rcx 
  0x00007f0f048761c6  48 81 e1 ff 0f 00 00 and    $0x0000000000000fff %rcx -> %rcx 
  0x00007f0f048761cd  48 81 f9 cf 0f 00 00 cmp    %rcx $0x0000000000000fcf 
  0x00007f0f048761d4  77 6a                jnbe   $0x00007f0f04876240 
Actual: 7f0f048761d6

Block 258:
  0x00007f0f04819902  48 85 c0             test   %rax %rax 
  0x00007f0f04819905  89 c2                mov    %eax -> %edx 
  0x00007f0f04819907  0f 84 18 04 00 00    jz     $0x00007f0f04819d25 
Actual: 7f0f0481990d

Block 259:
  0x00007f0f0481990d  48 8d 34 03          lea    (%rbx,%rax,1) -> %rsi 
  0x00007f0f04819911  48 89 d9             mov    %rbx -> %rcx 
  0x00007f0f04819914  0f 1f 40 00          nop    0x00(%rax)[4byte] 
  0x00007f0f04819918  0f b6 01             movzx  (%rcx)[1byte] -> %eax 
  0x00007f0f0481991b  c1 c2 09             rol    $0x00000009 %edx -> %edx 
  0x00007f0f0481991e  48 83 c1 01          add    $0x0000000000000001 %rcx -> %rcx 
  0x00007f0f04819922  01 c2                add    %eax %edx -> %edx 
  0x00007f0f04819924  48 39 ce             cmp    %rsi %rcx 
  0x00007f0f04819927  75 ef                jnz    $0x00007f0f04819918 
Actual: 7f0f04819918

Block 260:
  0x00007f0f04819918  0f b6 01             movzx  (%rcx)[1byte] -> %eax 
  0x00007f0f0481991b  c1 c2 09             rol    $0x00000009 %edx -> %edx 
  0x00007f0f0481991e  48 83 c1 01          add    $0x0000000000000001 %rcx -> %rcx 
  0x00007f0f04819922  01 c2                add    %eax %edx -> %edx 
  0x00007f0f04819924  48 39 ce             cmp    %rsi %rcx 
  0x00007f0f04819927  75 ef                jnz    $0x00007f0f04819918 
Actual: 7f0f04819918

Block 261:
  0x00007f0f04819929  41 89 d0             mov    %edx -> %r8d 
  0x00007f0f0481992c  85 d2                test   %edx %edx 
  0x00007f0f0481992e  b8 ff ff ff ff       mov    $0xffffffff -> %eax 
  0x00007f0f04819933  4c 0f 44 c0          cmovz  %rax %r8 -> %r8 
  0x00007f0f04819937  41 8b 4e 10          mov    0x10(%r14)[4byte] -> %ecx 
  0x00007f0f0481993b  85 c9                test   %ecx %ecx 
  0x00007f0f0481993d  0f 84 fa 01 00 00    jz     $0x00007f0f04819b3d 
Actual: 7f0f04819943

Block 262:
  0x00007f0f04819943  41 89 ca             mov    %ecx -> %r10d 
  0x00007f0f04819946  4c 89 c0             mov    %r8 -> %rax 
  0x00007f0f04819949  31 d2                xor    %edx %edx -> %edx 
  0x00007f0f0481994b  49 f7 f2             div    %r10 %rdx %rax -> %rdx %rax 
  0x00007f0f0481994e  83 e9 02             sub    $0x00000002 %ecx -> %ecx 
  0x00007f0f04819951  4c 89 c0             mov    %r8 -> %rax 
  0x00007f0f04819954  48 89 d6             mov    %rdx -> %rsi 
  0x00007f0f04819957  31 d2                xor    %edx %edx -> %edx 
  0x00007f0f04819959  48 f7 f1             div    %rcx %rdx %rax -> %rdx %rax 
  0x00007f0f0481995c  41 8b 46 08          mov    0x08(%r14)[4byte] -> %eax 
  0x00007f0f04819960  48 89 85 d0 fe ff ff mov    %rax -> 0xfffffed0(%rbp)[8byte] 
  0x00007f0f04819967  4c 8d 4a 01          lea    0x01(%rdx) -> %r9 
  0x00007f0f0481996b  48 89 c2             mov    %rax -> %rdx 
  0x00007f0f0481996e  4f 8d 1c 49          lea    (%r9,%r9,2) -> %r11 
  0x00007f0f04819972  4e 8d 24 9d 00 00 00 lea    0x00(,%r11,4) -> %r12 
                      00
  0x00007f0f0481997a  48 8d 04 76          lea    (%rsi,%rsi,2) -> %rax 
  0x00007f0f0481997e  4a 8d 0c 0e          lea    (%rsi,%r9,1) -> %rcx 
  0x00007f0f04819982  48 8d 14 82          lea    (%rdx,%rax,4) -> %rdx 
  0x00007f0f04819986  4d 8d 3c 16          lea    (%r14,%rdx,1) -> %r15 
  0x00007f0f0481998a  eb 17                jmp    $0x00007f0f048199a3 
  0x00007f0f048199a3  41 8b 77 04          mov    0x04(%r15)[4byte] -> %esi 
  0x00007f0f048199a7  85 f6                test   %esi %esi 
  0x00007f0f048199a9  0f 84 8e 01 00 00    jz     $0x00007f0f04819b3d 
Actual: 7f0f048199af

Block 263:
  0x00007f0f048199af  41 8b 07             mov    (%r15)[4byte] -> %eax 
  0x00007f0f048199b2  4c 39 c0             cmp    %rax %r8 
  0x00007f0f048199b5  75 d9                jnz    $0x00007f0f04819990 
Actual: 7f0f048199b7

Block 264:
  0x00007f0f048199b7  4c 01 f6             add    %r14 %rsi -> %rsi 
  0x00007f0f048199ba  48 89 df             mov    %rbx -> %rdi 
  0x00007f0f048199bd  4c 89 85 e0 fe ff ff mov    %r8 -> 0xfffffee0(%rbp)[8byte] 
  0x00007f0f048199c4  48 89 8d e8 fe ff ff mov    %rcx -> 0xfffffee8(%rbp)[8byte] 
  0x00007f0f048199cb  4c 89 8d f0 fe ff ff mov    %r9 -> 0xfffffef0(%rbp)[8byte] 
  0x00007f0f048199d2  4c 89 95 f8 fe ff ff mov    %r10 -> 0xfffffef8(%rbp)[8byte] 
  0x00007f0f048199d9  e8 c2 ad 05 00       call   $0x00007f0f048747a0 %rsp -> %rsp 0xfffffff8(%rsp)[8byte] 
  0x00007f0f048747a0  89 f1                mov    %esi -> %ecx 
  0x00007f0f048747a2  89 f8                mov    %edi -> %eax 
  0x00007f0f048747a4  48 83 e1 3f          and    $0x000000000000003f %rcx -> %rcx 
  0x00007f0f048747a8  48 83 e0 3f          and    $0x000000000000003f %rax -> %rax 
  0x00007f0f048747ac  83 f9 30             cmp    %ecx $0x00000030 
  0x00007f0f048747af  77 3f                jnbe   $0x00007f0f048747f0 
Actual: 7f0f048747b1

Block 265:
  0x00007f0f048199de  85 c0                test   %eax %eax 
  0x00007f0f048199e0  4c 8b 95 f8 fe ff ff mov    0xfffffef8(%rbp)[8byte] -> %r10 
  0x00007f0f048199e7  4c 8b 8d f0 fe ff ff mov    0xfffffef0(%rbp)[8byte] -> %r9 
  0x00007f0f048199ee  48 8b 8d e8 fe ff ff mov    0xfffffee8(%rbp)[8byte] -> %rcx 
  0x00007f0f048199f5  4c 8b 85 e0 fe ff ff mov    0xfffffee0(%rbp)[8byte] -> %r8 
  0x00007f0f048199fc  75 92                jnz    $0x00007f0f04819990 
Actual: 7f0f048199fe

Block 266:
  0x00007f0f048199fe  41 8b 47 08          mov    0x08(%r15)[4byte] -> %eax 
  0x00007f0f04819a02  85 c0                test   %eax %eax 
  0x00007f0f04819a04  0f 84 33 01 00 00    jz     $0x00007f0f04819b3d 
Actual: 7f0f04819a0a

Block 267:
  0x00007f0f04819a0a  4d 8d 04 06          lea    (%r14,%rax,1) -> %r8 
  0x00007f0f04819a0e  48 8d 85 00 ff ff ff lea    0xffffff00(%rbp) -> %rax 
  0x00007f0f04819a15  44 8b 15 e0 1f 39 00 mov    <rel> 0x00007f0f04bab9fc[4byte] -> %r10d 
  0x00007f0f04819a1c  bf 01 00 00 00       mov    $0x00000001 -> %edi 
  0x00007f0f04819a21  31 d2                xor    %edx %edx -> %edx 
  0x00007f0f04819a23  48 89 85 f8 fe ff ff mov    %rax -> 0xfffffef8(%rbp)[8byte] 
  0x00007f0f04819a2a  48 89 c1             mov    %rax -> %rcx 
  0x00007f0f04819a2d  eb 0b                jmp    $0x00007f0f04819a3a 
  0x00007f0f04819a3a  48 83 fa 06          cmp    %rdx $0x0000000000000006 
  0x00007f0f04819a3e  74 ef                jz     $0x00007f0f04819a2f 
Actual: 7f0f04819a40

Block 268:
  0x00007f0f04819a40  41 8b 44 d0 04       mov    0x04(%r8,%rdx,8)[4byte] -> %eax 
  0x00007f0f04819a45  41 8b 74 d0 08       mov    0x08(%r8,%rdx,8)[4byte] -> %esi 
  0x00007f0f04819a4a  44 8d 0c 30          lea    (%rax,%rsi,1) -> %r9d 
  0x00007f0f04819a4e  45 39 d1             cmp    %r9d %r10d 
  0x00007f0f04819a51  0f 87 e6 00 00 00    jnbe   $0x00007f0f04819b3d 
Actual: 7f0f04819a57

Block 269:
  0x00007f0f04819a57  4c 01 f0             add    %r14 %rax -> %rax 
  0x00007f0f04819a5a  83 ff 0d             cmp    %edi $0x0000000d 
  0x00007f0f04819a5d  48 89 01             mov    %rax -> (%rcx)[8byte] 
  0x00007f0f04819a60  89 f0                mov    %esi -> %eax 
  0x00007f0f04819a62  48 89 41 08          mov    %rax -> 0x08(%rcx)[8byte] 
  0x00007f0f04819a66  75 c7                jnz    $0x00007f0f04819a2f 
Actual: 7f0f04819a2f

Block 270:
  0x00007f0f04819a2f  48 83 c2 01          add    $0x0000000000000001 %rdx -> %rdx 
  0x00007f0f04819a33  83 c7 01             add    $0x00000001 %edi -> %edi 
  0x00007f0f04819a36  48 83 c1 10          add    $0x0000000000000010 %rcx -> %rcx 
  0x00007f0f04819a3a  48 83 fa 06          cmp    %rdx $0x0000000000000006 
  0x00007f0f04819a3e  74 ef                jz     $0x00007f0f04819a2f 
Actual: 7f0f04819a40

Block 271:
  0x00007f0f04819a68  bf 78 00 00 00       mov    $0x00000078 -> %edi 
  0x00007f0f04819a6d  e8 76 3e ff ff       call   $0x00007f0f0480d8e8 %rsp -> %rsp 0xfffffff8(%rsp)[8byte] 
  0x00007f0f0480d8e8  ff 25 3a c5 39 00    jmp    <rel> 0x00007f0f04ba9e28[8byte] 
Actual: 7f0f0486ef00

Block 272:
  0x00007f0f04819a72  48 85 c0             test   %rax %rax 
  0x00007f0f04819a75  49 89 c7             mov    %rax -> %r15 
  0x00007f0f04819a78  0f 84 bf 00 00 00    jz     $0x00007f0f04819b3d 
Actual: 7f0f04819a7e

Block 273:
  0x00007f0f04819a7e  49 8b 7d 00          mov    0x00(%r13)[8byte] -> %rdi 
  0x00007f0f04819a82  e8 79 c4 05 00       call   $0x00007f0f04875f00 %rsp -> %rsp 0xfffffff8(%rsp)[8byte] 
  0x00007f0f04875f00  55                   push   %rbp %rsp -> %rsp 0xfffffff8(%rsp)[8byte] 
  0x00007f0f04875f01  53                   push   %rbx %rsp -> %rsp 0xfffffff8(%rsp)[8byte] 
  0x00007f0f04875f02  48 89 fd             mov    %rdi -> %rbp 
  0x00007f0f04875f05  48 83 ec 08          sub    $0x0000000000000008 %rsp -> %rsp 
  0x00007f0f04875f09  e8 a2 02 00 00       call   $0x00007f0f048761b0 %rsp -> %rsp 0xfffffff8(%rsp)[8byte] 
  0x00007f0f048761b0  66 0f ef c0          pxor   %xmm0 %xmm0 -> %xmm0 
  0x00007f0f048761b4  66 0f ef c9          pxor   %xmm1 %xmm1 -> %xmm1 
  0x00007f0f048761b8  66 0f ef d2          pxor   %xmm2 %xmm2 -> %xmm2 
  0x00007f0f048761bc  66 0f ef db          pxor   %xmm3 %xmm3 -> %xmm3 
  0x00007f0f048761c0  48 89 f8             mov    %rdi -> %rax 
  0x00007f0f048761c3  48 89 f9             mov    %rdi -> %rcx 
  0x00007f0f048761c6  48 81 e1 ff 0f 00 00 and    $0x0000000000000fff %rcx -> %rcx 
  0x00007f0f048761cd  48 81 f9 cf 0f 00 00 cmp    %rcx $0x0000000000000fcf 
  0x00007f0f048761d4  77 6a                jnbe   $0x00007f0f04876240 
Actual: 7f0f048761d6

Block 274:
  0x00007f0f04875f0e  48 8d 58 01          lea    0x01(%rax) -> %rbx 
  0x00007f0f04875f12  48 89 df             mov    %rbx -> %rdi 
  0x00007f0f04875f15  e8 ce 79 f9 ff       call   $0x00007f0f0480d8e8 %rsp -> %rsp 0xfffffff8(%rsp)[8byte] 
  0x00007f0f0480d8e8  ff 25 3a c5 39 00    jmp    <rel> 0x00007f0f04ba9e28[8byte] 
Actual: 7f0f0486ef00

Block 275:
  0x00007f0f0486d08d  49 8b 52 10          mov    0x10(%r10)[8byte] -> %rdx 
  0x00007f0f0486d091  4c 89 d0             mov    %r10 -> %rax 
  0x00007f0f0486d094  64 83 3c 25 18 00 00 cmp    %fs:0x18[4byte] $0x00000000 
                      00 00
  0x00007f0f0486d09d  74 01                jz     $0x00007f0f0486d0a0 
Actual: 7f0f0486d0a0

Block 276:
  0x00007f0f0486d0a0  48 0f b1 11          cmpxchg %rdx (%rcx)[8byte] %rax -> (%rcx)[8byte] %rax 
  0x00007f0f0486d0a4  49 39 c2             cmp    %r10 %rax 
  0x00007f0f0486d0a7  48 89 c2             mov    %rax -> %rdx 
  0x00007f0f0486d0aa  4d 89 d6             mov    %r10 -> %r14 
  0x00007f0f0486d0ad  75 2f                jnz    $0x00007f0f0486d0de 
Actual: 7f0f0486d0af

Block 277:
  0x00007f0f0486d0af  e9 03 05 00 00       jmp    $0x00007f0f0486d5b7 
  0x00007f0f0486d5b7  41 8b 46 08          mov    0x08(%r14)[4byte] -> %eax 
  0x00007f0f0486d5bb  c1 e8 04             shr    $0x00000004 %eax -> %eax 
  0x00007f0f0486d5be  83 e8 02             sub    $0x00000002 %eax -> %eax 
  0x00007f0f0486d5c1  39 c7                cmp    %edi %eax 
  0x00007f0f0486d5c3  0f 85 27 04 00 00    jnz    $0x00007f0f0486d9f0 
Actual: 7f0f0486d5c9

Block 278:
  0x00007f0f0486d5c9  8b 05 05 f2 33 00    mov    <rel> 0x00007f0f04bac7d4[4byte] -> %eax 
  0x00007f0f0486d5cf  4d 8d 56 10          lea    0x10(%r14) -> %r10 
  0x00007f0f0486d5d3  85 c0                test   %eax %eax 
  0x00007f0f0486d5d5  0f 85 cc fe ff ff    jnz    $0x00007f0f0486d4a7 
Actual: 7f0f0486d5db

Block 279:
  0x00007f0f04875f1a  48 85 c0             test   %rax %rax 
  0x00007f0f04875f1d  74 19                jz     $0x00007f0f04875f38 
Actual: 7f0f04875f1f

Block 280:
  0x00007f0f04875f1f  48 83 c4 08          add    $0x0000000000000008 %rsp -> %rsp 
  0x00007f0f04875f23  48 89 da             mov    %rbx -> %rdx 
  0x00007f0f04875f26  48 89 ee             mov    %rbp -> %rsi 
  0x00007f0f04875f29  5b                   pop    %rsp (%rsp)[8byte] -> %rbx %rsp 
  0x00007f0f04875f2a  5d                   pop    %rsp (%rsp)[8byte] -> %rbp %rsp 
  0x00007f0f04875f2b  48 89 c7             mov    %rax -> %rdi 
  0x00007f0f04875f2e  e9 1d 91 00 00       jmp    $0x00007f0f0487f050 
  0x00007f0f0487f050  48 83 fa 20          cmp    %rdx $0x0000000000000020 
  0x00007f0f0487f054  48 89 f8             mov    %rdi -> %rax 
  0x00007f0f0487f057  73 77                jnb    $0x00007f0f0487f0d0 
Actual: 7f0f0487f059

Block 281:
  0x00007f0f0487f069  f6 c2 02             test   %dl $0x02 
  0x00007f0f0487f06c  74 12                jz     $0x00007f0f0487f080 
Actual: 7f0f0487f080

Block 282:
  0x00007f0f0487f085  8b 0e                mov    (%rsi)[4byte] -> %ecx 
  0x00007f0f0487f087  89 0f                mov    %ecx -> (%rdi)[4byte] 
  0x00007f0f0487f089  48 83 c6 04          add    $0x0000000000000004 %rsi -> %rsi 
  0x00007f0f0487f08d  48 83 c7 04          add    $0x0000000000000004 %rdi -> %rdi 
  0x00007f0f0487f091  f6 c2 08             test   %dl $0x08 
  0x00007f0f0487f094  74 0e                jz     $0x00007f0f0487f0a4 
Actual: 7f0f0487f096

Block 283:
  0x00007f0f0487f096  48 8b 0e             mov    (%rsi)[8byte] -> %rcx 
  0x00007f0f0487f099  48 89 0f             mov    %rcx -> (%rdi)[8byte] 
  0x00007f0f0487f09c  48 83 c6 08          add    $0x0000000000000008 %rsi -> %rsi 
  0x00007f0f0487f0a0  48 83 c7 08          add    $0x0000000000000008 %rdi -> %rdi 
  0x00007f0f0487f0a4  81 e2 f0 00 00 00    and    $0x000000f0 %edx -> %edx 
  0x00007f0f0487f0aa  74 1f                jz     $0x00007f0f0487f0cb 
Actual: 7f0f0487f0cb

Block 284:
  0x00007f0f04819a87  48 85 c0             test   %rax %rax 
  0x00007f0f04819a8a  49 89 47 08          mov    %rax -> 0x08(%r15)[8byte] 
  0x00007f0f04819a8e  0f 84 9c 02 00 00    jz     $0x00007f0f04819d30 
Actual: 7f0f04819a94

Block 285:
  0x00007f0f04819a94  48 8b 05 a5 1e 39 00 mov    <rel> 0x00007f0f04bab940[8byte] -> %rax 
  0x00007f0f04819a9b  bb 01 00 00 00       mov    $0x00000001 -> %ebx 
  0x00007f0f04819aa0  4c 89 3d 99 1e 39 00 mov    %r15 -> <rel> 0x00007f0f04bab940[8byte] 
  0x00007f0f04819aa7  45 31 f6             xor    %r14d %r14d -> %r14d 
  0x00007f0f04819aaa  49 89 07             mov    %rax -> (%r15)[8byte] 
  0x00007f0f04819aad  48 8b 85 f8 fe ff ff mov    0xfffffef8(%rbp)[8byte] -> %rax 
  0x00007f0f04819ab4  4c 8d 60 08          lea    0x08(%rax) -> %r12 
  0x00007f0f04819ab8  eb 0d                jmp    $0x00007f0f04819ac7 
  0x00007f0f04819ac7  49 83 fe 06          cmp    %r14 $0x0000000000000006 
  0x00007f0f04819acb  74 f3                jz     $0x00007f0f04819ac0 
Actual: 7f0f04819acd

Block 286:
  0x00007f0f04819acd  48 8b 95 f8 fe ff ff mov    0xfffffef8(%rbp)[8byte] -> %rdx 
  0x00007f0f04819ad4  4c 89 f0             mov    %r14 -> %rax 
  0x00007f0f04819ad7  44 89 f7             mov    %r14d -> %edi 
  0x00007f0f04819ada  48 c1 e0 04          shl    $0x0000000000000004 %rax -> %rax 
  0x00007f0f04819ade  48 8b 34 02          mov    (%rdx,%rax,1)[8byte] -> %rsi 
  0x00007f0f04819ae2  49 8b 14 04          mov    (%r12,%rax,1)[8byte] -> %rdx 
  0x00007f0f04819ae6  e8 45 f7 ff ff       call   $0x00007f0f04819230 %rsp -> %rsp 0xfffffff8(%rsp)[8byte] 
  0x00007f0f04819230  41 57                push   %r15 %rsp -> %rsp 0xfffffff8(%rsp)[8byte] 
  0x00007f0f04819232  41 56                push   %r14 %rsp -> %rsp 0xfffffff8(%rsp)[8byte] 
  0x00007f0f04819234  41 55                push   %r13 %rsp -> %rsp 0xfffffff8(%rsp)[8byte] 
  0x00007f0f04819236  41 54                push   %r12 %rsp -> %rsp 0xfffffff8(%rsp)[8byte] 
  0x00007f0f04819238  55                   push   %rbp %rsp -> %rsp 0xfffffff8(%rsp)[8byte] 
  0x00007f0f04819239  53                   push   %rbx %rsp -> %rsp 0xfffffff8(%rsp)[8byte] 
  0x00007f0f0481923a  48 83 ec 08          sub    $0x0000000000000008 %rsp -> %rsp 
  0x00007f0f0481923e  48 83 fa 07          cmp    %rdx $0x0000000000000007 
  0x00007f0f04819242  76 44                jbe    $0x00007f0f04819288 
Actual: 7f0f04819244

Block 287:
  0x00007f0f04819244  83 ff 03             cmp    %edi $0x00000003 
  0x00007f0f04819247  8b 0e                mov    (%rsi)[4byte] -> %ecx 
  0x00007f0f04819249  b8 17 10 05 20       mov    $0x20051017 -> %eax 
  0x00007f0f0481924e  74 13                jz     $0x00007f0f04819263 
Actual: 7f0f04819250

Block 288:
  0x00007f0f04819250  89 f8                mov    %edi -> %eax 
  0x00007f0f04819252  41 b8 20 07 09 20    mov    $0x20090720 -> %r8d 
  0x00007f0f04819258  35 15 11 03 20       xor    $0x20031115 %eax -> %eax 
  0x00007f0f0481925d  85 ff                test   %edi %edi 
  0x00007f0f0481925f  41 0f 44 c0          cmovz  %r8d %eax -> %eax 
  0x00007f0f04819263  39 c8                cmp    %eax %ecx 
  0x00007f0f04819265  75 21                jnz    $0x00007f0f04819288 
Actual: 7f0f04819267

Block 289:
  0x00007f0f04819267  48 8d 05 f2 6d 14 00 lea    <rel> 0x00007f0f04960060 -> %rax 
  0x00007f0f0481926e  44 8b 66 04          mov    0x04(%rsi)[4byte] -> %r12d 
  0x00007f0f04819272  4c 63 ef             movsxd %edi -> %r13 
  0x00007f0f04819275  4e 3b 24 e8          cmp    %r12 (%rax,%r13,8)[8byte] 
  0x00007f0f04819279  72 0d                jb     $0x00007f0f04819288 
Actual: 7f0f0481927b

Block 290:
  0x00007f0f0481927b  4a 8d 04 a5 08 00 00 lea    0x08(,%r12,4) -> %rax 
                      00
  0x00007f0f04819283  48 39 c2             cmp    %rdx %rax 
  0x00007f0f04819286  77 28                jnbe   $0x00007f0f048192b0 
Actual: 7f0f048192b0

Block 291:
  0x00007f0f048192b0  41 89 ff             mov    %edi -> %r15d 
  0x00007f0f048192b3  4a 8d 3c e5 40 00 00 lea    0x40(,%r12,8) -> %rdi 
                      00
  0x00007f0f048192bb  48 89 d5             mov    %rdx -> %rbp 
  0x00007f0f048192be  48 89 f3             mov    %rsi -> %rbx 
  0x00007f0f048192c1  e8 22 46 ff ff       call   $0x00007f0f0480d8e8 %rsp -> %rsp 0xfffffff8(%rsp)[8byte] 
  0x00007f0f0480d8e8  ff 25 3a c5 39 00    jmp    <rel> 0x00007f0f04ba9e28[8byte] 
Actual: 7f0f0486ef00

Block 292:
  0x00007f0f048192c6  48 85 c0             test   %rax %rax 
  0x00007f0f048192c9  74 cd                jz     $0x00007f0f04819298 
Actual: 7f0f048192cb

Block 293:
  0x00007f0f048192cb  4d 85 e4             test   %r12 %r12 
  0x00007f0f048192ce  48 89 58 08          mov    %rbx -> 0x08(%rax)[8byte] 
  0x00007f0f048192d2  48 89 68 10          mov    %rbp -> 0x10(%rax)[8byte] 
  0x00007f0f048192d6  48 c7 40 28 00 00 00 mov    $0x0000000000000000 -> 0x28(%rax)[8byte] 
                      00
  0x00007f0f048192de  48 c7 40 20 00 00 00 mov    $0x0000000000000000 -> 0x20(%rax)[8byte] 
                      00
  0x00007f0f048192e6  c7 40 30 00 00 00 00 mov    $0x00000000 -> 0x30(%rax)[4byte] 
  0x00007f0f048192ed  c7 40 34 00 00 00 00 mov    $0x00000000 -> 0x34(%rax)[4byte] 
  0x00007f0f048192f4  44 89 60 38          mov    %r12d -> 0x38(%rax)[4byte] 
  0x00007f0f048192f8  74 9e                jz     $0x00007f0f04819298 
Actual: 7f0f048192fa

Block 294:
  0x00007f0f048192fa  8b 4b 08             mov    0x08(%rbx)[4byte] -> %ecx 
  0x00007f0f048192fd  48 39 cd             cmp    %rbp %rcx 
  0x00007f0f04819300  48 89 cf             mov    %rcx -> %rdi 
  0x00007f0f04819303  72 7b                jb     $0x00007f0f04819380 
Actual: 7f0f04819305

Block 295:
  0x00007f0f04819305  4c 8d 15 94 d5 38 00 lea    <rel> 0x00007f0f04ba68a0 -> %r10 
  0x00007f0f0481930c  4c 8d 05 0d 68 14 00 lea    <rel> 0x00007f0f0495fb20 -> %r8 
  0x00007f0f04819313  31 d2                xor    %edx %edx -> %edx 
  0x00007f0f04819315  45 89 f9             mov    %r15d -> %r9d 
  0x00007f0f04819318  0f 1f 84 00 00 00 00 nop    0x00000000(%rax,%rax,1)[4byte] 
                      00
  0x00007f0f04819320  41 83 ff 0c          cmp    %r15d $0x0000000c 
  0x00007f0f04819324  0f 87 e6 00 00 00    jnbe   $0x00007f0f04819410 
Actual: 7f0f0481932a

Block 296:
  0x00007f0f0481932a  4b 63 34 88          movsxd (%r8,%r9,4)[4byte] -> %rsi 
  0x00007f0f0481932e  4c 01 c6             add    %r8 %rsi -> %rsi 
  0x00007f0f04819331  ff e6                jmp    %rsi 
Actual: 7f0f04819410

Block 297:
  0x00007f0f04819410  45 85 ff             test   %r15d %r15d 
  0x00007f0f04819413  0f 85 27 ff ff ff    jnz    $0x00007f0f04819340 
Actual: 7f0f04819419

Block 298:
  0x00007f0f04819419  48 83 fa 47          cmp    %rdx $0x0000000000000047 
  0x00007f0f0481941d  0f 87 2b ff ff ff    jnbe   $0x00007f0f0481934e 
Actual: 7f0f04819423

Block 299:
  0x00007f0f04819423  e9 18 ff ff ff       jmp    $0x00007f0f04819340 
  0x00007f0f04819340  4b 8b 34 ea          mov    (%r10,%r13,8)[8byte] -> %rsi 
  0x00007f0f04819344  83 3c 96 05          cmp    (%rsi,%rdx,4)[4byte] $0x00000005 
  0x00007f0f04819348  0f 84 e2 00 00 00    jz     $0x00007f0f04819430 
Actual: 7f0f0481934e

Block 300:
  0x00007f0f0481934e  48 01 d9             add    %rbx %rcx -> %rcx 
  0x00007f0f04819351  48 89 4c d0 40       mov    %rcx -> 0x40(%rax,%rdx,8)[8byte] 
  0x00007f0f04819356  48 83 c2 01          add    $0x0000000000000001 %rdx -> %rdx 
  0x00007f0f0481935a  49 39 d4             cmp    %r12 %rdx 
  0x00007f0f0481935d  0f 84 35 ff ff ff    jz     $0x00007f0f04819298 
Actual: 7f0f04819363

Block 301:
  0x00007f0f04819363  8b 4c 93 08          mov    0x08(%rbx,%rdx,4)[4byte] -> %ecx 
  0x00007f0f04819367  48 39 cd             cmp    %rbp %rcx 
  0x00007f0f0481936a  48 89 cf             mov    %rcx -> %rdi 
  0x00007f0f0481936d  73 b1                jnb    $0x00007f0f04819320 
Actual: 7f0f04819320

Block 302:
  0x00007f0f04819320  41 83 ff 0c          cmp    %r15d $0x0000000c 
  0x00007f0f04819324  0f 87 e6 00 00 00    jnbe   $0x00007f0f04819410 
Actual: 7f0f0481932a

Block 303:
  0x00007f0f04819430  83 e7 03             and    $0x00000003 %edi -> %edi 
  0x00007f0f04819433  0f 85 47 ff ff ff    jnz    $0x00007f0f04819380 
Actual: 7f0f04819439

Block 304:
  0x00007f0f04819439  8b 0c 0b             mov    (%rbx,%rcx,1)[4byte] -> %ecx 
  0x00007f0f0481943c  89 4c d0 40          mov    %ecx -> 0x40(%rax,%rdx,8)[4byte] 
  0x00007f0f04819440  e9 11 ff ff ff       jmp    $0x00007f0f04819356 
  0x00007f0f04819356  48 83 c2 01          add    $0x0000000000000001 %rdx -> %rdx 
  0x00007f0f0481935a  49 39 d4             cmp    %r12 %rdx 
  0x00007f0f0481935d  0f 84 35 ff ff ff    jz     $0x00007f0f04819298 
Actual: 7f0f04819363

Block 305:
  0x00007f0f04819298  48 83 c4 08          add    $0x0000000000000008 %rsp -> %rsp 
  0x00007f0f0481929c  5b                   pop    %rsp (%rsp)[8byte] -> %rbx %rsp 
  0x00007f0f0481929d  5d                   pop    %rsp (%rsp)[8byte] -> %rbp %rsp 
  0x00007f0f0481929e  41 5c                pop    %rsp (%rsp)[8byte] -> %r12 %rsp 
  0x00007f0f048192a0  41 5d                pop    %rsp (%rsp)[8byte] -> %r13 %rsp 
  0x00007f0f048192a2  41 5e                pop    %rsp (%rsp)[8byte] -> %r14 %rsp 
  0x00007f0f048192a4  41 5f                pop    %rsp (%rsp)[8byte] -> %r15 %rsp 
  0x00007f0f048192a6  c3                   ret    %rsp (%rsp)[8byte] -> %rsp 
Actual: 7f0f04819aeb

Block 306:
  0x00007f0f04819aeb  48 85 c0             test   %rax %rax 
  0x00007f0f04819aee  4b 89 44 f7 10       mov    %rax -> 0x10(%r15,%r14,8)[8byte] 
  0x00007f0f04819af3  74 15                jz     $0x00007f0f04819b0a 
Actual: 7f0f04819af5

Block 307:
  0x00007f0f04819af5  49 8b 57 08          mov    0x08(%r15)[8byte] -> %rdx 
  0x00007f0f04819af9  c7 40 18 02 00 00 00 mov    $0x00000002 -> 0x18(%rax)[4byte] 
  0x00007f0f04819b00  c7 40 30 ff ff ff ff mov    $0xffffffff -> 0x30(%rax)[4byte] 
  0x00007f0f04819b07  48 89 10             mov    %rdx -> (%rax)[8byte] 
  0x00007f0f04819b0a  83 fb 0d             cmp    %ebx $0x0000000d 
  0x00007f0f04819b0d  75 b1                jnz    $0x00007f0f04819ac0 
Actual: 7f0f04819ac0

Block 308:
  0x00007f0f04819ac0  49 83 c6 01          add    $0x0000000000000001 %r14 -> %r14 
  0x00007f0f04819ac4  83 c3 01             add    $0x00000001 %ebx -> %ebx 
  0x00007f0f04819ac7  49 83 fe 06          cmp    %r14 $0x0000000000000006 
  0x00007f0f04819acb  74 f3                jz     $0x00007f0f04819ac0 
Actual: 7f0f04819acd

Block 309:
  0x00007f0f048193e0  48 83 fa 05          cmp    %rdx $0x0000000000000005 
  0x00007f0f048193e4  0f 86 56 ff ff ff    jbe    $0x00007f0f04819340 
Actual: 7f0f04819340

Block 310:
  0x00007f0f04819340  4b 8b 34 ea          mov    (%r10,%r13,8)[8byte] -> %rsi 
  0x00007f0f04819344  83 3c 96 05          cmp    (%rsi,%rdx,4)[4byte] $0x00000005 
  0x00007f0f04819348  0f 84 e2 00 00 00    jz     $0x00007f0f04819430 
Actual: 7f0f0481934e

Block 311:
  0x00007f0f04819400  48 83 fa 6e          cmp    %rdx $0x000000000000006e 
  0x00007f0f04819404  0f 86 36 ff ff ff    jbe    $0x00007f0f04819340 
Actual: 7f0f04819340

Block 312:
  0x00007f0f04819263  39 c8                cmp    %eax %ecx 
  0x00007f0f04819265  75 21                jnz    $0x00007f0f04819288 
Actual: 7f0f04819267

Block 313:
  0x00007f0f048193f0  48 83 fa 12          cmp    %rdx $0x0000000000000012 
  0x00007f0f048193f4  0f 86 46 ff ff ff    jbe    $0x00007f0f04819340 
Actual: 7f0f04819340

Block 314:
  0x00007f0f048193d0  48 83 fa 2d          cmp    %rdx $0x000000000000002d 
  0x00007f0f048193d4  0f 86 66 ff ff ff    jbe    $0x00007f0f04819340 
Actual: 7f0f04819340

Block 315:
  0x00007f0f04819338  48 83 fa 04          cmp    %rdx $0x0000000000000004 
  0x00007f0f0481933c  77 42                jnbe   $0x00007f0f04819380 
Actual: 7f0f0481933e

Block 316:
  0x00007f0f0481933e  66 90                nop    
  0x00007f0f04819340  4b 8b 34 ea          mov    (%r10,%r13,8)[8byte] -> %rsi 
  0x00007f0f04819344  83 3c 96 05          cmp    (%rsi,%rdx,4)[4byte] $0x00000005 
  0x00007f0f04819348  0f 84 e2 00 00 00    jz     $0x00007f0f04819430 
Actual: 7f0f0481934e

Block 317:
  0x00007f0f048193a0  48 83 fa 02          cmp    %rdx $0x0000000000000002 
  0x00007f0f048193a4  76 9a                jbe    $0x00007f0f04819340 
Actual: 7f0f04819340

Block 318:
  0x00007f0f04819390  48 83 fa 06          cmp    %rdx $0x0000000000000006 
  0x00007f0f04819394  76 aa                jbe    $0x00007f0f04819340 
Actual: 7f0f04819340

Block 319:
  0x00007f0f048193b0  48 83 fa 0c          cmp    %rdx $0x000000000000000c 
  0x00007f0f048193b4  76 8a                jbe    $0x00007f0f04819340 
Actual: 7f0f04819340

Block 320:
  0x00007f0f04819378  48 83 fa 01          cmp    %rdx $0x0000000000000001 
  0x00007f0f0481937c  76 c2                jbe    $0x00007f0f04819340 
Actual: 7f0f04819340

Block 321:
  0x00007f0f048193c0  48 83 fa 0f          cmp    %rdx $0x000000000000000f 
  0x00007f0f048193c4  0f 86 76 ff ff ff    jbe    $0x00007f0f04819340 
Actual: 7f0f04819340

Block 322:
  0x00007f0f04819b0f  4c 63 a5 dc fe ff ff movsxd 0xfffffedc(%rbp)[4byte] -> %r12 
  0x00007f0f04819b16  49 8b 47 08          mov    0x08(%r15)[8byte] -> %rax 
  0x00007f0f04819b1a  49 89 45 00          mov    %rax -> 0x00(%r13)[8byte] 
  0x00007f0f04819b1e  4b 8b 44 e7 10       mov    0x10(%r15,%r12,8)[8byte] -> %rax 
  0x00007f0f04819b23  e9 88 fd ff ff       jmp    $0x00007f0f048198b0 
  0x00007f0f048198b0  48 8d 65 d8          lea    0xffffffd8(%rbp) -> %rsp 
  0x00007f0f048198b4  5b                   pop    %rsp (%rsp)[8byte] -> %rbx %rsp 
  0x00007f0f048198b5  41 5c                pop    %rsp (%rsp)[8byte] -> %r12 %rsp 
  0x00007f0f048198b7  41 5d                pop    %rsp (%rsp)[8byte] -> %r13 %rsp 
  0x00007f0f048198b9  41 5e                pop    %rsp (%rsp)[8byte] -> %r14 %rsp 
  0x00007f0f048198bb  41 5f                pop    %rsp (%rsp)[8byte] -> %r15 %rsp 
  0x00007f0f048198bd  5d                   pop    %rsp (%rsp)[8byte] -> %rbp %rsp 
  0x00007f0f048198be  c3                   ret    %rsp (%rsp)[8byte] -> %rsp 
Actual: 7f0f04818fca

Block 323:
  0x00007f0f04818fca  48 85 c0             test   %rax %rax 
  0x00007f0f04818fcd  0f 85 ac fa ff ff    jnz    $0x00007f0f04818a7f 
Actual: 7f0f04818a7f

Block 324:
  0x00007f0f04818a7f  48 8d 65 d8          lea    0xffffffd8(%rbp) -> %rsp 
  0x00007f0f04818a83  5b                   pop    %rsp (%rsp)[8byte] -> %rbx %rsp 
  0x00007f0f04818a84  41 5c                pop    %rsp (%rsp)[8byte] -> %r12 %rsp 
  0x00007f0f04818a86  41 5d                pop    %rsp (%rsp)[8byte] -> %r13 %rsp 
  0x00007f0f04818a88  41 5e                pop    %rsp (%rsp)[8byte] -> %r14 %rsp 
  0x00007f0f04818a8a  41 5f                pop    %rsp (%rsp)[8byte] -> %r15 %rsp 
  0x00007f0f04818a8c  5d                   pop    %rsp (%rsp)[8byte] -> %rbp %rsp 
  0x00007f0f04818a8d  c3                   ret    %rsp (%rsp)[8byte] -> %rsp 
Actual: 7f0f0481867c

Block 325:
  0x00007f0f0481867c  48 85 c0             test   %rax %rax 
  0x00007f0f0481867f  4a 89 84 f4 a0 00 00 mov    %rax -> 0x000000a0(%rsp,%r14,8)[8byte] 
                      00
  0x00007f0f04818687  74 57                jz     $0x00007f0f048186e0 
Actual: 7f0f04818689

Block 326:
  0x00007f0f04818689  83 78 30 ff          cmp    0x30(%rax)[4byte] $0xffffffff 
  0x00007f0f0481868d  74 07                jz     $0x00007f0f04818696 
Actual: 7f0f04818696

Block 327:
  0x00007f0f04818696  4e 8b 7c f4 30       mov    0x30(%rsp,%r14,8)[8byte] -> %r15 
  0x00007f0f0481869b  48 8d 05 56 f5 15 00 lea    <rel> 0x00007f0f04977bf8 -> %rax 
  0x00007f0f048186a2  48 89 44 24 08       mov    %rax -> 0x08(%rsp)[8byte] 
  0x00007f0f048186a7  49 39 c7             cmp    %r15 %rax 
  0x00007f0f048186aa  74 99                jz     $0x00007f0f04818645 
Actual: 7f0f048186ac

Block 328:
  0x00007f0f048186ac  4b 8b ac f4 80 00 00 mov    0x00000080(%r12,%r14,8)[8byte] -> %rbp 
                      00
  0x00007f0f048186b4  4c 89 ff             mov    %r15 -> %rdi 
  0x00007f0f048186b7  48 89 ee             mov    %rbp -> %rsi 
  0x00007f0f048186ba  e8 e1 c0 05 00       call   $0x00007f0f048747a0 %rsp -> %rsp 0xfffffff8(%rsp)[8byte] 
  0x00007f0f048747a0  89 f1                mov    %esi -> %ecx 
  0x00007f0f048747a2  89 f8                mov    %edi -> %eax 
  0x00007f0f048747a4  48 83 e1 3f          and    $0x000000000000003f %rcx -> %rcx 
  0x00007f0f048747a8  48 83 e0 3f          and    $0x000000000000003f %rax -> %rax 
  0x00007f0f048747ac  83 f9 30             cmp    %ecx $0x00000030 
  0x00007f0f048747af  77 3f                jnbe   $0x00007f0f048747f0 
Actual: 7f0f048747f0

Block 329:
  0x00007f0f04875190  66 0f ef c0          pxor   %xmm0 %xmm0 -> %xmm0 
  0x00007f0f04875194  66 0f 6f 17          movdqa (%rdi)[16byte] -> %xmm2 
  0x00007f0f04875198  66 0f 6f 0e          movdqa (%rsi)[16byte] -> %xmm1 
  0x00007f0f0487519c  66 0f 74 c1          pcmpeqb %xmm1 %xmm0 -> %xmm0 
  0x00007f0f048751a0  66 0f 73 fa 08       pslldq $0x08 %xmm2 -> %xmm2 
  0x00007f0f048751a5  66 0f 74 d1          pcmpeqb %xmm1 %xmm2 -> %xmm2 
  0x00007f0f048751a9  66 0f f8 d0          psubb  %xmm0 %xmm2 -> %xmm2 
  0x00007f0f048751ad  66 44 0f d7 ca       pmovmskb %xmm2 -> %r9d 
  0x00007f0f048751b2  d3 ea                shr    %cl %edx -> %edx 
  0x00007f0f048751b4  41 d3 e9             shr    %cl %r9d -> %r9d 
  0x00007f0f048751b7  44 29 ca             sub    %r9d %edx -> %edx 
  0x00007f0f048751ba  0f 85 d5 09 00 00    jnz    $0x00007f0f04875b95 
Actual: 7f0f04875b95

Block 330:
  0x00007f0f048186bf  85 c0                test   %eax %eax 
  0x00007f0f048186c1  0f 84 79 ff ff ff    jz     $0x00007f0f04818640 
Actual: 7f0f048186c7

Block 331:
  0x00007f0f048186c7  4c 89 ff             mov    %r15 -> %rdi 
  0x00007f0f048186ca  e8 31 d8 05 00       call   $0x00007f0f04875f00 %rsp -> %rsp 0xfffffff8(%rsp)[8byte] 
  0x00007f0f04875f00  55                   push   %rbp %rsp -> %rsp 0xfffffff8(%rsp)[8byte] 
  0x00007f0f04875f01  53                   push   %rbx %rsp -> %rsp 0xfffffff8(%rsp)[8byte] 
  0x00007f0f04875f02  48 89 fd             mov    %rdi -> %rbp 
  0x00007f0f04875f05  48 83 ec 08          sub    $0x0000000000000008 %rsp -> %rsp 
  0x00007f0f04875f09  e8 a2 02 00 00       call   $0x00007f0f048761b0 %rsp -> %rsp 0xfffffff8(%rsp)[8byte] 
  0x00007f0f048761b0  66 0f ef c0          pxor   %xmm0 %xmm0 -> %xmm0 
  0x00007f0f048761b4  66 0f ef c9          pxor   %xmm1 %xmm1 -> %xmm1 
  0x00007f0f048761b8  66 0f ef d2          pxor   %xmm2 %xmm2 -> %xmm2 
  0x00007f0f048761bc  66 0f ef db          pxor   %xmm3 %xmm3 -> %xmm3 
  0x00007f0f048761c0  48 89 f8             mov    %rdi -> %rax 
  0x00007f0f048761c3  48 89 f9             mov    %rdi -> %rcx 
  0x00007f0f048761c6  48 81 e1 ff 0f 00 00 and    $0x0000000000000fff %rcx -> %rcx 
  0x00007f0f048761cd  48 81 f9 cf 0f 00 00 cmp    %rcx $0x0000000000000fcf 
  0x00007f0f048761d4  77 6a                jnbe   $0x00007f0f04876240 
Actual: 7f0f048761d6

Block 332:
  0x00007f0f048186cf  48 85 c0             test   %rax %rax 
  0x00007f0f048186d2  4a 89 44 f4 30       mov    %rax -> 0x30(%rsp,%r14,8)[8byte] 
  0x00007f0f048186d7  0f 85 68 ff ff ff    jnz    $0x00007f0f04818645 
Actual: 7f0f04818645

Block 333:
  0x00007f0f04818645  45 85 ed             test   %r13d %r13d 
  0x00007f0f04818648  41 8d 45 ff          lea    0xffffffff(%r13) -> %eax 
  0x00007f0f0481864c  0f 8e 8e 01 00 00    jle    $0x00007f0f048187e0 
Actual: 7f0f04818652

Block 334:
  0x00007f0f04818652  83 f8 06             cmp    %eax $0x00000006 
  0x00007f0f04818655  0f 84 11 03 00 00    jz     $0x00007f0f0481896c 
Actual: 7f0f0481865b

Block 335:
  0x00007f0f0481865b  44 89 6c 24 14       mov    %r13d -> 0x14(%rsp)[4byte] 
  0x00007f0f04818660  41 89 c5             mov    %eax -> %r13d 
  0x00007f0f04818663  4d 63 f5             movsxd %r13d -> %r14 
  0x00007f0f04818666  48 8b 74 24 28       mov    0x28(%rsp)[8byte] -> %rsi 
  0x00007f0f0481866b  48 8b 7c 24 20       mov    0x20(%rsp)[8byte] -> %rdi 
  0x00007f0f04818670  4a 8d 0c f3          lea    (%rbx,%r14,8) -> %rcx 
  0x00007f0f04818674  44 89 ea             mov    %r13d -> %edx 
  0x00007f0f04818677  e8 94 03 00 00       call   $0x00007f0f04818a10 %rsp -> %rsp 0xfffffff8(%rsp)[8byte] 
  0x00007f0f04818a10  55                   push   %rbp %rsp -> %rsp 0xfffffff8(%rsp)[8byte] 
  0x00007f0f04818a11  48 89 e5             mov    %rsp -> %rbp 
  0x00007f0f04818a14  41 57                push   %r15 %rsp -> %rsp 0xfffffff8(%rsp)[8byte] 
  0x00007f0f04818a16  41 56                push   %r14 %rsp -> %rsp 0xfffffff8(%rsp)[8byte] 
  0x00007f0f04818a18  41 55                push   %r13 %rsp -> %rsp 0xfffffff8(%rsp)[8byte] 
  0x00007f0f04818a1a  41 54                push   %r12 %rsp -> %rsp 0xfffffff8(%rsp)[8byte] 
  0x00007f0f04818a1c  49 89 fd             mov    %rdi -> %r13 
  0x00007f0f04818a1f  53                   push   %rbx %rsp -> %rsp 0xfffffff8(%rsp)[8byte] 
  0x00007f0f04818a20  49 89 f6             mov    %rsi -> %r14 
  0x00007f0f04818a23  89 d3                mov    %edx -> %ebx 
  0x00007f0f04818a25  49 89 cc             mov    %rcx -> %r12 
  0x00007f0f04818a28  48 83 ec 58          sub    $0x0000000000000058 %rsp -> %rsp 
  0x00007f0f04818a2c  4c 8b 39             mov    (%rcx)[8byte] -> %r15 
  0x00007f0f04818a2f  4c 89 7d a0          mov    %r15 -> 0xffffffa0(%rbp)[8byte] 
  0x00007f0f04818a33  41 80 3f 00          cmp    (%r15)[1byte] $0x00 
  0x00007f0f04818a37  0f 84 8b 00 00 00    jz     $0x00007f0f04818ac8 
Actual: 7f0f04818ac8

Block 336:
  0x00007f0f04819897  4d 8b 7e 08          mov    0x08(%r14)[8byte] -> %r15 
  0x00007f0f0481989b  4c 39 fb             cmp    %rbx %r15 
  0x00007f0f0481989e  75 e0                jnz    $0x00007f0f04819880 
Actual: 7f0f04819880

Block 337:
  0x00007f0f04819880  4c 89 fe             mov    %r15 -> %rsi 
  0x00007f0f04819883  48 89 df             mov    %rbx -> %rdi 
  0x00007f0f04819886  e8 15 af 05 00       call   $0x00007f0f048747a0 %rsp -> %rsp 0xfffffff8(%rsp)[8byte] 
  0x00007f0f048747a0  89 f1                mov    %esi -> %ecx 
  0x00007f0f048747a2  89 f8                mov    %edi -> %eax 
  0x00007f0f048747a4  48 83 e1 3f          and    $0x000000000000003f %rcx -> %rcx 
  0x00007f0f048747a8  48 83 e0 3f          and    $0x000000000000003f %rax -> %rax 
  0x00007f0f048747ac  83 f9 30             cmp    %ecx $0x00000030 
  0x00007f0f048747af  77 3f                jnbe   $0x00007f0f048747f0 
Actual: 7f0f048747b1

Block 338:
  0x00007f0f0481988b  85 c0                test   %eax %eax 
  0x00007f0f0481988d  74 11                jz     $0x00007f0f048198a0 
Actual: 7f0f048198a0

Block 339:
  0x00007f0f048198a0  4c 63 a5 dc fe ff ff movsxd 0xfffffedc(%rbp)[4byte] -> %r12 
  0x00007f0f048198a7  4d 89 7d 00          mov    %r15 -> 0x00(%r13)[8byte] 
  0x00007f0f048198ab  4b 8b 44 e6 10       mov    0x10(%r14,%r12,8)[8byte] -> %rax 
  0x00007f0f048198b0  48 8d 65 d8          lea    0xffffffd8(%rbp) -> %rsp 
  0x00007f0f048198b4  5b                   pop    %rsp (%rsp)[8byte] -> %rbx %rsp 
  0x00007f0f048198b5  41 5c                pop    %rsp (%rsp)[8byte] -> %r12 %rsp 
  0x00007f0f048198b7  41 5d                pop    %rsp (%rsp)[8byte] -> %r13 %rsp 
  0x00007f0f048198b9  41 5e                pop    %rsp (%rsp)[8byte] -> %r14 %rsp 
  0x00007f0f048198bb  41 5f                pop    %rsp (%rsp)[8byte] -> %r15 %rsp 
  0x00007f0f048198bd  5d                   pop    %rsp (%rsp)[8byte] -> %rbp %rsp 
  0x00007f0f048198be  c3                   ret    %rsp (%rsp)[8byte] -> %rsp 
Actual: 7f0f04818fca

Block 340:
  0x00007f0f0481896c  41 bd 06 00 00 00    mov    $0x00000006 -> %r13d 
  0x00007f0f04818972  b8 05 00 00 00       mov    $0x00000005 -> %eax 
  0x00007f0f04818977  e9 df fc ff ff       jmp    $0x00007f0f0481865b 
  0x00007f0f0481865b  44 89 6c 24 14       mov    %r13d -> 0x14(%rsp)[4byte] 
  0x00007f0f04818660  41 89 c5             mov    %eax -> %r13d 
  0x00007f0f04818663  4d 63 f5             movsxd %r13d -> %r14 
  0x00007f0f04818666  48 8b 74 24 28       mov    0x28(%rsp)[8byte] -> %rsi 
  0x00007f0f0481866b  48 8b 7c 24 20       mov    0x20(%rsp)[8byte] -> %rdi 
  0x00007f0f04818670  4a 8d 0c f3          lea    (%rbx,%r14,8) -> %rcx 
  0x00007f0f04818674  44 89 ea             mov    %r13d -> %edx 
  0x00007f0f04818677  e8 94 03 00 00       call   $0x00007f0f04818a10 %rsp -> %rsp 0xfffffff8(%rsp)[8byte] 
  0x00007f0f04818a10  55                   push   %rbp %rsp -> %rsp 0xfffffff8(%rsp)[8byte] 
  0x00007f0f04818a11  48 89 e5             mov    %rsp -> %rbp 
  0x00007f0f04818a14  41 57                push   %r15 %rsp -> %rsp 0xfffffff8(%rsp)[8byte] 
  0x00007f0f04818a16  41 56                push   %r14 %rsp -> %rsp 0xfffffff8(%rsp)[8byte] 
  0x00007f0f04818a18  41 55                push   %r13 %rsp -> %rsp 0xfffffff8(%rsp)[8byte] 
  0x00007f0f04818a1a  41 54                push   %r12 %rsp -> %rsp 0xfffffff8(%rsp)[8byte] 
  0x00007f0f04818a1c  49 89 fd             mov    %rdi -> %r13 
  0x00007f0f04818a1f  53                   push   %rbx %rsp -> %rsp 0xfffffff8(%rsp)[8byte] 
  0x00007f0f04818a20  49 89 f6             mov    %rsi -> %r14 
  0x00007f0f04818a23  89 d3                mov    %edx -> %ebx 
  0x00007f0f04818a25  49 89 cc             mov    %rcx -> %r12 
  0x00007f0f04818a28  48 83 ec 58          sub    $0x0000000000000058 %rsp -> %rsp 
  0x00007f0f04818a2c  4c 8b 39             mov    (%rcx)[8byte] -> %r15 
  0x00007f0f04818a2f  4c 89 7d a0          mov    %r15 -> 0xffffffa0(%rbp)[8byte] 
  0x00007f0f04818a33  41 80 3f 00          cmp    (%r15)[1byte] $0x00 
  0x00007f0f04818a37  0f 84 8b 00 00 00    jz     $0x00007f0f04818ac8 
Actual: 7f0f04818ac8

Block 341:
  0x00007f0f048187e0  85 c0                test   %eax %eax 
  0x00007f0f048187e2  0f 89 1c ff ff ff    jns    $0x00007f0f04818704 
Actual: 7f0f048187e8

Block 342:
  0x00007f0f048187e8  44 89 6c 24 14       mov    %r13d -> 0x14(%rsp)[4byte] 
  0x00007f0f048187ed  48 89 de             mov    %rbx -> %rsi 
  0x00007f0f048187f0  bf 06 00 00 00       mov    $0x00000006 -> %edi 
  0x00007f0f048187f5  e8 e6 f5 ff ff       call   $0x00007f0f04817de0 %rsp -> %rsp 0xfffffff8(%rsp)[8byte] 
  0x00007f0f04817de0  41 57                push   %r15 %rsp -> %rsp 0xfffffff8(%rsp)[8byte] 
  0x00007f0f04817de2  41 56                push   %r14 %rsp -> %rsp 0xfffffff8(%rsp)[8byte] 
  0x00007f0f04817de4  48 8d 05 15 7c 14 00 lea    <rel> 0x00007f0f0495fa00 -> %rax 
  0x00007f0f04817deb  41 55                push   %r13 %rsp -> %rsp 0xfffffff8(%rsp)[8byte] 
  0x00007f0f04817ded  41 54                push   %r12 %rsp -> %rsp 0xfffffff8(%rsp)[8byte] 
  0x00007f0f04817def  45 31 f6             xor    %r14d %r14d -> %r14d 
  0x00007f0f04817df2  55                   push   %rbp %rsp -> %rsp 0xfffffff8(%rsp)[8byte] 
  0x00007f0f04817df3  53                   push   %rbx %rsp -> %rsp 0xfffffff8(%rsp)[8byte] 
  0x00007f0f04817df4  31 db                xor    %ebx %ebx -> %ebx 
  0x00007f0f04817df6  bd 01 00 00 00       mov    $0x00000001 -> %ebp 
  0x00007f0f04817dfb  41 bc 01 00 00 00    mov    $0x00000001 -> %r12d 
  0x00007f0f04817e01  48 83 ec 28          sub    $0x0000000000000028 %rsp -> %rsp 
  0x00007f0f04817e05  83 ff 06             cmp    %edi $0x00000006 
  0x00007f0f04817e08  89 7c 24 14          mov    %edi -> 0x14(%rsp)[4byte] 
  0x00007f0f04817e0c  48 89 74 24 08       mov    %rsi -> 0x08(%rsp)[8byte] 
  0x00007f0f04817e11  48 89 04 24          mov    %rax -> (%rsp)[8byte] 
  0x00007f0f04817e15  75 10                jnz    $0x00007f0f04817e27 
Actual: 7f0f04817e17

Block 343:
  0x00007f0f04817e17  e9 db 00 00 00       jmp    $0x00007f0f04817ef7 
  0x00007f0f04817ef7  49 83 fe 06          cmp    %r14 $0x0000000000000006 
  0x00007f0f04817efb  74 f3                jz     $0x00007f0f04817ef0 
Actual: 7f0f04817efd

Block 344:
  0x00007f0f04817efd  4c 8b 6c 24 08       mov    0x08(%rsp)[8byte] -> %r13 
  0x00007f0f04817f02  4f 8b 44 f5 00       mov    0x00(%r13,%r14,8)[8byte] -> %r8 
  0x00007f0f04817f07  4c 89 c7             mov    %r8 -> %rdi 
  0x00007f0f04817f0a  4c 89 44 24 18       mov    %r8 -> 0x18(%rsp)[8byte] 
  0x00007f0f04817f0f  e8 9c e2 05 00       call   $0x00007f0f048761b0 %rsp -> %rsp 0xfffffff8(%rsp)[8byte] 
  0x00007f0f048761b0  66 0f ef c0          pxor   %xmm0 %xmm0 -> %xmm0 
  0x00007f0f048761b4  66 0f ef c9          pxor   %xmm1 %xmm1 -> %xmm1 
  0x00007f0f048761b8  66 0f ef d2          pxor   %xmm2 %xmm2 -> %xmm2 
  0x00007f0f048761bc  66 0f ef db          pxor   %xmm3 %xmm3 -> %xmm3 
  0x00007f0f048761c0  48 89 f8             mov    %rdi -> %rax 
  0x00007f0f048761c3  48 89 f9             mov    %rdi -> %rcx 
  0x00007f0f048761c6  48 81 e1 ff 0f 00 00 and    $0x0000000000000fff %rcx -> %rcx 
  0x00007f0f048761cd  48 81 f9 cf 0f 00 00 cmp    %rcx $0x0000000000000fcf 
  0x00007f0f048761d4  77 6a                jnbe   $0x00007f0f04876240 
Actual: 7f0f048761d6

Block 345:
  0x00007f0f04817f14  49 89 c7             mov    %rax -> %r15 
  0x00007f0f04817f17  48 8b 04 24          mov    (%rsp)[8byte] -> %rax 
  0x00007f0f04817f1b  42 0f b6 04 30       movzx  (%rax,%r14,1)[1byte] -> %eax 
  0x00007f0f04817f20  48 8d 5c 03 02       lea    0x02(%rbx,%rax,1) -> %rbx 
  0x00007f0f04817f25  4c 01 fb             add    %r15 %rbx -> %rbx 
  0x00007f0f04817f28  45 85 e4             test   %r12d %r12d 
  0x00007f0f04817f2b  74 1f                jz     $0x00007f0f04817f4c 
Actual: 7f0f04817f2d

Block 346:
  0x00007f0f04817f2d  49 8b 75 00          mov    0x00(%r13)[8byte] -> %rsi 
  0x00007f0f04817f31  4c 8b 44 24 18       mov    0x18(%rsp)[8byte] -> %r8 
  0x00007f0f04817f36  49 39 f0             cmp    %r8 %rsi 
  0x00007f0f04817f39  74 11                jz     $0x00007f0f04817f4c 
Actual: 7f0f04817f4c

Block 347:
  0x00007f0f04817f4c  83 fd 0d             cmp    %ebp $0x0000000d 
  0x00007f0f04817f4f  75 9f                jnz    $0x00007f0f04817ef0 
Actual: 7f0f04817ef0

Block 348:
  0x00007f0f04817ef0  49 83 c6 01          add    $0x0000000000000001 %r14 -> %r14 
  0x00007f0f04817ef4  83 c5 01             add    $0x00000001 %ebp -> %ebp 
  0x00007f0f04817ef7  49 83 fe 06          cmp    %r14 $0x0000000000000006 
  0x00007f0f04817efb  74 f3                jz     $0x00007f0f04817ef0 
Actual: 7f0f04817efd

Block 349:
  0x00007f0f04817f3b  4c 89 c7             mov    %r8 -> %rdi 
  0x00007f0f04817f3e  45 31 e4             xor    %r12d %r12d -> %r12d 
  0x00007f0f04817f41  e8 5a c8 05 00       call   $0x00007f0f048747a0 %rsp -> %rsp 0xfffffff8(%rsp)[8byte] 
  0x00007f0f048747a0  89 f1                mov    %esi -> %ecx 
  0x00007f0f048747a2  89 f8                mov    %edi -> %eax 
  0x00007f0f048747a4  48 83 e1 3f          and    $0x000000000000003f %rcx -> %rcx 
  0x00007f0f048747a8  48 83 e0 3f          and    $0x000000000000003f %rax -> %rax 
  0x00007f0f048747ac  83 f9 30             cmp    %ecx $0x00000030 
  0x00007f0f048747af  77 3f                jnbe   $0x00007f0f048747f0 
Actual: 7f0f048747b1

Block 350:
  0x00007f0f04817f46  85 c0                test   %eax %eax 
  0x00007f0f04817f48  41 0f 94 c4          setz   -> %r12l 
  0x00007f0f04817f4c  83 fd 0d             cmp    %ebp $0x0000000d 
  0x00007f0f04817f4f  75 9f                jnz    $0x00007f0f04817ef0 
Actual: 7f0f04817ef0

Block 351:
  0x00007f0f04817f51  45 85 e4             test   %r12d %r12d 
  0x00007f0f04817f54  0f 85 36 ff ff ff    jnz    $0x00007f0f04817e90 
Actual: 7f0f04817e90

Block 352:
  0x00007f0f04817e90  48 8b 44 24 08       mov    0x08(%rsp)[8byte] -> %rax 
  0x00007f0f04817e95  48 8d 35 5c fd 15 00 lea    <rel> 0x00007f0f04977bf8 -> %rsi 
  0x00007f0f04817e9c  48 8b 28             mov    (%rax)[8byte] -> %rbp 
  0x00007f0f04817e9f  48 89 ef             mov    %rbp -> %rdi 
  0x00007f0f04817ea2  e8 f9 c8 05 00       call   $0x00007f0f048747a0 %rsp -> %rsp 0xfffffff8(%rsp)[8byte] 
  0x00007f0f048747a0  89 f1                mov    %esi -> %ecx 
  0x00007f0f048747a2  89 f8                mov    %edi -> %eax 
  0x00007f0f048747a4  48 83 e1 3f          and    $0x000000000000003f %rcx -> %rcx 
  0x00007f0f048747a8  48 83 e0 3f          and    $0x000000000000003f %rax -> %rax 
  0x00007f0f048747ac  83 f9 30             cmp    %ecx $0x00000030 
  0x00007f0f048747af  77 3f                jnbe   $0x00007f0f048747f0 
Actual: 7f0f048747f0

Block 353:
  0x00007f0f04817ea7  85 c0                test   %eax %eax 
  0x00007f0f04817ea9  0f 84 49 01 00 00    jz     $0x00007f0f04817ff8 
Actual: 7f0f04817eaf

Block 354:
  0x00007f0f04817eaf  48 8d 35 53 ec 15 00 lea    <rel> 0x00007f0f04976b09 -> %rsi 
  0x00007f0f04817eb6  48 89 ef             mov    %rbp -> %rdi 
  0x00007f0f04817eb9  e8 e2 c8 05 00       call   $0x00007f0f048747a0 %rsp -> %rsp 0xfffffff8(%rsp)[8byte] 
  0x00007f0f048747a0  89 f1                mov    %esi -> %ecx 
  0x00007f0f048747a2  89 f8                mov    %edi -> %eax 
  0x00007f0f048747a4  48 83 e1 3f          and    $0x000000000000003f %rcx -> %rcx 
  0x00007f0f048747a8  48 83 e0 3f          and    $0x000000000000003f %rax -> %rax 
  0x00007f0f048747ac  83 f9 30             cmp    %ecx $0x00000030 
  0x00007f0f048747af  77 3f                jnbe   $0x00007f0f048747f0 
Actual: 7f0f048747b1

Block 355:
  0x00007f0f04817ebe  48 8d 0d 33 fd 15 00 lea    <rel> 0x00007f0f04977bf8 -> %rcx 
  0x00007f0f04817ec5  85 c0                test   %eax %eax 
  0x00007f0f04817ec7  48 89 4c 24 18       mov    %rcx -> 0x18(%rsp)[8byte] 
  0x00007f0f04817ecc  0f 85 3e 01 00 00    jnz    $0x00007f0f04818010 
Actual: 7f0f04818010

Block 356:
  0x00007f0f04818010  49 8d 5f 01          lea    0x01(%r15) -> %rbx 
  0x00007f0f04818014  48 89 df             mov    %rbx -> %rdi 
  0x00007f0f04818017  e8 cc 58 ff ff       call   $0x00007f0f0480d8e8 %rsp -> %rsp 0xfffffff8(%rsp)[8byte] 
  0x00007f0f0480d8e8  ff 25 3a c5 39 00    jmp    <rel> 0x00007f0f04ba9e28[8byte] 
Actual: 7f0f0486ef00

Block 357:
  0x00007f0f0481801c  48 85 c0             test   %rax %rax 
  0x00007f0f0481801f  0f 84 81 00 00 00    jz     $0x00007f0f048180a6 
Actual: 7f0f04818025

Block 358:
  0x00007f0f04818025  48 83 c4 28          add    $0x0000000000000028 %rsp -> %rsp 
  0x00007f0f04818029  48 89 da             mov    %rbx -> %rdx 
  0x00007f0f0481802c  48 89 ee             mov    %rbp -> %rsi 
  0x00007f0f0481802f  5b                   pop    %rsp (%rsp)[8byte] -> %rbx %rsp 
  0x00007f0f04818030  5d                   pop    %rsp (%rsp)[8byte] -> %rbp %rsp 
  0x00007f0f04818031  41 5c                pop    %rsp (%rsp)[8byte] -> %r12 %rsp 
  0x00007f0f04818033  41 5d                pop    %rsp (%rsp)[8byte] -> %r13 %rsp 
  0x00007f0f04818035  41 5e                pop    %rsp (%rsp)[8byte] -> %r14 %rsp 
  0x00007f0f04818037  41 5f                pop    %rsp (%rsp)[8byte] -> %r15 %rsp 
  0x00007f0f04818039  48 89 c7             mov    %rax -> %rdi 
  0x00007f0f0481803c  e9 0f 70 06 00       jmp    $0x00007f0f0487f050 
  0x00007f0f0487f050  48 83 fa 20          cmp    %rdx $0x0000000000000020 
  0x00007f0f0487f054  48 89 f8             mov    %rdi -> %rax 
  0x00007f0f0487f057  73 77                jnb    $0x00007f0f0487f0d0 
Actual: 7f0f0487f059

Block 359:
  0x00007f0f048187fa  48 85 c0             test   %rax %rax 
  0x00007f0f048187fd  49 89 c7             mov    %rax -> %r15 
  0x00007f0f04818800  0f 84 e3 fe ff ff    jz     $0x00007f0f048186e9 
Actual: 7f0f04818806

Block 360:
  0x00007f0f04818806  4c 8d 25 f3 2b 39 00 lea    <rel> 0x00007f0f04bab400 -> %r12 
  0x00007f0f0481880d  bd 01 00 00 00       mov    $0x00000001 -> %ebp 
  0x00007f0f04818812  45 31 ed             xor    %r13d %r13d -> %r13d 
  0x00007f0f04818815  4c 8d b4 24 a0 00 00 lea    0x000000a0(%rsp) -> %r14 
                      00
  0x00007f0f0481881d  eb 0c                jmp    $0x00007f0f0481882b 
  0x00007f0f0481882b  49 83 fd 06          cmp    %r13 $0x0000000000000006 
  0x00007f0f0481882f  74 ef                jz     $0x00007f0f04818820 
Actual: 7f0f04818831

Block 361:
  0x00007f0f04818831  4b 8b 34 ee          mov    (%r14,%r13,8)[8byte] -> %rsi 
  0x00007f0f04818835  48 8d 05 64 02 39 00 lea    <rel> 0x00007f0f04ba8aa0 -> %rax 
  0x00007f0f0481883c  49 89 34 24          mov    %rsi -> (%r12)[8byte] 
  0x00007f0f04818840  4a 8b 34 e8          mov    (%rax,%r13,8)[8byte] -> %rsi 
  0x00007f0f04818844  48 85 f6             test   %rsi %rsi 
  0x00007f0f04818847  74 02                jz     $0x00007f0f0481884b 
Actual: 7f0f04818849

Block 362:
  0x00007f0f04818849  ff d6                call   %rsi %rsp -> %rsp 0xfffffff8(%rsp)[8byte] 
Actual: 7f0f0481acd0

Block 363:
  0x00007f0f0481acd0  48 8b 15 29 07 39 00 mov    <rel> 0x00007f0f04bab400[8byte] -> %rdx 
  0x00007f0f0481acd7  48 8b 35 da f0 38 00 mov    <rel> 0x00007f0f04ba9db8[8byte] -> %rsi 
  0x00007f0f0481acde  48 8d 3d 1b 07 39 00 lea    <rel> 0x00007f0f04bab400 -> %rdi 
  0x00007f0f0481ace5  48 8b 42 40          mov    0x40(%rdx)[8byte] -> %rax 
  0x00007f0f0481ace9  64 48 8b 36          mov    %fs:(%rsi)[8byte] -> %rsi 
  0x00007f0f0481aced  48 8d 88 00 01 00 00 lea    0x00000100(%rax) -> %rcx 
  0x00007f0f0481acf4  48 89 0d 6d 07 39 00 mov    %rcx -> <rel> 0x00007f0f04bab468[8byte] 
  0x00007f0f0481acfb  48 8b 42 58          mov    0x58(%rdx)[8byte] -> %rax 
  0x00007f0f0481acff  48 05 00 02 00 00    add    $0x0000000000000200 %rax -> %rax 
  0x00007f0f0481ad05  48 89 05 64 07 39 00 mov    %rax -> <rel> 0x00007f0f04bab470[8byte] 
  0x00007f0f0481ad0c  48 8b 52 48          mov    0x48(%rdx)[8byte] -> %rdx 
  0x00007f0f0481ad10  48 81 c2 00 02 00 00 add    $0x0000000000000200 %rdx -> %rdx 
  0x00007f0f0481ad17  48 39 fe             cmp    %rsi %rdi 
  0x00007f0f0481ad1a  48 89 15 57 07 39 00 mov    %rdx -> <rel> 0x00007f0f04bab478[8byte] 
  0x00007f0f0481ad21  74 7d                jz     $0x00007f0f0481ada0 
Actual: 7f0f0481ada0

Block 364:
  0x00007f0f0481ada0  48 8b 3d 51 f0 38 00 mov    <rel> 0x00007f0f04ba9df8[8byte] -> %rdi 
  0x00007f0f0481ada7  64 48 89 0f          mov    %rcx -> %fs:(%rdi)[8byte] 
  0x00007f0f0481adab  48 8b 0d 26 f1 38 00 mov    <rel> 0x00007f0f04ba9ed8[8byte] -> %rcx 
  0x00007f0f0481adb2  64 48 89 11          mov    %rdx -> %fs:(%rcx)[8byte] 
  0x00007f0f0481adb6  48 8b 15 6b f1 38 00 mov    <rel> 0x00007f0f04ba9f28[8byte] -> %rdx 
  0x00007f0f0481adbd  64 48 89 02          mov    %rax -> %fs:(%rdx)[8byte] 
  0x00007f0f0481adc1  e9 5d ff ff ff       jmp    $0x00007f0f0481ad23 
  0x00007f0f0481ad23  48 8b 06             mov    (%rsi)[8byte] -> %rax 
  0x00007f0f0481ad26  48 8b 0d 63 f1 38 00 mov    <rel> 0x00007f0f04ba9e90[8byte] -> %rcx 
  0x00007f0f0481ad2d  48 8b 78 40          mov    0x40(%rax)[8byte] -> %rdi 
  0x00007f0f0481ad31  48 8b 70 58          mov    0x58(%rax)[8byte] -> %rsi 
  0x00007f0f0481ad35  48 8d 97 00 01 00 00 lea    0x00000100(%rdi) -> %rdx 
  0x00007f0f0481ad3c  48 8b 78 48          mov    0x48(%rax)[8byte] -> %rdi 
  0x00007f0f0481ad40  48 89 11             mov    %rdx -> (%rcx)[8byte] 
  0x00007f0f0481ad43  48 8b 0d 36 f1 38 00 mov    <rel> 0x00007f0f04ba9e80[8byte] -> %rcx 
  0x00007f0f0481ad4a  48 8d 97 00 02 00 00 lea    0x00000200(%rdi) -> %rdx 
  0x00007f0f0481ad51  48 89 11             mov    %rdx -> (%rcx)[8byte] 
  0x00007f0f0481ad54  48 8b 0d 1d f1 38 00 mov    <rel> 0x00007f0f04ba9e78[8byte] -> %rcx 
  0x00007f0f0481ad5b  48 8d 96 00 02 00 00 lea    0x00000200(%rsi) -> %rdx 
  0x00007f0f0481ad62  48 89 11             mov    %rdx -> (%rcx)[8byte] 
  0x00007f0f0481ad65  48 8b 48 68          mov    0x68(%rax)[8byte] -> %rcx 
  0x00007f0f0481ad69  48 8b 15 40 f1 38 00 mov    <rel> 0x00007f0f04ba9eb0[8byte] -> %rdx 
  0x00007f0f0481ad70  48 89 0a             mov    %rcx -> (%rdx)[8byte] 
  0x00007f0f0481ad73  48 8b 88 b8 00 00 00 mov    0x000000b8(%rax)[8byte] -> %rcx 
  0x00007f0f0481ad7a  48 8b 15 3f f2 38 00 mov    <rel> 0x00007f0f04ba9fc0[8byte] -> %rdx 
  0x00007f0f0481ad81  48 89 0a             mov    %rcx -> (%rdx)[8byte] 
  0x00007f0f0481ad84  48 8b 90 c0 00 00 00 mov    0x000000c0(%rax)[8byte] -> %rdx 
  0x00007f0f0481ad8b  48 8b 05 3e f0 38 00 mov    <rel> 0x00007f0f04ba9dd0[8byte] -> %rax 
  0x00007f0f0481ad92  48 89 10             mov    %rdx -> (%rax)[8byte] 
  0x00007f0f0481ad95  c3                   ret    %rsp (%rsp)[8byte] -> %rsp 
Actual: 7f0f0481884b

Block 365:
  0x00007f0f0481884b  4a 8b 34 eb          mov    (%rbx,%r13,8)[8byte] -> %rsi 
  0x00007f0f0481884f  49 8b bc 24 80 00 00 mov    0x00000080(%r12)[8byte] -> %rdi 
                      00
  0x00007f0f04818857  48 39 fe             cmp    %rsi %rdi 
  0x00007f0f0481885a  74 23                jz     $0x00007f0f0481887f 
Actual: 7f0f0481885c

Block 366:
  0x00007f0f0481885c  48 8d 05 95 f3 15 00 lea    <rel> 0x00007f0f04977bf8 -> %rax 
  0x00007f0f04818863  48 39 c7             cmp    %rdi %rax 
  0x00007f0f04818866  74 0f                jz     $0x00007f0f04818877 
Actual: 7f0f04818877

Block 367:
  0x00007f0f04818877  49 89 b4 24 80 00 00 mov    %rsi -> 0x00000080(%r12)[8byte] 
                      00
  0x00007f0f0481887f  83 fd 0d             cmp    %ebp $0x0000000d 
  0x00007f0f04818882  75 9c                jnz    $0x00007f0f04818820 
Actual: 7f0f04818820

Block 368:
  0x00007f0f04818820  49 83 c5 01          add    $0x0000000000000001 %r13 -> %r13 
  0x00007f0f04818824  83 c5 01             add    $0x00000001 %ebp -> %ebp 
  0x00007f0f04818827  49 83 c4 08          add    $0x0000000000000008 %r12 -> %r12 
  0x00007f0f0481882b  49 83 fd 06          cmp    %r13 $0x0000000000000006 
  0x00007f0f0481882f  74 ef                jz     $0x00007f0f04818820 
Actual: 7f0f04818831

Block 369:
  0x00007f0f04818884  48 8b 3d 25 2c 39 00 mov    <rel> 0x00007f0f04bab4b0[8byte] -> %rdi 
  0x00007f0f0481888b  49 39 ff             cmp    %r15 %rdi 
  0x00007f0f0481888e  74 18                jz     $0x00007f0f048188a8 
Actual: 7f0f04818890

Block 370:
  0x00007f0f04818890  48 8d 05 61 f3 15 00 lea    <rel> 0x00007f0f04977bf8 -> %rax 
  0x00007f0f04818897  48 39 c7             cmp    %rdi %rax 
  0x00007f0f0481889a  74 05                jz     $0x00007f0f048188a1 
Actual: 7f0f048188a1

Block 371:
  0x00007f0f048188a1  4c 89 3d 08 2c 39 00 mov    %r15 -> <rel> 0x00007f0f04bab4b0[8byte] 
  0x00007f0f048188a8  48 8b 05 51 16 39 00 mov    <rel> 0x00007f0f04ba9f00[8byte] -> %rax 
  0x00007f0f048188af  83 00 01             add    $0x00000001 (%rax)[4byte] -> (%rax)[4byte] 
  0x00007f0f048188b2  e9 99 fe ff ff       jmp    $0x00007f0f04818750 
  0x00007f0f04818750  8b 15 9a 6f 39 00    mov    <rel> 0x00007f0f04baf6f0[4byte] -> %edx 
  0x00007f0f04818756  85 d2                test   %edx %edx 
  0x00007f0f04818758  0f 85 62 01 00 00    jnz    $0x00007f0f048188c0 
Actual: 7f0f048188c0

Block 372:
  0x00007f0f048188c0  48 8b 05 c9 6d 39 00 mov    <rel> 0x00007f0f04baf690[8byte] -> %rax 
  0x00007f0f048188c7  48 8d 3d 32 30 39 00 lea    <rel> 0x00007f0f04bab900 -> %rdi 
  0x00007f0f048188ce  48 c1 c8 11          ror    $0x0000000000000011 %rax -> %rax 
  0x00007f0f048188d2  64 48 33 04 25 30 00 xor    %fs:0x30[8byte] %rax -> %rax 
                      00 00
  0x00007f0f048188db  ff d0                call   %rax %rsp -> %rsp 0xfffffff8(%rsp)[8byte] 
Actual: 7f0f051f1730

Block 373:
  0x00007f0f051f1730  8b 77 1c             mov    0x1c(%rdi)[4byte] -> %esi 
  0x00007f0f051f1733  48 89 fa             mov    %rdi -> %rdx 
  0x00007f0f051f1736  83 fe 01             cmp    %esi $0x00000001 
  0x00007f0f051f1739  4d 19 c0             sbb    %r8 %r8 -> %r8 
  0x00007f0f051f173c  41 81 e0 80 00 00 00 and    $0x00000080 %r8d -> %r8d 
  0x00007f0f051f1743  49 83 c0 01          add    $0x0000000000000001 %r8 -> %r8 
  0x00007f0f051f1747  90                   nop    
  0x00007f0f051f1748  44 8b 4f 18          mov    0x18(%rdi)[4byte] -> %r9d 
  0x00007f0f051f174c  45 85 c9             test   %r9d %r9d 
  0x00007f0f051f174f  75 0f                jnz    $0x00007f0f051f1760 
Actual: 7f0f051f1760

Block 374:
  0x00007f0f051f1760  48 83 ec 08          sub    $0x0000000000000008 %rsp -> %rsp 
  0x00007f0f051f1764  bf 01 00 00 00       mov    $0x00000001 -> %edi 
  0x00007f0f051f1769  31 c0                xor    %eax %eax -> %eax 
  0x00007f0f051f176b  f0 0f b1 3a          lock cmpxchg %edi (%rdx)[4byte] %eax -> (%rdx)[4byte] %eax 
  0x00007f0f051f176f  74 16                jz     $0x00007f0f051f1787 
Actual: 7f0f051f1787

Block 375:
  0x00007f0f051f1787  8b 42 18             mov    0x18(%rdx)[4byte] -> %eax 
  0x00007f0f051f178a  85 c0                test   %eax %eax 
  0x00007f0f051f178c  0f 85 7e 00 00 00    jnz    $0x00007f0f051f1810 
Actual: 7f0f051f1810

Block 376:
  0x00007f0f051f1810  8b 42 04             mov    0x04(%rdx)[4byte] -> %eax 
  0x00007f0f051f1813  c7 42 18 00 00 00 00 mov    $0x00000000 -> 0x18(%rdx)[4byte] 
  0x00007f0f051f181a  85 c0                test   %eax %eax 
  0x00007f0f051f181c  0f 84 81 ff ff ff    jz     $0x00007f0f051f17a3 
Actual: 7f0f051f17a3

Block 377:
  0x00007f0f051f17a3  8b 72 14             mov    0x14(%rdx)[4byte] -> %esi 
  0x00007f0f051f17a6  49 89 d1             mov    %rdx -> %r9 
  0x00007f0f051f17a9  85 f6                test   %esi %esi 
  0x00007f0f051f17ab  0f 85 9f 00 00 00    jnz    $0x00007f0f051f1850 
Actual: 7f0f051f17b1

Block 378:
  0x00007f0f051f17b1  8b 4a 10             mov    0x10(%rdx)[4byte] -> %ecx 
  0x00007f0f051f17b4  85 c9                test   %ecx %ecx 
  0x00007f0f051f17b6  74 6a                jz     $0x00007f0f051f1822 
Actual: 7f0f051f1822

Block 379:
  0x00007f0f051f1822  8b 72 1c             mov    0x1c(%rdx)[4byte] -> %esi 
  0x00007f0f051f1825  f0 ff 0a             lock dec    (%rdx)[4byte] -> (%rdx)[4byte] 
  0x00007f0f051f1828  74 16                jz     $0x00007f0f051f1840 
Actual: 7f0f051f1840

Block 380:
  0x00007f0f051f1840  31 c0                xor    %eax %eax -> %eax 
  0x00007f0f051f1842  48 83 c4 08          add    $0x0000000000000008 %rsp -> %rsp 
  0x00007f0f051f1846  c3                   ret    %rsp (%rsp)[8byte] -> %rsp 
Actual: 7f0f048188dd

Block 381:
  0x00007f0f048188dd  e9 7c fe ff ff       jmp    $0x00007f0f0481875e 
  0x00007f0f0481875e  48 8b 7c 24 20       mov    0x20(%rsp)[8byte] -> %rdi 
  0x00007f0f04818763  e8 a8 51 ff ff       call   $0x00007f0f0480d910 %rsp -> %rsp 0xfffffff8(%rsp)[8byte] 
  0x00007f0f0480d910  ff 25 7a c6 39 00    jmp    <rel> 0x00007f0f04ba9f90[8byte] 
Actual: 7f0f0486f260

Block 382:
  0x00007f0f04818768  48 8b 7c 24 18       mov    0x18(%rsp)[8byte] -> %rdi 
  0x00007f0f0481876d  e8 9e 51 ff ff       call   $0x00007f0f0480d910 %rsp -> %rsp 0xfffffff8(%rsp)[8byte] 
  0x00007f0f0480d910  ff 25 7a c6 39 00    jmp    <rel> 0x00007f0f04ba9f90[8byte] 
Actual: 7f0f0486f260

Block 383:
  0x00007f0f04818772  e9 b5 f9 ff ff       jmp    $0x00007f0f0481812c 
  0x00007f0f0481812c  48 81 c4 18 01 00 00 add    $0x0000000000000118 %rsp -> %rsp 
  0x00007f0f04818133  4c 89 f8             mov    %r15 -> %rax 
  0x00007f0f04818136  5b                   pop    %rsp (%rsp)[8byte] -> %rbx %rsp 
  0x00007f0f04818137  5d                   pop    %rsp (%rsp)[8byte] -> %rbp %rsp 
  0x00007f0f04818138  41 5c                pop    %rsp (%rsp)[8byte] -> %r12 %rsp 
  0x00007f0f0481813a  41 5d                pop    %rsp (%rsp)[8byte] -> %r13 %rsp 
  0x00007f0f0481813c  41 5e                pop    %rsp (%rsp)[8byte] -> %r14 %rsp 
  0x00007f0f0481813e  41 5f                pop    %rsp (%rsp)[8byte] -> %r15 %rsp 
  0x00007f0f04818140  c3                   ret    %rsp (%rsp)[8byte] -> %rsp 
Actual: 55e94ebe3380

Block 384:
  0x000055e94ebe3380  48 8d 35 aa 4a 01 00 lea    <rel> 0x000055e94ebf7e31 -> %rsi 
  0x000055e94ebe3387  48 8d 3d 95 4a 01 00 lea    <rel> 0x000055e94ebf7e23 -> %rdi 
  0x000055e94ebe338e  e8 0d fc ff ff       call   $0x000055e94ebe2fa0 %rsp -> %rsp 0xfffffff8(%rsp)[8byte] 
  0x000055e94ebe2fa0  ff 25 9a bc 21 00    jmp    <rel> 0x000055e94edfec40[8byte] 
Actual: 7f0f0481b560

Block 385:
  0x00007f0f0481b560  41 57                push   %r15 %rsp -> %rsp 0xfffffff8(%rsp)[8byte] 
  0x00007f0f0481b562  41 56                push   %r14 %rsp -> %rsp 0xfffffff8(%rsp)[8byte] 
  0x00007f0f0481b564  41 55                push   %r13 %rsp -> %rsp 0xfffffff8(%rsp)[8byte] 
  0x00007f0f0481b566  41 54                push   %r12 %rsp -> %rsp 0xfffffff8(%rsp)[8byte] 
  0x00007f0f0481b568  55                   push   %rbp %rsp -> %rsp 0xfffffff8(%rsp)[8byte] 
  0x00007f0f0481b569  53                   push   %rbx %rsp -> %rsp 0xfffffff8(%rsp)[8byte] 
  0x00007f0f0481b56a  48 89 fd             mov    %rdi -> %rbp 
  0x00007f0f0481b56d  48 83 ec 08          sub    $0x0000000000000008 %rsp -> %rsp 
  0x00007f0f0481b571  48 85 ff             test   %rdi %rdi 
  0x00007f0f0481b574  74 07                jz     $0x00007f0f0481b57d 
Actual: 7f0f0481b576

Block 386:
  0x00007f0f0481b576  80 3f 00             cmp    (%rdi)[1byte] $0x00 
  0x00007f0f0481b579  75 15                jnz    $0x00007f0f0481b590 
Actual: 7f0f0481b590

Block 387:
  0x00007f0f0481b590  8b 15 5a 41 39 00    mov    <rel> 0x00007f0f04baf6f0[4byte] -> %edx 
  0x00007f0f0481b596  49 89 f4             mov    %rsi -> %r12 
  0x00007f0f0481b599  85 d2                test   %edx %edx 
  0x00007f0f0481b59b  0f 85 87 01 00 00    jnz    $0x00007f0f0481b728 
Actual: 7f0f0481b728

Block 388:
  0x00007f0f0481b728  48 8b 05 59 3f 39 00 mov    <rel> 0x00007f0f04baf688[8byte] -> %rax 
  0x00007f0f0481b72f  48 8d 3d 4a 03 39 00 lea    <rel> 0x00007f0f04baba80 -> %rdi 
  0x00007f0f0481b736  48 c1 c8 11          ror    $0x0000000000000011 %rax -> %rax 
  0x00007f0f0481b73a  64 48 33 04 25 30 00 xor    %fs:0x30[8byte] %rax -> %rax 
                      00 00
  0x00007f0f0481b743  ff d0                call   %rax %rsp -> %rsp 0xfffffff8(%rsp)[8byte] 
Actual: 7f0f051f1040

Block 389:
  0x00007f0f0481b745  e9 57 fe ff ff       jmp    $0x00007f0f0481b5a1 
  0x00007f0f0481b5a1  4c 8b 35 50 e9 38 00 mov    <rel> 0x00007f0f04ba9ef8[8byte] -> %r14 
  0x00007f0f0481b5a8  4d 8b 2e             mov    (%r14)[8byte] -> %r13 
  0x00007f0f0481b5ab  4d 85 ed             test   %r13 %r13 
  0x00007f0f0481b5ae  0f 84 bc 00 00 00    jz     $0x00007f0f0481b670 
Actual: 7f0f0481b670

Block 390:
  0x00007f0f0481b670  4d 85 e4             test   %r12 %r12 
  0x00007f0f0481b673  0f 84 d1 00 00 00    jz     $0x00007f0f0481b74a 
Actual: 7f0f0481b679

Block 391:
  0x00007f0f0481b679  48 89 ef             mov    %rbp -> %rdi 
  0x00007f0f0481b67c  e8 2f ab 05 00       call   $0x00007f0f048761b0 %rsp -> %rsp 0xfffffff8(%rsp)[8byte] 
  0x00007f0f048761b0  66 0f ef c0          pxor   %xmm0 %xmm0 -> %xmm0 
  0x00007f0f048761b4  66 0f ef c9          pxor   %xmm1 %xmm1 -> %xmm1 
  0x00007f0f048761b8  66 0f ef d2          pxor   %xmm2 %xmm2 -> %xmm2 
  0x00007f0f048761bc  66 0f ef db          pxor   %xmm3 %xmm3 -> %xmm3 
  0x00007f0f048761c0  48 89 f8             mov    %rdi -> %rax 
  0x00007f0f048761c3  48 89 f9             mov    %rdi -> %rcx 
  0x00007f0f048761c6  48 81 e1 ff 0f 00 00 and    $0x0000000000000fff %rcx -> %rcx 
  0x00007f0f048761cd  48 81 f9 cf 0f 00 00 cmp    %rcx $0x0000000000000fcf 
  0x00007f0f048761d4  77 6a                jnbe   $0x00007f0f04876240 
Actual: 7f0f048761d6

Block 392:
  0x00007f0f0481b681  48 8d 78 19          lea    0x19(%rax) -> %rdi 
  0x00007f0f0481b685  49 89 c7             mov    %rax -> %r15 
  0x00007f0f0481b688  e8 5b 22 ff ff       call   $0x00007f0f0480d8e8 %rsp -> %rsp 0xfffffff8(%rsp)[8byte] 
  0x00007f0f0480d8e8  ff 25 3a c5 39 00    jmp    <rel> 0x00007f0f04ba9e28[8byte] 
Actual: 7f0f0486ef00

Block 393:
  0x00007f0f0481b68d  48 85 c0             test   %rax %rax 
  0x00007f0f0481b690  48 89 c3             mov    %rax -> %rbx 
  0x00007f0f0481b693  0f 84 f1 00 00 00    jz     $0x00007f0f0481b78a 
Actual: 7f0f0481b699

Block 394:
  0x00007f0f0481b699  49 8d 57 01          lea    0x01(%r15) -> %rdx 
  0x00007f0f0481b69d  48 8d 78 18          lea    0x18(%rax) -> %rdi 
  0x00007f0f0481b6a1  48 89 ee             mov    %rbp -> %rsi 
  0x00007f0f0481b6a4  4c 8d 3d 75 01 16 00 lea    <rel> 0x00007f0f0497b820 -> %r15 
  0x00007f0f0481b6ab  e8 a0 39 06 00       call   $0x00007f0f0487f050 %rsp -> %rsp 0xfffffff8(%rsp)[8byte] 
  0x00007f0f0487f050  48 83 fa 20          cmp    %rdx $0x0000000000000020 
  0x00007f0f0487f054  48 89 f8             mov    %rdi -> %rax 
  0x00007f0f0487f057  73 77                jnb    $0x00007f0f0487f0d0 
Actual: 7f0f0487f059

Block 395:
  0x00007f0f0487f06e  0f b7 0e             movzx  (%rsi)[2byte] -> %ecx 
  0x00007f0f0487f071  66 89 0f             data16 mov    %cx -> (%rdi)[2byte] 
  0x00007f0f0487f074  48 83 c6 02          add    $0x0000000000000002 %rsi -> %rsi 
  0x00007f0f0487f078  48 83 c7 02          add    $0x0000000000000002 %rdi -> %rdi 
  0x00007f0f0487f07c  0f 1f 40 00          nop    0x00(%rax)[4byte] 
  0x00007f0f0487f080  f6 c2 04             test   %dl $0x04 
  0x00007f0f0487f083  74 0c                jz     $0x00007f0f0487f091 
Actual: 7f0f0487f091

Block 396:
  0x00007f0f0481b6b0  48 8d 35 69 01 16 00 lea    <rel> 0x00007f0f0497b820 -> %rsi 
  0x00007f0f0481b6b7  4c 89 e7             mov    %r12 -> %rdi 
  0x00007f0f0481b6ba  e8 e1 90 05 00       call   $0x00007f0f048747a0 %rsp -> %rsp 0xfffffff8(%rsp)[8byte] 
  0x00007f0f048747a0  89 f1                mov    %esi -> %ecx 
  0x00007f0f048747a2  89 f8                mov    %edi -> %eax 
  0x00007f0f048747a4  48 83 e1 3f          and    $0x000000000000003f %rcx -> %rcx 
  0x00007f0f048747a8  48 83 e0 3f          and    $0x000000000000003f %rax -> %rax 
  0x00007f0f048747ac  83 f9 30             cmp    %ecx $0x00000030 
  0x00007f0f048747af  77 3f                jnbe   $0x00007f0f048747f0 
Actual: 7f0f048747b1

Block 397:
  0x00007f0f04875a50  66 0f ef c0          pxor   %xmm0 %xmm0 -> %xmm0 
  0x00007f0f04875a54  66 0f 6f 17          movdqa (%rdi)[16byte] -> %xmm2 
  0x00007f0f04875a58  66 0f 6f 0e          movdqa (%rsi)[16byte] -> %xmm1 
  0x00007f0f04875a5c  66 0f 74 c1          pcmpeqb %xmm1 %xmm0 -> %xmm0 
  0x00007f0f04875a60  66 0f 73 fa 01       pslldq $0x01 %xmm2 -> %xmm2 
  0x00007f0f04875a65  66 0f 74 d1          pcmpeqb %xmm1 %xmm2 -> %xmm2 
  0x00007f0f04875a69  66 0f f8 d0          psubb  %xmm0 %xmm2 -> %xmm2 
  0x00007f0f04875a6d  66 44 0f d7 ca       pmovmskb %xmm2 -> %r9d 
  0x00007f0f04875a72  d3 ea                shr    %cl %edx -> %edx 
  0x00007f0f04875a74  41 d3 e9             shr    %cl %r9d -> %r9d 
  0x00007f0f04875a77  44 29 ca             sub    %r9d %edx -> %edx 
  0x00007f0f04875a7a  0f 85 15 01 00 00    jnz    $0x00007f0f04875b95 
Actual: 7f0f04875a80

Block 398:
  0x00007f0f04875a80  66 0f 6f 1f          movdqa (%rdi)[16byte] -> %xmm3 
  0x00007f0f04875a84  66 0f ef c0          pxor   %xmm0 %xmm0 -> %xmm0 
  0x00007f0f04875a88  48 c7 c1 10 00 00 00 mov    $0x0000000000000010 -> %rcx 
  0x00007f0f04875a8f  41 b9 0f 00 00 00    mov    $0x0000000f -> %r9d 
  0x00007f0f04875a95  4c 8d 57 0f          lea    0x0f(%rdi) -> %r10 
  0x00007f0f04875a99  49 81 e2 ff 0f 00 00 and    $0x0000000000000fff %r10 -> %r10 
  0x00007f0f04875aa0  49 81 ea 00 10 00 00 sub    $0x0000000000001000 %r10 -> %r10 
  0x00007f0f04875aa7  66 0f 1f 84 00 00 00 data16 nop    0x00000000(%rax,%rax,1)[4byte] 
                      00 00
  0x00007f0f04875ab0  49 83 c2 10          add    $0x0000000000000010 %r10 -> %r10 
  0x00007f0f04875ab4  0f 8f 96 00 00 00    jnle   $0x00007f0f04875b50 
Actual: 7f0f04875aba

Block 399:
  0x00007f0f04875aba  66 0f 6f 0c 0e       movdqa (%rsi,%rcx,1)[16byte] -> %xmm1 
  0x00007f0f04875abf  66 0f 6f 14 0f       movdqa (%rdi,%rcx,1)[16byte] -> %xmm2 
  0x00007f0f04875ac4  66 0f 6f e2          movdqa %xmm2 -> %xmm4 
  0x00007f0f04875ac8  66 0f 73 db 0f       psrldq $0x0f %xmm3 -> %xmm3 
  0x00007f0f04875acd  66 0f 73 fa 01       pslldq $0x01 %xmm2 -> %xmm2 
  0x00007f0f04875ad2  66 0f eb d3          por    %xmm3 %xmm2 -> %xmm2 
  0x00007f0f04875ad6  66 0f 74 c1          pcmpeqb %xmm1 %xmm0 -> %xmm0 
  0x00007f0f04875ada  66 0f 74 ca          pcmpeqb %xmm2 %xmm1 -> %xmm1 
  0x00007f0f04875ade  66 0f f8 c8          psubb  %xmm0 %xmm1 -> %xmm1 
  0x00007f0f04875ae2  66 0f d7 d1          pmovmskb %xmm1 -> %edx 
  0x00007f0f04875ae6  81 ea ff ff 00 00    sub    $0x0000ffff %edx -> %edx 
  0x00007f0f04875aec  0f 85 9e 00 00 00    jnz    $0x00007f0f04875b90 
Actual: 7f0f04875b90

Block 400:
  0x00007f0f04875b90  49 8d 44 09 f0       lea    0xfffffff0(%r9,%rcx,1) -> %rax 
  0x00007f0f04875b95  48 8d 3c 07          lea    (%rdi,%rax,1) -> %rdi 
  0x00007f0f04875b99  48 8d 34 0e          lea    (%rsi,%rcx,1) -> %rsi 
  0x00007f0f04875b9d  45 85 c0             test   %r8d %r8d 
  0x00007f0f04875ba0  74 0e                jz     $0x00007f0f04875bb0 
Actual: 7f0f04875ba2

Block 401:
  0x00007f0f0481b6bf  85 c0                test   %eax %eax 
  0x00007f0f0481b6c1  0f 85 d8 00 00 00    jnz    $0x00007f0f0481b79f 
Actual: 7f0f0481b6c7

Block 402:
  0x00007f0f0481b6c7  4d 85 ed             test   %r13 %r13 
  0x00007f0f0481b6ca  4c 89 7b 08          mov    %r15 -> 0x08(%rbx)[8byte] 
  0x00007f0f0481b6ce  48 c7 43 10 00 00 00 mov    $0x0000000000000000 -> 0x10(%rbx)[8byte] 
                      00
  0x00007f0f0481b6d6  0f 84 b5 00 00 00    jz     $0x00007f0f0481b791 
Actual: 7f0f0481b791

Block 403:
  0x00007f0f0481b791  4c 89 2b             mov    %r13 -> (%rbx)[8byte] 
  0x00007f0f0481b794  49 89 1e             mov    %rbx -> (%r14)[8byte] 
  0x00007f0f0481b797  4c 89 fd             mov    %r15 -> %rbp 
  0x00007f0f0481b79a  e9 94 fe ff ff       jmp    $0x00007f0f0481b633 
  0x00007f0f0481b633  48 8b 05 c6 e8 38 00 mov    <rel> 0x00007f0f04ba9f00[8byte] -> %rax 
  0x00007f0f0481b63a  83 00 01             add    $0x00000001 (%rax)[4byte] -> (%rax)[4byte] 
  0x00007f0f0481b63d  8b 05 ad 40 39 00    mov    <rel> 0x00007f0f04baf6f0[4byte] -> %eax 
  0x00007f0f0481b643  85 c0                test   %eax %eax 
  0x00007f0f0481b645  0f 84 32 ff ff ff    jz     $0x00007f0f0481b57d 
Actual: 7f0f0481b64b

Block 404:
  0x00007f0f0481b64b  48 8b 05 3e 40 39 00 mov    <rel> 0x00007f0f04baf690[8byte] -> %rax 
  0x00007f0f0481b652  48 8d 3d 27 04 39 00 lea    <rel> 0x00007f0f04baba80 -> %rdi 
  0x00007f0f0481b659  48 c1 c8 11          ror    $0x0000000000000011 %rax -> %rax 
  0x00007f0f0481b65d  64 48 33 04 25 30 00 xor    %fs:0x30[8byte] %rax -> %rax 
                      00 00
  0x00007f0f0481b666  ff d0                call   %rax %rsp -> %rsp 0xfffffff8(%rsp)[8byte] 
Actual: 7f0f051f1730

Block 405:
  0x00007f0f0481b668  e9 10 ff ff ff       jmp    $0x00007f0f0481b57d 
  0x00007f0f0481b57d  48 83 c4 08          add    $0x0000000000000008 %rsp -> %rsp 
  0x00007f0f0481b581  48 89 e8             mov    %rbp -> %rax 
  0x00007f0f0481b584  5b                   pop    %rsp (%rsp)[8byte] -> %rbx %rsp 
  0x00007f0f0481b585  5d                   pop    %rsp (%rsp)[8byte] -> %rbp %rsp 
  0x00007f0f0481b586  41 5c                pop    %rsp (%rsp)[8byte] -> %r12 %rsp 
  0x00007f0f0481b588  41 5d                pop    %rsp (%rsp)[8byte] -> %r13 %rsp 
  0x00007f0f0481b58a  41 5e                pop    %rsp (%rsp)[8byte] -> %r14 %rsp 
  0x00007f0f0481b58c  41 5f                pop    %rsp (%rsp)[8byte] -> %r15 %rsp 
  0x00007f0f0481b58e  c3                   ret    %rsp (%rsp)[8byte] -> %rsp 
Actual: 55e94ebe3393

Block 406:
  0x000055e94ebe3393  48 8d 3d 89 4a 01 00 lea    <rel> 0x000055e94ebf7e23 -> %rdi 
  0x000055e94ebe339a  e8 d9 fb ff ff       call   $0x000055e94ebe2f78 %rsp -> %rsp 0xfffffff8(%rsp)[8byte] 
  0x000055e94ebe2f78  ff 25 92 bc 21 00    jmp    <rel> 0x000055e94edfec10[8byte] 
Actual: 7f0f0481f9c0

Block 407:
  0x00007f0f0481f9c0  55                   push   %rbp %rsp -> %rsp 0xfffffff8(%rsp)[8byte] 
  0x00007f0f0481f9c1  53                   push   %rbx %rsp -> %rsp 0xfffffff8(%rsp)[8byte] 
  0x00007f0f0481f9c2  48 83 ec 08          sub    $0x0000000000000008 %rsp -> %rsp 
  0x00007f0f0481f9c6  48 85 ff             test   %rdi %rdi 
  0x00007f0f0481f9c9  48 8b 1d 00 ac 38 00 mov    <rel> 0x00007f0f04baa5d0[8byte] -> %rbx 
  0x00007f0f0481f9d0  74 71                jz     $0x00007f0f0481fa43 
Actual: 7f0f0481f9d2

Block 408:
  0x00007f0f0481f9d2  8b 15 18 fd 38 00    mov    <rel> 0x00007f0f04baf6f0[4byte] -> %edx 
  0x00007f0f0481f9d8  48 89 fb             mov    %rdi -> %rbx 
  0x00007f0f0481f9db  85 d2                test   %edx %edx 
  0x00007f0f0481f9dd  0f 85 a5 00 00 00    jnz    $0x00007f0f0481fa88 
Actual: 7f0f0481fa88

Block 409:
  0x00007f0f0481fa88  48 8b 05 f9 fb 38 00 mov    <rel> 0x00007f0f04baf688[8byte] -> %rax 
  0x00007f0f0481fa8f  48 8d 3d ea bf 38 00 lea    <rel> 0x00007f0f04baba80 -> %rdi 
  0x00007f0f0481fa96  48 c1 c8 11          ror    $0x0000000000000011 %rax -> %rax 
  0x00007f0f0481fa9a  64 48 33 04 25 30 00 xor    %fs:0x30[8byte] %rax -> %rax 
                      00 00
  0x00007f0f0481faa3  ff d0                call   %rax %rsp -> %rsp 0xfffffff8(%rsp)[8byte] 
Actual: 7f0f051f1040

Block 410:
  0x00007f0f0481faa5  e9 39 ff ff ff       jmp    $0x00007f0f0481f9e3 
  0x00007f0f0481f9e3  80 3b 00             cmp    (%rbx)[1byte] $0x00 
  0x00007f0f0481f9e6  48 8b 2d e3 ab 38 00 mov    <rel> 0x00007f0f04baa5d0[8byte] -> %rbp 
  0x00007f0f0481f9ed  75 61                jnz    $0x00007f0f0481fa50 
Actual: 7f0f0481fa50

Block 411:
  0x00007f0f0481fa50  48 8d 35 49 9f 15 00 lea    <rel> 0x00007f0f049799a0 -> %rsi 
  0x00007f0f0481fa57  48 89 df             mov    %rbx -> %rdi 
  0x00007f0f0481fa5a  e8 41 4d 05 00       call   $0x00007f0f048747a0 %rsp -> %rsp 0xfffffff8(%rsp)[8byte] 
  0x00007f0f048747a0  89 f1                mov    %esi -> %ecx 
  0x00007f0f048747a2  89 f8                mov    %edi -> %eax 
  0x00007f0f048747a4  48 83 e1 3f          and    $0x000000000000003f %rcx -> %rcx 
  0x00007f0f048747a8  48 83 e0 3f          and    $0x000000000000003f %rax -> %rax 
  0x00007f0f048747ac  83 f9 30             cmp    %ecx $0x00000030 
  0x00007f0f048747af  77 3f                jnbe   $0x00007f0f048747f0 
Actual: 7f0f048747b1

Block 412:
  0x00007f0f0481fa5f  85 c0                test   %eax %eax 
  0x00007f0f0481fa61  74 8c                jz     $0x00007f0f0481f9ef 
Actual: 7f0f0481fa63

Block 413:
  0x00007f0f0481fa63  48 89 ee             mov    %rbp -> %rsi 
  0x00007f0f0481fa66  48 89 df             mov    %rbx -> %rdi 
  0x00007f0f0481fa69  e8 32 4d 05 00       call   $0x00007f0f048747a0 %rsp -> %rsp 0xfffffff8(%rsp)[8byte] 
  0x00007f0f048747a0  89 f1                mov    %esi -> %ecx 
  0x00007f0f048747a2  89 f8                mov    %edi -> %eax 
  0x00007f0f048747a4  48 83 e1 3f          and    $0x000000000000003f %rcx -> %rcx 
  0x00007f0f048747a8  48 83 e0 3f          and    $0x000000000000003f %rax -> %rax 
  0x00007f0f048747ac  83 f9 30             cmp    %ecx $0x00000030 
  0x00007f0f048747af  77 3f                jnbe   $0x00007f0f048747f0 
Actual: 7f0f048747b1

Block 414:
  0x00007f0f0481fa6e  85 c0                test   %eax %eax 
  0x00007f0f0481fa70  75 3e                jnz    $0x00007f0f0481fab0 
Actual: 7f0f0481fab0

Block 415:
  0x00007f0f0481fab0  48 89 df             mov    %rbx -> %rdi 
  0x00007f0f0481fab3  e8 48 64 05 00       call   $0x00007f0f04875f00 %rsp -> %rsp 0xfffffff8(%rsp)[8byte] 
  0x00007f0f04875f00  55                   push   %rbp %rsp -> %rsp 0xfffffff8(%rsp)[8byte] 
  0x00007f0f04875f01  53                   push   %rbx %rsp -> %rsp 0xfffffff8(%rsp)[8byte] 
  0x00007f0f04875f02  48 89 fd             mov    %rdi -> %rbp 
  0x00007f0f04875f05  48 83 ec 08          sub    $0x0000000000000008 %rsp -> %rsp 
  0x00007f0f04875f09  e8 a2 02 00 00       call   $0x00007f0f048761b0 %rsp -> %rsp 0xfffffff8(%rsp)[8byte] 
  0x00007f0f048761b0  66 0f ef c0          pxor   %xmm0 %xmm0 -> %xmm0 
  0x00007f0f048761b4  66 0f ef c9          pxor   %xmm1 %xmm1 -> %xmm1 
  0x00007f0f048761b8  66 0f ef d2          pxor   %xmm2 %xmm2 -> %xmm2 
  0x00007f0f048761bc  66 0f ef db          pxor   %xmm3 %xmm3 -> %xmm3 
  0x00007f0f048761c0  48 89 f8             mov    %rdi -> %rax 
  0x00007f0f048761c3  48 89 f9             mov    %rdi -> %rcx 
  0x00007f0f048761c6  48 81 e1 ff 0f 00 00 and    $0x0000000000000fff %rcx -> %rcx 
  0x00007f0f048761cd  48 81 f9 cf 0f 00 00 cmp    %rcx $0x0000000000000fcf 
  0x00007f0f048761d4  77 6a                jnbe   $0x00007f0f04876240 
Actual: 7f0f048761d6

Block 416:
  0x00007f0f0481fab8  48 85 c0             test   %rax %rax 
  0x00007f0f0481fabb  48 89 c3             mov    %rax -> %rbx 
  0x00007f0f0481fabe  0f 84 58 ff ff ff    jz     $0x00007f0f0481fa1c 
Actual: 7f0f0481fac4

Block 417:
  0x00007f0f0481fac4  48 89 05 05 ab 38 00 mov    %rax -> <rel> 0x00007f0f04baa5d0[8byte] 
  0x00007f0f0481facb  48 8d 05 ce 9e 15 00 lea    <rel> 0x00007f0f049799a0 -> %rax 
  0x00007f0f0481fad2  e9 29 ff ff ff       jmp    $0x00007f0f0481fa00 
  0x00007f0f0481fa00  48 8b 15 f9 a4 38 00 mov    <rel> 0x00007f0f04ba9f00[8byte] -> %rdx 
  0x00007f0f0481fa07  83 02 01             add    $0x00000001 (%rdx)[4byte] -> (%rdx)[4byte] 
  0x00007f0f0481fa0a  48 39 c5             cmp    %rbp %rax 
  0x00007f0f0481fa0d  74 0d                jz     $0x00007f0f0481fa1c 
Actual: 7f0f0481fa1c

Block 418:
  0x00007f0f0481fa1c  8b 05 ce fc 38 00    mov    <rel> 0x00007f0f04baf6f0[4byte] -> %eax 
  0x00007f0f0481fa22  85 c0                test   %eax %eax 
  0x00007f0f0481fa24  74 1d                jz     $0x00007f0f0481fa43 
Actual: 7f0f0481fa26

Block 419:
  0x00007f0f0481fa26  48 8b 05 63 fc 38 00 mov    <rel> 0x00007f0f04baf690[8byte] -> %rax 
  0x00007f0f0481fa2d  48 8d 3d 4c c0 38 00 lea    <rel> 0x00007f0f04baba80 -> %rdi 
  0x00007f0f0481fa34  48 c1 c8 11          ror    $0x0000000000000011 %rax -> %rax 
  0x00007f0f0481fa38  64 48 33 04 25 30 00 xor    %fs:0x30[8byte] %rax -> %rax 
                      00 00
  0x00007f0f0481fa41  ff d0                call   %rax %rsp -> %rsp 0xfffffff8(%rsp)[8byte] 
Actual: 7f0f051f1730

Block 420:
  0x00007f0f0481fa43  48 83 c4 08          add    $0x0000000000000008 %rsp -> %rsp 
  0x00007f0f0481fa47  48 89 d8             mov    %rbx -> %rax 
  0x00007f0f0481fa4a  5b                   pop    %rsp (%rsp)[8byte] -> %rbx %rsp 
  0x00007f0f0481fa4b  5d                   pop    %rsp (%rsp)[8byte] -> %rbp %rsp 
  0x00007f0f0481fa4c  c3                   ret    %rsp (%rsp)[8byte] -> %rsp 
Actual: 55e94ebe339f

Block 421:
  0x000055e94ebe339f  48 8d 3d ca 8a 00 00 lea    <rel> 0x000055e94ebebe70 -> %rdi 
  0x000055e94ebe33a6  e8 95 49 01 00       call   $0x000055e94ebf7d40 %rsp -> %rsp 0xfffffff8(%rsp)[8byte] 
  0x000055e94ebf7d40  48 8d 05 19 69 20 00 lea    <rel> 0x000055e94edfe660 -> %rax 
  0x000055e94ebf7d47  48 85 c0             test   %rax %rax 
  0x000055e94ebf7d4a  74 14                jz     $0x000055e94ebf7d60 
Actual: 55e94ebf7d4c

Block 422:
  0x000055e94ebf7d4c  48 8b 10             mov    (%rax)[8byte] -> %rdx 
  0x000055e94ebf7d4f  31 f6                xor    %esi %esi -> %esi 
  0x000055e94ebf7d51  e9 52 b5 fe ff       jmp    $0x000055e94ebe32a8 
  0x000055e94ebe32a8  ff 25 b2 bc 21 00    jmp    <rel> 0x000055e94edfef60[8byte] 
Actual: 7f0f04827450

Block 423:
  0x00007f0f04827450  41 54                push   %r12 %rsp -> %rsp 0xfffffff8(%rsp)[8byte] 
  0x00007f0f04827452  55                   push   %rbp %rsp -> %rsp 0xfffffff8(%rsp)[8byte] 
  0x00007f0f04827453  49 89 f4             mov    %rsi -> %r12 
  0x00007f0f04827456  53                   push   %rbx %rsp -> %rsp 0xfffffff8(%rsp)[8byte] 
  0x00007f0f04827457  48 89 fb             mov    %rdi -> %rbx 
  0x00007f0f0482745a  48 8d 3d 77 31 38 00 lea    <rel> 0x00007f0f04baa5d8 -> %rdi 
  0x00007f0f04827461  48 89 d5             mov    %rdx -> %rbp 
  0x00007f0f04827464  e8 27 fe ff ff       call   $0x00007f0f04827290 %rsp -> %rsp 0xfffffff8(%rsp)[8byte] 
  0x00007f0f04827290  55                   push   %rbp %rsp -> %rsp 0xfffffff8(%rsp)[8byte] 
  0x00007f0f04827291  53                   push   %rbx %rsp -> %rsp 0xfffffff8(%rsp)[8byte] 
  0x00007f0f04827292  49 89 f8             mov    %rdi -> %r8 
  0x00007f0f04827295  be 01 00 00 00       mov    $0x00000001 -> %esi 
  0x00007f0f0482729a  31 c0                xor    %eax %eax -> %eax 
  0x00007f0f0482729c  48 83 ec 08          sub    $0x0000000000000008 %rsp -> %rsp 
  0x00007f0f048272a0  83 3d 59 84 38 00 00 cmp    <rel> 0x00007f0f04baf700[4byte] $0x00000000 
  0x00007f0f048272a7  74 0c                jz     $0x00007f0f048272b5 
Actual: 7f0f048272b5

Block 424:
  0x00007f0f048272f9  48 8d 51 ff          lea    0xffffffff(%rcx) -> %rdx 
  0x00007f0f048272fd  48 89 d6             mov    %rdx -> %rsi 
  0x00007f0f04827300  48 c1 e6 05          shl    $0x0000000000000005 %rsi -> %rsi 
  0x00007f0f04827304  48 83 7c 30 10 00    cmp    0x10(%rax,%rsi,1)[8byte] $0x0000000000000000 
  0x00007f0f0482730a  75 43                jnz    $0x00007f0f0482734f 
Actual: 7f0f0482734f

Block 425:
  0x00007f0f0482734f  48 89 ca             mov    %rcx -> %rdx 
  0x00007f0f04827352  66 0f 1f 44 00 00    data16 nop    0x00(%rax,%rax,1)[4byte] 
  0x00007f0f04827358  48 83 fa 20          cmp    %rdx $0x0000000000000020 
  0x00007f0f0482735c  74 63                jz     $0x00007f0f048273c1 
Actual: 7f0f0482735e

Block 426:
  0x00007f0f0482735e  48 89 d1             mov    %rdx -> %rcx 
  0x00007f0f04827361  48 83 c2 01          add    $0x0000000000000001 %rdx -> %rdx 
  0x00007f0f04827365  48 c1 e1 05          shl    $0x0000000000000005 %rcx -> %rcx 
  0x00007f0f04827369  48 89 50 08          mov    %rdx -> 0x08(%rax)[8byte] 
  0x00007f0f0482736d  48 8d 74 08 10       lea    0x10(%rax,%rcx,1) -> %rsi 
  0x00007f0f04827372  48 c7 06 01 00 00 00 mov    $0x0000000000000001 -> (%rsi)[8byte] 
  0x00007f0f04827379  48 83 05 7f 80 38 00 add    $0x0000000000000001 <rel> 0x00007f0f04baf400[8byte] -> <rel> 0x00007f0f04baf400[8byte] 
                      01
  0x00007f0f04827381  83 3d 78 83 38 00 00 cmp    <rel> 0x00007f0f04baf700[4byte] $0x00000000 
  0x00007f0f04827388  74 0b                jz     $0x00007f0f04827395 
Actual: 7f0f04827395

Block 427:
  0x000055e94ebe33ab  e8 20 fb ff ff       call   $0x000055e94ebe2ed0 %rsp -> %rsp 0xfffffff8(%rsp)[8byte] 
  0x000055e94ebe2ed0  ff 25 7a bc 21 00    jmp    <rel> 0x000055e94edfeb50[8byte] 
Actual: 7f0f04fda1e0

Block 428:
  0x000055e94ebe33b0  4c 89 e7             mov    %r12 -> %rdi 
  0x000055e94ebe33b3  41 89 c5             mov    %eax -> %r13d 
  0x000055e94ebe33b6  e8 05 2e 00 00       call   $0x000055e94ebe61c0 %rsp -> %rsp 0xfffffff8(%rsp)[8byte] 
  0x000055e94ebe61c0  53                   push   %rbx %rsp -> %rsp 0xfffffff8(%rsp)[8byte] 
  0x000055e94ebe61c1  48 89 fb             mov    %rdi -> %rbx 
  0x000055e94ebe61c4  48 c7 07 00 00 00 00 mov    $0x0000000000000000 -> (%rdi)[8byte] 
  0x000055e94ebe61cb  48 c7 47 40 00 00 00 mov    $0x0000000000000000 -> 0x40(%rdi)[8byte] 
                      00
  0x000055e94ebe61d3  48 8d 7f 08          lea    0x08(%rdi) -> %rdi 
  0x000055e94ebe61d7  48 89 d9             mov    %rbx -> %rcx 
  0x000055e94ebe61da  31 c0                xor    %eax %eax -> %eax 
  0x000055e94ebe61dc  48 83 e7 f8          and    $0xfffffffffffffff8 %rdi -> %rdi 
  0x000055e94ebe61e0  48 29 f9             sub    %rdi %rcx -> %rcx 
  0x000055e94ebe61e3  83 c1 48             add    $0x00000048 %ecx -> %ecx 
  0x000055e94ebe61e6  c1 e9 03             shr    $0x00000003 %ecx -> %ecx 
  0x000055e94ebe61e9  f3 48 ab             rep stos %rax %rdi %rcx -> %es:(%rdi)[8byte] %rdi %rcx 
  0x000055e94ebe61ec  e8 6f ce ff ff       call   $0x000055e94ebe3060 %rsp -> %rsp 0xfffffff8(%rsp)[8byte] 
  0x000055e94ebe3060  ff 25 9a bc 21 00    jmp    <rel> 0x000055e94edfed00[8byte] 
Actual: 7f0f048b7700

Block 429:
  0x00007f0f048b7700  b8 6b 00 00 00       mov    $0x0000006b -> %eax 
  0x00007f0f048b7705  0f 05                syscall -> %rcx 
  0x00007f0f048b7707  c3                   ret    %rsp (%rsp)[8byte] -> %rsp 
Actual: 55e94ebe61f1

Block 430:
  0x000055e94ebe61f1  85 c0                test   %eax %eax 
  0x000055e94ebe61f3  0f 94 c0             setz   -> %al 
  0x000055e94ebe61f6  88 43 1a             mov    %al -> 0x1a(%rbx)[1byte] 
  0x000055e94ebe61f9  88 43 19             mov    %al -> 0x19(%rbx)[1byte] 
  0x000055e94ebe61fc  5b                   pop    %rsp (%rsp)[8byte] -> %rbx %rsp 
  0x000055e94ebe61fd  c3                   ret    %rsp (%rsp)[8byte] -> %rsp 
Actual: 55e94ebe33bb

Block 431:
  0x000055e94ebe33bb  45 85 ed             test   %r13d %r13d 
  0x000055e94ebe33be  c6 44 24 44 00       mov    $0x00 -> 0x44(%rsp)[1byte] 
  0x000055e94ebe33c3  c7 44 24 60 01 00 00 mov    $0x00000001 -> 0x60(%rsp)[4byte] 
                      00
  0x000055e94ebe33cb  0f 9f 44 24 54       setnle -> 0x54(%rsp)[1byte] 
  0x000055e94ebe33d0  31 ff                xor    %edi %edi -> %edi 
  0x000055e94ebe33d2  c7 44 24 34 02 00 00 mov    $0x00000002 -> 0x34(%rsp)[4byte] 
                      00
  0x000055e94ebe33da  c6 44 24 45 00       mov    $0x00 -> 0x45(%rsp)[1byte] 
  0x000055e94ebe33df  c6 44 24 46 00       mov    $0x00 -> 0x46(%rsp)[1byte] 
  0x000055e94ebe33e4  c6 44 24 47 00       mov    $0x00 -> 0x47(%rsp)[1byte] 
  0x000055e94ebe33e9  c7 44 24 38 04 00 00 mov    $0x00000004 -> 0x38(%rsp)[4byte] 
                      00
  0x000055e94ebe33f1  c6 44 24 48 01       mov    $0x01 -> 0x48(%rsp)[1byte] 
  0x000055e94ebe33f6  c6 44 24 4b 00       mov    $0x00 -> 0x4b(%rsp)[1byte] 
  0x000055e94ebe33fb  c6 44 24 4c 01       mov    $0x01 -> 0x4c(%rsp)[1byte] 
  0x000055e94ebe3400  c6 44 24 51 01       mov    $0x01 -> 0x51(%rsp)[1byte] 
  0x000055e94ebe3405  c6 44 24 4d 01       mov    $0x01 -> 0x4d(%rsp)[1byte] 
  0x000055e94ebe340a  c6 44 24 4e 01       mov    $0x01 -> 0x4e(%rsp)[1byte] 
  0x000055e94ebe340f  c6 44 24 4f 00       mov    $0x00 -> 0x4f(%rsp)[1byte] 
  0x000055e94ebe3414  c6 44 24 50 00       mov    $0x00 -> 0x50(%rsp)[1byte] 
  0x000055e94ebe3419  c6 44 24 58 00       mov    $0x00 -> 0x58(%rsp)[1byte] 
  0x000055e94ebe341e  c6 44 24 52 01       mov    $0x01 -> 0x52(%rsp)[1byte] 
  0x000055e94ebe3423  c6 44 24 53 00       mov    $0x00 -> 0x53(%rsp)[1byte] 
  0x000055e94ebe3428  c6 44 24 55 00       mov    $0x00 -> 0x55(%rsp)[1byte] 
  0x000055e94ebe342d  c6 44 24 56 01       mov    $0x01 -> 0x56(%rsp)[1byte] 
  0x000055e94ebe3432  c6 44 24 57 00       mov    $0x00 -> 0x57(%rsp)[1byte] 
  0x000055e94ebe3437  c6 44 24 59 01       mov    $0x01 -> 0x59(%rsp)[1byte] 
  0x000055e94ebe343c  c7 44 24 3c 02 00 00 mov    $0x00000002 -> 0x3c(%rsp)[4byte] 
                      00
  0x000055e94ebe3444  c6 44 24 5b 00       mov    $0x00 -> 0x5b(%rsp)[1byte] 
  0x000055e94ebe3449  c6 44 24 5a 00       mov    $0x00 -> 0x5a(%rsp)[1byte] 
  0x000055e94ebe344e  c7 44 24 40 00 00 00 mov    $0x00000000 -> 0x40(%rsp)[4byte] 
                      00
  0x000055e94ebe3456  e8 ed fa ff ff       call   $0x000055e94ebe2f48 %rsp -> %rsp 0xfffffff8(%rsp)[8byte] 
  0x000055e94ebe2f48  ff 25 8a bc 21 00    jmp    <rel> 0x000055e94edfebd8[8byte] 
Actual: 7f0f048e2640

Block 432:
  0x00007f0f048e2640  48 83 ec 48          sub    $0x0000000000000048 %rsp -> %rsp 
  0x00007f0f048e2644  48 89 e6             mov    %rsp -> %rsi 
  0x00007f0f048e2647  e8 b4 3b 00 00       call   $0x00007f0f048e6200 %rsp -> %rsp 0xfffffff8(%rsp)[8byte] 
  0x00007f0f048e6200  53                   push   %rbx %rsp -> %rsp 0xfffffff8(%rsp)[8byte] 
  0x00007f0f048e6201  49 89 f0             mov    %rsi -> %r8 
  0x00007f0f048e6204  48 63 ff             movsxd %edi -> %rdi 
  0x00007f0f048e6207  be 01 54 00 00       mov    $0x00005401 -> %esi 
  0x00007f0f048e620c  b8 10 00 00 00       mov    $0x00000010 -> %eax 
  0x00007f0f048e6211  48 83 ec 30          sub    $0x0000000000000030 %rsp -> %rsp 
  0x00007f0f048e6215  48 89 e2             mov    %rsp -> %rdx 
  0x00007f0f048e6218  0f 05                syscall -> %rcx 
  0x00007f0f048e621a  48 3d 00 f0 ff ff    cmp    %rax $0xfffffffffffff000 
  0x00007f0f048e6220  77 5e                jnbe   $0x00007f0f048e6280 
Actual: 7f0f048e6222

Block 433:
  0x00007f0f048e6222  85 c0                test   %eax %eax 
  0x00007f0f048e6224  89 c3                mov    %eax -> %ebx 
  0x00007f0f048e6226  75 4b                jnz    $0x00007f0f048e6273 
Actual: 7f0f048e6228

Block 434:
  0x00007f0f048e6228  0f b6 44 24 10       movzx  0x10(%rsp)[1byte] -> %eax 
  0x00007f0f048e622d  4c 89 c7             mov    %r8 -> %rdi 
  0x00007f0f048e6230  48 8d 74 24 11       lea    0x11(%rsp) -> %rsi 
  0x00007f0f048e6235  66 0f 6f 04 24       movdqa (%rsp)[16byte] -> %xmm0 
  0x00007f0f048e623a  48 83 c7 11          add    $0x0000000000000011 %rdi -> %rdi 
  0x00007f0f048e623e  ba 13 00 00 00       mov    $0x00000013 -> %edx 
  0x00007f0f048e6243  41 0f 11 00          movups %xmm0 -> (%r8)[16byte] 
  0x00007f0f048e6247  41 88 40 10          mov    %al -> 0x10(%r8)[1byte] 
  0x00007f0f048e624b  8b 44 24 08          mov    0x08(%rsp)[4byte] -> %eax 
  0x00007f0f048e624f  25 0f 10 00 00       and    $0x0000100f %eax -> %eax 
  0x00007f0f048e6254  41 89 40 34          mov    %eax -> 0x34(%r8)[4byte] 
  0x00007f0f048e6258  41 89 40 38          mov    %eax -> 0x38(%r8)[4byte] 
  0x00007f0f048e625c  e8 2f 3d f9 ff       call   $0x00007f0f04879f90 %rsp -> %rsp 0xfffffff8(%rsp)[8byte] 
  0x00007f0f04879f90  48 83 fa 20          cmp    %rdx $0x0000000000000020 
  0x00007f0f04879f94  73 7a                jnb    $0x00007f0f0487a010 
Actual: 7f0f04879f96

Block 435:
  0x00007f0f04879f9b  0f b6 0e             movzx  (%rsi)[1byte] -> %ecx 
  0x00007f0f04879f9e  88 0f                mov    %cl -> (%rdi)[1byte] 
  0x00007f0f04879fa0  48 ff c6             inc    %rsi -> %rsi 
  0x00007f0f04879fa3  48 ff c7             inc    %rdi -> %rdi 
  0x00007f0f04879fa6  f6 c2 02             test   %dl $0x02 
  0x00007f0f04879fa9  74 0e                jz     $0x00007f0f04879fb9 
Actual: 7f0f04879fab

Block 436:
  0x00007f0f04879fca  f6 c2 08             test   %dl $0x08 
  0x00007f0f04879fcd  74 11                jz     $0x00007f0f04879fe0 
Actual: 7f0f04879fe0

Block 437:
  0x00007f0f04879fe8  0f 1f 84 00 00 00 00 nop    0x00000000(%rax,%rax,1)[4byte] 
                      00
  0x00007f0f04879ff0  48 8b 0e             mov    (%rsi)[8byte] -> %rcx 
  0x00007f0f04879ff3  4c 8b 46 08          mov    0x08(%rsi)[8byte] -> %r8 
  0x00007f0f04879ff7  48 89 0f             mov    %rcx -> (%rdi)[8byte] 
  0x00007f0f04879ffa  4c 89 47 08          mov    %r8 -> 0x08(%rdi)[8byte] 
  0x00007f0f04879ffe  83 ea 10             sub    $0x00000010 %edx -> %edx 
  0x00007f0f0487a001  48 8d 76 10          lea    0x10(%rsi) -> %rsi 
  0x00007f0f0487a005  48 8d 7f 10          lea    0x10(%rdi) -> %rdi 
  0x00007f0f0487a009  75 e5                jnz    $0x00007f0f04879ff0 
Actual: 7f0f0487a00b

Block 438:
  0x00007f0f048e6261  48 c7 00 00 00 00 00 mov    $0x0000000000000000 -> (%rax)[8byte] 
  0x00007f0f048e6268  c7 40 08 00 00 00 00 mov    $0x00000000 -> 0x08(%rax)[4byte] 
  0x00007f0f048e626f  c6 40 0c 00          mov    $0x00 -> 0x0c(%rax)[1byte] 
  0x00007f0f048e6273  48 83 c4 30          add    $0x0000000000000030 %rsp -> %rsp 
  0x00007f0f048e6277  89 d8                mov    %ebx -> %eax 
  0x00007f0f048e6279  5b                   pop    %rsp (%rsp)[8byte] -> %rbx %rsp 
  0x00007f0f048e627a  c3                   ret    %rsp (%rsp)[8byte] -> %rsp 
Actual: 7f0f048e264c

Block 439:
  0x00007f0f048e264c  85 c0                test   %eax %eax 
  0x00007f0f048e264e  0f 94 c0             setz   -> %al 
  0x00007f0f048e2651  48 83 c4 48          add    $0x0000000000000048 %rsp -> %rsp 
  0x00007f0f048e2655  0f b6 c0             movzx  %al -> %eax 
  0x00007f0f048e2658  c3                   ret    %rsp (%rsp)[8byte] -> %rsp 
Actual: 55e94ebe345b

Block 440:
  0x000055e94ebe345b  48 8d 3d e1 49 01 00 lea    <rel> 0x000055e94ebf7e43 -> %rdi 
  0x000055e94ebe3462  85 c0                test   %eax %eax 
  0x000055e94ebe3464  c6 44 24 5f 00       mov    $0x00 -> 0x5f(%rsp)[1byte] 
  0x000055e94ebe3469  0f 95 44 24 5e       setnz  -> 0x5e(%rsp)[1byte] 
  0x000055e94ebe346e  c6 44 24 5c 00       mov    $0x00 -> 0x5c(%rsp)[1byte] 
  0x000055e94ebe3473  45 31 ed             xor    %r13d %r13d -> %r13d 
  0x000055e94ebe3476  c6 44 24 5d 00       mov    $0x00 -> 0x5d(%rsp)[1byte] 
  0x000055e94ebe347b  48 c7 44 24 68 00 00 mov    $0x0000000000000000 -> 0x68(%rsp)[8byte] 
                      00 00
  0x000055e94ebe3484  45 31 ff             xor    %r15d %r15d -> %r15d 
  0x000055e94ebe3487  48 c7 44 24 70 00 00 mov    $0x0000000000000000 -> 0x70(%rsp)[8byte] 
                      00 00
  0x000055e94ebe3490  45 31 f6             xor    %r14d %r14d -> %r14d 
  0x000055e94ebe3493  e8 10 fa ff ff       call   $0x000055e94ebe2ea8 %rsp -> %rsp 0xfffffff8(%rsp)[8byte] 
  0x000055e94ebe2ea8  ff 25 7a bc 21 00    jmp    <rel> 0x000055e94edfeb28[8byte] 
Actual: 7f0f04826970

Block 441:
  0x00007f0f04826970  41 57                push   %r15 %rsp -> %rsp 0xfffffff8(%rsp)[8byte] 
  0x00007f0f04826972  41 56                push   %r14 %rsp -> %rsp 0xfffffff8(%rsp)[8byte] 
  0x00007f0f04826974  49 89 ff             mov    %rdi -> %r15 
  0x00007f0f04826977  41 55                push   %r13 %rsp -> %rsp 0xfffffff8(%rsp)[8byte] 
  0x00007f0f04826979  41 54                push   %r12 %rsp -> %rsp 0xfffffff8(%rsp)[8byte] 
  0x00007f0f0482697b  55                   push   %rbp %rsp -> %rsp 0xfffffff8(%rsp)[8byte] 
  0x00007f0f0482697c  53                   push   %rbx %rsp -> %rsp 0xfffffff8(%rsp)[8byte] 
  0x00007f0f0482697d  48 83 ec 08          sub    $0x0000000000000008 %rsp -> %rsp 
  0x00007f0f04826981  e8 2a f8 04 00       call   $0x00007f0f048761b0 %rsp -> %rsp 0xfffffff8(%rsp)[8byte] 
  0x00007f0f048761b0  66 0f ef c0          pxor   %xmm0 %xmm0 -> %xmm0 
  0x00007f0f048761b4  66 0f ef c9          pxor   %xmm1 %xmm1 -> %xmm1 
  0x00007f0f048761b8  66 0f ef d2          pxor   %xmm2 %xmm2 -> %xmm2 
  0x00007f0f048761bc  66 0f ef db          pxor   %xmm3 %xmm3 -> %xmm3 
  0x00007f0f048761c0  48 89 f8             mov    %rdi -> %rax 
  0x00007f0f048761c3  48 89 f9             mov    %rdi -> %rcx 
  0x00007f0f048761c6  48 81 e1 ff 0f 00 00 and    $0x0000000000000fff %rcx -> %rcx 
  0x00007f0f048761cd  48 81 f9 cf 0f 00 00 cmp    %rcx $0x0000000000000fcf 
  0x00007f0f048761d4  77 6a                jnbe   $0x00007f0f04876240 
Actual: 7f0f048761d6

Block 442:
  0x000055e94ebe3498  48 89 04 24          mov    %rax -> (%rsp)[8byte] 
  0x000055e94ebe349c  48 8d 84 24 80 00 00 lea    0x00000080(%rsp) -> %rax 
                      00
  0x000055e94ebe34a4  c6 44 24 08 00       mov    $0x00 -> 0x08(%rsp)[1byte] 
  0x000055e94ebe34a9  48 89 44 24 18       mov    %rax -> 0x18(%rsp)[8byte] 
  0x000055e94ebe34ae  48 8d 0d cb b1 21 00 lea    <rel> 0x000055e94edfe680 -> %rcx 
  0x000055e94ebe34b5  48 8d 15 f6 49 01 00 lea    <rel> 0x000055e94ebf7eb2 -> %rdx 
  0x000055e94ebe34bc  45 31 c0             xor    %r8d %r8d -> %r8d 
  0x000055e94ebe34bf  48 89 de             mov    %rbx -> %rsi 
  0x000055e94ebe34c2  89 ef                mov    %ebp -> %edi 
  0x000055e94ebe34c4  e8 2f fb ff ff       call   $0x000055e94ebe2ff8 %rsp -> %rsp 0xfffffff8(%rsp)[8byte] 
  0x000055e94ebe2ff8  ff 25 9a bc 21 00    jmp    <rel> 0x000055e94edfec98[8byte] 
Actual: 7f0f048d4960

Block 443:
  0x00007f0f048d4960  48 83 ec 10          sub    $0x0000000000000010 %rsp -> %rsp 
  0x00007f0f048d4964  45 31 c9             xor    %r9d %r9d -> %r9d 
  0x00007f0f048d4967  6a 00                push   $0x0000000000000000 %rsp -> %rsp 0xfffffff8(%rsp)[8byte] 
  0x00007f0f048d4969  e8 52 ff ff ff       call   $0x00007f0f048d48c0 %rsp -> %rsp 0xfffffff8(%rsp)[8byte] 
  0x00007f0f048d48c0  53                   push   %rbx %rsp -> %rsp 0xfffffff8(%rsp)[8byte] 
  0x00007f0f048d48c1  48 8b 1d 78 56 2d 00 mov    <rel> 0x00007f0f04ba9f40[8byte] -> %rbx 
  0x00007f0f048d48c8  8b 03                mov    (%rbx)[4byte] -> %eax 
  0x00007f0f048d48ca  89 05 b0 85 2d 00    mov    %eax -> <rel> 0x00007f0f04bace80[4byte] 
  0x00007f0f048d48d0  48 8b 05 e1 56 2d 00 mov    <rel> 0x00007f0f04ba9fb8[8byte] -> %rax 
  0x00007f0f048d48d7  8b 00                mov    (%rax)[4byte] -> %eax 
  0x00007f0f048d48d9  89 05 a5 85 2d 00    mov    %eax -> <rel> 0x00007f0f04bace84[4byte] 
  0x00007f0f048d48df  8b 44 24 10          mov    0x10(%rsp)[4byte] -> %eax 
  0x00007f0f048d48e3  50                   push   %rax %rsp -> %rsp 0xfffffff8(%rsp)[8byte] 
  0x00007f0f048d48e4  48 8d 05 95 85 2d 00 lea    <rel> 0x00007f0f04bace80 -> %rax 
  0x00007f0f048d48eb  50                   push   %rax %rsp -> %rsp 0xfffffff8(%rsp)[8byte] 
  0x00007f0f048d48ec  e8 1f ed ff ff       call   $0x00007f0f048d3610 %rsp -> %rsp 0xfffffff8(%rsp)[8byte] 
  0x00007f0f048d3610  55                   push   %rbp %rsp -> %rsp 0xfffffff8(%rsp)[8byte] 
  0x00007f0f048d3611  48 89 e5             mov    %rsp -> %rbp 
  0x00007f0f048d3614  41 57                push   %r15 %rsp -> %rsp 0xfffffff8(%rsp)[8byte] 
  0x00007f0f048d3616  41 56                push   %r14 %rsp -> %rsp 0xfffffff8(%rsp)[8byte] 
  0x00007f0f048d3618  41 55                push   %r13 %rsp -> %rsp 0xfffffff8(%rsp)[8byte] 
  0x00007f0f048d361a  41 54                push   %r12 %rsp -> %rsp 0xfffffff8(%rsp)[8byte] 
  0x00007f0f048d361c  53                   push   %rbx %rsp -> %rsp 0xfffffff8(%rsp)[8byte] 
  0x00007f0f048d361d  48 81 ec a8 00 00 00 sub    $0x00000000000000a8 %rsp -> %rsp 
  0x00007f0f048d3624  4c 8b 75 10          mov    0x10(%rbp)[8byte] -> %r14 
  0x00007f0f048d3628  85 ff                test   %edi %edi 
  0x00007f0f048d362a  48 89 75 90          mov    %rsi -> 0xffffff90(%rbp)[8byte] 
  0x00007f0f048d362e  48 89 55 a8          mov    %rdx -> 0xffffffa8(%rbp)[8byte] 
  0x00007f0f048d3632  48 89 4d 80          mov    %rcx -> 0xffffff80(%rbp)[8byte] 
  0x00007f0f048d3636  4c 89 85 70 ff ff ff mov    %r8 -> 0xffffff70(%rbp)[8byte] 
  0x00007f0f048d363d  41 8b 46 04          mov    0x04(%r14)[4byte] -> %eax 
  0x00007f0f048d3641  44 89 8d 7c ff ff ff mov    %r9d -> 0xffffff7c(%rbp)[4byte] 
  0x00007f0f048d3648  89 45 a4             mov    %eax -> 0xffffffa4(%rbp)[4byte] 
  0x00007f0f048d364b  0f 8e 67 02 00 00    jle    $0x00007f0f048d38b8 
Actual: 7f0f048d3651

Block 444:
  0x00007f0f048d3651  41 8b 06             mov    (%r14)[4byte] -> %eax 
  0x00007f0f048d3654  41 89 fd             mov    %edi -> %r13d 
  0x00007f0f048d3657  49 c7 46 10 00 00 00 mov    $0x0000000000000000 -> 0x10(%r14)[8byte] 
                      00
  0x00007f0f048d365f  85 c0                test   %eax %eax 
  0x00007f0f048d3661  0f 85 69 01 00 00    jnz    $0x00007f0f048d37d0 
Actual: 7f0f048d37d0

Block 445:
  0x00007f0f048d37d0  41 8b 76 18          mov    0x18(%r14)[4byte] -> %esi 
  0x00007f0f048d37d4  85 f6                test   %esi %esi 
  0x00007f0f048d37d6  0f 84 97 fe ff ff    jz     $0x00007f0f048d3673 
Actual: 7f0f048d3673

Block 446:
  0x00007f0f048d3673  48 8d 3d 83 47 0a 00 lea    <rel> 0x00007f0f04977dfd -> %rdi 
  0x00007f0f048d367a  41 89 46 34          mov    %eax -> 0x34(%r14)[4byte] 
  0x00007f0f048d367e  41 89 46 30          mov    %eax -> 0x30(%r14)[4byte] 
  0x00007f0f048d3682  49 c7 46 20 00 00 00 mov    $0x0000000000000000 -> 0x20(%r14)[8byte] 
                      00
  0x00007f0f048d368a  e8 e1 32 f5 ff       call   $0x00007f0f04826970 %rsp -> %rsp 0xfffffff8(%rsp)[8byte] 
  0x00007f0f04826970  41 57                push   %r15 %rsp -> %rsp 0xfffffff8(%rsp)[8byte] 
  0x00007f0f04826972  41 56                push   %r14 %rsp -> %rsp 0xfffffff8(%rsp)[8byte] 
  0x00007f0f04826974  49 89 ff             mov    %rdi -> %r15 
  0x00007f0f04826977  41 55                push   %r13 %rsp -> %rsp 0xfffffff8(%rsp)[8byte] 
  0x00007f0f04826979  41 54                push   %r12 %rsp -> %rsp 0xfffffff8(%rsp)[8byte] 
  0x00007f0f0482697b  55                   push   %rbp %rsp -> %rsp 0xfffffff8(%rsp)[8byte] 
  0x00007f0f0482697c  53                   push   %rbx %rsp -> %rsp 0xfffffff8(%rsp)[8byte] 
  0x00007f0f0482697d  48 83 ec 08          sub    $0x0000000000000008 %rsp -> %rsp 
  0x00007f0f04826981  e8 2a f8 04 00       call   $0x00007f0f048761b0 %rsp -> %rsp 0xfffffff8(%rsp)[8byte] 
  0x00007f0f048761b0  66 0f ef c0          pxor   %xmm0 %xmm0 -> %xmm0 
  0x00007f0f048761b4  66 0f ef c9          pxor   %xmm1 %xmm1 -> %xmm1 
  0x00007f0f048761b8  66 0f ef d2          pxor   %xmm2 %xmm2 -> %xmm2 
  0x00007f0f048761bc  66 0f ef db          pxor   %xmm3 %xmm3 -> %xmm3 
  0x00007f0f048761c0  48 89 f8             mov    %rdi -> %rax 
  0x00007f0f048761c3  48 89 f9             mov    %rdi -> %rcx 
  0x00007f0f048761c6  48 81 e1 ff 0f 00 00 and    $0x0000000000000fff %rcx -> %rcx 
  0x00007f0f048761cd  48 81 f9 cf 0f 00 00 cmp    %rcx $0x0000000000000fcf 
  0x00007f0f048761d4  77 6a                jnbe   $0x00007f0f04876240 
Actual: 7f0f048761d6

Block 447:
  0x00007f0f048d368f  48 85 c0             test   %rax %rax 
  0x00007f0f048d3692  48 8b 4d a8          mov    0xffffffa8(%rbp)[8byte] -> %rcx 
  0x00007f0f048d3696  0f 95 c0             setnz  -> %al 
  0x00007f0f048d3699  0f b6 c0             movzx  %al -> %eax 
  0x00007f0f048d369c  0b 45 18             or     0x18(%rbp)[4byte] %eax -> %eax 
  0x00007f0f048d369f  41 89 46 2c          mov    %eax -> 0x2c(%r14)[4byte] 
  0x00007f0f048d36a3  0f b6 11             movzx  (%rcx)[1byte] -> %edx 
  0x00007f0f048d36a6  80 fa 2d             cmp    %dl $0x2d 
  0x00007f0f048d36a9  0f 84 71 04 00 00    jz     $0x00007f0f048d3b20 
Actual: 7f0f048d36af

Block 448:
  0x00007f0f048d36af  80 fa 2b             cmp    %dl $0x2b 
  0x00007f0f048d36b2  0f 84 98 04 00 00    jz     $0x00007f0f048d3b50 
Actual: 7f0f048d36b8

Block 449:
  0x00007f0f048d36b8  85 c0                test   %eax %eax 
  0x00007f0f048d36ba  0f 94 c0             setz   -> %al 
  0x00007f0f048d36bd  0f b6 c0             movzx  %al -> %eax 
  0x00007f0f048d36c0  41 89 46 28          mov    %eax -> 0x28(%r14)[4byte] 
  0x00007f0f048d36c4  48 89 c8             mov    %rcx -> %rax 
  0x00007f0f048d36c7  41 c7 46 18 01 00 00 mov    $0x00000001 -> 0x18(%r14)[4byte] 
                      00
  0x00007f0f048d36cf  0f b6 00             movzx  (%rax)[1byte] -> %eax 
  0x00007f0f048d36d2  3c 3a                cmp    %al $0x3a 
  0x00007f0f048d36d4  49 8b 5e 20          mov    0x20(%r14)[8byte] -> %rbx 
  0x00007f0f048d36d8  b8 00 00 00 00       mov    $0x00000000 -> %eax 
  0x00007f0f048d36dd  0f 45 45 a4          cmovnz 0xffffffa4(%rbp)[4byte] %eax -> %eax 
  0x00007f0f048d36e1  48 85 db             test   %rbx %rbx 
  0x00007f0f048d36e4  89 45 a4             mov    %eax -> 0xffffffa4(%rbp)[4byte] 
  0x00007f0f048d36e7  0f 84 4b 01 00 00    jz     $0x00007f0f048d3838 
Actual: 7f0f048d3838

Block 450:
  0x00007f0f048d3838  41 8b 06             mov    (%r14)[4byte] -> %eax 
  0x00007f0f048d383b  41 39 46 34          cmp    0x34(%r14)[4byte] %eax 
  0x00007f0f048d383f  7e 04                jle    $0x00007f0f048d3845 
Actual: 7f0f048d3845

Block 451:
  0x00007f0f048d3845  41 8b 56 30          mov    0x30(%r14)[4byte] -> %edx 
  0x00007f0f048d3849  39 d0                cmp    %eax %edx 
  0x00007f0f048d384b  7d 06                jnl    $0x00007f0f048d3853 
Actual: 7f0f048d3853

Block 452:
  0x00007f0f048d3853  41 83 7e 28 01       cmp    0x28(%r14)[4byte] $0x00000001 
  0x00007f0f048d3858  0f 84 52 02 00 00    jz     $0x00007f0f048d3ab0 
Actual: 7f0f048d3ab0

Block 453:
  0x00007f0f048d3ab0  41 8b 4e 34          mov    0x34(%r14)[4byte] -> %ecx 
  0x00007f0f048d3ab4  39 d1                cmp    %ecx %edx 
  0x00007f0f048d3ab6  0f 84 34 05 00 00    jz     $0x00007f0f048d3ff0 
Actual: 7f0f048d3ff0

Block 454:
  0x00007f0f048d3ff0  39 d0                cmp    %eax %edx 
  0x00007f0f048d3ff2  0f 84 d7 fa ff ff    jz     $0x00007f0f048d3acf 
Actual: 7f0f048d3acf

Block 455:
  0x00007f0f048d3acf  48 8b 5d 90          mov    0xffffff90(%rbp)[8byte] -> %rbx 
  0x00007f0f048d3ad3  48 63 d0             movsxd %eax -> %rdx 
  0x00007f0f048d3ad6  41 39 c5             cmp    %r13d %eax 
  0x00007f0f048d3ad9  48 8d 14 d3          lea    (%rbx,%rdx,8) -> %rdx 
  0x00007f0f048d3add  7f 18                jnle   $0x00007f0f048d3af7 
Actual: 7f0f048d3af7

Block 456:
  0x00007f0f048d3af7  48 8b 0a             mov    (%rdx)[8byte] -> %rcx 
  0x00007f0f048d3afa  80 39 2d             cmp    (%rcx)[1byte] $0x2d 
  0x00007f0f048d3afd  75 e9                jnz    $0x00007f0f048d3ae8 
Actual: 7f0f048d3ae8

Block 457:
  0x00007f0f048d3ae8  83 c0 01             add    $0x00000001 %eax -> %eax 
  0x00007f0f048d3aeb  48 83 c2 08          add    $0x0000000000000008 %rdx -> %rdx 
  0x00007f0f048d3aef  41 39 c5             cmp    %r13d %eax 
  0x00007f0f048d3af2  41 89 06             mov    %eax -> (%r14)[4byte] 
  0x00007f0f048d3af5  74 0e                jz     $0x00007f0f048d3b05 
Actual: 7f0f048d3af7

Block 458:
  0x00007f0f048d3b05  41 39 c5             cmp    %r13d %eax 
  0x00007f0f048d3b08  41 89 46 34          mov    %eax -> 0x34(%r14)[4byte] 
  0x00007f0f048d3b0c  0f 85 55 fd ff ff    jnz    $0x00007f0f048d3867 
Actual: 7f0f048d3b12

Block 459:
  0x00007f0f048d3b12  45 8b 6e 34          mov    0x34(%r14)[4byte] -> %r13d 
  0x00007f0f048d3b16  41 8b 56 30          mov    0x30(%r14)[4byte] -> %edx 
  0x00007f0f048d3b1a  e9 91 fd ff ff       jmp    $0x00007f0f048d38b0 
  0x00007f0f048d38b0  44 39 ea             cmp    %edx %r13d 
  0x00007f0f048d38b3  74 03                jz     $0x00007f0f048d38b8 
Actual: 7f0f048d38b5

Block 460:
  0x00007f0f048d38b5  41 89 16             mov    %edx -> (%r14)[4byte] 
  0x00007f0f048d38b8  41 bf ff ff ff ff    mov    $0xffffffff -> %r15d 
  0x00007f0f048d38be  e9 5c ff ff ff       jmp    $0x00007f0f048d381f 
  0x00007f0f048d381f  48 8d 65 d8          lea    0xffffffd8(%rbp) -> %rsp 
  0x00007f0f048d3823  44 89 f8             mov    %r15d -> %eax 
  0x00007f0f048d3826  5b                   pop    %rsp (%rsp)[8byte] -> %rbx %rsp 
  0x00007f0f048d3827  41 5c                pop    %rsp (%rsp)[8byte] -> %r12 %rsp 
  0x00007f0f048d3829  41 5d                pop    %rsp (%rsp)[8byte] -> %r13 %rsp 
  0x00007f0f048d382b  41 5e                pop    %rsp (%rsp)[8byte] -> %r14 %rsp 
  0x00007f0f048d382d  41 5f                pop    %rsp (%rsp)[8byte] -> %r15 %rsp 
  0x00007f0f048d382f  5d                   pop    %rsp (%rsp)[8byte] -> %rbp %rsp 
  0x00007f0f048d3830  c3                   ret    %rsp (%rsp)[8byte] -> %rsp 
Actual: 7f0f048d48f1

Block 461:
  0x00007f0f048d48f1  8b 15 89 85 2d 00    mov    <rel> 0x00007f0f04bace80[4byte] -> %edx 
  0x00007f0f048d48f7  48 8b 0d 92 85 2d 00 mov    <rel> 0x00007f0f04bace90[8byte] -> %rcx 
  0x00007f0f048d48fe  89 13                mov    %edx -> (%rbx)[4byte] 
  0x00007f0f048d4900  48 8b 15 69 55 2d 00 mov    <rel> 0x00007f0f04ba9e70[8byte] -> %rdx 
  0x00007f0f048d4907  48 89 0a             mov    %rcx -> (%rdx)[8byte] 
  0x00007f0f048d490a  8b 0d 78 85 2d 00    mov    <rel> 0x00007f0f04bace88[4byte] -> %ecx 
  0x00007f0f048d4910  48 8b 15 49 56 2d 00 mov    <rel> 0x00007f0f04ba9f60[8byte] -> %rdx 
  0x00007f0f048d4917  89 0a                mov    %ecx -> (%rdx)[4byte] 
  0x00007f0f048d4919  5a                   pop    %rsp (%rsp)[8byte] -> %rdx %rsp 
  0x00007f0f048d491a  59                   pop    %rsp (%rsp)[8byte] -> %rcx %rsp 
  0x00007f0f048d491b  5b                   pop    %rsp (%rsp)[8byte] -> %rbx %rsp 
  0x00007f0f048d491c  c3                   ret    %rsp (%rsp)[8byte] -> %rsp 
Actual: 7f0f048d496e

Block 462:
  0x00007f0f048d496e  48 83 c4 18          add    $0x0000000000000018 %rsp -> %rsp 
  0x00007f0f048d4972  c3                   ret    %rsp (%rsp)[8byte] -> %rsp 
Actual: 55e94ebe34c9

Block 463:
  0x000055e94ebe34c9  83 f8 ff             cmp    %eax $0xffffffff 
  0x000055e94ebe34cc  0f 84 a8 01 00 00    jz     $0x000055e94ebe367a 
Actual: 55e94ebe367a

Block 464:
  0x000055e94ebe367a  48 8b 05 af b5 21 00 mov    <rel> 0x000055e94edfec30[8byte] -> %rax 
  0x000055e94ebe3681  48 63 00             movsxd (%rax)[4byte] -> %rax 
  0x000055e94ebe3684  29 c5                sub    %eax %ebp -> %ebp 
  0x000055e94ebe3686  48 8d 1c c3          lea    (%rbx,%rax,8) -> %rbx 
  0x000055e94ebe368a  31 c0                xor    %eax %eax -> %eax 
  0x000055e94ebe368c  4d 85 ed             test   %r13 %r13 
  0x000055e94ebe368f  0f 94 c0             setz   -> %al 
  0x000055e94ebe3692  39 c5                cmp    %ebp %eax 
  0x000055e94ebe3694  0f 8e b8 03 00 00    jle    $0x000055e94ebe3a52 
Actual: 55e94ebe369a

Block 465:
  0x000055e94ebe369a  80 7c 24 08 00       cmp    0x08(%rsp)[1byte] $0x00 
  0x000055e94ebe369f  0f 85 d9 00 00 00    jnz    $0x000055e94ebe377e 
Actual: 55e94ebe36a5

Block 466:
  0x000055e94ebe36a5  4d 85 ed             test   %r13 %r13 
  0x000055e94ebe36a8  0f 84 54 02 00 00    jz     $0x000055e94ebe3902 
Actual: 55e94ebe3902

Block 467:
  0x000055e94ebe3902  83 fd 01             cmp    %ebp $0x00000001 
  0x000055e94ebe3905  0f 84 6d 01 00 00    jz     $0x000055e94ebe3a78 
Actual: 55e94ebe390b

Block 468:
  0x000055e94ebe390b  48 63 c5             movsxd %ebp -> %rax 
  0x000055e94ebe390e  48 8d 94 24 80 00 00 lea    0x00000080(%rsp) -> %rdx 
                      00
  0x000055e94ebe3916  bf 01 00 00 00       mov    $0x00000001 -> %edi 
  0x000055e94ebe391b  48 8d 44 c3 f8       lea    0xfffffff8(%rbx,%rax,8) -> %rax 
  0x000055e94ebe3920  48 89 44 24 08       mov    %rax -> 0x08(%rsp)[8byte] 
  0x000055e94ebe3925  48 8b 00             mov    (%rax)[8byte] -> %rax 
  0x000055e94ebe3928  48 89 c6             mov    %rax -> %rsi 
  0x000055e94ebe392b  48 89 44 24 10       mov    %rax -> 0x10(%rsp)[8byte] 
  0x000055e94ebe3930  e8 43 f8 ff ff       call   $0x000055e94ebe3178 %rsp -> %rsp 0xfffffff8(%rsp)[8byte] 
  0x000055e94ebe3178  ff 25 aa bc 21 00    jmp    <rel> 0x000055e94edfee28[8byte] 
Actual: 7f0f048e08e0

Block 469:
  0x00007f0f048e08e0  83 ff 01             cmp    %edi $0x00000001 
  0x00007f0f048e08e3  48 89 f0             mov    %rsi -> %rax 
  0x00007f0f048e08e6  77 30                jnbe   $0x00007f0f048e0918 
Actual: 7f0f048e08e8

Block 470:
  0x00007f0f048e08e8  48 89 c7             mov    %rax -> %rdi 
  0x00007f0f048e08eb  48 89 d6             mov    %rdx -> %rsi 
  0x00007f0f048e08ee  b8 04 00 00 00       mov    $0x00000004 -> %eax 
  0x00007f0f048e08f3  0f 05                syscall -> %rcx 
  0x00007f0f048e08f5  48 3d 00 f0 ff ff    cmp    %rax $0xfffffffffffff000 
  0x00007f0f048e08fb  77 03                jnbe   $0x00007f0f048e0900 
Actual: 7f0f048e0900

Block 471:
  0x00007f0f048e0900  48 8b 15 61 95 2c 00 mov    <rel> 0x00007f0f04ba9e68[8byte] -> %rdx 
  0x00007f0f048e0907  f7 d8                neg    %eax -> %eax 
  0x00007f0f048e0909  64 89 02             mov    %eax -> %fs:(%rdx)[4byte] 
  0x00007f0f048e090c  b8 ff ff ff ff       mov    $0xffffffff -> %eax 
  0x00007f0f048e0911  c3                   ret    %rsp (%rsp)[8byte] -> %rsp 
Actual: 55e94ebe3935

Block 472:
  0x000055e94ebe3935  85 c0                test   %eax %eax 
  0x000055e94ebe3937  0f 84 c8 00 00 00    jz     $0x000055e94ebe3a05 
Actual: 55e94ebe393d

Block 473:
  0x000055e94ebe393d  e8 9e f5 ff ff       call   $0x000055e94ebe2ee0 %rsp -> %rsp 0xfffffff8(%rsp)[8byte] 
  0x000055e94ebe2ee0  ff 25 7a bc 21 00    jmp    <rel> 0x000055e94edfeb60[8byte] 
Actual: 7f0f051f72e0

Block 474:
  0x00007f0f051f72e0  48 8b 05 a1 4c 20 00 mov    <rel> 0x00007f0f053fbf88[8byte] -> %rax 
  0x00007f0f051f72e7  64 48 03 04 25 00 00 add    %fs:0x00[8byte] %rax -> %rax 
                      00 00
  0x00007f0f051f72f0  c3                   ret    %rsp (%rsp)[8byte] -> %rsp 
Actual: 55e94ebe3942

Block 475:
  0x000055e94ebe3942  44 8b 00             mov    (%rax)[4byte] -> %r8d 
  0x000055e94ebe3945  45 85 c0             test   %r8d %r8d 
  0x000055e94ebe3948  0f 84 b7 00 00 00    jz     $0x000055e94ebe3a05 
Actual: 55e94ebe394e

Block 476:
  0x000055e94ebe394e  41 f7 c0 fd ff ff ff test   %r8d $0xfffffffd 
  0x000055e94ebe3955  74 48                jz     $0x000055e94ebe399f 
Actual: 55e94ebe399f

Block 477:
  0x000055e94ebe399f  83 fd 02             cmp    %ebp $0x00000002 
  0x000055e94ebe39a2  0f 84 06 fd ff ff    jz     $0x000055e94ebe36ae 
Actual: 55e94ebe36ae

Block 478:
  0x000055e94ebe36ae  45 84 f6             test   %r14l %r14l 
  0x000055e94ebe36b1  0f 84 33 01 00 00    jz     $0x000055e94ebe37ea 
Actual: 55e94ebe37ea

Block 479:
  0x000055e94ebe37ea  48 83 3c 24 00       cmp    (%rsp)[8byte] $0x0000000000000000 
  0x000055e94ebe37ef  75 07                jnz    $0x000055e94ebe37f8 
Actual: 55e94ebe37f1

Block 480:
  0x000055e94ebe37f1  31 c0                xor    %eax %eax -> %eax 
  0x000055e94ebe37f3  e9 02 ff ff ff       jmp    $0x000055e94ebe36fa 
  0x000055e94ebe36fa  89 44 24 30          mov    %eax -> 0x30(%rsp)[4byte] 
  0x000055e94ebe36fe  e8 ed 6f 00 00       call   $0x000055e94ebea6f0 %rsp -> %rsp 0xfffffff8(%rsp)[8byte] 
  0x000055e94ebea6f0  4c 8d 05 89 fe ff ff lea    <rel> 0x000055e94ebea580 -> %r8 
  0x000055e94ebea6f7  48 8d 0d 62 fe ff ff lea    <rel> 0x000055e94ebea560 -> %rcx 
  0x000055e94ebea6fe  48 8d 15 4b fe ff ff lea    <rel> 0x000055e94ebea550 -> %rdx 
  0x000055e94ebea705  48 83 ec 08          sub    $0x0000000000000008 %rsp -> %rsp 
  0x000055e94ebea709  31 f6                xor    %esi %esi -> %esi 
  0x000055e94ebea70b  bf 67 00 00 00       mov    $0x00000067 -> %edi 
  0x000055e94ebea710  e8 ab 29 00 00       call   $0x000055e94ebed0c0 %rsp -> %rsp 0xfffffff8(%rsp)[8byte] 
  0x000055e94ebed0c0  41 57                push   %r15 %rsp -> %rsp 0xfffffff8(%rsp)[8byte] 
  0x000055e94ebed0c2  41 56                push   %r14 %rsp -> %rsp 0xfffffff8(%rsp)[8byte] 
  0x000055e94ebed0c4  48 8d 05 75 f8 ff ff lea    <rel> 0x000055e94ebec940 -> %rax 
  0x000055e94ebed0cb  41 55                push   %r13 %rsp -> %rsp 0xfffffff8(%rsp)[8byte] 
  0x000055e94ebed0cd  41 54                push   %r12 %rsp -> %rsp 0xfffffff8(%rsp)[8byte] 
  0x000055e94ebed0cf  49 89 d4             mov    %rdx -> %r12 
  0x000055e94ebed0d2  55                   push   %rbp %rsp -> %rsp 0xfffffff8(%rsp)[8byte] 
  0x000055e94ebed0d3  53                   push   %rbx %rsp -> %rsp 0xfffffff8(%rsp)[8byte] 
  0x000055e94ebed0d4  49 89 cd             mov    %rcx -> %r13 
  0x000055e94ebed0d7  49 89 ff             mov    %rdi -> %r15 
  0x000055e94ebed0da  bf 50 00 00 00       mov    $0x00000050 -> %edi 
  0x000055e94ebed0df  48 89 f5             mov    %rsi -> %rbp 
  0x000055e94ebed0e2  48 83 ec 08          sub    $0x0000000000000008 %rsp -> %rsp 
  0x000055e94ebed0e6  48 85 d2             test   %rdx %rdx 
  0x000055e94ebed0e9  4d 89 c6             mov    %r8 -> %r14 
  0x000055e94ebed0ec  4c 0f 44 e0          cmovz  %rax %r12 -> %r12 
  0x000055e94ebed0f0  48 8d 05 59 f8 ff ff lea    <rel> 0x000055e94ebec950 -> %rax 
  0x000055e94ebed0f7  48 85 c9             test   %rcx %rcx 
  0x000055e94ebed0fa  4c 0f 44 e8          cmovz  %rax %r13 -> %r13 
  0x000055e94ebed0fe  e8 95 60 ff ff       call   $0x000055e94ebe3198 %rsp -> %rsp 0xfffffff8(%rsp)[8byte] 
  0x000055e94ebe3198  ff 25 aa bc 21 00    jmp    <rel> 0x000055e94edfee48[8byte] 
Actual: 7f0f0486ef00

Block 481:
  0x000055e94ebed103  48 85 c0             test   %rax %rax 
  0x000055e94ebed106  48 89 c3             mov    %rax -> %rbx 
  0x000055e94ebed109  0f 84 95 00 00 00    jz     $0x000055e94ebed1a4 
Actual: 55e94ebed10f

Block 482:
  0x000055e94ebed10f  48 85 ed             test   %rbp %rbp 
  0x000055e94ebed112  0f 84 a8 00 00 00    jz     $0x000055e94ebed1c0 
Actual: 55e94ebed1c0

Block 483:
  0x000055e94ebed1c0  48 8d 05 89 c6 00 00 lea    <rel> 0x000055e94ebf9850 -> %rax 
  0x000055e94ebed1c7  48 8d 7b 28          lea    0x28(%rbx) -> %rdi 
  0x000055e94ebed1cb  48 89 43 28          mov    %rax -> 0x28(%rbx)[8byte] 
  0x000055e94ebed1cf  e8 bc f8 ff ff       call   $0x000055e94ebeca90 %rsp -> %rsp 0xfffffff8(%rsp)[8byte] 
  0x000055e94ebeca90  48 8b 07             mov    (%rdi)[8byte] -> %rax 
  0x000055e94ebeca93  48 8d 15 b6 cd 00 00 lea    <rel> 0x000055e94ebf9850 -> %rdx 
  0x000055e94ebeca9a  48 39 d0             cmp    %rax %rdx 
  0x000055e94ebeca9d  74 69                jz     $0x000055e94ebecb08 
Actual: 55e94ebecb08

Block 484:
  0x000055e94ebecb08  b8 01 00 00 00       mov    $0x00000001 -> %eax 
  0x000055e94ebecb0d  f3 c3                ret    %rsp (%rsp)[8byte] -> %rsp 
Actual: 55e94ebed1d4

Block 485:
  0x000055e94ebed1d4  84 c0                test   %al %al 
  0x000055e94ebed1d6  f3 0f 10 0d 9a c6 00 movss  <rel> 0x000055e94ebf9878[4byte] -> %xmm1 
                      00
  0x000055e94ebed1de  75 15                jnz    $0x000055e94ebed1f5 
Actual: 55e94ebed1f5

Block 486:
  0x000055e94ebed1f5  4d 85 ff             test   %r15 %r15 
  0x000055e94ebed1f8  78 56                js     $0x000055e94ebed250 
Actual: 55e94ebed1fa

Block 487:
  0x000055e94ebed1fa  66 0f ef c0          pxor   %xmm0 %xmm0 -> %xmm0 
  0x000055e94ebed1fe  f3 49 0f 2a c7       cvtsi2ss %r15 -> %xmm0[4byte] 
  0x000055e94ebed203  f3 0f 5e c1          divss  %xmm1[4byte] %xmm0[4byte] -> %xmm0[4byte] 
  0x000055e94ebed207  0f 2e 05 6e c6 00 00 ucomiss %xmm0[4byte] <rel> 0x000055e94ebf987c[4byte] 
  0x000055e94ebed20e  73 d0                jnb    $0x000055e94ebed1e0 
Actual: 55e94ebed210

Block 488:
  0x000055e94ebed210  0f 2e 05 69 c6 00 00 ucomiss %xmm0[4byte] <rel> 0x000055e94ebf9880[4byte] 
  0x000055e94ebed217  72 27                jb     $0x000055e94ebed240 
Actual: 55e94ebed240

Block 489:
  0x000055e94ebed240  f3 4c 0f 2c f8       cvttss2si %xmm0[4byte] -> %r15 
  0x000055e94ebed245  e9 ed fe ff ff       jmp    $0x000055e94ebed137 
  0x000055e94ebed137  4c 89 ff             mov    %r15 -> %rdi 
  0x000055e94ebed13a  e8 61 f7 ff ff       call   $0x000055e94ebec8a0 %rsp -> %rsp 0xfffffff8(%rsp)[8byte] 
  0x000055e94ebec8a0  48 83 ff 09          cmp    %rdi $0x0000000000000009 
  0x000055e94ebec8a4  0f 86 7e 00 00 00    jbe    $0x000055e94ebec928 
Actual: 55e94ebec8aa

Block 490:
  0x000055e94ebec8aa  48 83 cf 01          or     $0x0000000000000001 %rdi -> %rdi 
  0x000055e94ebec8ae  48 83 ff ff          cmp    %rdi $0xffffffffffffffff 
  0x000055e94ebec8b2  74 70                jz     $0x000055e94ebec924 
Actual: 55e94ebec8b4

Block 491:
  0x000055e94ebec8b4  49 b9 ab aa aa aa aa mov    $0xaaaaaaaaaaaaaaab -> %r9 
                      aa aa aa
  0x000055e94ebec8be  66 90                nop    
  0x000055e94ebec8c0  48 83 ff 09          cmp    %rdi $0x0000000000000009 
  0x000055e94ebec8c4  76 69                jbe    $0x000055e94ebec92f 
Actual: 55e94ebec8c6

Block 492:
  0x000055e94ebec8c6  48 89 f8             mov    %rdi -> %rax 
  0x000055e94ebec8c9  49 f7 e1             mul    %r9 %rax -> %rdx %rax 
  0x000055e94ebec8cc  48 d1 ea             shr    $0x0000000000000001 %rdx -> %rdx 
  0x000055e94ebec8cf  48 8d 04 52          lea    (%rdx,%rdx,2) -> %rax 
  0x000055e94ebec8d3  48 39 c7             cmp    %rdi %rax 
  0x000055e94ebec8d6  74 42                jz     $0x000055e94ebec91a 
Actual: 55e94ebec91a

Block 493:
  0x000055e94ebec91a  48 83 c7 02          add    $0x0000000000000002 %rdi -> %rdi 
  0x000055e94ebec91e  48 83 ff ff          cmp    %rdi $0xffffffffffffffff 
  0x000055e94ebec922  75 9c                jnz    $0x000055e94ebec8c0 
Actual: 55e94ebec8c0

Block 494:
  0x000055e94ebec8c0  48 83 ff 09          cmp    %rdi $0x0000000000000009 
  0x000055e94ebec8c4  76 69                jbe    $0x000055e94ebec92f 
Actual: 55e94ebec8c6

Block 495:
  0x000055e94ebec8d8  41 b8 10 00 00 00    mov    $0x00000010 -> %r8d 
  0x000055e94ebec8de  be 09 00 00 00       mov    $0x00000009 -> %esi 
  0x000055e94ebec8e3  b9 03 00 00 00       mov    $0x00000003 -> %ecx 
  0x000055e94ebec8e8  eb 17                jmp    $0x000055e94ebec901 
  0x000055e94ebec901  4c 01 c6             add    %r8 %rsi -> %rsi 
  0x000055e94ebec904  48 83 c1 02          add    $0x0000000000000002 %rcx -> %rcx 
  0x000055e94ebec908  48 39 fe             cmp    %rsi %rdi 
  0x000055e94ebec90b  72 e3                jb     $0x000055e94ebec8f0 
Actual: 55e94ebec8f0

Block 496:
  0x000055e94ebec8f0  31 d2                xor    %edx %edx -> %edx 
  0x000055e94ebec8f2  48 89 f8             mov    %rdi -> %rax 
  0x000055e94ebec8f5  49 83 c0 08          add    $0x0000000000000008 %r8 -> %r8 
  0x000055e94ebec8f9  48 f7 f1             div    %rcx %rdx %rax -> %rdx %rax 
  0x000055e94ebec8fc  48 85 d2             test   %rdx %rdx 
  0x000055e94ebec8ff  74 19                jz     $0x000055e94ebec91a 
Actual: 55e94ebec901

Block 497:
  0x000055e94ebec901  4c 01 c6             add    %r8 %rsi -> %rsi 
  0x000055e94ebec904  48 83 c1 02          add    $0x0000000000000002 %rcx -> %rcx 
  0x000055e94ebec908  48 39 fe             cmp    %rsi %rdi 
  0x000055e94ebec90b  72 e3                jb     $0x000055e94ebec8f0 
Actual: 55e94ebec8f0

Block 498:
  0x000055e94ebec90d  31 d2                xor    %edx %edx -> %edx 
  0x000055e94ebec90f  48 89 f8             mov    %rdi -> %rax 
  0x000055e94ebec912  48 f7 f1             div    %rcx %rdx %rax -> %rdx %rax 
  0x000055e94ebec915  48 85 d2             test   %rdx %rdx 
  0x000055e94ebec918  75 0a                jnz    $0x000055e94ebec924 
Actual: 55e94ebec924

Block 499:
  0x000055e94ebec924  48 89 f8             mov    %rdi -> %rax 
  0x000055e94ebec927  c3                   ret    %rsp (%rsp)[8byte] -> %rsp 
Actual: 55e94ebed13f

Block 500:
  0x000055e94ebed13f  ba 08 00 00 00       mov    $0x00000008 -> %edx 
  0x000055e94ebed144  48 89 c5             mov    %rax -> %rbp 
  0x000055e94ebed147  48 89 d0             mov    %rdx -> %rax 
  0x000055e94ebed14a  48 f7 e5             mul    %rbp %rax -> %rdx %rax 
  0x000055e94ebed14d  0f 80 8d 00 00 00    jo     $0x000055e94ebed1e0 
Actual: 55e94ebed153

Block 501:
  0x000055e94ebed153  48 85 ed             test   %rbp %rbp 
  0x000055e94ebed156  48 89 6b 10          mov    %rbp -> 0x10(%rbx)[8byte] 
  0x000055e94ebed15a  0f 84 80 00 00 00    jz     $0x000055e94ebed1e0 
Actual: 55e94ebed160

Block 502:
  0x000055e94ebed160  be 10 00 00 00       mov    $0x00000010 -> %esi 
  0x000055e94ebed165  48 89 ef             mov    %rbp -> %rdi 
  0x000055e94ebed168  e8 83 5f ff ff       call   $0x000055e94ebe30f0 %rsp -> %rsp 0xfffffff8(%rsp)[8byte] 
  0x000055e94ebe30f0  ff 25 9a bc 21 00    jmp    <rel> 0x000055e94edfed90[8byte] 
Actual: 7f0f0486fa00

Block 503:
  0x00007f0f0486fa00  48 89 fa             mov    %rdi -> %rdx 
  0x00007f0f0486fa03  41 56                push   %r14 %rsp -> %rsp 0xfffffff8(%rsp)[8byte] 
  0x00007f0f0486fa05  b8 ff ff ff ff       mov    $0xffffffff -> %eax 
  0x00007f0f0486fa0a  41 55                push   %r13 %rsp -> %rsp 0xfffffff8(%rsp)[8byte] 
  0x00007f0f0486fa0c  48 09 f2             or     %rsi %rdx -> %rdx 
  0x00007f0f0486fa0f  41 54                push   %r12 %rsp -> %rsp 0xfffffff8(%rsp)[8byte] 
  0x00007f0f0486fa11  49 89 fc             mov    %rdi -> %r12 
  0x00007f0f0486fa14  55                   push   %rbp %rsp -> %rsp 0xfffffff8(%rsp)[8byte] 
  0x00007f0f0486fa15  53                   push   %rbx %rsp -> %rsp 0xfffffff8(%rsp)[8byte] 
  0x00007f0f0486fa16  4c 0f af e6          imul   %rsi %r12 -> %r12 
  0x00007f0f0486fa1a  48 39 c2             cmp    %rdx %rax 
  0x00007f0f0486fa1d  76 19                jbe    $0x00007f0f0486fa38 
Actual: 7f0f0486fa38

Block 504:
  0x00007f0f0486fa38  48 8b 05 a1 a4 33 00 mov    <rel> 0x00007f0f04ba9ee0[8byte] -> %rax 
  0x00007f0f0486fa3f  48 8b 00             mov    (%rax)[8byte] -> %rax 
  0x00007f0f0486fa42  48 85 c0             test   %rax %rax 
  0x00007f0f0486fa45  0f 85 d5 01 00 00    jnz    $0x00007f0f0486fc20 
Actual: 7f0f0486fa4b

Block 505:
  0x00007f0f0486fa4b  48 8b 05 0e a3 33 00 mov    <rel> 0x00007f0f04ba9d60[8byte] -> %rax 
  0x00007f0f0486fa52  64 48 8b 18          mov    %fs:(%rax)[8byte] -> %rbx 
  0x00007f0f0486fa56  48 85 db             test   %rbx %rbx 
  0x00007f0f0486fa59  74 0c                jz     $0x00007f0f0486fa67 
Actual: 7f0f0486fa5b

Block 506:
  0x00007f0f0486fa5b  8b 43 04             mov    0x04(%rbx)[4byte] -> %eax 
  0x00007f0f0486fa5e  83 e0 04             and    $0x00000004 %eax -> %eax 
  0x00007f0f0486fa61  0f 84 b1 00 00 00    jz     $0x00007f0f0486fb18 
Actual: 7f0f0486fb18

Block 507:
  0x00007f0f0486fb18  be 01 00 00 00       mov    $0x00000001 -> %esi 
  0x00007f0f0486fb1d  83 3d dc fb 33 00 00 cmp    <rel> 0x00007f0f04baf700[4byte] $0x00000000 
  0x00007f0f0486fb24  74 08                jz     $0x00007f0f0486fb2e 
Actual: 7f0f0486fb2e

Block 508:
  0x00007f0f0486fb2e  0f b1 33             cmpxchg %esi (%rbx)[4byte] %eax -> (%rbx)[4byte] %eax 
  0x00007f0f0486fb31  74 16                jz     $0x00007f0f0486fb49 
Actual: 7f0f0486fb49

Block 509:
  0x00007f0f0486fb49  e9 2a ff ff ff       jmp    $0x00007f0f0486fa78 
  0x00007f0f0486fa78  4c 8b 73 58          mov    0x58(%rbx)[8byte] -> %r14 
  0x00007f0f0486fa7c  48 8d 05 7d b0 33 00 lea    <rel> 0x00007f0f04baab00 -> %rax 
  0x00007f0f0486fa83  4d 8b 6e 08          mov    0x08(%r14)[8byte] -> %r13 
  0x00007f0f0486fa87  49 83 e5 f8          and    $0xfffffffffffffff8 %r13 -> %r13 
  0x00007f0f0486fa8b  48 39 c3             cmp    %rbx %rax 
  0x00007f0f0486fa8e  74 17                jz     $0x00007f0f0486faa7 
Actual: 7f0f0486faa7

Block 510:
  0x00007f0f0486faa7  4c 89 e6             mov    %r12 -> %rsi 
  0x00007f0f0486faaa  48 89 df             mov    %rbx -> %rdi 
  0x00007f0f0486faad  e8 6e d5 ff ff       call   $0x00007f0f0486d020 %rsp -> %rsp 0xfffffff8(%rsp)[8byte] 
  0x00007f0f0486d020  48 83 fe bf          cmp    %rsi $0xffffffffffffffbf 
  0x00007f0f0486d024  0f 87 97 08 00 00    jnbe   $0x00007f0f0486d8c1 
Actual: 7f0f0486d02a

Block 511:
  0x00007f0f0486d150  4c 89 e0             mov    %r12 -> %rax 
  0x00007f0f0486d153  48 c1 e8 06          shr    $0x0000000000000006 %rax -> %rax 
  0x00007f0f0486d157  48 83 f8 30          cmp    %rax $0x0000000000000030 
  0x00007f0f0486d15b  0f 87 24 07 00 00    jnbe   $0x00007f0f0486d885 
Actual: 7f0f0486d161

Block 512:
  0x00007f0f0486d161  83 c0 30             add    $0x00000030 %eax -> %eax 
  0x00007f0f0486d164  89 04 24             mov    %eax -> (%rsp)[4byte] 
  0x00007f0f0486d167  f6 45 04 01          test   0x04(%rbp)[1byte] $0x01 
  0x00007f0f0486d16b  75 08                jnz    $0x00007f0f0486d175 
Actual: 7f0f0486d16d

Block 513:
  0x00007f0f0486d16d  48 89 ef             mov    %rbp -> %rdi 
  0x00007f0f0486d170  e8 3b d1 ff ff       call   $0x00007f0f0486a2b0 %rsp -> %rsp 0xfffffff8(%rsp)[8byte] 
  0x00007f0f0486a2b0  41 57                push   %r15 %rsp -> %rsp 0xfffffff8(%rsp)[8byte] 
  0x00007f0f0486a2b2  41 56                push   %r14 %rsp -> %rsp 0xfffffff8(%rsp)[8byte] 
  0x00007f0f0486a2b4  41 55                push   %r13 %rsp -> %rsp 0xfffffff8(%rsp)[8byte] 
  0x00007f0f0486a2b6  41 54                push   %r12 %rsp -> %rsp 0xfffffff8(%rsp)[8byte] 
  0x00007f0f0486a2b8  55                   push   %rbp %rsp -> %rsp 0xfffffff8(%rsp)[8byte] 
  0x00007f0f0486a2b9  53                   push   %rbx %rsp -> %rsp 0xfffffff8(%rsp)[8byte] 
  0x00007f0f0486a2ba  48 83 ec 78          sub    $0x0000000000000078 %rsp -> %rsp 
  0x00007f0f0486a2be  48 83 3d 12 25 34 00 cmp    <rel> 0x00007f0f04bac7d8[8byte] $0x0000000000000000 
                      00
  0x00007f0f0486a2c6  0f 84 2f 04 00 00    jz     $0x00007f0f0486a6fb 
Actual: 7f0f0486a2cc

Block 514:
  0x00007f0f0486a2cc  49 89 fe             mov    %rdi -> %r14 
  0x00007f0f0486a2cf  64 83 3c 25 18 00 00 cmp    %fs:0x18[4byte] $0x00000000 
                      00 00
  0x00007f0f0486a2d8  74 01                jz     $0x00007f0f0486a2db 
Actual: 7f0f0486a2db

Block 515:
  0x00007f0f0486a2db  83 4f 04 01          or     $0x00000001 0x04(%rdi)[4byte] -> 0x04(%rdi)[4byte] 
  0x00007f0f0486a2df  48 8d 47 50          lea    0x50(%rdi) -> %rax 
  0x00007f0f0486a2e3  48 8d 4c 24 50       lea    0x50(%rsp) -> %rcx 
  0x00007f0f0486a2e8  4c 8d 7f 08          lea    0x08(%rdi) -> %r15 
  0x00007f0f0486a2ec  4c 8d 5f 58          lea    0x58(%rdi) -> %r11 
  0x00007f0f0486a2f0  48 89 44 24 10       mov    %rax -> 0x10(%rsp)[8byte] 
  0x00007f0f0486a2f5  b8 01 00 00 00       mov    $0x00000001 -> %eax 
  0x00007f0f0486a2fa  48 89 4c 24 18       mov    %rcx -> 0x18(%rsp)[8byte] 
  0x00007f0f0486a2ff  48 29 c8             sub    %rcx %rax -> %rax 
  0x00007f0f0486a302  4d 89 fa             mov    %r15 -> %r10 
  0x00007f0f0486a305  48 89 44 24 20       mov    %rax -> 0x20(%rsp)[8byte] 
  0x00007f0f0486a30a  66 0f 1f 44 00 00    data16 nop    0x00(%rax,%rax,1)[4byte] 
  0x00007f0f0486a310  31 db                xor    %ebx %ebx -> %ebx 
  0x00007f0f0486a312  49 87 1a             xchg   (%r10)[8byte] %rbx -> (%r10)[8byte] %rbx 
  0x00007f0f0486a315  48 8d 44 24 4f       lea    0x4f(%rsp) -> %rax 
  0x00007f0f0486a31a  48 85 db             test   %rbx %rbx 
  0x00007f0f0486a31d  48 89 44 24 08       mov    %rax -> 0x08(%rsp)[8byte] 
  0x00007f0f0486a322  0f 84 4f 01 00 00    jz     $0x00007f0f0486a477 
Actual: 7f0f0486a477

Block 516:
  0x00007f0f0486a477  4c 3b 54 24 10       cmp    %r10 0x10(%rsp)[8byte] 
  0x00007f0f0486a47c  49 8d 42 08          lea    0x08(%r10) -> %rax 
  0x00007f0f0486a480  0f 84 8d 03 00 00    jz     $0x00007f0f0486a813 
Actual: 7f0f0486a486

Block 517:
  0x00007f0f0486a486  49 89 c2             mov    %rax -> %r10 
  0x00007f0f0486a489  e9 82 fe ff ff       jmp    $0x00007f0f0486a310 
  0x00007f0f0486a310  31 db                xor    %ebx %ebx -> %ebx 
  0x00007f0f0486a312  49 87 1a             xchg   (%r10)[8byte] %rbx -> (%r10)[8byte] %rbx 
  0x00007f0f0486a315  48 8d 44 24 4f       lea    0x4f(%rsp) -> %rax 
  0x00007f0f0486a31a  48 85 db             test   %rbx %rbx 
  0x00007f0f0486a31d  48 89 44 24 08       mov    %rax -> 0x08(%rsp)[8byte] 
  0x00007f0f0486a322  0f 84 4f 01 00 00    jz     $0x00007f0f0486a477 
Actual: 7f0f0486a477

Block 518:
  0x00007f0f0486a813  48 83 c4 78          add    $0x0000000000000078 %rsp -> %rsp 
  0x00007f0f0486a817  5b                   pop    %rsp (%rsp)[8byte] -> %rbx %rsp 
  0x00007f0f0486a818  5d                   pop    %rsp (%rsp)[8byte] -> %rbp %rsp 
  0x00007f0f0486a819  41 5c                pop    %rsp (%rsp)[8byte] -> %r12 %rsp 
  0x00007f0f0486a81b  41 5d                pop    %rsp (%rsp)[8byte] -> %r13 %rsp 
  0x00007f0f0486a81d  41 5e                pop    %rsp (%rsp)[8byte] -> %r14 %rsp 
  0x00007f0f0486a81f  41 5f                pop    %rsp (%rsp)[8byte] -> %r15 %rsp 
  0x00007f0f0486a821  c3                   ret    %rsp (%rsp)[8byte] -> %rsp 
Actual: 7f0f0486d175

Block 519:
  0x00007f0f0486d79e  8b 04 24             mov    (%rsp)[4byte] -> %eax 
  0x00007f0f0486d7a1  05 ff ff ff 7f       add    $0x7fffffff %eax -> %eax 
  0x00007f0f0486d7a6  01 c0                add    %eax %eax -> %eax 
  0x00007f0f0486d7a8  48 8d 44 c5 68       lea    0x68(%rbp,%rax,8) -> %rax 
  0x00007f0f0486d7ad  48 8b 10             mov    (%rax)[8byte] -> %rdx 
  0x00007f0f0486d7b0  48 8d 48 f0          lea    0xfffffff0(%rax) -> %rcx 
  0x00007f0f0486d7b4  48 39 ca             cmp    %rdx %rcx 
  0x00007f0f0486d7b7  0f 84 40 fe ff ff    jz     $0x00007f0f0486d5fd 
Actual: 7f0f0486d5fd

Block 520:
  0x00007f0f0486fab2  48 85 c0             test   %rax %rax 
  0x00007f0f0486fab5  48 89 c5             mov    %rax -> %rbp 
  0x00007f0f0486fab8  0f 84 32 01 00 00    jz     $0x00007f0f0486fbf0 
Actual: 7f0f0486fabe

Block 521:
  0x00007f0f0486fabe  83 3d 3b fc 33 00 00 cmp    <rel> 0x00007f0f04baf700[4byte] $0x00000000 
  0x00007f0f0486fac5  74 07                jz     $0x00007f0f0486face 
Actual: 7f0f0486face

Block 522:
  0x00007f0f0486face  ff 0b                dec    (%rbx)[4byte] -> (%rbx)[4byte] 
  0x00007f0f0486fad0  74 16                jz     $0x00007f0f0486fae8 
Actual: 7f0f0486fae8

Block 523:
  0x00007f0f0486fae8  48 85 ed             test   %rbp %rbp 
  0x00007f0f0486faeb  0f 84 cf 01 00 00    jz     $0x00007f0f0486fcc0 
Actual: 7f0f0486faf1

Block 524:
  0x00007f0f0486faf1  48 8b 55 f8          mov    0xfffffff8(%rbp)[8byte] -> %rdx 
  0x00007f0f0486faf5  f6 c2 02             test   %dl $0x02 
  0x00007f0f0486faf8  74 56                jz     $0x00007f0f0486fb50 
Actual: 7f0f0486fb50

Block 525:
  0x00007f0f0486fb50  8b 05 7e cc 33 00    mov    <rel> 0x00007f0f04bac7d4[4byte] -> %eax 
  0x00007f0f0486fb56  48 83 e2 f8          and    $0xfffffffffffffff8 %rdx -> %rdx 
  0x00007f0f0486fb5a  85 c0                test   %eax %eax 
  0x00007f0f0486fb5c  75 10                jnz    $0x00007f0f0486fb6e 
Actual: 7f0f0486fb5e

Block 526:
  0x00007f0f0486fb5e  48 8d 45 f0          lea    0xfffffff0(%rbp) -> %rax 
  0x00007f0f0486fb62  49 39 c6             cmp    %r14 %rax 
  0x00007f0f0486fb65  75 07                jnz    $0x00007f0f0486fb6e 
Actual: 7f0f0486fb67

Block 527:
  0x00007f0f0486fb67  4c 39 ea             cmp    %rdx %r13 
  0x00007f0f0486fb6a  49 0f 47 d5          cmovnbe %r13 %rdx -> %rdx 
  0x00007f0f0486fb6e  48 83 ea 08          sub    $0x0000000000000008 %rdx -> %rdx 
  0x00007f0f0486fb72  48 89 d0             mov    %rdx -> %rax 
  0x00007f0f0486fb75  48 c1 e8 03          shr    $0x0000000000000003 %rax -> %rax 
  0x00007f0f0486fb79  48 83 f8 09          cmp    %rax $0x0000000000000009 
  0x00007f0f0486fb7d  0f 87 cd 00 00 00    jnbe   $0x00007f0f0486fc50 
Actual: 7f0f0486fc50

Block 528:
  0x00007f0f0486fc50  31 f6                xor    %esi %esi -> %esi 
  0x00007f0f0486fc52  48 89 ef             mov    %rbp -> %rdi 
  0x00007f0f0486fc55  e8 c6 a1 00 00       call   $0x00007f0f04879e20 %rsp -> %rsp 0xfffffff8(%rsp)[8byte] 
  0x00007f0f04879e20  66 0f 6e c6          movd   %esi -> %xmm0 
  0x00007f0f04879e24  48 89 f8             mov    %rdi -> %rax 
  0x00007f0f04879e27  66 0f 60 c0          punpcklbw %xmm0 %xmm0 -> %xmm0 
  0x00007f0f04879e2b  66 0f 61 c0          punpcklwd %xmm0 %xmm0 -> %xmm0 
  0x00007f0f04879e2f  66 0f 70 c0 00       pshufd %xmm0 $0x00 -> %xmm0 
  0x00007f0f04879e34  48 83 fa 40          cmp    %rdx $0x0000000000000040 
  0x00007f0f04879e38  77 36                jnbe   $0x00007f0f04879e70 
Actual: 7f0f04879e70

Block 529:
  0x00007f0f04879e70  48 8d 4f 40          lea    0x40(%rdi) -> %rcx 
  0x00007f0f04879e74  f3 0f 7f 07          movdqu %xmm0 -> (%rdi)[16byte] 
  0x00007f0f04879e78  48 83 e1 c0          and    $0xffffffffffffffc0 %rcx -> %rcx 
  0x00007f0f04879e7c  f3 0f 7f 44 17 f0    movdqu %xmm0 -> 0xfffffff0(%rdi,%rdx,1)[16byte] 
  0x00007f0f04879e82  f3 0f 7f 47 10       movdqu %xmm0 -> 0x10(%rdi)[16byte] 
  0x00007f0f04879e87  f3 0f 7f 44 17 e0    movdqu %xmm0 -> 0xffffffe0(%rdi,%rdx,1)[16byte] 
  0x00007f0f04879e8d  f3 0f 7f 47 20       movdqu %xmm0 -> 0x20(%rdi)[16byte] 
  0x00007f0f04879e92  f3 0f 7f 44 17 d0    movdqu %xmm0 -> 0xffffffd0(%rdi,%rdx,1)[16byte] 
  0x00007f0f04879e98  f3 0f 7f 47 30       movdqu %xmm0 -> 0x30(%rdi)[16byte] 
  0x00007f0f04879e9d  f3 0f 7f 44 17 c0    movdqu %xmm0 -> 0xffffffc0(%rdi,%rdx,1)[16byte] 
  0x00007f0f04879ea3  48 01 fa             add    %rdi %rdx -> %rdx 
  0x00007f0f04879ea6  48 83 e2 c0          and    $0xffffffffffffffc0 %rdx -> %rdx 
  0x00007f0f04879eaa  48 39 d1             cmp    %rcx %rdx 
  0x00007f0f04879ead  74 a5                jz     $0x00007f0f04879e54 
Actual: 7f0f04879eaf

Block 530:
  0x00007f0f04879eaf  90                   nop    
  0x00007f0f04879eb0  66 0f 7f 01          movdqa %xmm0 -> (%rcx)[16byte] 
  0x00007f0f04879eb4  66 0f 7f 41 10       movdqa %xmm0 -> 0x10(%rcx)[16byte] 
  0x00007f0f04879eb9  66 0f 7f 41 20       movdqa %xmm0 -> 0x20(%rcx)[16byte] 
  0x00007f0f04879ebe  66 0f 7f 41 30       movdqa %xmm0 -> 0x30(%rcx)[16byte] 
  0x00007f0f04879ec3  48 83 c1 40          add    $0x0000000000000040 %rcx -> %rcx 
  0x00007f0f04879ec7  48 39 ca             cmp    %rdx %rcx 
  0x00007f0f04879eca  75 e4                jnz    $0x00007f0f04879eb0 
Actual: 7f0f04879eb0

Block 531:
  0x00007f0f04879eb0  66 0f 7f 01          movdqa %xmm0 -> (%rcx)[16byte] 
  0x00007f0f04879eb4  66 0f 7f 41 10       movdqa %xmm0 -> 0x10(%rcx)[16byte] 
  0x00007f0f04879eb9  66 0f 7f 41 20       movdqa %xmm0 -> 0x20(%rcx)[16byte] 
  0x00007f0f04879ebe  66 0f 7f 41 30       movdqa %xmm0 -> 0x30(%rcx)[16byte] 
  0x00007f0f04879ec3  48 83 c1 40          add    $0x0000000000000040 %rcx -> %rcx 
  0x00007f0f04879ec7  48 39 ca             cmp    %rdx %rcx 
  0x00007f0f04879eca  75 e4                jnz    $0x00007f0f04879eb0 
Actual: 7f0f04879eb0

Block 532:
  0x00007f0f04879ecc  f3 c3                ret    %rsp (%rsp)[8byte] -> %rsp 
Actual: 7f0f0486fc5a

Block 533:
  0x00007f0f0486fc5a  e9 a9 fe ff ff       jmp    $0x00007f0f0486fb08 
  0x00007f0f0486fb08  5b                   pop    %rsp (%rsp)[8byte] -> %rbx %rsp 
  0x00007f0f0486fb09  48 89 e8             mov    %rbp -> %rax 
  0x00007f0f0486fb0c  5d                   pop    %rsp (%rsp)[8byte] -> %rbp %rsp 
  0x00007f0f0486fb0d  41 5c                pop    %rsp (%rsp)[8byte] -> %r12 %rsp 
  0x00007f0f0486fb0f  41 5d                pop    %rsp (%rsp)[8byte] -> %r13 %rsp 
  0x00007f0f0486fb11  41 5e                pop    %rsp (%rsp)[8byte] -> %r14 %rsp 
  0x00007f0f0486fb13  c3                   ret    %rsp (%rsp)[8byte] -> %rsp 
Actual: 55e94ebed16d

Block 534:
  0x000055e94ebed16d  48 85 c0             test   %rax %rax 
  0x000055e94ebed170  48 89 03             mov    %rax -> (%rbx)[8byte] 
  0x000055e94ebed173  74 6b                jz     $0x000055e94ebed1e0 
Actual: 55e94ebed175

Block 535:
  0x000055e94ebed175  48 c1 e5 04          shl    $0x0000000000000004 %rbp -> %rbp 
  0x000055e94ebed179  48 c7 43 18 00 00 00 mov    $0x0000000000000000 -> 0x18(%rbx)[8byte] 
                      00
  0x000055e94ebed181  48 c7 43 20 00 00 00 mov    $0x0000000000000000 -> 0x20(%rbx)[8byte] 
                      00
  0x000055e94ebed189  48 01 c5             add    %rax %rbp -> %rbp 
  0x000055e94ebed18c  4c 89 63 30          mov    %r12 -> 0x30(%rbx)[8byte] 
  0x000055e94ebed190  4c 89 6b 38          mov    %r13 -> 0x38(%rbx)[8byte] 
  0x000055e94ebed194  48 89 6b 08          mov    %rbp -> 0x08(%rbx)[8byte] 
  0x000055e94ebed198  4c 89 73 40          mov    %r14 -> 0x40(%rbx)[8byte] 
  0x000055e94ebed19c  48 c7 43 48 00 00 00 mov    $0x0000000000000000 -> 0x48(%rbx)[8byte] 
                      00
  0x000055e94ebed1a4  48 83 c4 08          add    $0x0000000000000008 %rsp -> %rsp 
  0x000055e94ebed1a8  48 89 d8             mov    %rbx -> %rax 
  0x000055e94ebed1ab  5b                   pop    %rsp (%rsp)[8byte] -> %rbx %rsp 
  0x000055e94ebed1ac  5d                   pop    %rsp (%rsp)[8byte] -> %rbp %rsp 
  0x000055e94ebed1ad  41 5c                pop    %rsp (%rsp)[8byte] -> %r12 %rsp 
  0x000055e94ebed1af  41 5d                pop    %rsp (%rsp)[8byte] -> %r13 %rsp 
  0x000055e94ebed1b1  41 5e                pop    %rsp (%rsp)[8byte] -> %r14 %rsp 
  0x000055e94ebed1b3  41 5f                pop    %rsp (%rsp)[8byte] -> %r15 %rsp 
  0x000055e94ebed1b5  c3                   ret    %rsp (%rsp)[8byte] -> %rsp 
Actual: 55e94ebea715

Block 536:
  0x000055e94ebea715  48 85 c0             test   %rax %rax 
  0x000055e94ebea718  48 89 05 f9 4d 21 00 mov    %rax -> <rel> 0x000055e94edff518[8byte] 
  0x000055e94ebea71f  74 05                jz     $0x000055e94ebea726 
Actual: 55e94ebea721

Block 537:
  0x000055e94ebea721  48 83 c4 08          add    $0x0000000000000008 %rsp -> %rsp 
  0x000055e94ebea725  c3                   ret    %rsp (%rsp)[8byte] -> %rsp 
Actual: 55e94ebe3703

Block 538:
  0x000055e94ebe3703  4d 85 ed             test   %r13 %r13 
  0x000055e94ebe3706  0f 84 e1 02 00 00    jz     $0x000055e94ebe39ed 
Actual: 55e94ebe39ed

Block 539:
  0x000055e94ebe39ed  48 8b 73 08          mov    0x08(%rbx)[8byte] -> %rsi 
  0x000055e94ebe39f1  48 8b 3b             mov    (%rbx)[8byte] -> %rdi 
  0x000055e94ebe39f4  4c 89 e1             mov    %r12 -> %rcx 
  0x000055e94ebe39f7  31 d2                xor    %edx %edx -> %edx 
  0x000055e94ebe39f9  e8 52 03 00 00       call   $0x000055e94ebe3d50 %rsp -> %rsp 0xfffffff8(%rsp)[8byte] 
  0x000055e94ebe3d50  41 54                push   %r12 %rsp -> %rsp 0xfffffff8(%rsp)[8byte] 
  0x000055e94ebe3d52  55                   push   %rbp %rsp -> %rsp 0xfffffff8(%rsp)[8byte] 
  0x000055e94ebe3d53  49 89 cc             mov    %rcx -> %r12 
  0x000055e94ebe3d56  53                   push   %rbx %rsp -> %rsp 0xfffffff8(%rsp)[8byte] 
  0x000055e94ebe3d57  48 89 f5             mov    %rsi -> %rbp 
  0x000055e94ebe3d5a  48 89 fb             mov    %rdi -> %rbx 
  0x000055e94ebe3d5d  48 83 ec 10          sub    $0x0000000000000010 %rsp -> %rsp 
  0x000055e94ebe3d61  80 3d 78 b3 21 00 00 cmp    <rel> 0x000055e94edff0e0[1byte] $0x00 
  0x000055e94ebe3d68  75 66                jnz    $0x000055e94ebe3dd0 
Actual: 55e94ebe3d6a

Block 540:
  0x000055e94ebe3d6a  84 d2                test   %dl %dl 
  0x000055e94ebe3d6c  75 1a                jnz    $0x000055e94ebe3d88 
Actual: 55e94ebe3d6e

Block 541:
  0x000055e94ebe3d6e  48 83 c4 10          add    $0x0000000000000010 %rsp -> %rsp 
  0x000055e94ebe3d72  4c 89 e2             mov    %r12 -> %rdx 
  0x000055e94ebe3d75  48 89 ee             mov    %rbp -> %rsi 
  0x000055e94ebe3d78  48 89 df             mov    %rbx -> %rdi 
  0x000055e94ebe3d7b  5b                   pop    %rsp (%rsp)[8byte] -> %rbx %rsp 
  0x000055e94ebe3d7c  5d                   pop    %rsp (%rsp)[8byte] -> %rbp %rsp 
  0x000055e94ebe3d7d  41 5c                pop    %rsp (%rsp)[8byte] -> %r12 %rsp 
  0x000055e94ebe3d7f  e9 5c fe ff ff       jmp    $0x000055e94ebe3be0 
  0x000055e94ebe3be0  41 55                push   %r13 %rsp -> %rsp 0xfffffff8(%rsp)[8byte] 
  0x000055e94ebe3be2  41 54                push   %r12 %rsp -> %rsp 0xfffffff8(%rsp)[8byte] 
  0x000055e94ebe3be4  48 89 d1             mov    %rdx -> %rcx 
  0x000055e94ebe3be7  55                   push   %rbp %rsp -> %rsp 0xfffffff8(%rsp)[8byte] 
  0x000055e94ebe3be8  53                   push   %rbx %rsp -> %rsp 0xfffffff8(%rsp)[8byte] 
  0x000055e94ebe3be9  48 89 d5             mov    %rdx -> %rbp 
  0x000055e94ebe3bec  31 d2                xor    %edx %edx -> %edx 
  0x000055e94ebe3bee  48 89 fb             mov    %rdi -> %rbx 
  0x000055e94ebe3bf1  48 83 ec 58          sub    $0x0000000000000058 %rsp -> %rsp 
  0x000055e94ebe3bf5  4c 8d 4c 24 0f       lea    0x0f(%rsp) -> %r9 
  0x000055e94ebe3bfa  4c 8d 44 24 0e       lea    0x0e(%rsp) -> %r8 
  0x000055e94ebe3bff  64 48 8b 04 25 28 00 mov    %fs:0x28[8byte] -> %rax 
                      00 00
  0x000055e94ebe3c08  48 89 44 24 48       mov    %rax -> 0x48(%rsp)[8byte] 
  0x000055e94ebe3c0d  31 c0                xor    %eax %eax -> %eax 
  0x000055e94ebe3c0f  e8 cc 67 00 00       call   $0x000055e94ebea3e0 %rsp -> %rsp 0xfffffff8(%rsp)[8byte] 
  0x000055e94ebea3e0  48 83 ec 18          sub    $0x0000000000000018 %rsp -> %rsp 
  0x000055e94ebea3e4  64 48 8b 04 25 28 00 mov    %fs:0x28[8byte] -> %rax 
                      00 00
  0x000055e94ebea3ed  48 89 44 24 08       mov    %rax -> 0x08(%rsp)[8byte] 
  0x000055e94ebea3f2  31 c0                xor    %eax %eax -> %eax 
  0x000055e94ebea3f4  48 85 c9             test   %rcx %rcx 
  0x000055e94ebea3f7  0f 84 ce 00 00 00    jz     $0x000055e94ebea4cb 
Actual: 55e94ebea3fd

Block 542:
  0x000055e94ebea3fd  83 39 03             cmp    (%rcx)[4byte] $0x00000003 
  0x000055e94ebea400  0f 87 03 01 00 00    jnbe   $0x000055e94ebea509 
Actual: 55e94ebea406

Block 543:
  0x000055e94ebea406  8b 41 0c             mov    0x0c(%rcx)[4byte] -> %eax 
  0x000055e94ebea409  44 8d 50 ff          lea    0xffffffff(%rax) -> %r10d 
  0x000055e94ebea40d  41 83 fa 02          cmp    %r10d $0x00000002 
  0x000055e94ebea411  0f 87 d3 00 00 00    jnbe   $0x000055e94ebea4ea 
Actual: 55e94ebea417

Block 544:
  0x000055e94ebea417  44 8b 51 30          mov    0x30(%rcx)[4byte] -> %r10d 
  0x000055e94ebea41b  41 83 fa 02          cmp    %r10d $0x00000002 
  0x000055e94ebea41f  0f 87 87 00 00 00    jnbe   $0x000055e94ebea4ac 
Actual: 55e94ebea425

Block 545:
  0x000055e94ebea425  80 79 17 00          cmp    0x17(%rcx)[1byte] $0x00 
  0x000055e94ebea429  74 0a                jz     $0x000055e94ebea435 
Actual: 55e94ebea435

Block 546:
  0x000055e94ebea435  83 f8 02             cmp    %eax $0x00000002 
  0x000055e94ebea438  74 06                jz     $0x000055e94ebea440 
Actual: 55e94ebea440

Block 547:
  0x000055e94ebea440  c6 44 24 07 00       mov    $0x00 -> 0x07(%rsp)[1byte] 
  0x000055e94ebea445  41 51                push   %r9 %rsp -> %rsp 0xfffffff8(%rsp)[8byte] 
  0x000055e94ebea447  0f b6 d2             movzx  %dl -> %edx 
  0x000055e94ebea44a  41 50                push   %r8 %rsp -> %rsp 0xfffffff8(%rsp)[8byte] 
  0x000055e94ebea44c  49 89 c9             mov    %rcx -> %r9 
  0x000055e94ebea44f  45 31 c0             xor    %r8d %r8d -> %r8d 
  0x000055e94ebea452  31 c9                xor    %ecx %ecx -> %ecx 
  0x000055e94ebea454  48 89 35 ad 50 21 00 mov    %rsi -> <rel> 0x000055e94edff508[8byte] 
  0x000055e94ebea45b  48 89 3d ae 50 21 00 mov    %rdi -> <rel> 0x000055e94edff510[8byte] 
  0x000055e94ebea462  48 8d 44 24 17       lea    0x17(%rsp) -> %rax 
  0x000055e94ebea467  50                   push   %rax %rsp -> %rsp 0xfffffff8(%rsp)[8byte] 
  0x000055e94ebea468  6a 01                push   $0x0000000000000001 %rsp -> %rsp 0xfffffff8(%rsp)[8byte] 
  0x000055e94ebea46a  e8 f1 bf ff ff       call   $0x000055e94ebe6460 %rsp -> %rsp 0xfffffff8(%rsp)[8byte] 
  0x000055e94ebe6460  55                   push   %rbp %rsp -> %rsp 0xfffffff8(%rsp)[8byte] 
  0x000055e94ebe6461  48 89 e5             mov    %rsp -> %rbp 
  0x000055e94ebe6464  41 57                push   %r15 %rsp -> %rsp 0xfffffff8(%rsp)[8byte] 
  0x000055e94ebe6466  41 56                push   %r14 %rsp -> %rsp 0xfffffff8(%rsp)[8byte] 
  0x000055e94ebe6468  41 55                push   %r13 %rsp -> %rsp 0xfffffff8(%rsp)[8byte] 
  0x000055e94ebe646a  41 54                push   %r12 %rsp -> %rsp 0xfffffff8(%rsp)[8byte] 
  0x000055e94ebe646c  41 89 d5             mov    %edx -> %r13d 
  0x000055e94ebe646f  53                   push   %rbx %rsp -> %rsp 0xfffffff8(%rsp)[8byte] 
  0x000055e94ebe6470  4d 89 cc             mov    %r9 -> %r12 
  0x000055e94ebe6473  48 81 ec a8 03 00 00 sub    $0x00000000000003a8 %rsp -> %rsp 
  0x000055e94ebe647a  8b 45 10             mov    0x10(%rbp)[4byte] -> %eax 
  0x000055e94ebe647d  48 89 b5 f0 fc ff ff mov    %rsi -> 0xfffffcf0(%rbp)[8byte] 
  0x000055e94ebe6484  64 48 8b 34 25 28 00 mov    %fs:0x28[8byte] -> %rsi 
                      00 00
  0x000055e94ebe648d  48 89 75 c8          mov    %rsi -> 0xffffffc8(%rbp)[8byte] 
  0x000055e94ebe6491  31 f6                xor    %esi %esi -> %esi 
  0x000055e94ebe6493  48 89 8d a0 fc ff ff mov    %rcx -> 0xfffffca0(%rbp)[8byte] 
  0x000055e94ebe649a  48 89 bd f8 fc ff ff mov    %rdi -> 0xfffffcf8(%rbp)[8byte] 
  0x000055e94ebe64a1  89 85 e4 fc ff ff    mov    %eax -> 0xfffffce4(%rbp)[4byte] 
  0x000055e94ebe64a7  48 8b 45 18          mov    0x18(%rbp)[8byte] -> %rax 
  0x000055e94ebe64ab  4c 89 85 b0 fc ff ff mov    %r8 -> 0xfffffcb0(%rbp)[8byte] 
  0x000055e94ebe64b2  48 89 85 a8 fc ff ff mov    %rax -> 0xfffffca8(%rbp)[8byte] 
  0x000055e94ebe64b9  48 8b 45 20          mov    0x20(%rbp)[8byte] -> %rax 
  0x000055e94ebe64bd  48 89 85 d8 fc ff ff mov    %rax -> 0xfffffcd8(%rbp)[8byte] 
  0x000055e94ebe64c4  48 8b 45 28          mov    0x28(%rbp)[8byte] -> %rax 
  0x000055e94ebe64c8  48 85 c0             test   %rax %rax 
  0x000055e94ebe64cb  48 89 85 b8 fc ff ff mov    %rax -> 0xfffffcb8(%rbp)[8byte] 
  0x000055e94ebe64d2  0f 95 85 e8 fc ff ff setnz  -> 0xfffffce8(%rbp)[1byte] 
  0x000055e94ebe64d9  41 80 79 18 00       cmp    0x18(%r9)[1byte] $0x00 
  0x000055e94ebe64de  0f b6 8d e8 fc ff ff movzx  0xfffffce8(%rbp)[1byte] -> %ecx 
  0x000055e94ebe64e5  74 07                jz     $0x000055e94ebe64ee 
Actual: 55e94ebe64e7

Block 548:
  0x000055e94ebe64e7  84 c9                test   %cl %cl 
  0x000055e94ebe64e9  74 03                jz     $0x000055e94ebe64ee 
Actual: 55e94ebe64eb

Block 549:
  0x000055e94ebe64eb  c6 00 00             mov    $0x00 -> (%rax)[1byte] 
  0x000055e94ebe64ee  48 8b 85 d8 fc ff ff mov    0xfffffcd8(%rbp)[8byte] -> %rax 
  0x000055e94ebe64f5  48 8b b5 f8 fc ff ff mov    0xfffffcf8(%rbp)[8byte] -> %rsi 
  0x000055e94ebe64fc  bf 01 00 00 00       mov    $0x00000001 -> %edi 
  0x000055e94ebe6501  c6 00 00             mov    $0x00 -> (%rax)[1byte] 
  0x000055e94ebe6504  41 83 7c 24 04 02    cmp    0x04(%r12)[4byte] $0x00000002 
  0x000055e94ebe650a  48 8d 85 80 fd ff ff lea    0xfffffd80(%rbp) -> %rax 
  0x000055e94ebe6511  48 89 85 d0 fc ff ff mov    %rax -> 0xfffffcd0(%rbp)[8byte] 
  0x000055e94ebe6518  48 89 c2             mov    %rax -> %rdx 
  0x000055e94ebe651b  0f 84 3f 04 00 00    jz     $0x000055e94ebe6960 
Actual: 55e94ebe6960

Block 550:
  0x000055e94ebe6960  e8 73 c6 ff ff       call   $0x000055e94ebe2fd8 %rsp -> %rsp 0xfffffff8(%rsp)[8byte] 
  0x000055e94ebe2fd8  ff 25 9a bc 21 00    jmp    <rel> 0x000055e94edfec78[8byte] 
Actual: 7f0f048e0980

Block 551:
  0x00007f0f048e0980  83 ff 01             cmp    %edi $0x00000001 
  0x00007f0f048e0983  48 89 f0             mov    %rsi -> %rax 
  0x00007f0f048e0986  77 30                jnbe   $0x00007f0f048e09b8 
Actual: 7f0f048e0988

Block 552:
  0x00007f0f048e0988  48 89 c7             mov    %rax -> %rdi 
  0x00007f0f048e098b  48 89 d6             mov    %rdx -> %rsi 
  0x00007f0f048e098e  b8 06 00 00 00       mov    $0x00000006 -> %eax 
  0x00007f0f048e0993  0f 05                syscall -> %rcx 
  0x00007f0f048e0995  48 3d 00 f0 ff ff    cmp    %rax $0xfffffffffffff000 
  0x00007f0f048e099b  77 03                jnbe   $0x00007f0f048e09a0 
Actual: 7f0f048e099d

Block 553:
  0x00007f0f048e099d  f3 c3                ret    %rsp (%rsp)[8byte] -> %rsp 
Actual: 55e94ebe6965

Block 554:
  0x000055e94ebe6965  85 c0                test   %eax %eax 
  0x000055e94ebe6967  48 8b b5 f8 fc ff ff mov    0xfffffcf8(%rbp)[8byte] -> %rsi 
  0x000055e94ebe696e  41 0f 95 c7          setnz  -> %r15l 
  0x000055e94ebe6972  45 84 ff             test   %r15l %r15l 
  0x000055e94ebe6975  0f 84 c1 fb ff ff    jz     $0x000055e94ebe653c 
Actual: 55e94ebe653c

Block 555:
  0x000055e94ebe653c  8b 85 98 fd ff ff    mov    0xfffffd98(%rbp)[4byte] -> %eax 
  0x000055e94ebe6542  89 c3                mov    %eax -> %ebx 
  0x000055e94ebe6544  89 85 e0 fc ff ff    mov    %eax -> 0xfffffce0(%rbp)[4byte] 
  0x000055e94ebe654a  81 e3 00 f0 00 00    and    $0x0000f000 %ebx -> %ebx 
  0x000055e94ebe6550  81 fb 00 40 00 00    cmp    %ebx $0x00004000 
  0x000055e94ebe6556  0f 84 b4 04 00 00    jz     $0x000055e94ebe6a10 
Actual: 55e94ebe655c

Block 556:
  0x000055e94ebe655c  80 bd e4 fc ff ff 00 cmp    0xfffffce4(%rbp)[1byte] $0x00 
  0x000055e94ebe6563  74 25                jz     $0x000055e94ebe658a 
Actual: 55e94ebe6565

Block 557:
  0x000055e94ebe6565  45 8b 04 24          mov    (%r12)[4byte] -> %r8d 
  0x000055e94ebe6569  45 85 c0             test   %r8d %r8d 
  0x000055e94ebe656c  0f 84 2e 0b 00 00    jz     $0x000055e94ebe70a0 
Actual: 55e94ebe70a0

Block 558:
  0x000055e94ebe70a0  49 8b 7c 24 40       mov    0x40(%r12)[8byte] -> %rdi 
  0x000055e94ebe70a5  48 8b 95 d0 fc ff ff mov    0xfffffcd0(%rbp)[8byte] -> %rdx 
  0x000055e94ebe70ac  48 8b b5 f8 fc ff ff mov    0xfffffcf8(%rbp)[8byte] -> %rsi 
  0x000055e94ebe70b3  e8 68 53 00 00       call   $0x000055e94ebec420 %rsp -> %rsp 0xfffffff8(%rsp)[8byte] 
  0x000055e94ebec420  48 83 ec 28          sub    $0x0000000000000028 %rsp -> %rsp 
  0x000055e94ebec424  64 48 8b 04 25 28 00 mov    %fs:0x28[8byte] -> %rax 
                      00 00
  0x000055e94ebec42d  48 89 44 24 18       mov    %rax -> 0x18(%rsp)[8byte] 
  0x000055e94ebec432  31 c0                xor    %eax %eax -> %eax 
  0x000055e94ebec434  48 85 ff             test   %rdi %rdi 
  0x000055e94ebec437  74 23                jz     $0x000055e94ebec45c 
Actual: 55e94ebec45c

Block 559:
  0x000055e94ebec45c  48 8b 4c 24 18       mov    0x18(%rsp)[8byte] -> %rcx 
  0x000055e94ebec461  64 48 33 0c 25 28 00 xor    %fs:0x28[8byte] %rcx -> %rcx 
                      00 00
  0x000055e94ebec46a  75 05                jnz    $0x000055e94ebec471 
Actual: 55e94ebec46c

Block 560:
  0x000055e94ebec46c  48 83 c4 28          add    $0x0000000000000028 %rsp -> %rsp 
  0x000055e94ebec470  c3                   ret    %rsp (%rsp)[8byte] -> %rsp 
Actual: 55e94ebe70b8

Block 561:
  0x000055e94ebe70b8  84 c0                test   %al %al 
  0x000055e94ebe70ba  41 89 c6             mov    %eax -> %r14d 
  0x000055e94ebe70bd  0f 84 af f4 ff ff    jz     $0x000055e94ebe6572 
Actual: 55e94ebe6572

Block 562:
  0x000055e94ebe6572  49 8b 7c 24 40       mov    0x40(%r12)[8byte] -> %rdi 
  0x000055e94ebe6577  48 8b 95 d0 fc ff ff mov    0xfffffcd0(%rbp)[8byte] -> %rdx 
  0x000055e94ebe657e  48 8b b5 f8 fc ff ff mov    0xfffffcf8(%rbp)[8byte] -> %rsi 
  0x000055e94ebe6585  e8 06 5e 00 00       call   $0x000055e94ebec390 %rsp -> %rsp 0xfffffff8(%rsp)[8byte] 
  0x000055e94ebec390  48 85 ff             test   %rdi %rdi 
  0x000055e94ebec393  74 75                jz     $0x000055e94ebec40a 
Actual: 55e94ebec40a

Block 563:
  0x000055e94ebec40a  f3 c3                ret    %rsp (%rsp)[8byte] -> %rsp 
Actual: 55e94ebe658a

Block 564:
  0x000055e94ebe658a  41 8b 54 24 04       mov    0x04(%r12)[4byte] -> %edx 
  0x000055e94ebe658f  b8 01 00 00 00       mov    $0x00000001 -> %eax 
  0x000055e94ebe6594  83 fa 04             cmp    %edx $0x00000004 
  0x000055e94ebe6597  74 0c                jz     $0x000055e94ebe65a5 
Actual: 55e94ebe6599

Block 565:
  0x000055e94ebe6599  83 fa 03             cmp    %edx $0x00000003 
  0x000055e94ebe659c  0f 94 c0             setz   -> %al 
  0x000055e94ebe659f  22 85 e4 fc ff ff    and    0xfffffce4(%rbp)[1byte] %al -> %al 
  0x000055e94ebe65a5  0f b6 c0             movzx  %al -> %eax 
  0x000055e94ebe65a8  45 84 ed             test   %r13l %r13l 
  0x000055e94ebe65ab  89 85 c0 fc ff ff    mov    %eax -> 0xfffffcc0(%rbp)[4byte] 
  0x000055e94ebe65b1  0f 85 cf 01 00 00    jnz    $0x000055e94ebe6786 
Actual: 55e94ebe65b7

Block 566:
  0x000055e94ebe65b7  81 fb 00 80 00 00    cmp    %ebx $0x00008000 
  0x000055e94ebe65bd  74 24                jz     $0x000055e94ebe65e3 
Actual: 55e94ebe65e3

Block 567:
  0x000055e94ebe65e3  41 80 7c 24 18 00    cmp    0x18(%r12)[1byte] $0x00 
  0x000055e94ebe65e9  0f 85 59 01 00 00    jnz    $0x000055e94ebe6748 
Actual: 55e94ebe6748

Block 568:
  0x000055e94ebe6748  4c 8d b5 10 fe ff ff lea    0xfffffe10(%rbp) -> %r14 
  0x000055e94ebe674f  48 8b b5 f0 fc ff ff mov    0xfffffcf0(%rbp)[8byte] -> %rsi 
  0x000055e94ebe6756  bf 01 00 00 00       mov    $0x00000001 -> %edi 
  0x000055e94ebe675b  4c 89 f2             mov    %r14 -> %rdx 
  0x000055e94ebe675e  e8 75 c8 ff ff       call   $0x000055e94ebe2fd8 %rsp -> %rsp 0xfffffff8(%rsp)[8byte] 
  0x000055e94ebe2fd8  ff 25 9a bc 21 00    jmp    <rel> 0x000055e94edfec78[8byte] 
Actual: 7f0f048e0980

Block 569:
  0x00007f0f048e09a0  48 8b 15 c1 94 2c 00 mov    <rel> 0x00007f0f04ba9e68[8byte] -> %rdx 
  0x00007f0f048e09a7  f7 d8                neg    %eax -> %eax 
  0x00007f0f048e09a9  64 89 02             mov    %eax -> %fs:(%rdx)[4byte] 
  0x00007f0f048e09ac  b8 ff ff ff ff       mov    $0xffffffff -> %eax 
  0x00007f0f048e09b1  c3                   ret    %rsp (%rsp)[8byte] -> %rsp 
Actual: 55e94ebe6763

Block 570:
  0x000055e94ebe6763  85 c0                test   %eax %eax 
  0x000055e94ebe6765  45 89 e9             mov    %r13d -> %r9d 
  0x000055e94ebe6768  41 0f 95 c0          setnz  -> %r8l 
  0x000055e94ebe676c  45 84 c0             test   %r8l %r8l 
  0x000055e94ebe676f  0f 84 da fe ff ff    jz     $0x000055e94ebe664f 
Actual: 55e94ebe6775

Block 571:
  0x000055e94ebe6775  e8 66 c7 ff ff       call   $0x000055e94ebe2ee0 %rsp -> %rsp 0xfffffff8(%rsp)[8byte] 
  0x000055e94ebe2ee0  ff 25 7a bc 21 00    jmp    <rel> 0x000055e94edfeb60[8byte] 
Actual: 7f0f051f72e0

Block 572:
  0x000055e94ebe677a  83 38 02             cmp    (%rax)[4byte] $0x00000002 
  0x000055e94ebe677d  49 89 c6             mov    %rax -> %r14 
  0x000055e94ebe6780  0f 85 02 03 00 00    jnz    $0x000055e94ebe6a88 
Actual: 55e94ebe6786

Block 573:
  0x000055e94ebe6786  45 31 c9             xor    %r9d %r9d -> %r9d 
  0x000055e94ebe6789  45 31 c0             xor    %r8d %r8d -> %r8d 
  0x000055e94ebe678c  c6 85 98 fc ff ff 01 mov    $0x01 -> 0xfffffc98(%rbp)[1byte] 
  0x000055e94ebe6793  45 31 f6             xor    %r14d %r14d -> %r14d 
  0x000055e94ebe6796  80 bd e4 fc ff ff 00 cmp    0xfffffce4(%rbp)[1byte] $0x00 
  0x000055e94ebe679d  0f 84 cd 00 00 00    jz     $0x000055e94ebe6870 
Actual: 55e94ebe67a3

Block 574:
  0x000055e94ebe67a3  49 83 7c 24 38 00    cmp    0x38(%r12)[8byte] $0x0000000000000000 
  0x000055e94ebe67a9  0f 84 c1 00 00 00    jz     $0x000055e94ebe6870 
Actual: 55e94ebe6870

Block 575:
  0x000055e94ebe6870  81 fb 00 40 00 00    cmp    %ebx $0x00004000 
  0x000055e94ebe6876  41 0f 95 c5          setnz  -> %r13l 
  0x000055e94ebe687a  44 89 e8             mov    %r13d -> %eax 
  0x000055e94ebe687d  41 22 44 24 2d       and    0x2d(%r12)[1byte] %al -> %al 
  0x000055e94ebe6882  88 85 c8 fc ff ff    mov    %al -> 0xfffffcc8(%rbp)[1byte] 
  0x000055e94ebe6888  74 38                jz     $0x000055e94ebe68c2 
Actual: 55e94ebe68c2

Block 576:
  0x000055e94ebe68c2  81 fb 00 40 00 00    cmp    %ebx $0x00004000 
  0x000055e94ebe68c8  41 0f 94 c1          setz   -> %r9l 
  0x000055e94ebe68cc  44 89 ca             mov    %r9d -> %edx 
  0x000055e94ebe68cf  41 22 54 24 29       and    0x29(%r12)[1byte] %dl -> %dl 
  0x000055e94ebe68d4  0f 85 56 01 00 00    jnz    $0x000055e94ebe6a30 
Actual: 55e94ebe68da

Block 577:
  0x000055e94ebe68da  41 0f b6 44 24 18    movzx  0x18(%r12)[1byte] -> %eax 
  0x000055e94ebe68e0  84 c0                test   %al %al 
  0x000055e94ebe68e2  0f 84 f8 00 00 00    jz     $0x000055e94ebe69e0 
Actual: 55e94ebe68e8

Block 578:
  0x000055e94ebe68e8  48 83 bd 90 fd ff ff cmp    0xfffffd90(%rbp)[8byte] $0x0000000000000001 
                      01
  0x000055e94ebe68f0  0f 84 62 09 00 00    jz     $0x000055e94ebe7258 
Actual: 55e94ebe7258

Block 579:
  0x000055e94ebe7258  44 89 ca             mov    %r9d -> %edx 
  0x000055e94ebe725b  e9 40 fa ff ff       jmp    $0x000055e94ebe6ca0 
  0x000055e94ebe6ca0  48 8b b5 80 fd ff ff mov    0xfffffd80(%rbp)[8byte] -> %rsi 
  0x000055e94ebe6ca7  48 8b bd 88 fd ff ff mov    0xfffffd88(%rbp)[8byte] -> %rdi 
  0x000055e94ebe6cae  44 88 85 93 fc ff ff mov    %r8l -> 0xfffffc93(%rbp)[1byte] 
  0x000055e94ebe6cb5  88 95 94 fc ff ff    mov    %dl -> 0xfffffc94(%rbp)[1byte] 
  0x000055e94ebe6cbb  e8 50 39 00 00       call   $0x000055e94ebea610 %rsp -> %rsp 0xfffffff8(%rsp)[8byte] 
  0x000055e94ebea610  48 83 ec 28          sub    $0x0000000000000028 %rsp -> %rsp 
  0x000055e94ebea614  48 89 3c 24          mov    %rdi -> (%rsp)[8byte] 
  0x000055e94ebea618  48 8b 3d f9 4e 21 00 mov    <rel> 0x000055e94edff518[8byte] -> %rdi 
  0x000055e94ebea61f  48 89 74 24 08       mov    %rsi -> 0x08(%rsp)[8byte] 
  0x000055e94ebea624  48 89 e6             mov    %rsp -> %rsi 
  0x000055e94ebea627  64 48 8b 04 25 28 00 mov    %fs:0x28[8byte] -> %rax 
                      00 00
  0x000055e94ebea630  48 89 44 24 18       mov    %rax -> 0x18(%rsp)[8byte] 
  0x000055e94ebea635  31 c0                xor    %eax %eax -> %eax 
  0x000055e94ebea637  e8 24 28 00 00       call   $0x000055e94ebece60 %rsp -> %rsp 0xfffffff8(%rsp)[8byte] 
  0x000055e94ebece60  41 54                push   %r12 %rsp -> %rsp 0xfffffff8(%rsp)[8byte] 
  0x000055e94ebece62  55                   push   %rbp %rsp -> %rsp 0xfffffff8(%rsp)[8byte] 
  0x000055e94ebece63  49 89 fc             mov    %rdi -> %r12 
  0x000055e94ebece66  53                   push   %rbx %rsp -> %rsp 0xfffffff8(%rsp)[8byte] 
  0x000055e94ebece67  48 89 f5             mov    %rsi -> %rbp 
  0x000055e94ebece6a  e8 f1 fa ff ff       call   $0x000055e94ebec960 %rsp -> %rsp 0xfffffff8(%rsp)[8byte] 
  0x000055e94ebec960  53                   push   %rbx %rsp -> %rsp 0xfffffff8(%rsp)[8byte] 
  0x000055e94ebec961  48 89 fb             mov    %rdi -> %rbx 
  0x000055e94ebec964  48 89 f7             mov    %rsi -> %rdi 
  0x000055e94ebec967  48 8b 43 30          mov    0x30(%rbx)[8byte] -> %rax 
  0x000055e94ebec96b  48 8b 73 10          mov    0x10(%rbx)[8byte] -> %rsi 
  0x000055e94ebec96f  ff d0                call   %rax %rsp -> %rsp 0xfffffff8(%rsp)[8byte] 
Actual: 55e94ebea550

Block 580:
  0x000055e94ebea550  48 8b 07             mov    (%rdi)[8byte] -> %rax 
  0x000055e94ebea553  31 d2                xor    %edx %edx -> %edx 
  0x000055e94ebea555  48 f7 f6             div    %rsi %rdx %rax -> %rdx %rax 
  0x000055e94ebea558  48 89 d0             mov    %rdx -> %rax 
  0x000055e94ebea55b  c3                   ret    %rsp (%rsp)[8byte] -> %rsp 
Actual: 55e94ebec971

Block 581:
  0x000055e94ebec971  48 3b 43 10          cmp    %rax 0x10(%rbx)[8byte] 
  0x000055e94ebec975  73 09                jnb    $0x000055e94ebec980 
Actual: 55e94ebec977

Block 582:
  0x000055e94ebec977  48 c1 e0 04          shl    $0x0000000000000004 %rax -> %rax 
  0x000055e94ebec97b  48 03 03             add    (%rbx)[8byte] %rax -> %rax 
  0x000055e94ebec97e  5b                   pop    %rsp (%rsp)[8byte] -> %rbx %rsp 
  0x000055e94ebec97f  c3                   ret    %rsp (%rsp)[8byte] -> %rsp 
Actual: 55e94ebece6f

Block 583:
  0x000055e94ebece6f  48 8b 30             mov    (%rax)[8byte] -> %rsi 
  0x000055e94ebece72  48 85 f6             test   %rsi %rsi 
  0x000055e94ebece75  74 28                jz     $0x000055e94ebece9f 
Actual: 55e94ebece9f

Block 584:
  0x000055e94ebece9f  5b                   pop    %rsp (%rsp)[8byte] -> %rbx %rsp 
  0x000055e94ebecea0  31 c0                xor    %eax %eax -> %eax 
  0x000055e94ebecea2  5d                   pop    %rsp (%rsp)[8byte] -> %rbp %rsp 
  0x000055e94ebecea3  41 5c                pop    %rsp (%rsp)[8byte] -> %r12 %rsp 
  0x000055e94ebecea5  c3                   ret    %rsp (%rsp)[8byte] -> %rsp 
Actual: 55e94ebea63c

Block 585:
  0x000055e94ebea63c  48 85 c0             test   %rax %rax 
  0x000055e94ebea63f  74 1f                jz     $0x000055e94ebea660 
Actual: 55e94ebea660

Block 586:
  0x000055e94ebea660  31 c0                xor    %eax %eax -> %eax 
  0x000055e94ebea662  eb e1                jmp    $0x000055e94ebea645 
  0x000055e94ebea645  48 8b 54 24 18       mov    0x18(%rsp)[8byte] -> %rdx 
  0x000055e94ebea64a  64 48 33 14 25 28 00 xor    %fs:0x28[8byte] %rdx -> %rdx 
                      00 00
  0x000055e94ebea653  75 0f                jnz    $0x000055e94ebea664 
Actual: 55e94ebea655

Block 587:
  0x000055e94ebea655  48 83 c4 28          add    $0x0000000000000028 %rsp -> %rsp 
  0x000055e94ebea659  c3                   ret    %rsp (%rsp)[8byte] -> %rsp 
Actual: 55e94ebe6cc0

Block 588:
  0x000055e94ebe6cc0  0f b6 95 94 fc ff ff movzx  0xfffffc94(%rbp)[1byte] -> %edx 
  0x000055e94ebe6cc7  44 0f b6 85 93 fc ff movzx  0xfffffc93(%rbp)[1byte] -> %r8d 
                      ff
  0x000055e94ebe6ccf  48 89 85 c8 fc ff ff mov    %rax -> 0xfffffcc8(%rbp)[8byte] 
  0x000055e94ebe6cd6  41 89 d1             mov    %edx -> %r9d 
  0x000055e94ebe6cd9  48 83 bd c8 fc ff ff cmp    0xfffffcc8(%rbp)[8byte] $0x0000000000000000 
                      00
  0x000055e94ebe6ce1  0f 84 19 0b 00 00    jz     $0x000055e94ebe7800 
Actual: 55e94ebe7800

Block 589:
  0x000055e94ebe7800  41 0f b6 44 24 18    movzx  0x18(%r12)[1byte] -> %eax 
  0x000055e94ebe7806  e9 37 f1 ff ff       jmp    $0x000055e94ebe6942 
  0x000055e94ebe6942  84 c0                test   %al %al 
  0x000055e94ebe6944  0f 85 41 0c 00 00    jnz    $0x000055e94ebe758b 
Actual: 55e94ebe758b

Block 590:
  0x000055e94ebe758b  48 8b b5 f0 fc ff ff mov    0xfffffcf0(%rbp)[8byte] -> %rsi 
  0x000055e94ebe7592  48 8b bd f8 fc ff ff mov    0xfffffcf8(%rbp)[8byte] -> %rdi 
  0x000055e94ebe7599  44 88 8d e8 fc ff ff mov    %r9l -> 0xfffffce8(%rbp)[1byte] 
  0x000055e94ebe75a0  44 88 85 98 fc ff ff mov    %r8l -> 0xfffffc98(%rbp)[1byte] 
  0x000055e94ebe75a7  e8 cc bc ff ff       call   $0x000055e94ebe3278 %rsp -> %rsp 0xfffffff8(%rsp)[8byte] 
  0x000055e94ebe3278  ff 25 b2 bc 21 00    jmp    <rel> 0x000055e94edfef30[8byte] 
Actual: 7f0f04856e70

Block 591:
  0x00007f0f04856e70  b8 52 00 00 00       mov    $0x00000052 -> %eax 
  0x00007f0f04856e75  0f 05                syscall -> %rcx 
  0x00007f0f04856e77  48 3d 01 f0 ff ff    cmp    %rax $0xfffffffffffff001 
  0x00007f0f04856e7d  73 01                jnb    $0x00007f0f04856e80 
Actual: 7f0f04856e7f

Block 592:
  0x00007f0f04856e7f  c3                   ret    %rsp (%rsp)[8byte] -> %rsp 
Actual: 55e94ebe75ac

Block 593:
  0x000055e94ebe75ac  85 c0                test   %eax %eax 
  0x000055e94ebe75ae  44 0f b6 8d e8 fc ff movzx  0xfffffce8(%rbp)[1byte] -> %r9d 
                      ff
  0x000055e94ebe75b6  0f 85 cc 03 00 00    jnz    $0x000055e94ebe7988 
Actual: 55e94ebe75bc

Block 594:
  0x000055e94ebe75bc  41 80 7c 24 2d 00    cmp    0x2d(%r12)[1byte] $0x00 
  0x000055e94ebe75c2  74 09                jz     $0x000055e94ebe75cd 
Actual: 55e94ebe75cd

Block 595:
  0x000055e94ebe75cd  41 80 7c 24 20 00    cmp    0x20(%r12)[1byte] $0x00 
  0x000055e94ebe75d3  0f 85 7f 0c 00 00    jnz    $0x000055e94ebe8258 
Actual: 55e94ebe75d9

Block 596:
  0x000055e94ebe75d9  48 8b 85 b8 fc ff ff mov    0xfffffcb8(%rbp)[8byte] -> %rax 
  0x000055e94ebe75e0  48 85 c0             test   %rax %rax 
  0x000055e94ebe75e3  74 03                jz     $0x000055e94ebe75e8 
Actual: 55e94ebe75e5

Block 597:
  0x000055e94ebe75e5  c6 00 01             mov    $0x01 -> (%rax)[1byte] 
  0x000055e94ebe75e8  80 bd e4 fc ff ff 00 cmp    0xfffffce4(%rbp)[1byte] $0x00 
  0x000055e94ebe75ef  0f 84 4b f8 ff ff    jz     $0x000055e94ebe6e40 
Actual: 55e94ebe75f5

Block 598:
  0x000055e94ebe75f5  49 8b 7c 24 38       mov    0x38(%r12)[8byte] -> %rdi 
  0x000055e94ebe75fa  48 8b 95 d0 fc ff ff mov    0xfffffcd0(%rbp)[8byte] -> %rdx 
  0x000055e94ebe7601  48 8b b5 f0 fc ff ff mov    0xfffffcf0(%rbp)[8byte] -> %rsi 
  0x000055e94ebe7608  e8 83 4d 00 00       call   $0x000055e94ebec390 %rsp -> %rsp 0xfffffff8(%rsp)[8byte] 
  0x000055e94ebec390  48 85 ff             test   %rdi %rdi 
  0x000055e94ebec393  74 75                jz     $0x000055e94ebec40a 
Actual: 55e94ebec40a

Block 599:
  0x000055e94ebe760d  44 0f b6 bd e4 fc ff movzx  0xfffffce4(%rbp)[1byte] -> %r15d 
                      ff
  0x000055e94ebe7615  e9 9d f3 ff ff       jmp    $0x000055e94ebe69b7 
  0x000055e94ebe69b7  48 8b 5d c8          mov    0xffffffc8(%rbp)[8byte] -> %rbx 
  0x000055e94ebe69bb  64 48 33 1c 25 28 00 xor    %fs:0x28[8byte] %rbx -> %rbx 
                      00 00
  0x000055e94ebe69c4  44 89 f8             mov    %r15d -> %eax 
  0x000055e94ebe69c7  0f 85 66 26 00 00    jnz    $0x000055e94ebe9033 
Actual: 55e94ebe69cd

Block 600:
  0x000055e94ebe69cd  48 8d 65 d8          lea    0xffffffd8(%rbp) -> %rsp 
  0x000055e94ebe69d1  5b                   pop    %rsp (%rsp)[8byte] -> %rbx %rsp 
  0x000055e94ebe69d2  41 5c                pop    %rsp (%rsp)[8byte] -> %r12 %rsp 
  0x000055e94ebe69d4  41 5d                pop    %rsp (%rsp)[8byte] -> %r13 %rsp 
  0x000055e94ebe69d6  41 5e                pop    %rsp (%rsp)[8byte] -> %r14 %rsp 
  0x000055e94ebe69d8  41 5f                pop    %rsp (%rsp)[8byte] -> %r15 %rsp 
  0x000055e94ebe69da  5d                   pop    %rsp (%rsp)[8byte] -> %rbp %rsp 
  0x000055e94ebe69db  c3                   ret    %rsp (%rsp)[8byte] -> %rsp 
Actual: 55e94ebea46f

Block 601:
  0x000055e94ebea46f  48 83 c4 20          add    $0x0000000000000020 %rsp -> %rsp 
  0x000055e94ebea473  48 8b 74 24 08       mov    0x08(%rsp)[8byte] -> %rsi 
  0x000055e94ebea478  64 48 33 34 25 28 00 xor    %fs:0x28[8byte] %rsi -> %rsi 
                      00 00
  0x000055e94ebea481  75 24                jnz    $0x000055e94ebea4a7 
Actual: 55e94ebea483

Block 602:
  0x000055e94ebea483  48 83 c4 18          add    $0x0000000000000018 %rsp -> %rsp 
  0x000055e94ebea487  c3                   ret    %rsp (%rsp)[8byte] -> %rsp 
Actual: 55e94ebe3c14

Block 603:
  0x000055e94ebe3c14  84 c0                test   %al %al 
  0x000055e94ebe3c16  74 09                jz     $0x000055e94ebe3c21 
Actual: 55e94ebe3c18

Block 604:
  0x000055e94ebe3c18  80 7c 24 0e 00       cmp    0x0e(%rsp)[1byte] $0x00 
  0x000055e94ebe3c1d  74 21                jz     $0x000055e94ebe3c40 
Actual: 55e94ebe3c40

Block 605:
  0x000055e94ebe3c40  0f b6 54 24 0f       movzx  0x0f(%rsp)[1byte] -> %edx 
  0x000055e94ebe3c45  84 d2                test   %dl %dl 
  0x000055e94ebe3c47  0f 85 83 00 00 00    jnz    $0x000055e94ebe3cd0 
Actual: 55e94ebe3cd0

Block 606:
  0x000055e94ebe3cd0  89 d0                mov    %edx -> %eax 
  0x000055e94ebe3cd2  e9 4a ff ff ff       jmp    $0x000055e94ebe3c21 
  0x000055e94ebe3c21  48 8b 4c 24 48       mov    0x48(%rsp)[8byte] -> %rcx 
  0x000055e94ebe3c26  64 48 33 0c 25 28 00 xor    %fs:0x28[8byte] %rcx -> %rcx 
                      00 00
  0x000055e94ebe3c2f  0f 85 f3 00 00 00    jnz    $0x000055e94ebe3d28 
Actual: 55e94ebe3c35

Block 607:
  0x000055e94ebe3c35  48 83 c4 58          add    $0x0000000000000058 %rsp -> %rsp 
  0x000055e94ebe3c39  5b                   pop    %rsp (%rsp)[8byte] -> %rbx %rsp 
  0x000055e94ebe3c3a  5d                   pop    %rsp (%rsp)[8byte] -> %rbp %rsp 
  0x000055e94ebe3c3b  41 5c                pop    %rsp (%rsp)[8byte] -> %r12 %rsp 
  0x000055e94ebe3c3d  41 5d                pop    %rsp (%rsp)[8byte] -> %r13 %rsp 
  0x000055e94ebe3c3f  c3                   ret    %rsp (%rsp)[8byte] -> %rsp 
Actual: 55e94ebe39fe

Block 608:
  0x000055e94ebe39fe  89 c5                mov    %eax -> %ebp 
  0x000055e94ebe3a00  e9 49 fd ff ff       jmp    $0x000055e94ebe374e 
  0x000055e94ebe374e  83 f5 01             xor    $0x00000001 %ebp -> %ebp 
  0x000055e94ebe3751  48 8b 8c 24 18 01 00 mov    0x00000118(%rsp)[8byte] -> %rcx 
                      00
  0x000055e94ebe3759  64 48 33 0c 25 28 00 xor    %fs:0x28[8byte] %rcx -> %rcx 
                      00 00
  0x000055e94ebe3762  40 0f b6 c5          movzx  %bpl -> %eax 
  0x000055e94ebe3766  0f 85 bb 02 00 00    jnz    $0x000055e94ebe3a27 
Actual: 55e94ebe376c

Block 609:
  0x000055e94ebe376c  48 81 c4 28 01 00 00 add    $0x0000000000000128 %rsp -> %rsp 
  0x000055e94ebe3773  5b                   pop    %rsp (%rsp)[8byte] -> %rbx %rsp 
  0x000055e94ebe3774  5d                   pop    %rsp (%rsp)[8byte] -> %rbp %rsp 
  0x000055e94ebe3775  41 5c                pop    %rsp (%rsp)[8byte] -> %r12 %rsp 
  0x000055e94ebe3777  41 5d                pop    %rsp (%rsp)[8byte] -> %r13 %rsp 
  0x000055e94ebe3779  41 5e                pop    %rsp (%rsp)[8byte] -> %r14 %rsp 
  0x000055e94ebe377b  41 5f                pop    %rsp (%rsp)[8byte] -> %r15 %rsp 
  0x000055e94ebe377d  c3                   ret    %rsp (%rsp)[8byte] -> %rsp 
Actual: 7f0f0480e731

Block 610:
  0x00007f0f0480e731  89 c7                mov    %eax -> %edi 
  0x00007f0f0480e733  e8 e8 8a 01 00       call   $0x00007f0f04827220 %rsp -> %rsp 0xfffffff8(%rsp)[8byte] 
  0x00007f0f04827220  48 8d 35 b1 33 38 00 lea    <rel> 0x00007f0f04baa5d8 -> %rsi 
  0x00007f0f04827227  48 83 ec 08          sub    $0x0000000000000008 %rsp -> %rsp 
  0x00007f0f0482722b  ba 01 00 00 00       mov    $0x00000001 -> %edx 
  0x00007f0f04827230  e8 cb fe ff ff       call   $0x00007f0f04827100 %rsp -> %rsp 0xfffffff8(%rsp)[8byte] 
  0x00007f0f04827100  41 55                push   %r13 %rsp -> %rsp 0xfffffff8(%rsp)[8byte] 
  0x00007f0f04827102  41 54                push   %r12 %rsp -> %rsp 0xfffffff8(%rsp)[8byte] 
  0x00007f0f04827104  41 89 d4             mov    %edx -> %r12d 
  0x00007f0f04827107  55                   push   %rbp %rsp -> %rsp 0xfffffff8(%rsp)[8byte] 
  0x00007f0f04827108  53                   push   %rbx %rsp -> %rsp 0xfffffff8(%rsp)[8byte] 
  0x00007f0f04827109  48 89 f5             mov    %rsi -> %rbp 
  0x00007f0f0482710c  89 fb                mov    %edi -> %ebx 
  0x00007f0f0482710e  48 83 ec 08          sub    $0x0000000000000008 %rsp -> %rsp 
  0x00007f0f04827112  e8 79 06 00 00       call   $0x00007f0f04827790 %rsp -> %rsp 0xfffffff8(%rsp)[8byte] 
  0x00007f0f04827790  55                   push   %rbp %rsp -> %rsp 0xfffffff8(%rsp)[8byte] 
  0x00007f0f04827791  53                   push   %rbx %rsp -> %rsp 0xfffffff8(%rsp)[8byte] 
  0x00007f0f04827792  48 83 ec 08          sub    $0x0000000000000008 %rsp -> %rsp 
  0x00007f0f04827796  48 8b 2d b3 25 38 00 mov    <rel> 0x00007f0f04ba9d50[8byte] -> %rbp 
  0x00007f0f0482779d  64 48 8b 5d 00       mov    %fs:0x00(%rbp)[8byte] -> %rbx 
  0x00007f0f048277a2  48 85 db             test   %rbx %rbx 
  0x00007f0f048277a5  74 47                jz     $0x00007f0f048277ee 
Actual: 7f0f048277ee

Block 611:
  0x00007f0f048277ee  48 83 c4 08          add    $0x0000000000000008 %rsp -> %rsp 
  0x00007f0f048277f2  5b                   pop    %rsp (%rsp)[8byte] -> %rbx %rsp 
  0x00007f0f048277f3  5d                   pop    %rsp (%rsp)[8byte] -> %rbp %rsp 
  0x00007f0f048277f4  c3                   ret    %rsp (%rsp)[8byte] -> %rsp 
Actual: 7f0f04827117

Block 612:
  0x00007f0f04827117  4c 8b 6d 00          mov    0x00(%rbp)[8byte] -> %r13 
  0x00007f0f0482711b  4d 85 ed             test   %r13 %r13 
  0x00007f0f0482711e  74 50                jz     $0x00007f0f04827170 
Actual: 7f0f04827120

Block 613:
  0x00007f0f04827120  49 8b 45 08          mov    0x08(%r13)[8byte] -> %rax 
  0x00007f0f04827124  48 89 c2             mov    %rax -> %rdx 
  0x00007f0f04827127  48 c1 e2 05          shl    $0x0000000000000005 %rdx -> %rdx 
  0x00007f0f0482712b  48 85 c0             test   %rax %rax 
  0x00007f0f0482712e  49 8d 4c 15 f0       lea    0xfffffff0(%r13,%rdx,1) -> %rcx 
  0x00007f0f04827133  74 2a                jz     $0x00007f0f0482715f 
Actual: 7f0f04827135

Block 614:
  0x00007f0f04827135  48 83 e8 01          sub    $0x0000000000000001 %rax -> %rax 
  0x00007f0f04827139  49 89 45 08          mov    %rax -> 0x08(%r13)[8byte] 
  0x00007f0f0482713d  48 8b 11             mov    (%rcx)[8byte] -> %rdx 
  0x00007f0f04827140  48 83 fa 03          cmp    %rdx $0x0000000000000003 
  0x00007f0f04827144  0f 84 a6 00 00 00    jz     $0x00007f0f048271f0 
Actual: 7f0f0482714a

Block 615:
  0x00007f0f0482714a  48 83 fa 04          cmp    %rdx $0x0000000000000004 
  0x00007f0f0482714e  74 78                jz     $0x00007f0f048271c8 
Actual: 7f0f048271c8

Block 616:
  0x00007f0f048271c8  48 c1 e0 05          shl    $0x0000000000000005 %rax -> %rax 
  0x00007f0f048271cc  89 de                mov    %ebx -> %esi 
  0x00007f0f048271ce  4c 01 e8             add    %r13 %rax -> %rax 
  0x00007f0f048271d1  48 8b 50 18          mov    0x18(%rax)[8byte] -> %rdx 
  0x00007f0f048271d5  48 8b 78 20          mov    0x20(%rax)[8byte] -> %rdi 
  0x00007f0f048271d9  48 c1 ca 11          ror    $0x0000000000000011 %rdx -> %rdx 
  0x00007f0f048271dd  64 48 33 14 25 30 00 xor    %fs:0x30[8byte] %rdx -> %rdx 
                      00 00
  0x00007f0f048271e6  ff d2                call   %rdx %rsp -> %rsp 0xfffffff8(%rsp)[8byte] 
Actual: 55e94ebebe70

Block 617:
  0x000055e94ebebe70  41 54                push   %r12 %rsp -> %rsp 0xfffffff8(%rsp)[8byte] 
  0x000055e94ebebe72  55                   push   %rbp %rsp -> %rsp 0xfffffff8(%rsp)[8byte] 
  0x000055e94ebebe73  45 31 e4             xor    %r12d %r12d -> %r12d 
  0x000055e94ebebe76  48 8b 2d 63 2d 21 00 mov    <rel> 0x000055e94edfebe0[8byte] -> %rbp 
  0x000055e94ebebe7d  53                   push   %rbx %rsp -> %rsp 0xfffffff8(%rsp)[8byte] 
  0x000055e94ebebe7e  48 8b 5d 00          mov    0x00(%rbp)[8byte] -> %rbx 
  0x000055e94ebebe82  48 89 df             mov    %rbx -> %rdi 
  0x000055e94ebebe85  e8 b6 5d 00 00       call   $0x000055e94ebf1c40 %rsp -> %rsp 0xfffffff8(%rsp)[8byte] 
  0x000055e94ebf1c40  31 c0                xor    %eax %eax -> %eax 
  0x000055e94ebf1c42  48 8b 4f 20          mov    0x20(%rdi)[8byte] -> %rcx 
  0x000055e94ebf1c46  48 39 4f 28          cmp    0x28(%rdi)[8byte] %rcx 
  0x000055e94ebf1c4a  77 20                jnbe   $0x000055e94ebf1c6c 
Actual: 55e94ebf1c4c

Block 618:
  0x000055e94ebf1c4c  48 8b 47 10          mov    0x10(%rdi)[8byte] -> %rax 
  0x000055e94ebf1c50  48 2b 47 08          sub    0x08(%rdi)[8byte] %rax -> %rax 
  0x000055e94ebf1c54  48 89 c2             mov    %rax -> %rdx 
  0x000055e94ebf1c57  31 c0                xor    %eax %eax -> %eax 
  0x000055e94ebf1c59  f7 07 00 01 00 00    test   (%rdi)[4byte] $0x00000100 
  0x000055e94ebf1c5f  74 08                jz     $0x000055e94ebf1c69 
Actual: 55e94ebf1c69

Block 619:
  0x000055e94ebf1c69  48 01 d0             add    %rdx %rax -> %rax 
  0x000055e94ebf1c6c  f3 c3                ret    %rsp (%rsp)[8byte] -> %rsp 
Actual: 55e94ebebe8a

Block 620:
  0x000055e94ebebe8a  48 85 c0             test   %rax %rax 
  0x000055e94ebebe8d  75 21                jnz    $0x000055e94ebebeb0 
Actual: 55e94ebebe8f

Block 621:
  0x000055e94ebebe8f  48 89 df             mov    %rbx -> %rdi 
  0x000055e94ebebe92  e8 09 90 00 00       call   $0x000055e94ebf4ea0 %rsp -> %rsp 0xfffffff8(%rsp)[8byte] 
  0x000055e94ebf4ea0  41 54                push   %r12 %rsp -> %rsp 0xfffffff8(%rsp)[8byte] 
  0x000055e94ebf4ea2  55                   push   %rbp %rsp -> %rsp 0xfffffff8(%rsp)[8byte] 
  0x000055e94ebf4ea3  48 89 fd             mov    %rdi -> %rbp 
  0x000055e94ebf4ea6  53                   push   %rbx %rsp -> %rsp 0xfffffff8(%rsp)[8byte] 
  0x000055e94ebf4ea7  e8 6c e0 fe ff       call   $0x000055e94ebe2f18 %rsp -> %rsp 0xfffffff8(%rsp)[8byte] 
  0x000055e94ebe2f18  ff 25 8a bc 21 00    jmp    <rel> 0x000055e94edfeba8[8byte] 
Actual: 7f0f048632e0

Block 622:
  0x00007f0f048632e0  8b 87 c0 00 00 00    mov    0x000000c0(%rdi)[4byte] -> %eax 
  0x00007f0f048632e6  85 c0                test   %eax %eax 
  0x00007f0f048632e8  7e 16                jle    $0x00007f0f04863300 
Actual: 7f0f04863300

Block 623:
  0x00007f0f04863300  48 8b 47 28          mov    0x28(%rdi)[8byte] -> %rax 
  0x00007f0f04863304  48 2b 47 20          sub    0x20(%rdi)[8byte] %rax -> %rax 
  0x00007f0f04863308  c3                   ret    %rsp (%rsp)[8byte] -> %rsp 
Actual: 55e94ebf4eac

Block 624:
  0x000055e94ebf4eac  8b 5d 00             mov    0x00(%rbp)[4byte] -> %ebx 
  0x000055e94ebf4eaf  48 89 ef             mov    %rbp -> %rdi 
  0x000055e94ebf4eb2  49 89 c4             mov    %rax -> %r12 
  0x000055e94ebf4eb5  e8 36 0b 00 00       call   $0x000055e94ebf59f0 %rsp -> %rsp 0xfffffff8(%rsp)[8byte] 
  0x000055e94ebf59f0  41 54                push   %r12 %rsp -> %rsp 0xfffffff8(%rsp)[8byte] 
  0x000055e94ebf59f2  55                   push   %rbp %rsp -> %rsp 0xfffffff8(%rsp)[8byte] 
  0x000055e94ebf59f3  53                   push   %rbx %rsp -> %rsp 0xfffffff8(%rsp)[8byte] 
  0x000055e94ebf59f4  48 89 fb             mov    %rdi -> %rbx 
  0x000055e94ebf59f7  e8 74 d7 fe ff       call   $0x000055e94ebe3170 %rsp -> %rsp 0xfffffff8(%rsp)[8byte] 
  0x000055e94ebe3170  ff 25 aa bc 21 00    jmp    <rel> 0x000055e94edfee20[8byte] 
Actual: 7f0f048619d0

Block 625:
  0x00007f0f048619d0  f7 07 00 20 00 00    test   (%rdi)[4byte] $0x00002000 
  0x00007f0f048619d6  74 10                jz     $0x00007f0f048619e8 
Actual: 7f0f048619d8

Block 626:
  0x00007f0f048619d8  8b 47 70             mov    0x70(%rdi)[4byte] -> %eax 
  0x00007f0f048619db  85 c0                test   %eax %eax 
  0x00007f0f048619dd  78 09                js     $0x00007f0f048619e8 
Actual: 7f0f048619df

Block 627:
  0x00007f0f048619df  f3 c3                ret    %rsp (%rsp)[8byte] -> %rsp 
Actual: 55e94ebf59fc

Block 628:
  0x000055e94ebf59fc  85 c0                test   %eax %eax 
  0x000055e94ebf59fe  48 89 df             mov    %rbx -> %rdi 
  0x000055e94ebf5a01  78 54                js     $0x000055e94ebf5a57 
Actual: 55e94ebf5a03

Block 629:
  0x000055e94ebf5a03  e8 d0 d7 fe ff       call   $0x000055e94ebe31d8 %rsp -> %rsp 0xfffffff8(%rsp)[8byte] 
  0x000055e94ebe31d8  ff 25 aa bc 21 00    jmp    <rel> 0x000055e94edfee88[8byte] 
Actual: 7f0f04863200

Block 630:
  0x00007f0f04863200  8b 17                mov    (%rdi)[4byte] -> %edx 
  0x00007f0f04863202  89 d0                mov    %edx -> %eax 
  0x00007f0f04863204  83 e0 08             and    $0x00000008 %eax -> %eax 
  0x00007f0f04863207  75 17                jnz    $0x00007f0f04863220 
Actual: 7f0f04863220

Block 631:
  0x00007f0f04863220  b8 01 00 00 00       mov    $0x00000001 -> %eax 
  0x00007f0f04863225  f3 c3                ret    %rsp (%rsp)[8byte] -> %rsp 
Actual: 55e94ebf5a08

Block 632:
  0x000055e94ebf5a08  85 c0                test   %eax %eax 
  0x000055e94ebf5a0a  75 2c                jnz    $0x000055e94ebf5a38 
Actual: 55e94ebf5a38

Block 633:
  0x000055e94ebf5a38  48 89 df             mov    %rbx -> %rdi 
  0x000055e94ebf5a3b  e8 30 d7 fe ff       call   $0x000055e94ebe3170 %rsp -> %rsp 0xfffffff8(%rsp)[8byte] 
  0x000055e94ebe3170  ff 25 aa bc 21 00    jmp    <rel> 0x000055e94edfee20[8byte] 
Actual: 7f0f048619d0

Block 634:
  0x000055e94ebf5a40  31 f6                xor    %esi %esi -> %esi 
  0x000055e94ebf5a42  ba 01 00 00 00       mov    $0x00000001 -> %edx 
  0x000055e94ebf5a47  89 c7                mov    %eax -> %edi 
  0x000055e94ebf5a49  e8 f2 d5 fe ff       call   $0x000055e94ebe3040 %rsp -> %rsp 0xfffffff8(%rsp)[8byte] 
  0x000055e94ebe3040  ff 25 9a bc 21 00    jmp    <rel> 0x000055e94edfece0[8byte] 
Actual: 7f0f051f53f0

Block 635:
  0x00007f0f051f53f0  b8 08 00 00 00       mov    $0x00000008 -> %eax 
  0x00007f0f051f53f5  0f 05                syscall -> %rcx 
  0x00007f0f051f53f7  48 3d 01 f0 ff ff    cmp    %rax $0xfffffffffffff001 
  0x00007f0f051f53fd  73 01                jnb    $0x00007f0f051f5400 
Actual: 7f0f051f5400

Block 636:
  0x00007f0f051f5400  48 8b 0d 81 6b 20 00 mov    <rel> 0x00007f0f053fbf88[8byte] -> %rcx 
  0x00007f0f051f5407  f7 d8                neg    %eax -> %eax 
  0x00007f0f051f5409  64 89 01             mov    %eax -> %fs:(%rcx)[4byte] 
  0x00007f0f051f540c  48 83 c8 ff          or     $0xffffffffffffffff %rax -> %rax 
  0x00007f0f051f5410  c3                   ret    %rsp (%rsp)[8byte] -> %rsp 
Actual: 55e94ebf5a4e

Block 637:
  0x000055e94ebf5a4e  48 83 f8 ff          cmp    %rax $0xffffffffffffffff 
  0x000055e94ebf5a52  75 b8                jnz    $0x000055e94ebf5a0c 
Actual: 55e94ebf5a54

Block 638:
  0x000055e94ebf5a54  48 89 df             mov    %rbx -> %rdi 
  0x000055e94ebf5a57  5b                   pop    %rsp (%rsp)[8byte] -> %rbx %rsp 
  0x000055e94ebf5a58  5d                   pop    %rsp (%rsp)[8byte] -> %rbp %rsp 
  0x000055e94ebf5a59  41 5c                pop    %rsp (%rsp)[8byte] -> %r12 %rsp 
  0x000055e94ebf5a5b  e9 30 d5 fe ff       jmp    $0x000055e94ebe2f90 
  0x000055e94ebe2f90  ff 25 92 bc 21 00    jmp    <rel> 0x000055e94edfec28[8byte] 
Actual: 7f0f04859360

Block 639:
  0x00007f0f04859360  41 54                push   %r12 %rsp -> %rsp 0xfffffff8(%rsp)[8byte] 
  0x00007f0f04859362  55                   push   %rbp %rsp -> %rsp 0xfffffff8(%rsp)[8byte] 
  0x00007f0f04859363  53                   push   %rbx %rsp -> %rsp 0xfffffff8(%rsp)[8byte] 
  0x00007f0f04859364  8b 07                mov    (%rdi)[4byte] -> %eax 
  0x00007f0f04859366  48 89 fb             mov    %rdi -> %rbx 
  0x00007f0f04859369  f6 c4 20             test   %ah $0x20 
  0x00007f0f0485936c  0f 85 0e 01 00 00    jnz    $0x00007f0f04859480 
Actual: 7f0f04859480

Block 640:
  0x00007f0f04859480  e8 bb d3 00 00       call   $0x00007f0f04866840 %rsp -> %rsp 0xfffffff8(%rsp)[8byte] 
  0x00007f0f04866840  f6 07 80             test   (%rdi)[1byte] $0x80 
  0x00007f0f04866843  0f 84 db 01 00 00    jz     $0x00007f0f04866a24 
Actual: 7f0f04866849

Block 641:
  0x00007f0f04866849  55                   push   %rbp %rsp -> %rsp 0xfffffff8(%rsp)[8byte] 
  0x00007f0f0486684a  53                   push   %rbx %rsp -> %rsp 0xfffffff8(%rsp)[8byte] 
  0x00007f0f0486684b  48 89 fb             mov    %rdi -> %rbx 
  0x00007f0f0486684e  48 83 ec 28          sub    $0x0000000000000028 %rsp -> %rsp 
  0x00007f0f04866852  8b 2d 98 8e 34 00    mov    <rel> 0x00007f0f04baf6f0[4byte] -> %ebp 
  0x00007f0f04866858  85 ed                test   %ebp %ebp 
  0x00007f0f0486685a  0f 85 30 02 00 00    jnz    $0x00007f0f04866a90 
Actual: 7f0f04866a90

Block 642:
  0x00007f0f04866a90  48 8b 05 19 8c 34 00 mov    <rel> 0x00007f0f04baf6b0[8byte] -> %rax 
  0x00007f0f04866a97  48 89 e7             mov    %rsp -> %rdi 
  0x00007f0f04866a9a  31 d2                xor    %edx %edx -> %edx 
  0x00007f0f04866a9c  48 c1 c8 11          ror    $0x0000000000000011 %rax -> %rax 
  0x00007f0f04866aa0  64 48 33 04 25 30 00 xor    %fs:0x30[8byte] %rax -> %rax 
                      00 00
  0x00007f0f04866aa9  48 8d 35 f0 fc ff ff lea    <rel> 0x00007f0f048667a0 -> %rsi 
  0x00007f0f04866ab0  ff d0                call   %rax %rsp -> %rsp 0xfffffff8(%rsp)[8byte] 
Actual: 7f0f051f4670

Block 643:
  0x00007f0f051f4670  48 89 37             mov    %rsi -> (%rdi)[8byte] 
  0x00007f0f051f4673  48 89 57 08          mov    %rdx -> 0x08(%rdi)[8byte] 
  0x00007f0f051f4677  64 48 8b 04 25 f8 02 mov    %fs:0x000002f8[8byte] -> %rax 
                      00 00
  0x00007f0f051f4680  48 89 47 18          mov    %rax -> 0x18(%rdi)[8byte] 
  0x00007f0f051f4684  64 8b 14 25 08 03 00 mov    %fs:0x00000308[4byte] -> %edx 
                      00
  0x00007f0f051f468c  89 d0                mov    %edx -> %eax 
  0x00007f0f051f468e  83 e0 02             and    $0x00000002 %eax -> %eax 
  0x00007f0f051f4691  75 25                jnz    $0x00007f0f051f46b8 
Actual: 7f0f051f4693

Block 644:
  0x00007f0f051f4693  85 c0                test   %eax %eax 
  0x00007f0f051f4695  0f 95 c0             setnz  -> %al 
  0x00007f0f051f4698  0f b6 c0             movzx  %al -> %eax 
  0x00007f0f051f469b  89 47 10             mov    %eax -> 0x10(%rdi)[4byte] 
  0x00007f0f051f469e  64 48 89 3c 25 f8 02 mov    %rdi -> %fs:0x000002f8[8byte] 
                      00 00
  0x00007f0f051f46a7  c3                   ret    %rsp (%rsp)[8byte] -> %rsp 
Actual: 7f0f04866ab2

Block 645:
  0x00007f0f04866ab2  e9 bd fd ff ff       jmp    $0x00007f0f04866874 
  0x00007f0f04866874  64 48 8b 14 25 10 00 mov    %fs:0x10[8byte] -> %rdx 
                      00 00
  0x00007f0f0486687d  48 3b 15 c4 5e 34 00 cmp    %rdx <rel> 0x00007f0f04bac748[8byte] 
  0x00007f0f04866884  74 46                jz     $0x00007f0f048668cc 
Actual: 7f0f04866886

Block 646:
  0x00007f0f04866886  be 01 00 00 00       mov    $0x00000001 -> %esi 
  0x00007f0f0486688b  31 c0                xor    %eax %eax -> %eax 
  0x00007f0f0486688d  83 3d 6c 8e 34 00 00 cmp    <rel> 0x00007f0f04baf700[4byte] $0x00000000 
  0x00007f0f04866894  74 0c                jz     $0x00007f0f048668a2 
Actual: 7f0f048668a2

Block 647:
  0x00007f0f048668a2  0f b1 35 97 5e 34 00 cmpxchg %esi <rel> 0x00007f0f04bac740[4byte] %eax -> <rel> 0x00007f0f04bac740[4byte] %eax 
  0x00007f0f048668a9  74 1a                jz     $0x00007f0f048668c5 
Actual: 7f0f048668c5

Block 648:
  0x00007f0f048668c5  48 89 15 7c 5e 34 00 mov    %rdx -> <rel> 0x00007f0f04bac748[8byte] 
  0x00007f0f048668cc  8b 33                mov    (%rbx)[4byte] -> %esi 
  0x00007f0f048668ce  8b 15 70 5e 34 00    mov    <rel> 0x00007f0f04bac744[4byte] -> %edx 
  0x00007f0f048668d4  48 89 1d 55 5e 34 00 mov    %rbx -> <rel> 0x00007f0f04bac730[8byte] 
  0x00007f0f048668db  89 f0                mov    %esi -> %eax 
  0x00007f0f048668dd  83 c2 01             add    $0x00000001 %edx -> %edx 
  0x00007f0f048668e0  25 00 80 00 00       and    $0x00008000 %eax -> %eax 
  0x00007f0f048668e5  89 15 59 5e 34 00    mov    %edx -> <rel> 0x00007f0f04bac744[4byte] 
  0x00007f0f048668eb  0f 85 7f 01 00 00    jnz    $0x00007f0f04866a70 
Actual: 7f0f048668f1

Block 649:
  0x00007f0f048668f1  48 8b 93 88 00 00 00 mov    0x00000088(%rbx)[8byte] -> %rdx 
  0x00007f0f048668f8  64 4c 8b 04 25 10 00 mov    %fs:0x10[8byte] -> %r8 
                      00 00
  0x00007f0f04866901  4c 3b 42 08          cmp    %r8 0x08(%rdx)[8byte] 
  0x00007f0f04866905  74 45                jz     $0x00007f0f0486694c 
Actual: 7f0f04866907

Block 650:
  0x00007f0f04866907  be 01 00 00 00       mov    $0x00000001 -> %esi 
  0x00007f0f0486690c  83 3d ed 8d 34 00 00 cmp    <rel> 0x00007f0f04baf700[4byte] $0x00000000 
  0x00007f0f04866913  74 08                jz     $0x00007f0f0486691d 
Actual: 7f0f0486691d

Block 651:
  0x00007f0f0486691d  0f b1 32             cmpxchg %esi (%rdx)[4byte] %eax -> (%rdx)[4byte] %eax 
  0x00007f0f04866920  74 16                jz     $0x00007f0f04866938 
Actual: 7f0f04866938

Block 652:
  0x00007f0f04866938  8b 33                mov    (%rbx)[4byte] -> %esi 
  0x00007f0f0486693a  48 8b 93 88 00 00 00 mov    0x00000088(%rbx)[8byte] -> %rdx 
  0x00007f0f04866941  89 f0                mov    %esi -> %eax 
  0x00007f0f04866943  4c 89 42 08          mov    %r8 -> 0x08(%rdx)[8byte] 
  0x00007f0f04866947  25 00 80 00 00       and    $0x00008000 %eax -> %eax 
  0x00007f0f0486694c  48 8b 3d ad 4b 34 00 mov    <rel> 0x00007f0f04bab500[8byte] -> %rdi 
  0x00007f0f04866953  83 42 04 01          add    $0x00000001 0x04(%rdx)[4byte] -> 0x04(%rdx)[4byte] 
  0x00007f0f04866957  48 85 ff             test   %rdi %rdi 
  0x00007f0f0486695a  74 39                jz     $0x00007f0f04866995 
Actual: 7f0f0486695c

Block 653:
  0x00007f0f0486695c  48 39 fb             cmp    %rbx %rdi 
  0x00007f0f0486695f  0f 84 9b 01 00 00    jz     $0x00007f0f04866b00 
Actual: 7f0f04866965

Block 654:
  0x00007f0f04866965  48 8b 4f 68          mov    0x68(%rdi)[8byte] -> %rcx 
  0x00007f0f04866969  48 85 c9             test   %rcx %rcx 
  0x00007f0f0486696c  74 27                jz     $0x00007f0f04866995 
Actual: 7f0f0486696e

Block 655:
  0x00007f0f0486696e  48 39 cb             cmp    %rbx %rcx 
  0x00007f0f04866971  75 19                jnz    $0x00007f0f0486698c 
Actual: 7f0f0486698c

Block 656:
  0x00007f0f0486698c  48 8b 51 68          mov    0x68(%rcx)[8byte] -> %rdx 
  0x00007f0f04866990  48 85 d2             test   %rdx %rdx 
  0x00007f0f04866993  75 eb                jnz    $0x00007f0f04866980 
Actual: 7f0f04866980

Block 657:
  0x00007f0f04866980  48 39 d3             cmp    %rbx %rdx 
  0x00007f0f04866983  0f 84 37 01 00 00    jz     $0x00007f0f04866ac0 
Actual: 7f0f04866ac0

Block 658:
  0x00007f0f04866ac0  48 83 c1 68          add    $0x0000000000000068 %rcx -> %rcx 
  0x00007f0f04866ac4  48 8b 53 68          mov    0x68(%rbx)[8byte] -> %rdx 
  0x00007f0f04866ac8  83 05 69 5c 34 00 01 add    $0x00000001 <rel> 0x00007f0f04bac738[4byte] -> <rel> 0x00007f0f04bac738[4byte] 
  0x00007f0f04866acf  48 89 11             mov    %rdx -> (%rcx)[8byte] 
  0x00007f0f04866ad2  e9 be fe ff ff       jmp    $0x00007f0f04866995 
  0x00007f0f04866995  40 80 e6 7f          and    $0x7f %sil -> %sil 
  0x00007f0f04866999  85 c0                test   %eax %eax 
  0x00007f0f0486699b  89 33                mov    %esi -> (%rbx)[4byte] 
  0x00007f0f0486699d  0f 85 bf 00 00 00    jnz    $0x00007f0f04866a62 
Actual: 7f0f048669a3

Block 659:
  0x00007f0f048669a3  48 8b b3 88 00 00 00 mov    0x00000088(%rbx)[8byte] -> %rsi 
  0x00007f0f048669aa  8b 46 04             mov    0x04(%rsi)[4byte] -> %eax 
  0x00007f0f048669ad  83 e8 01             sub    $0x00000001 %eax -> %eax 
  0x00007f0f048669b0  85 c0                test   %eax %eax 
  0x00007f0f048669b2  89 46 04             mov    %eax -> 0x04(%rsi)[4byte] 
  0x00007f0f048669b5  8b 15 89 5d 34 00    mov    <rel> 0x00007f0f04bac744[4byte] -> %edx 
  0x00007f0f048669bb  74 73                jz     $0x00007f0f04866a30 
Actual: 7f0f04866a30

Block 660:
  0x00007f0f04866a30  48 c7 46 08 00 00 00 mov    $0x0000000000000000 -> 0x08(%rsi)[8byte] 
                      00
  0x00007f0f04866a38  83 3d c1 8c 34 00 00 cmp    <rel> 0x00007f0f04baf700[4byte] $0x00000000 
  0x00007f0f04866a3f  74 07                jz     $0x00007f0f04866a48 
Actual: 7f0f04866a48

Block 661:
  0x00007f0f04866a48  ff 0e                dec    (%rsi)[4byte] -> (%rsi)[4byte] 
  0x00007f0f04866a4a  74 16                jz     $0x00007f0f04866a62 
Actual: 7f0f04866a62

Block 662:
  0x00007f0f04866a62  8b 15 dc 5c 34 00    mov    <rel> 0x00007f0f04bac744[4byte] -> %edx 
  0x00007f0f04866a68  e9 50 ff ff ff       jmp    $0x00007f0f048669bd 
  0x00007f0f048669bd  83 ea 01             sub    $0x00000001 %edx -> %edx 
  0x00007f0f048669c0  48 c7 05 65 5d 34 00 mov    $0x0000000000000000 -> <rel> 0x00007f0f04bac730[8byte] 
                      00 00 00 00
  0x00007f0f048669cb  85 d2                test   %edx %edx 
  0x00007f0f048669cd  89 15 71 5d 34 00    mov    %edx -> <rel> 0x00007f0f04bac744[4byte] 
  0x00007f0f048669d3  75 41                jnz    $0x00007f0f04866a16 
Actual: 7f0f048669d5

Block 663:
  0x00007f0f048669d5  48 c7 05 68 5d 34 00 mov    $0x0000000000000000 -> <rel> 0x00007f0f04bac748[8byte] 
                      00 00 00 00
  0x00007f0f048669e0  83 3d 19 8d 34 00 00 cmp    <rel> 0x00007f0f04baf700[4byte] $0x00000000 
  0x00007f0f048669e7  74 0b                jz     $0x00007f0f048669f4 
Actual: 7f0f048669f4

Block 664:
  0x00007f0f048669f4  ff 0d 46 5d 34 00    dec    <rel> 0x00007f0f04bac740[4byte] -> <rel> 0x00007f0f04bac740[4byte] 
  0x00007f0f048669fa  74 1a                jz     $0x00007f0f04866a16 
Actual: 7f0f04866a16

Block 665:
  0x00007f0f04866a16  85 ed                test   %ebp %ebp 
  0x00007f0f04866a18  0f 85 c2 00 00 00    jnz    $0x00007f0f04866ae0 
Actual: 7f0f04866ae0

Block 666:
  0x00007f0f04866ae0  48 8b 05 d1 8b 34 00 mov    <rel> 0x00007f0f04baf6b8[8byte] -> %rax 
  0x00007f0f04866ae7  48 89 e7             mov    %rsp -> %rdi 
  0x00007f0f04866aea  31 f6                xor    %esi %esi -> %esi 
  0x00007f0f04866aec  48 c1 c8 11          ror    $0x0000000000000011 %rax -> %rax 
  0x00007f0f04866af0  64 48 33 04 25 30 00 xor    %fs:0x30[8byte] %rax -> %rax 
                      00 00
  0x00007f0f04866af9  ff d0                call   %rax %rsp -> %rsp 0xfffffff8(%rsp)[8byte] 
Actual: 7f0f051f46e0

Block 667:
  0x00007f0f051f46e0  48 8b 47 18          mov    0x18(%rdi)[8byte] -> %rax 
  0x00007f0f051f46e4  64 48 89 04 25 f8 02 mov    %rax -> %fs:0x000002f8[8byte] 
                      00 00
  0x00007f0f051f46ed  8b 47 10             mov    0x10(%rdi)[4byte] -> %eax 
  0x00007f0f051f46f0  85 c0                test   %eax %eax 
  0x00007f0f051f46f2  75 1c                jnz    $0x00007f0f051f4710 
Actual: 7f0f051f46f4

Block 668:
  0x00007f0f051f46f4  85 f6                test   %esi %esi 
  0x00007f0f051f46f6  75 08                jnz    $0x00007f0f051f4700 
Actual: 7f0f051f46f8

Block 669:
  0x00007f0f051f46f8  f3 c3                ret    %rsp (%rsp)[8byte] -> %rsp 
Actual: 7f0f04866afb

Block 670:
  0x00007f0f04866afb  e9 1e ff ff ff       jmp    $0x00007f0f04866a1e 
  0x00007f0f04866a1e  48 83 c4 28          add    $0x0000000000000028 %rsp -> %rsp 
  0x00007f0f04866a22  5b                   pop    %rsp (%rsp)[8byte] -> %rbx %rsp 
  0x00007f0f04866a23  5d                   pop    %rsp (%rsp)[8byte] -> %rbp %rsp 
  0x00007f0f04866a24  f3 c3                ret    %rsp (%rsp)[8byte] -> %rsp 
Actual: 7f0f04859485

Block 671:
  0x00007f0f04859485  8b 03                mov    (%rbx)[4byte] -> %eax 
  0x00007f0f04859487  f6 c4 80             test   %ah $0x80 
  0x00007f0f0485948a  75 5a                jnz    $0x00007f0f048594e6 
Actual: 7f0f0485948c

Block 672:
  0x00007f0f0485948c  48 8b 93 88 00 00 00 mov    0x00000088(%rbx)[8byte] -> %rdx 
  0x00007f0f04859493  64 4c 8b 04 25 10 00 mov    %fs:0x10[8byte] -> %r8 
                      00 00
  0x00007f0f0485949c  4c 3b 42 08          cmp    %r8 0x08(%rdx)[8byte] 
  0x00007f0f048594a0  74 40                jz     $0x00007f0f048594e2 
Actual: 7f0f048594a2

Block 673:
  0x00007f0f048594a2  be 01 00 00 00       mov    $0x00000001 -> %esi 
  0x00007f0f048594a7  31 c0                xor    %eax %eax -> %eax 
  0x00007f0f048594a9  83 3d 50 62 35 00 00 cmp    <rel> 0x00007f0f04baf700[4byte] $0x00000000 
  0x00007f0f048594b0  74 08                jz     $0x00007f0f048594ba 
Actual: 7f0f048594ba

Block 674:
  0x00007f0f048594ba  0f b1 32             cmpxchg %esi (%rdx)[4byte] %eax -> (%rdx)[4byte] %eax 
  0x00007f0f048594bd  74 16                jz     $0x00007f0f048594d5 
Actual: 7f0f048594d5

Block 675:
  0x00007f0f048594d5  48 8b 93 88 00 00 00 mov    0x00000088(%rbx)[8byte] -> %rdx 
  0x00007f0f048594dc  8b 03                mov    (%rbx)[4byte] -> %eax 
  0x00007f0f048594de  4c 89 42 08          mov    %r8 -> 0x08(%rdx)[8byte] 
  0x00007f0f048594e2  83 42 04 01          add    $0x00000001 0x04(%rdx)[4byte] -> 0x04(%rdx)[4byte] 
  0x00007f0f048594e6  89 c2                mov    %eax -> %edx 
  0x00007f0f048594e8  81 e2 00 80 00 00    and    $0x00008000 %edx -> %edx 
  0x00007f0f048594ee  f6 c4 20             test   %ah $0x20 
  0x00007f0f048594f1  0f 84 89 fe ff ff    jz     $0x00007f0f04859380 
Actual: 7f0f048594f7

Block 676:
  0x00007f0f048594f7  48 89 df             mov    %rbx -> %rdi 
  0x00007f0f048594fa  e8 51 c2 00 00       call   $0x00007f0f04865750 %rsp -> %rsp 0xfffffff8(%rsp)[8byte] 
  0x00007f0f04865750  41 54                push   %r12 %rsp -> %rsp 0xfffffff8(%rsp)[8byte] 
  0x00007f0f04865752  55                   push   %rbp %rsp -> %rsp 0xfffffff8(%rsp)[8byte] 
  0x00007f0f04865753  53                   push   %rbx %rsp -> %rsp 0xfffffff8(%rsp)[8byte] 
  0x00007f0f04865754  8b 6f 70             mov    0x70(%rdi)[4byte] -> %ebp 
  0x00007f0f04865757  83 fd ff             cmp    %ebp $0xffffffff 
  0x00007f0f0486575a  0f 84 f4 00 00 00    jz     $0x00007f0f04865854 
Actual: 7f0f04865760

Block 677:
  0x00007f0f04865760  8b 07                mov    (%rdi)[4byte] -> %eax 
  0x00007f0f04865762  45 31 e4             xor    %r12d %r12d -> %r12d 
  0x00007f0f04865765  48 89 fb             mov    %rdi -> %rbx 
  0x00007f0f04865768  25 08 08 00 00       and    $0x00000808 %eax -> %eax 
  0x00007f0f0486576d  3d 00 08 00 00       cmp    %eax $0x00000800 
  0x00007f0f04865772  0f 84 08 01 00 00    jz     $0x00007f0f04865880 
Actual: 7f0f04865778

Block 678:
  0x00007f0f04865778  48 89 df             mov    %rbx -> %rdi 
  0x00007f0f0486577b  31 ed                xor    %ebp %ebp -> %ebp 
  0x00007f0f0486577d  e8 2e 30 00 00       call   $0x00007f0f048687b0 %rsp -> %rsp 0xfffffff8(%rsp)[8byte] 
  0x00007f0f048687b0  53                   push   %rbx %rsp -> %rsp 0xfffffff8(%rsp)[8byte] 
  0x00007f0f048687b1  48 83 7f 60 00       cmp    0x60(%rdi)[8byte] $0x0000000000000000 
  0x00007f0f048687b6  48 89 fb             mov    %rdi -> %rbx 
  0x00007f0f048687b9  74 08                jz     $0x00007f0f048687c3 
Actual: 7f0f048687c3

Block 679:
  0x00007f0f048687c3  48 8b 7b 48          mov    0x48(%rbx)[8byte] -> %rdi 
  0x00007f0f048687c7  48 85 ff             test   %rdi %rdi 
  0x00007f0f048687ca  74 25                jz     $0x00007f0f048687f1 
Actual: 7f0f048687f1

Block 680:
  0x00007f0f048687f1  5b                   pop    %rsp (%rsp)[8byte] -> %rbx %rsp 
  0x00007f0f048687f2  c3                   ret    %rsp (%rsp)[8byte] -> %rsp 
Actual: 7f0f04865782

Block 681:
  0x00007f0f04865782  f6 43 74 20          test   0x74(%rbx)[1byte] $0x20 
  0x00007f0f04865786  0f 84 d4 00 00 00    jz     $0x00007f0f04865860 
Actual: 7f0f04865860

Block 682:
  0x00007f0f04865860  48 8b 83 d8 00 00 00 mov    0x000000d8(%rbx)[8byte] -> %rax 
  0x00007f0f04865867  48 89 df             mov    %rbx -> %rdi 
  0x00007f0f0486586a  ff 90 88 00 00 00    call   0x00000088(%rax)[8byte] %rsp -> %rsp 0xfffffff8(%rsp)[8byte] 
Actual: 7f0f04864240

Block 683:
  0x00007f0f04864240  48 63 7f 70          movsxd 0x70(%rdi)[4byte] -> %rdi 
  0x00007f0f04864244  b8 03 00 00 00       mov    $0x00000003 -> %eax 
  0x00007f0f04864249  0f 05                syscall -> %rcx 
Actual: 7f0f0486424b

Block 684:
  0x00007f0f0486424b  48 3d 00 f0 ff ff    cmp    %rax $0xfffffffffffff000 
  0x00007f0f04864251  76 11                jbe    $0x00007f0f04864264 
Actual: 7f0f04864264

Block 685:
  0x00007f0f04864264  f3 c3                ret    %rsp (%rsp)[8byte] -> %rsp 
Actual: 7f0f04865870

Block 686:
  0x00007f0f04865870  89 c5                mov    %eax -> %ebp 
  0x00007f0f04865872  e9 15 ff ff ff       jmp    $0x00007f0f0486578c 
  0x00007f0f0486578c  8b 83 c0 00 00 00    mov    0x000000c0(%rbx)[4byte] -> %eax 
  0x00007f0f04865792  85 c0                test   %eax %eax 
  0x00007f0f04865794  7e 5a                jle    $0x00007f0f048657f0 
Actual: 7f0f048657f0

Block 687:
  0x00007f0f048657f0  31 c9                xor    %ecx %ecx -> %ecx 
  0x00007f0f048657f2  31 d2                xor    %edx %edx -> %edx 
  0x00007f0f048657f4  31 f6                xor    %esi %esi -> %esi 
  0x00007f0f048657f6  48 89 df             mov    %rbx -> %rdi 
  0x00007f0f048657f9  e8 82 1b 00 00       call   $0x00007f0f04867380 %rsp -> %rsp 0xfffffff8(%rsp)[8byte] 
  0x00007f0f04867380  53                   push   %rbx %rsp -> %rsp 0xfffffff8(%rsp)[8byte] 
  0x00007f0f04867381  48 89 fb             mov    %rdi -> %rbx 
  0x00007f0f04867384  48 83 ec 20          sub    $0x0000000000000020 %rsp -> %rsp 
  0x00007f0f04867388  48 8b 7f 38          mov    0x38(%rdi)[8byte] -> %rdi 
  0x00007f0f0486738c  8b 03                mov    (%rbx)[4byte] -> %eax 
  0x00007f0f0486738e  48 85 ff             test   %rdi %rdi 
  0x00007f0f04867391  74 04                jz     $0x00007f0f04867397 
Actual: 7f0f04867397

Block 688:
  0x00007f0f04867397  48 89 53 40          mov    %rdx -> 0x40(%rbx)[8byte] 
  0x00007f0f0486739b  89 c2                mov    %eax -> %edx 
  0x00007f0f0486739d  83 c8 01             or     $0x00000001 %eax -> %eax 
  0x00007f0f048673a0  83 e2 fe             and    $0xfffffffe %edx -> %edx 
  0x00007f0f048673a3  85 c9                test   %ecx %ecx 
  0x00007f0f048673a5  48 89 73 38          mov    %rsi -> 0x38(%rbx)[8byte] 
  0x00007f0f048673a9  0f 45 c2             cmovnz %edx %eax -> %eax 
  0x00007f0f048673ac  89 03                mov    %eax -> (%rbx)[4byte] 
  0x00007f0f048673ae  48 83 c4 20          add    $0x0000000000000020 %rsp -> %rsp 
  0x00007f0f048673b2  5b                   pop    %rsp (%rsp)[8byte] -> %rbx %rsp 
  0x00007f0f048673b3  c3                   ret    %rsp (%rsp)[8byte] -> %rsp 
Actual: 7f0f048657fe

Block 689:
  0x00007f0f048657fe  48 c7 43 18 00 00 00 mov    $0x0000000000000000 -> 0x18(%rbx)[8byte] 
                      00
  0x00007f0f04865806  48 c7 43 08 00 00 00 mov    $0x0000000000000000 -> 0x08(%rbx)[8byte] 
                      00
  0x00007f0f0486580e  48 89 df             mov    %rbx -> %rdi 
  0x00007f0f04865811  48 c7 43 10 00 00 00 mov    $0x0000000000000000 -> 0x10(%rbx)[8byte] 
                      00
  0x00007f0f04865819  48 c7 43 28 00 00 00 mov    $0x0000000000000000 -> 0x28(%rbx)[8byte] 
                      00
  0x00007f0f04865821  48 c7 43 20 00 00 00 mov    $0x0000000000000000 -> 0x20(%rbx)[8byte] 
                      00
  0x00007f0f04865829  48 c7 43 30 00 00 00 mov    $0x0000000000000000 -> 0x30(%rbx)[8byte] 
                      00
  0x00007f0f04865831  e8 0a 10 00 00       call   $0x00007f0f04866840 %rsp -> %rsp 0xfffffff8(%rsp)[8byte] 
  0x00007f0f04866840  f6 07 80             test   (%rdi)[1byte] $0x80 
  0x00007f0f04866843  0f 84 db 01 00 00    jz     $0x00007f0f04866a24 
Actual: 7f0f04866a24

Block 690:
  0x00007f0f04866a24  f3 c3                ret    %rsp (%rsp)[8byte] -> %rsp 
Actual: 7f0f04865836

Block 691:
  0x00007f0f04865836  85 ed                test   %ebp %ebp 
  0x00007f0f04865838  c7 03 0c 24 ad fb    mov    $0xfbad240c -> (%rbx)[4byte] 
  0x00007f0f0486583e  c7 43 70 ff ff ff ff mov    $0xffffffff -> 0x70(%rbx)[4byte] 
  0x00007f0f04865845  48 c7 83 90 00 00 00 mov    $0xffffffffffffffff -> 0x00000090(%rbx)[8byte] 
                      ff ff ff ff
  0x00007f0f04865850  41 0f 44 ec          cmovz  %r12d %ebp -> %ebp 
  0x00007f0f04865854  89 e8                mov    %ebp -> %eax 
  0x00007f0f04865856  5b                   pop    %rsp (%rsp)[8byte] -> %rbx %rsp 
  0x00007f0f04865857  5d                   pop    %rsp (%rsp)[8byte] -> %rbp %rsp 
  0x00007f0f04865858  41 5c                pop    %rsp (%rsp)[8byte] -> %r12 %rsp 
  0x00007f0f0486585a  c3                   ret    %rsp (%rsp)[8byte] -> %rsp 
Actual: 7f0f048594ff

Block 692:
  0x00007f0f048594ff  8b 13                mov    (%rbx)[4byte] -> %edx 
  0x00007f0f04859501  89 c5                mov    %eax -> %ebp 
  0x00007f0f04859503  81 e2 00 80 00 00    and    $0x00008000 %edx -> %edx 
  0x00007f0f04859509  e9 7a fe ff ff       jmp    $0x00007f0f04859388 
  0x00007f0f04859388  85 d2                test   %edx %edx 
  0x00007f0f0485938a  75 11                jnz    $0x00007f0f0485939d 
Actual: 7f0f0485938c

Block 693:
  0x00007f0f0485938c  48 8b 93 88 00 00 00 mov    0x00000088(%rbx)[8byte] -> %rdx 
  0x00007f0f04859393  83 6a 04 01          sub    $0x00000001 0x04(%rdx)[4byte] -> 0x04(%rdx)[4byte] 
  0x00007f0f04859397  0f 84 73 01 00 00    jz     $0x00007f0f04859510 
Actual: 7f0f04859510

Block 694:
  0x00007f0f04859510  48 c7 42 08 00 00 00 mov    $0x0000000000000000 -> 0x08(%rdx)[8byte] 
                      00
  0x00007f0f04859518  83 3d e1 61 35 00 00 cmp    <rel> 0x00007f0f04baf700[4byte] $0x00000000 
  0x00007f0f0485951f  74 07                jz     $0x00007f0f04859528 
Actual: 7f0f04859528

Block 695:
  0x00007f0f04859528  ff 0a                dec    (%rdx)[4byte] -> (%rdx)[4byte] 
  0x00007f0f0485952a  74 16                jz     $0x00007f0f04859542 
Actual: 7f0f04859542

Block 696:
  0x00007f0f04859542  e9 56 fe ff ff       jmp    $0x00007f0f0485939d 
  0x00007f0f0485939d  48 8b 83 d8 00 00 00 mov    0x000000d8(%rbx)[8byte] -> %rax 
  0x00007f0f048593a4  31 f6                xor    %esi %esi -> %esi 
  0x00007f0f048593a6  48 89 df             mov    %rbx -> %rdi 
  0x00007f0f048593a9  ff 50 10             call   0x10(%rax)[8byte] %rsp -> %rsp 0xfffffff8(%rsp)[8byte] 
Actual: 7f0f048658d0

Block 697:
  0x00007f0f048658d0  53                   push   %rbx %rsp -> %rsp 0xfffffff8(%rsp)[8byte] 
  0x00007f0f048658d1  83 7f 70 ff          cmp    0x70(%rdi)[4byte] $0xffffffff 
  0x00007f0f048658d5  48 89 fb             mov    %rdi -> %rbx 
  0x00007f0f048658d8  74 2a                jz     $0x00007f0f04865904 
Actual: 7f0f04865904

Block 698:
  0x00007f0f04865904  48 89 df             mov    %rbx -> %rdi 
  0x00007f0f04865907  31 f6                xor    %esi %esi -> %esi 
  0x00007f0f04865909  5b                   pop    %rsp (%rsp)[8byte] -> %rbx %rsp 
  0x00007f0f0486590a  e9 91 21 00 00       jmp    $0x00007f0f04867aa0 
  0x00007f0f04867aa0  55                   push   %rbp %rsp -> %rsp 0xfffffff8(%rsp)[8byte] 
  0x00007f0f04867aa1  53                   push   %rbx %rsp -> %rsp 0xfffffff8(%rsp)[8byte] 
  0x00007f0f04867aa2  48 89 fb             mov    %rdi -> %rbx 
  0x00007f0f04867aa5  48 83 ec 28          sub    $0x0000000000000028 %rsp -> %rsp 
  0x00007f0f04867aa9  48 8b 7f 38          mov    0x38(%rdi)[8byte] -> %rdi 
  0x00007f0f04867aad  48 85 ff             test   %rdi %rdi 
  0x00007f0f04867ab0  74 09                jz     $0x00007f0f04867abb 
Actual: 7f0f04867abb

Block 699:
  0x00007f0f04867abb  48 8b 43 60          mov    0x60(%rbx)[8byte] -> %rax 
  0x00007f0f04867abf  48 85 c0             test   %rax %rax 
  0x00007f0f04867ac2  74 14                jz     $0x00007f0f04867ad8 
Actual: 7f0f04867ad8

Block 700:
  0x00007f0f04867ad8  48 8b 7b 48          mov    0x48(%rbx)[8byte] -> %rdi 
  0x00007f0f04867adc  48 85 ff             test   %rdi %rdi 
  0x00007f0f04867adf  74 0d                jz     $0x00007f0f04867aee 
Actual: 7f0f04867aee

Block 701:
  0x00007f0f04867aee  f6 03 80             test   (%rbx)[1byte] $0x80 
  0x00007f0f04867af1  75 0d                jnz    $0x00007f0f04867b00 
Actual: 7f0f04867af3

Block 702:
  0x00007f0f04867af3  48 83 c4 28          add    $0x0000000000000028 %rsp -> %rsp 
  0x00007f0f04867af7  5b                   pop    %rsp (%rsp)[8byte] -> %rbx %rsp 
  0x00007f0f04867af8  5d                   pop    %rsp (%rsp)[8byte] -> %rbp %rsp 
  0x00007f0f04867af9  c3                   ret    %rsp (%rsp)[8byte] -> %rsp 
Actual: 7f0f048593ac

Block 703:
  0x00007f0f048593ac  8b 83 c0 00 00 00    mov    0x000000c0(%rbx)[4byte] -> %eax 
  0x00007f0f048593b2  85 c0                test   %eax %eax 
  0x00007f0f048593b4  0f 8e 96 01 00 00    jle    $0x00007f0f04859550 
Actual: 7f0f04859550

Block 704:
  0x00007f0f04859550  48 83 7b 48 00       cmp    0x48(%rbx)[8byte] $0x0000000000000000 
  0x00007f0f04859555  0f 84 f2 fe ff ff    jz     $0x00007f0f0485944d 
Actual: 7f0f0485944d

Block 705:
  0x00007f0f0485944d  48 3b 1d 9c 22 35 00 cmp    %rbx <rel> 0x00007f0f04bab6f0[8byte] 
  0x00007f0f04859454  74 1a                jz     $0x00007f0f04859470 
Actual: 7f0f04859470

Block 706:
  0x00007f0f04859470  89 e8                mov    %ebp -> %eax 
  0x00007f0f04859472  5b                   pop    %rsp (%rsp)[8byte] -> %rbx %rsp 
  0x00007f0f04859473  5d                   pop    %rsp (%rsp)[8byte] -> %rbp %rsp 
  0x00007f0f04859474  41 5c                pop    %rsp (%rsp)[8byte] -> %r12 %rsp 
  0x00007f0f04859476  c3                   ret    %rsp (%rsp)[8byte] -> %rsp 
Actual: 55e94ebf4eba

Block 707:
  0x000055e94ebf4eba  83 e3 20             and    $0x00000020 %ebx -> %ebx 
  0x000055e94ebf4ebd  85 db                test   %ebx %ebx 
  0x000055e94ebf4ebf  75 17                jnz    $0x000055e94ebf4ed8 
Actual: 55e94ebf4ec1

Block 708:
  0x000055e94ebf4ec1  85 c0                test   %eax %eax 
  0x000055e94ebf4ec3  74 0a                jz     $0x000055e94ebf4ecf 
Actual: 55e94ebf4ecf

Block 709:
  0x000055e94ebf4ecf  5b                   pop    %rsp (%rsp)[8byte] -> %rbx %rsp 
  0x000055e94ebf4ed0  5d                   pop    %rsp (%rsp)[8byte] -> %rbp %rsp 
  0x000055e94ebf4ed1  41 5c                pop    %rsp (%rsp)[8byte] -> %r12 %rsp 
  0x000055e94ebf4ed3  c3                   ret    %rsp (%rsp)[8byte] -> %rsp 
Actual: 55e94ebebe97

Block 710:
  0x000055e94ebebe97  85 c0                test   %eax %eax 
  0x000055e94ebebe99  75 2e                jnz    $0x000055e94ebebec9 
Actual: 55e94ebebe9b

Block 711:
  0x000055e94ebebe9b  45 84 e4             test   %r12l %r12l 
  0x000055e94ebebe9e  75 29                jnz    $0x000055e94ebebec9 
Actual: 55e94ebebea0

Block 712:
  0x000055e94ebebea0  5b                   pop    %rsp (%rsp)[8byte] -> %rbx %rsp 
  0x000055e94ebebea1  5d                   pop    %rsp (%rsp)[8byte] -> %rbp %rsp 
  0x000055e94ebebea2  41 5c                pop    %rsp (%rsp)[8byte] -> %r12 %rsp 
  0x000055e94ebebea4  e9 d7 00 00 00       jmp    $0x000055e94ebebf80 
  0x000055e94ebebf80  55                   push   %rbp %rsp -> %rsp 0xfffffff8(%rsp)[8byte] 
  0x000055e94ebebf81  53                   push   %rbx %rsp -> %rsp 0xfffffff8(%rsp)[8byte] 
  0x000055e94ebebf82  48 83 ec 08          sub    $0x0000000000000008 %rsp -> %rsp 
  0x000055e94ebebf86  48 8b 05 03 2c 21 00 mov    <rel> 0x000055e94edfeb90[8byte] -> %rax 
  0x000055e94ebebf8d  48 8b 38             mov    (%rax)[8byte] -> %rdi 
  0x000055e94ebebf90  e8 0b 8f 00 00       call   $0x000055e94ebf4ea0 %rsp -> %rsp 0xfffffff8(%rsp)[8byte] 
  0x000055e94ebf4ea0  41 54                push   %r12 %rsp -> %rsp 0xfffffff8(%rsp)[8byte] 
  0x000055e94ebf4ea2  55                   push   %rbp %rsp -> %rsp 0xfffffff8(%rsp)[8byte] 
  0x000055e94ebf4ea3  48 89 fd             mov    %rdi -> %rbp 
  0x000055e94ebf4ea6  53                   push   %rbx %rsp -> %rsp 0xfffffff8(%rsp)[8byte] 
  0x000055e94ebf4ea7  e8 6c e0 fe ff       call   $0x000055e94ebe2f18 %rsp -> %rsp 0xfffffff8(%rsp)[8byte] 
  0x000055e94ebe2f18  ff 25 8a bc 21 00    jmp    <rel> 0x000055e94edfeba8[8byte] 
Actual: 7f0f048632e0

Block 713:
  0x00007f0f04863209  81 e2 04 08 00 00    and    $0x00000804 %edx -> %edx 
  0x00007f0f0486320f  75 14                jnz    $0x00007f0f04863225 
Actual: 7f0f04863225

Block 714:
  0x00007f0f04863225  f3 c3                ret    %rsp (%rsp)[8byte] -> %rsp 
Actual: 55e94ebf5a08

Block 715:
  0x000055e94ebf5a0c  48 89 df             mov    %rbx -> %rdi 
  0x000055e94ebf5a0f  e8 ec c1 ff ff       call   $0x000055e94ebf1c00 %rsp -> %rsp 0xfffffff8(%rsp)[8byte] 
  0x000055e94ebf1c00  48 85 ff             test   %rdi %rdi 
  0x000055e94ebf1c03  53                   push   %rbx %rsp -> %rsp 0xfffffff8(%rsp)[8byte] 
  0x000055e94ebf1c04  48 89 fb             mov    %rdi -> %rbx 
  0x000055e94ebf1c07  74 11                jz     $0x000055e94ebf1c1a 
Actual: 55e94ebf1c09

Block 716:
  0x000055e94ebf1c09  e8 ca 15 ff ff       call   $0x000055e94ebe31d8 %rsp -> %rsp 0xfffffff8(%rsp)[8byte] 
  0x000055e94ebe31d8  ff 25 aa bc 21 00    jmp    <rel> 0x000055e94edfee88[8byte] 
Actual: 7f0f04863200

Block 717:
  0x000055e94ebf1c0e  85 c0                test   %eax %eax 
  0x000055e94ebf1c10  74 08                jz     $0x000055e94ebf1c1a 
Actual: 55e94ebf1c1a

Block 718:
  0x000055e94ebf1c1a  48 89 df             mov    %rbx -> %rdi 
  0x000055e94ebf1c1d  5b                   pop    %rsp (%rsp)[8byte] -> %rbx %rsp 
  0x000055e94ebf1c1e  e9 7d 15 ff ff       jmp    $0x000055e94ebe31a0 
  0x000055e94ebe31a0  ff 25 aa bc 21 00    jmp    <rel> 0x000055e94edfee50[8byte] 
Actual: 7f0f048598a0

Block 719:
  0x00007f0f048598a0  48 85 ff             test   %rdi %rdi 
  0x00007f0f048598a3  0f 84 c7 00 00 00    jz     $0x00007f0f04859970 
Actual: 7f0f048598a9

Block 720:
  0x00007f0f048598a9  53                   push   %rbx %rsp -> %rsp 0xfffffff8(%rsp)[8byte] 
  0x00007f0f048598aa  8b 07                mov    (%rdi)[4byte] -> %eax 
  0x00007f0f048598ac  48 89 fb             mov    %rdi -> %rbx 
  0x00007f0f048598af  25 00 80 00 00       and    $0x00008000 %eax -> %eax 
  0x00007f0f048598b4  75 59                jnz    $0x00007f0f0485990f 
Actual: 7f0f048598b6

Block 721:
  0x00007f0f048598b6  4c 8b 87 88 00 00 00 mov    0x00000088(%rdi)[8byte] -> %r8 
  0x00007f0f048598bd  64 4c 8b 0c 25 10 00 mov    %fs:0x10[8byte] -> %r9 
                      00 00
  0x00007f0f048598c6  4d 3b 48 08          cmp    %r9 0x08(%r8)[8byte] 
  0x00007f0f048598ca  74 3e                jz     $0x00007f0f0485990a 
Actual: 7f0f048598cc

Block 722:
  0x00007f0f048598cc  be 01 00 00 00       mov    $0x00000001 -> %esi 
  0x00007f0f048598d1  83 3d 28 5e 35 00 00 cmp    <rel> 0x00007f0f04baf700[4byte] $0x00000000 
  0x00007f0f048598d8  74 09                jz     $0x00007f0f048598e3 
Actual: 7f0f048598e3

Block 723:
  0x00007f0f048598e3  41 0f b1 30          cmpxchg %esi (%r8)[4byte] %eax -> (%r8)[4byte] %eax 
  0x00007f0f048598e7  74 16                jz     $0x00007f0f048598ff 
Actual: 7f0f048598ff

Block 724:
  0x00007f0f048598ff  4c 8b 83 88 00 00 00 mov    0x00000088(%rbx)[8byte] -> %r8 
  0x00007f0f04859906  4d 89 48 08          mov    %r9 -> 0x08(%r8)[8byte] 
  0x00007f0f0485990a  41 83 40 04 01       add    $0x00000001 0x04(%r8)[4byte] -> 0x04(%r8)[4byte] 
  0x00007f0f0485990f  48 8b 83 d8 00 00 00 mov    0x000000d8(%rbx)[8byte] -> %rax 
  0x00007f0f04859916  48 89 df             mov    %rbx -> %rdi 
  0x00007f0f04859919  ff 50 60             call   0x60(%rax)[8byte] %rsp -> %rsp 0xfffffff8(%rsp)[8byte] 
Actual: 7f0f04864270

Block 725:
  0x00007f0f04864270  53                   push   %rbx %rsp -> %rsp 0xfffffff8(%rsp)[8byte] 
  0x00007f0f04864271  48 8b 57 28          mov    0x28(%rdi)[8byte] -> %rdx 
  0x00007f0f04864275  48 89 fb             mov    %rdi -> %rbx 
  0x00007f0f04864278  48 8b 77 20          mov    0x20(%rdi)[8byte] -> %rsi 
  0x00007f0f0486427c  48 39 f2             cmp    %rdx %rsi 
  0x00007f0f0486427f  76 2e                jbe    $0x00007f0f048642af 
Actual: 7f0f048642af

Block 726:
  0x00007f0f048642af  48 8b 73 08          mov    0x08(%rbx)[8byte] -> %rsi 
  0x00007f0f048642b3  48 2b 73 10          sub    0x10(%rbx)[8byte] %rsi -> %rsi 
  0x00007f0f048642b7  75 17                jnz    $0x00007f0f048642d0 
Actual: 7f0f048642b9

Block 727:
  0x00007f0f048642b9  48 c7 83 90 00 00 00 mov    $0xffffffffffffffff -> 0x00000090(%rbx)[8byte] 
                      ff ff ff ff
  0x00007f0f048642c4  31 c0                xor    %eax %eax -> %eax 
  0x00007f0f048642c6  5b                   pop    %rsp (%rsp)[8byte] -> %rbx %rsp 
  0x00007f0f048642c7  c3                   ret    %rsp (%rsp)[8byte] -> %rsp 
Actual: 7f0f0485991c

Block 728:
  0x00007f0f0485991c  31 d2                xor    %edx %edx -> %edx 
  0x00007f0f0485991e  85 c0                test   %eax %eax 
  0x00007f0f04859920  0f 95 c2             setnz  -> %dl 
  0x00007f0f04859923  f7 da                neg    %edx -> %edx 
  0x00007f0f04859925  f7 03 00 80 00 00    test   (%rbx)[4byte] $0x00008000 
  0x00007f0f0485992b  75 3f                jnz    $0x00007f0f0485996c 
Actual: 7f0f0485992d

Block 729:
  0x00007f0f0485992d  48 8b b3 88 00 00 00 mov    0x00000088(%rbx)[8byte] -> %rsi 
  0x00007f0f04859934  83 6e 04 01          sub    $0x00000001 0x04(%rsi)[4byte] -> 0x04(%rsi)[4byte] 
  0x00007f0f04859938  75 32                jnz    $0x00007f0f0485996c 
Actual: 7f0f0485993a

Block 730:
  0x00007f0f0485993a  48 c7 46 08 00 00 00 mov    $0x0000000000000000 -> 0x08(%rsi)[8byte] 
                      00
  0x00007f0f04859942  83 3d b7 5d 35 00 00 cmp    <rel> 0x00007f0f04baf700[4byte] $0x00000000 
  0x00007f0f04859949  74 07                jz     $0x00007f0f04859952 
Actual: 7f0f04859952

Block 731:
  0x00007f0f04859952  ff 0e                dec    (%rsi)[4byte] -> (%rsi)[4byte] 
  0x00007f0f04859954  74 16                jz     $0x00007f0f0485996c 
Actual: 7f0f0485996c

Block 732:
  0x00007f0f0485996c  89 d0                mov    %edx -> %eax 
  0x00007f0f0485996e  5b                   pop    %rsp (%rsp)[8byte] -> %rbx %rsp 
  0x00007f0f0485996f  c3                   ret    %rsp (%rsp)[8byte] -> %rsp 
Actual: 55e94ebf5a14

Block 733:
  0x000055e94ebf5a14  85 c0                test   %eax %eax 
  0x000055e94ebf5a16  74 3c                jz     $0x000055e94ebf5a54 
Actual: 55e94ebf5a54

Block 734:
  0x00007f0f04866973  e9 9f 01 00 00       jmp    $0x00007f0f04866b17 
  0x00007f0f04866b17  48 8d 4f 68          lea    0x68(%rdi) -> %rcx 
  0x00007f0f04866b1b  eb a7                jmp    $0x00007f0f04866ac4 
  0x00007f0f04866ac4  48 8b 53 68          mov    0x68(%rbx)[8byte] -> %rdx 
  0x00007f0f04866ac8  83 05 69 5c 34 00 01 add    $0x00000001 <rel> 0x00007f0f04bac738[4byte] -> <rel> 0x00007f0f04bac738[4byte] 
  0x00007f0f04866acf  48 89 11             mov    %rdx -> (%rcx)[8byte] 
  0x00007f0f04866ad2  e9 be fe ff ff       jmp    $0x00007f0f04866995 
  0x00007f0f04866995  40 80 e6 7f          and    $0x7f %sil -> %sil 
  0x00007f0f04866999  85 c0                test   %eax %eax 
  0x00007f0f0486699b  89 33                mov    %esi -> (%rbx)[4byte] 
  0x00007f0f0486699d  0f 85 bf 00 00 00    jnz    $0x00007f0f04866a62 
Actual: 7f0f048669a3

Block 735:
  0x00007f0f04859456  48 3b 1d 8b 22 35 00 cmp    %rbx <rel> 0x00007f0f04bab6e8[8byte] 
  0x00007f0f0485945d  74 11                jz     $0x00007f0f04859470 
Actual: 7f0f04859470

Block 736:
  0x000055e94ebebf95  85 c0                test   %eax %eax 
  0x000055e94ebebf97  74 13                jz     $0x000055e94ebebfac 
Actual: 55e94ebebfac

Block 737:
  0x000055e94ebebfac  48 8b 05 35 30 21 00 mov    <rel> 0x000055e94edfefe8[8byte] -> %rax 
  0x000055e94ebebfb3  48 8b 38             mov    (%rax)[8byte] -> %rdi 
  0x000055e94ebebfb6  e8 e5 8e 00 00       call   $0x000055e94ebf4ea0 %rsp -> %rsp 0xfffffff8(%rsp)[8byte] 
  0x000055e94ebf4ea0  41 54                push   %r12 %rsp -> %rsp 0xfffffff8(%rsp)[8byte] 
  0x000055e94ebf4ea2  55                   push   %rbp %rsp -> %rsp 0xfffffff8(%rsp)[8byte] 
  0x000055e94ebf4ea3  48 89 fd             mov    %rdi -> %rbp 
  0x000055e94ebf4ea6  53                   push   %rbx %rsp -> %rsp 0xfffffff8(%rsp)[8byte] 
  0x000055e94ebf4ea7  e8 6c e0 fe ff       call   $0x000055e94ebe2f18 %rsp -> %rsp 0xfffffff8(%rsp)[8byte] 
  0x000055e94ebe2f18  ff 25 8a bc 21 00    jmp    <rel> 0x000055e94edfeba8[8byte] 
Actual: 7f0f048632e0

Block 738:
  0x00007f0f04866b00  48 8b 53 68          mov    0x68(%rbx)[8byte] -> %rdx 
  0x00007f0f04866b04  83 05 2d 5c 34 00 01 add    $0x00000001 <rel> 0x00007f0f04bac738[4byte] -> <rel> 0x00007f0f04bac738[4byte] 
  0x00007f0f04866b0b  48 89 15 ee 49 34 00 mov    %rdx -> <rel> 0x00007f0f04bab500[8byte] 
  0x00007f0f04866b12  e9 7e fe ff ff       jmp    $0x00007f0f04866995 
  0x00007f0f04866995  40 80 e6 7f          and    $0x7f %sil -> %sil 
  0x00007f0f04866999  85 c0                test   %eax %eax 
  0x00007f0f0486699b  89 33                mov    %esi -> (%rbx)[4byte] 
  0x00007f0f0486699d  0f 85 bf 00 00 00    jnz    $0x00007f0f04866a62 
Actual: 7f0f048669a3

Block 739:
  0x00007f0f0485945f  48 3b 1d 7a 22 35 00 cmp    %rbx <rel> 0x00007f0f04bab6e0[8byte] 
  0x00007f0f04859466  74 08                jz     $0x00007f0f04859470 
Actual: 7f0f04859470

Block 740:
  0x000055e94ebebfbb  85 c0                test   %eax %eax 
  0x000055e94ebebfbd  75 4e                jnz    $0x000055e94ebec00d 
Actual: 55e94ebebfbf

Block 741:
  0x000055e94ebebfbf  48 83 c4 08          add    $0x0000000000000008 %rsp -> %rsp 
  0x000055e94ebebfc3  5b                   pop    %rsp (%rsp)[8byte] -> %rbx %rsp 
  0x000055e94ebebfc4  5d                   pop    %rsp (%rsp)[8byte] -> %rbp %rsp 
  0x000055e94ebebfc5  c3                   ret    %rsp (%rsp)[8byte] -> %rsp 
Actual: 7f0f048271e8

Block 742:
  0x00007f0f048271e8  e9 33 ff ff ff       jmp    $0x00007f0f04827120 
  0x00007f0f04827120  49 8b 45 08          mov    0x08(%r13)[8byte] -> %rax 
  0x00007f0f04827124  48 89 c2             mov    %rax -> %rdx 
  0x00007f0f04827127  48 c1 e2 05          shl    $0x0000000000000005 %rdx -> %rdx 
  0x00007f0f0482712b  48 85 c0             test   %rax %rax 
  0x00007f0f0482712e  49 8d 4c 15 f0       lea    0xfffffff0(%r13,%rdx,1) -> %rcx 
  0x00007f0f04827133  74 2a                jz     $0x00007f0f0482715f 
Actual: 7f0f04827135

Block 743:
  0x00007f0f05c331c0  55                   push   %rbp %rsp -> %rsp 0xfffffff8(%rsp)[8byte] 
  0x00007f0f05c331c1  48 89 e5             mov    %rsp -> %rbp 
  0x00007f0f05c331c4  41 57                push   %r15 %rsp -> %rsp 0xfffffff8(%rsp)[8byte] 
  0x00007f0f05c331c6  41 56                push   %r14 %rsp -> %rsp 0xfffffff8(%rsp)[8byte] 
  0x00007f0f05c331c8  41 55                push   %r13 %rsp -> %rsp 0xfffffff8(%rsp)[8byte] 
  0x00007f0f05c331ca  41 54                push   %r12 %rsp -> %rsp 0xfffffff8(%rsp)[8byte] 
  0x00007f0f05c331cc  53                   push   %rbx %rsp -> %rsp 0xfffffff8(%rsp)[8byte] 
  0x00007f0f05c331cd  48 83 ec 78          sub    $0x0000000000000078 %rsp -> %rsp 
  0x00007f0f05c331d1  48 8b 05 28 47 21 00 mov    <rel> 0x00007f0f05e47900[8byte] -> %rax 
  0x00007f0f05c331d8  48 83 e8 01          sub    $0x0000000000000001 %rax -> %rax 
  0x00007f0f05c331dc  48 89 45 c8          mov    %rax -> 0xffffffc8(%rbp)[8byte] 
  0x00007f0f05c331e0  0f 88 77 04 00 00    js     $0x00007f0f05c3365d 
Actual: 7f0f05c331e6

Block 744:
  0x00007f0f05c331e6  c7 45 a4 00 00 00 00 mov    $0x00000000 -> 0xffffffa4(%rbp)[4byte] 
  0x00007f0f05c331ed  48 8d 04 c0          lea    (%rax,%rax,8) -> %rax 
  0x00007f0f05c331f1  48 8d 0d 08 3e 21 00 lea    <rel> 0x00007f0f05e47000 -> %rcx 
  0x00007f0f05c331f8  48 c1 e0 04          shl    $0x0000000000000004 %rax -> %rax 
  0x00007f0f05c331fc  4c 8d 3c 01          lea    (%rcx,%rax,1) -> %r15 
  0x00007f0f05c33200  eb 2d                jmp    $0x00007f0f05c3322f 
  0x00007f0f05c3322f  48 8d 3d d2 46 21 00 lea    <rel> 0x00007f0f05e47908 -> %rdi 
  0x00007f0f05c33236  ff 15 cc 4c 21 00    call   <rel> 0x00007f0f05e47f08[8byte] %rsp -> %rsp 0xfffffff8(%rsp)[8byte] 
Actual: 7f0f051ee9a0

Block 745:
  0x00007f0f051ee9a0  8b 57 10             mov    0x10(%rdi)[4byte] -> %edx 
  0x00007f0f051ee9a3  49 89 f8             mov    %rdi -> %r8 
  0x00007f0f051ee9a6  89 d1                mov    %edx -> %ecx 
  0x00007f0f051ee9a8  81 e1 7f 01 00 00    and    $0x0000017f %ecx -> %ecx 
  0x00007f0f051ee9ae  90                   nop    
  0x00007f0f051ee9af  89 d0                mov    %edx -> %eax 
  0x00007f0f051ee9b1  83 e0 7c             and    $0x0000007c %eax -> %eax 
  0x00007f0f051ee9b4  75 7a                jnz    $0x00007f0f051eea30 
Actual: 7f0f051ee9b6

Block 746:
  0x00007f0f051ee9b6  85 c9                test   %ecx %ecx 
  0x00007f0f051ee9b8  75 7e                jnz    $0x00007f0f051eea38 
Actual: 7f0f051eea38

Block 747:
  0x00007f0f051eea38  81 f9 00 01 00 00    cmp    %ecx $0x00000100 
  0x00007f0f051eea3e  74 8f                jz     $0x00007f0f051ee9cf 
Actual: 7f0f051eea40

Block 748:
  0x00007f0f051eea40  89 d7                mov    %edx -> %edi 
  0x00007f0f051eea42  83 e7 7f             and    $0x0000007f %edi -> %edi 
  0x00007f0f051eea45  83 ff 01             cmp    %edi $0x00000001 
  0x00007f0f051eea48  75 54                jnz    $0x00007f0f051eea9e 
Actual: 7f0f051eea4a

Block 749:
  0x00007f0f051eea4a  64 8b 0c 25 d0 02 00 mov    %fs:0x000002d0[4byte] -> %ecx 
                      00
  0x00007f0f051eea52  41 3b 48 08          cmp    %ecx 0x08(%r8)[4byte] 
  0x00007f0f051eea56  74 2f                jz     $0x00007f0f051eea87 
Actual: 7f0f051eea58

Block 750:
  0x00007f0f051eea58  81 e2 80 00 00 00    and    $0x00000080 %edx -> %edx 
  0x00007f0f051eea5e  89 d6                mov    %edx -> %esi 
  0x00007f0f051eea60  f0 41 0f b1 38       lock cmpxchg %edi (%r8)[4byte] %eax -> (%r8)[4byte] %eax 
  0x00007f0f051eea65  74 16                jz     $0x00007f0f051eea7d 
Actual: 7f0f051eea7d

Block 751:
  0x00007f0f051eea7d  41 c7 40 04 01 00 00 mov    $0x00000001 -> 0x04(%r8)[4byte] 
                      00
  0x00007f0f051eea85  eb 8d                jmp    $0x00007f0f051eea14 
  0x00007f0f051eea14  64 8b 04 25 d0 02 00 mov    %fs:0x000002d0[4byte] -> %eax 
                      00
  0x00007f0f051eea1c  41 89 40 08          mov    %eax -> 0x08(%r8)[4byte] 
  0x00007f0f051eea20  41 83 40 0c 01       add    $0x00000001 0x0c(%r8)[4byte] -> 0x0c(%r8)[4byte] 
  0x00007f0f051eea25  90                   nop    
  0x00007f0f051eea26  31 c0                xor    %eax %eax -> %eax 
  0x00007f0f051eea28  c3                   ret    %rsp (%rsp)[8byte] -> %rsp 
Actual: 7f0f05c3323c

Block 752:
  0x00007f0f05c3323c  41 8b 4f 08          mov    0x08(%r15)[4byte] -> %ecx 
  0x00007f0f05c33240  85 c9                test   %ecx %ecx 
  0x00007f0f05c33242  74 c4                jz     $0x00007f0f05c33208 
Actual: 7f0f05c33244

Block 753:
  0x00007f0f05c33244  49 8b 07             mov    (%r15)[8byte] -> %rax 
  0x00007f0f05c33247  0f b6 90 15 03 00 00 movzx  0x00000315(%rax)[1byte] -> %edx 
  0x00007f0f05c3324e  c0 ea 03             shr    $0x03 %dl -> %dl 
  0x00007f0f05c33251  89 d6                mov    %edx -> %esi 
  0x00007f0f05c33253  83 e6 01             and    $0x00000001 %esi -> %esi 
  0x00007f0f05c33256  3b 75 a4             cmp    %esi 0xffffffa4(%rbp)[4byte] 
  0x00007f0f05c33259  89 75 b0             mov    %esi -> 0xffffffb0(%rbp)[4byte] 
  0x00007f0f05c3325c  75 aa                jnz    $0x00007f0f05c33208 
Actual: 7f0f05c3325e

Block 754:
  0x00007f0f05c3325e  48 8d 14 cd 16 00 00 lea    0x16(,%rcx,8) -> %rdx 
                      00
  0x00007f0f05c33266  48 89 65 98          mov    %rsp -> 0xffffff98(%rbp)[8byte] 
  0x00007f0f05c3326a  48 c1 ea 04          shr    $0x0000000000000004 %rdx -> %rdx 
  0x00007f0f05c3326e  48 c1 e2 04          shl    $0x0000000000000004 %rdx -> %rdx 
  0x00007f0f05c33272  48 29 d4             sub    %rdx %rsp -> %rsp 
  0x00007f0f05c33275  31 d2                xor    %edx %edx -> %edx 
  0x00007f0f05c33277  48 89 65 b8          mov    %rsp -> 0xffffffb8(%rbp)[8byte] 
  0x00007f0f05c3327b  eb 0c                jmp    $0x00007f0f05c33289 
  0x00007f0f05c33289  48 39 40 28          cmp    0x28(%rax)[8byte] %rax 
  0x00007f0f05c3328d  75 f1                jnz    $0x00007f0f05c33280 
Actual: 7f0f05c3328f

Block 755:
  0x00007f0f05c3328f  48 8b 75 b8          mov    0xffffffb8(%rbp)[8byte] -> %rsi 
  0x00007f0f05c33293  89 d1                mov    %edx -> %ecx 
  0x00007f0f05c33295  89 90 dc 03 00 00    mov    %edx -> 0x000003dc(%rax)[4byte] 
  0x00007f0f05c3329b  83 80 10 03 00 00 01 add    $0x00000001 0x00000310(%rax)[4byte] -> 0x00000310(%rax)[4byte] 
  0x00007f0f05c332a2  83 c2 01             add    $0x00000001 %edx -> %edx 
  0x00007f0f05c332a5  48 89 04 ce          mov    %rax -> (%rsi,%rcx,8)[8byte] 
  0x00007f0f05c332a9  48 8b 40 18          mov    0x18(%rax)[8byte] -> %rax 
  0x00007f0f05c332ad  48 85 c0             test   %rax %rax 
  0x00007f0f05c332b0  75 d7                jnz    $0x00007f0f05c33289 
Actual: 7f0f05c33289

Block 756:
  0x00007f0f05c33289  48 39 40 28          cmp    0x28(%rax)[8byte] %rax 
  0x00007f0f05c3328d  75 f1                jnz    $0x00007f0f05c33280 
Actual: 7f0f05c3328f

Block 757:
  0x00007f0f05c332b2  66 0f 1f 44 00 00    data16 nop    0x00(%rax,%rax,1)[4byte] 
  0x00007f0f05c332b8  89 d0                mov    %edx -> %eax 
  0x00007f0f05c332ba  48 89 a5 70 ff ff ff mov    %rsp -> 0xffffff70(%rbp)[8byte] 
  0x00007f0f05c332c1  48 83 f8 01          cmp    %rax $0x0000000000000001 
  0x00007f0f05c332c5  89 45 b4             mov    %eax -> 0xffffffb4(%rbp)[4byte] 
  0x00007f0f05c332c8  48 89 45 c0          mov    %rax -> 0xffffffc0(%rbp)[8byte] 
  0x00007f0f05c332cc  0f 84 d6 02 00 00    jz     $0x00007f0f05c335a8 
Actual: 7f0f05c332d2

Block 758:
  0x00007f0f05c332d2  31 c9                xor    %ecx %ecx -> %ecx 
  0x00007f0f05c332d4  48 8d 14 00          lea    (%rax,%rax,1) -> %rdx 
  0x00007f0f05c332d8  48 83 7d c8 00       cmp    0xffffffc8(%rbp)[8byte] $0x0000000000000000 
  0x00007f0f05c332dd  48 8d 42 10          lea    0x10(%rdx) -> %rax 
  0x00007f0f05c332e1  0f 94 c1             setz   -> %cl 
  0x00007f0f05c332e4  48 c1 e8 04          shr    $0x0000000000000004 %rax -> %rax 
  0x00007f0f05c332e8  31 f6                xor    %esi %esi -> %esi 
  0x00007f0f05c332ea  48 c1 e0 04          shl    $0x0000000000000004 %rax -> %rax 
  0x00007f0f05c332ee  89 cb                mov    %ecx -> %ebx 
  0x00007f0f05c332f0  48 29 c4             sub    %rax %rsp -> %rsp 
  0x00007f0f05c332f3  89 5d a8             mov    %ebx -> 0xffffffa8(%rbp)[4byte] 
  0x00007f0f05c332f6  89 db                mov    %ebx -> %ebx 
  0x00007f0f05c332f8  48 89 e7             mov    %rsp -> %rdi 
  0x00007f0f05c332fb  49 89 e5             mov    %rsp -> %r13 
  0x00007f0f05c332fe  44 8d 73 01          lea    0x01(%rbx) -> %r14d 
  0x00007f0f05c33302  e8 79 cb 00 00       call   $0x00007f0f05c3fe80 %rsp -> %rsp 0xfffffff8(%rsp)[8byte] 
  0x00007f0f05c3fe80  66 0f 6e c6          movd   %esi -> %xmm0 
  0x00007f0f05c3fe84  48 89 f8             mov    %rdi -> %rax 
  0x00007f0f05c3fe87  66 0f 60 c0          punpcklbw %xmm0 %xmm0 -> %xmm0 
  0x00007f0f05c3fe8b  66 0f 61 c0          punpcklwd %xmm0 %xmm0 -> %xmm0 
  0x00007f0f05c3fe8f  66 0f 70 c0 00       pshufd %xmm0 $0x00 -> %xmm0 
  0x00007f0f05c3fe94  48 83 fa 40          cmp    %rdx $0x0000000000000040 
  0x00007f0f05c3fe98  77 36                jnbe   $0x00007f0f05c3fed0 
Actual: 7f0f05c3fe9a

Block 759:
  0x00007f0f05c3fe9a  48 83 fa 10          cmp    %rdx $0x0000000000000010 
  0x00007f0f05c3fe9e  0f 86 8a 00 00 00    jbe    $0x00007f0f05c3ff2e 
Actual: 7f0f05c3fea4

Block 760:
  0x00007f0f05c3fea4  48 83 fa 20          cmp    %rdx $0x0000000000000020 
  0x00007f0f05c3fea8  f3 0f 7f 07          movdqu %xmm0 -> (%rdi)[16byte] 
  0x00007f0f05c3feac  f3 0f 7f 44 17 f0    movdqu %xmm0 -> 0xfffffff0(%rdi,%rdx,1)[16byte] 
  0x00007f0f05c3feb2  77 0c                jnbe   $0x00007f0f05c3fec0 
Actual: 7f0f05c3feb4

Block 761:
  0x00007f0f05c3feb4  f3 c3                ret    %rsp (%rsp)[8byte] -> %rsp 
Actual: 7f0f05c33307

Block 762:
  0x00007f0f05c33307  eb 35                jmp    $0x00007f0f05c3333e 
  0x00007f0f05c3333e  4d 8d 4c 5d 00       lea    0x00(%r13,%rbx,2) -> %r9 
  0x00007f0f05c33343  41 0f b7 01          movzx  (%r9)[2byte] -> %eax 
  0x00007f0f05c33347  8d 48 01             lea    0x01(%rax) -> %ecx 
  0x00007f0f05c3334a  48 8b 45 b8          mov    0xffffffb8(%rbp)[8byte] -> %rax 
  0x00007f0f05c3334e  66 41 89 09          data16 mov    %cx -> (%r9)[2byte] 
  0x00007f0f05c33352  48 8d 3c d8          lea    (%rax,%rbx,8) -> %rdi 
  0x00007f0f05c33356  4c 8b 27             mov    (%rdi)[8byte] -> %r12 
  0x00007f0f05c33359  4d 3b 64 24 28       cmp    %r12 0x28(%r12)[8byte] 
  0x00007f0f05c3335e  75 b0                jnz    $0x00007f0f05c33310 
Actual: 7f0f05c33360

Block 763:
  0x00007f0f05c33360  41 83 bc 24 dc 03 00 cmp    0x000003dc(%r12)[4byte] $0xffffffff 
                      00 ff
  0x00007f0f05c33369  74 a5                jz     $0x00007f0f05c33310 
Actual: 7f0f05c3336b

Block 764:
  0x00007f0f05c3336b  8b 45 b4             mov    0xffffffb4(%rbp)[4byte] -> %eax 
  0x00007f0f05c3336e  44 8d 50 ff          lea    0xffffffff(%rax) -> %r10d 
  0x00007f0f05c33372  44 39 55 a8          cmp    0xffffffa8(%rbp)[4byte] %r10d 
  0x00007f0f05c33376  73 98                jnb    $0x00007f0f05c33310 
Actual: 7f0f05c33378

Block 765:
  0x00007f0f05c33378  48 8b 45 b8          mov    0xffffffb8(%rbp)[8byte] -> %rax 
  0x00007f0f05c3337c  44 89 d2             mov    %r10d -> %edx 
  0x00007f0f05c3337f  4c 8d 1c d0          lea    (%rax,%rdx,8) -> %r11 
  0x00007f0f05c33383  49 8b 03             mov    (%r11)[8byte] -> %rax 
  0x00007f0f05c33386  48 8b b0 b8 03 00 00 mov    0x000003b8(%rax)[8byte] -> %rsi 
  0x00007f0f05c3338d  48 85 f6             test   %rsi %rsi 
  0x00007f0f05c33390  0f 84 ea 01 00 00    jz     $0x00007f0f05c33580 
Actual: 7f0f05c33396

Block 766:
  0x00007f0f05c33396  66 2e 0f 1f 84 00 00 data16 nop    %cs:0x00000000(%rax,%rax,1)[4byte] 
                      00 00 00
  0x00007f0f05c333a0  4c 8b 06             mov    (%rsi)[8byte] -> %r8 
  0x00007f0f05c333a3  4d 85 c0             test   %r8 %r8 
  0x00007f0f05c333a6  0f 84 d4 01 00 00    jz     $0x00007f0f05c33580 
Actual: 7f0f05c333ac

Block 767:
  0x00007f0f05c333ac  48 83 c6 08          add    $0x0000000000000008 %rsi -> %rsi 
  0x00007f0f05c333b0  4d 39 c4             cmp    %r12 %r8 
  0x00007f0f05c333b3  75 eb                jnz    $0x00007f0f05c333a0 
Actual: 7f0f05c333a0

Block 768:
  0x00007f0f05c333a0  4c 8b 06             mov    (%rsi)[8byte] -> %r8 
  0x00007f0f05c333a3  4d 85 c0             test   %r8 %r8 
  0x00007f0f05c333a6  0f 84 d4 01 00 00    jz     $0x00007f0f05c33580 
Actual: 7f0f05c333ac

Block 769:
  0x00007f0f05c33580  48 8b b0 c0 03 00 00 mov    0x000003c0(%rax)[8byte] -> %rsi 
  0x00007f0f05c33587  48 85 f6             test   %rsi %rsi 
  0x00007f0f05c3358a  0f 85 e5 00 00 00    jnz    $0x00007f0f05c33675 
Actual: 7f0f05c33590

Block 770:
  0x00007f0f05c33590  41 83 ea 01          sub    $0x00000001 %r10d -> %r10d 
  0x00007f0f05c33594  44 39 55 a8          cmp    0xffffffa8(%rbp)[4byte] %r10d 
  0x00007f0f05c33598  0f 82 da fd ff ff    jb     $0x00007f0f05c33378 
Actual: 7f0f05c33378

Block 771:
  0x00007f0f05c3359e  e9 6d fd ff ff       jmp    $0x00007f0f05c33310 
  0x00007f0f05c33310  44 89 f3             mov    %r14d -> %ebx 
  0x00007f0f05c33313  48 39 5d c0          cmp    0xffffffc0(%rbp)[8byte] %rbx 
  0x00007f0f05c33317  44 89 75 a8          mov    %r14d -> 0xffffffa8(%rbp)[4byte] 
  0x00007f0f05c3331b  49 89 d8             mov    %rbx -> %r8 
  0x00007f0f05c3331e  0f 84 0c 01 00 00    jz     $0x00007f0f05c33430 
Actual: 7f0f05c33324

Block 772:
  0x00007f0f05c33324  48 8b 55 c0          mov    0xffffffc0(%rbp)[8byte] -> %rdx 
  0x00007f0f05c33328  4b 8d 7c 45 00       lea    0x00(%r13,%r8,2) -> %rdi 
  0x00007f0f05c3332d  31 f6                xor    %esi %esi -> %esi 
  0x00007f0f05c3332f  41 83 c6 01          add    $0x00000001 %r14d -> %r14d 
  0x00007f0f05c33333  4c 29 c2             sub    %r8 %rdx -> %rdx 
  0x00007f0f05c33336  48 01 d2             add    %rdx %rdx -> %rdx 
  0x00007f0f05c33339  e8 42 cb 00 00       call   $0x00007f0f05c3fe80 %rsp -> %rsp 0xfffffff8(%rsp)[8byte] 
  0x00007f0f05c3fe80  66 0f 6e c6          movd   %esi -> %xmm0 
  0x00007f0f05c3fe84  48 89 f8             mov    %rdi -> %rax 
  0x00007f0f05c3fe87  66 0f 60 c0          punpcklbw %xmm0 %xmm0 -> %xmm0 
  0x00007f0f05c3fe8b  66 0f 61 c0          punpcklwd %xmm0 %xmm0 -> %xmm0 
  0x00007f0f05c3fe8f  66 0f 70 c0 00       pshufd %xmm0 $0x00 -> %xmm0 
  0x00007f0f05c3fe94  48 83 fa 40          cmp    %rdx $0x0000000000000040 
  0x00007f0f05c3fe98  77 36                jnbe   $0x00007f0f05c3fed0 
Actual: 7f0f05c3fe9a

Block 773:
  0x00007f0f05c3333e  4d 8d 4c 5d 00       lea    0x00(%r13,%rbx,2) -> %r9 
  0x00007f0f05c33343  41 0f b7 01          movzx  (%r9)[2byte] -> %eax 
  0x00007f0f05c33347  8d 48 01             lea    0x01(%rax) -> %ecx 
  0x00007f0f05c3334a  48 8b 45 b8          mov    0xffffffb8(%rbp)[8byte] -> %rax 
  0x00007f0f05c3334e  66 41 89 09          data16 mov    %cx -> (%r9)[2byte] 
  0x00007f0f05c33352  48 8d 3c d8          lea    (%rax,%rbx,8) -> %rdi 
  0x00007f0f05c33356  4c 8b 27             mov    (%rdi)[8byte] -> %r12 
  0x00007f0f05c33359  4d 3b 64 24 28       cmp    %r12 0x28(%r12)[8byte] 
  0x00007f0f05c3335e  75 b0                jnz    $0x00007f0f05c33310 
Actual: 7f0f05c33360

Block 774:
  0x00007f0f05c333b5  44 2b 55 a8          sub    0xffffffa8(%rbp)[4byte] %r10d -> %r10d 
  0x00007f0f05c333b9  48 8b 45 b8          mov    0xffffffb8(%rbp)[8byte] -> %rax 
  0x00007f0f05c333bd  45 89 f0             mov    %r14d -> %r8d 
  0x00007f0f05c333c0  48 89 95 68 ff ff ff mov    %rdx -> 0xffffff68(%rbp)[8byte] 
  0x00007f0f05c333c7  4c 89 8d 78 ff ff ff mov    %r9 -> 0xffffff78(%rbp)[8byte] 
  0x00007f0f05c333ce  4c 89 5d 80          mov    %r11 -> 0xffffff80(%rbp)[8byte] 
  0x00007f0f05c333d2  89 4d a0             mov    %ecx -> 0xffffffa0(%rbp)[4byte] 
  0x00007f0f05c333d5  4a 8d 34 c0          lea    (%rax,%r8,8) -> %rsi 
  0x00007f0f05c333d9  4c 89 45 90          mov    %r8 -> 0xffffff90(%rbp)[8byte] 
  0x00007f0f05c333dd  4a 8d 14 d5 00 00 00 lea    0x00(,%r10,8) -> %rdx 
                      00
  0x00007f0f05c333e5  4c 89 55 88          mov    %r10 -> 0xffffff88(%rbp)[8byte] 
  0x00007f0f05c333e9  e8 82 c7 00 00       call   $0x00007f0f05c3fb70 %rsp -> %rsp 0xfffffff8(%rsp)[8byte] 
  0x00007f0f05c3fb70  41 55                push   %r13 %rsp -> %rsp 0xfffffff8(%rsp)[8byte] 
  0x00007f0f05c3fb72  48 89 f8             mov    %rdi -> %rax 
  0x00007f0f05c3fb75  41 54                push   %r12 %rsp -> %rsp 0xfffffff8(%rsp)[8byte] 
  0x00007f0f05c3fb77  55                   push   %rbp %rsp -> %rsp 0xfffffff8(%rsp)[8byte] 
  0x00007f0f05c3fb78  53                   push   %rbx %rsp -> %rsp 0xfffffff8(%rsp)[8byte] 
  0x00007f0f05c3fb79  48 29 f0             sub    %rsi %rax -> %rax 
  0x00007f0f05c3fb7c  49 89 fc             mov    %rdi -> %r12 
  0x00007f0f05c3fb7f  48 83 ec 08          sub    $0x0000000000000008 %rsp -> %rsp 
  0x00007f0f05c3fb83  48 39 d0             cmp    %rax %rdx 
  0x00007f0f05c3fb86  0f 82 54 01 00 00    jb     $0x00007f0f05c3fce0 
Actual: 7f0f05c3fb8c

Block 775:
  0x00007f0f05c3fb8c  48 83 fa 0f          cmp    %rdx $0x000000000000000f 
  0x00007f0f05c3fb90  48 89 fd             mov    %rdi -> %rbp 
  0x00007f0f05c3fb93  48 89 f3             mov    %rsi -> %rbx 
  0x00007f0f05c3fb96  76 5d                jbe    $0x00007f0f05c3fbf5 
Actual: 7f0f05c3fb98

Block 776:
  0x00007f0f05c3fb98  48 89 f9             mov    %rdi -> %rcx 
  0x00007f0f05c3fb9b  48 f7 d9             neg    %rcx -> %rcx 
  0x00007f0f05c3fb9e  83 e1 07             and    $0x00000007 %ecx -> %ecx 
  0x00007f0f05c3fba1  48 29 ca             sub    %rcx %rdx -> %rdx 
  0x00007f0f05c3fba4  48 85 c9             test   %rcx %rcx 
  0x00007f0f05c3fba7  49 89 d5             mov    %rdx -> %r13 
  0x00007f0f05c3fbaa  74 1b                jz     $0x00007f0f05c3fbc7 
Actual: 7f0f05c3fbc7

Block 777:
  0x00007f0f05c3fbc7  4c 89 ea             mov    %r13 -> %rdx 
  0x00007f0f05c3fbca  48 89 de             mov    %rbx -> %rsi 
  0x00007f0f05c3fbcd  48 89 ef             mov    %rbp -> %rdi 
  0x00007f0f05c3fbd0  48 c1 ea 03          shr    $0x0000000000000003 %rdx -> %rdx 
  0x00007f0f05c3fbd4  f6 c3 07             test   %bl $0x07 
  0x00007f0f05c3fbd7  0f 84 83 02 00 00    jz     $0x00007f0f05c3fe60 
Actual: 7f0f05c3fe60

Block 778:
  0x00007f0f05c3fe60  e8 9b 04 00 00       call   $0x00007f0f05c40300 %rsp -> %rsp 0xfffffff8(%rsp)[8byte] 
  0x00007f0f05c40300  48 8d 0d 69 14 00 00 lea    <rel> 0x00007f0f05c41770 -> %rcx 
  0x00007f0f05c40307  48 89 d0             mov    %rdx -> %rax 
  0x00007f0f05c4030a  83 e0 07             and    $0x00000007 %eax -> %eax 
  0x00007f0f05c4030d  48 63 04 81          movsxd (%rcx,%rax,4)[4byte] -> %rax 
  0x00007f0f05c40311  48 01 c8             add    %rcx %rax -> %rax 
  0x00007f0f05c40314  ff e0                jmp    %rax 
Actual: 7f0f05c40398

Block 779:
  0x00007f0f05c40398  48 85 d2             test   %rdx %rdx 
  0x00007f0f05c4039b  0f 84 9a 00 00 00    jz     $0x00007f0f05c4043b 
Actual: 7f0f05c403a1

Block 780:
  0x00007f0f05c403a1  48 8b 06             mov    (%rsi)[8byte] -> %rax 
  0x00007f0f05c403a4  48 83 ef 08          sub    $0x0000000000000008 %rdi -> %rdi 
  0x00007f0f05c403a8  eb ce                jmp    $0x00007f0f05c40378 
  0x00007f0f05c40378  48 8b 4e 08          mov    0x08(%rsi)[8byte] -> %rcx 
  0x00007f0f05c4037c  48 89 47 08          mov    %rax -> 0x08(%rdi)[8byte] 
  0x00007f0f05c40380  48 8b 46 10          mov    0x10(%rsi)[8byte] -> %rax 
  0x00007f0f05c40384  48 89 4f 10          mov    %rcx -> 0x10(%rdi)[8byte] 
  0x00007f0f05c40388  48 8b 4e 18          mov    0x18(%rsi)[8byte] -> %rcx 
  0x00007f0f05c4038c  48 89 47 18          mov    %rax -> 0x18(%rdi)[8byte] 
  0x00007f0f05c40390  eb ae                jmp    $0x00007f0f05c40340 
  0x00007f0f05c40340  48 8b 46 20          mov    0x20(%rsi)[8byte] -> %rax 
  0x00007f0f05c40344  48 89 4f 20          mov    %rcx -> 0x20(%rdi)[8byte] 
  0x00007f0f05c40348  48 8b 4e 28          mov    0x28(%rsi)[8byte] -> %rcx 
  0x00007f0f05c4034c  48 89 47 28          mov    %rax -> 0x28(%rdi)[8byte] 
  0x00007f0f05c40350  48 8b 46 30          mov    0x30(%rsi)[8byte] -> %rax 
  0x00007f0f05c40354  48 89 4f 30          mov    %rcx -> 0x30(%rdi)[8byte] 
  0x00007f0f05c40358  48 8b 4e 38          mov    0x38(%rsi)[8byte] -> %rcx 
  0x00007f0f05c4035c  48 83 c7 40          add    $0x0000000000000040 %rdi -> %rdi 
  0x00007f0f05c40360  48 89 47 f8          mov    %rax -> 0xfffffff8(%rdi)[8byte] 
  0x00007f0f05c40364  48 83 ea 08          sub    $0x0000000000000008 %rdx -> %rdx 
  0x00007f0f05c40368  0f 84 ca 00 00 00    jz     $0x00007f0f05c40438 
Actual: 7f0f05c40438

Block 781:
  0x00007f0f05c40438  48 89 0f             mov    %rcx -> (%rdi)[8byte] 
  0x00007f0f05c4043b  f3 c3                ret    %rsp (%rsp)[8byte] -> %rsp 
Actual: 7f0f05c3fe65

Block 782:
  0x00007f0f05c3fe65  e9 78 fd ff ff       jmp    $0x00007f0f05c3fbe2 
  0x00007f0f05c3fbe2  4c 89 e8             mov    %r13 -> %rax 
  0x00007f0f05c3fbe5  4c 89 ea             mov    %r13 -> %rdx 
  0x00007f0f05c3fbe8  48 83 e0 f8          and    $0xfffffffffffffff8 %rax -> %rax 
  0x00007f0f05c3fbec  83 e2 07             and    $0x00000007 %edx -> %edx 
  0x00007f0f05c3fbef  48 01 c3             add    %rax %rbx -> %rbx 
  0x00007f0f05c3fbf2  48 01 c5             add    %rax %rbp -> %rbp 
  0x00007f0f05c3fbf5  48 85 d2             test   %rdx %rdx 
  0x00007f0f05c3fbf8  0f 84 cc 00 00 00    jz     $0x00007f0f05c3fcca 
Actual: 7f0f05c3fcca

Block 783:
  0x00007f0f05c3fcca  48 83 c4 08          add    $0x0000000000000008 %rsp -> %rsp 
  0x00007f0f05c3fcce  4c 89 e0             mov    %r12 -> %rax 
  0x00007f0f05c3fcd1  5b                   pop    %rsp (%rsp)[8byte] -> %rbx %rsp 
  0x00007f0f05c3fcd2  5d                   pop    %rsp (%rsp)[8byte] -> %rbp %rsp 
  0x00007f0f05c3fcd3  41 5c                pop    %rsp (%rsp)[8byte] -> %r12 %rsp 
  0x00007f0f05c3fcd5  41 5d                pop    %rsp (%rsp)[8byte] -> %r13 %rsp 
  0x00007f0f05c3fcd7  c3                   ret    %rsp (%rsp)[8byte] -> %rsp 
Actual: 7f0f05c333ee

Block 784:
  0x00007f0f05c333ee  4c 8b 45 90          mov    0xffffff90(%rbp)[8byte] -> %r8 
  0x00007f0f05c333f2  48 8b 45 c0          mov    0xffffffc0(%rbp)[8byte] -> %rax 
  0x00007f0f05c333f6  4c 8b 5d 80          mov    0xffffff80(%rbp)[8byte] -> %r11 
  0x00007f0f05c333fa  4c 8b 55 88          mov    0xffffff88(%rbp)[8byte] -> %r10 
  0x00007f0f05c333fe  8b 4d a0             mov    0xffffffa0(%rbp)[4byte] -> %ecx 
  0x00007f0f05c33401  4c 8b 8d 78 ff ff ff mov    0xffffff78(%rbp)[8byte] -> %r9 
  0x00007f0f05c33408  43 0f b7 54 45 00    movzx  0x00(%r13,%r8,2)[2byte] -> %edx 
  0x00007f0f05c3340e  48 29 d8             sub    %rbx %rax -> %rax 
  0x00007f0f05c33411  4d 89 23             mov    %r12 -> (%r11)[8byte] 
  0x00007f0f05c33414  48 39 c2             cmp    %rdx %rax 
  0x00007f0f05c33417  0f 86 9d 01 00 00    jbe    $0x00007f0f05c335ba 
Actual: 7f0f05c335ba

Block 785:
  0x00007f0f05c335ba  4b 8d 14 12          lea    (%r10,%r10,1) -> %rdx 
  0x00007f0f05c335be  4b 8d 74 45 00       lea    0x00(%r13,%r8,2) -> %rsi 
  0x00007f0f05c335c3  4c 89 cf             mov    %r9 -> %rdi 
  0x00007f0f05c335c6  89 4d 90             mov    %ecx -> 0xffffff90(%rbp)[4byte] 
  0x00007f0f05c335c9  e8 a2 c5 00 00       call   $0x00007f0f05c3fb70 %rsp -> %rsp 0xfffffff8(%rsp)[8byte] 
  0x00007f0f05c3fb70  41 55                push   %r13 %rsp -> %rsp 0xfffffff8(%rsp)[8byte] 
  0x00007f0f05c3fb72  48 89 f8             mov    %rdi -> %rax 
  0x00007f0f05c3fb75  41 54                push   %r12 %rsp -> %rsp 0xfffffff8(%rsp)[8byte] 
  0x00007f0f05c3fb77  55                   push   %rbp %rsp -> %rsp 0xfffffff8(%rsp)[8byte] 
  0x00007f0f05c3fb78  53                   push   %rbx %rsp -> %rsp 0xfffffff8(%rsp)[8byte] 
  0x00007f0f05c3fb79  48 29 f0             sub    %rsi %rax -> %rax 
  0x00007f0f05c3fb7c  49 89 fc             mov    %rdi -> %r12 
  0x00007f0f05c3fb7f  48 83 ec 08          sub    $0x0000000000000008 %rsp -> %rsp 
  0x00007f0f05c3fb83  48 39 d0             cmp    %rax %rdx 
  0x00007f0f05c3fb86  0f 82 54 01 00 00    jb     $0x00007f0f05c3fce0 
Actual: 7f0f05c3fb8c

Block 786:
  0x00007f0f05c3fbdd  e8 5e 08 00 00       call   $0x00007f0f05c40440 %rsp -> %rsp 0xfffffff8(%rsp)[8byte] 
  0x00007f0f05c40440  89 f0                mov    %esi -> %eax 
  0x00007f0f05c40442  48 89 d1             mov    %rdx -> %rcx 
  0x00007f0f05c40445  41 bb 40 00 00 00    mov    $0x00000040 -> %r11d 
  0x00007f0f05c4044b  83 e0 07             and    $0x00000007 %eax -> %eax 
  0x00007f0f05c4044e  83 e1 03             and    $0x00000003 %ecx -> %ecx 
  0x00007f0f05c40451  48 83 e6 f8          and    $0xfffffffffffffff8 %rsi -> %rsi 
  0x00007f0f05c40455  c1 e0 03             shl    $0x00000003 %eax -> %eax 
  0x00007f0f05c40458  53                   push   %rbx %rsp -> %rsp 0xfffffff8(%rsp)[8byte] 
  0x00007f0f05c40459  41 29 c3             sub    %eax %r11d -> %r11d 
  0x00007f0f05c4045c  48 83 f9 02          cmp    %rcx $0x0000000000000002 
  0x00007f0f05c40460  0f 84 e2 00 00 00    jz     $0x00007f0f05c40548 
Actual: 7f0f05c40548

Block 787:
  0x00007f0f05c40548  4c 8b 0e             mov    (%rsi)[8byte] -> %r9 
  0x00007f0f05c4054b  4c 8b 46 08          mov    0x08(%rsi)[8byte] -> %r8 
  0x00007f0f05c4054f  48 83 c2 02          add    $0x0000000000000002 %rdx -> %rdx 
  0x00007f0f05c40553  48 83 ee 08          sub    $0x0000000000000008 %rsi -> %rsi 
  0x00007f0f05c40557  48 83 ef 18          sub    $0x0000000000000018 %rdi -> %rdi 
  0x00007f0f05c4055b  eb 8b                jmp    $0x00007f0f05c404e8 
  0x00007f0f05c404e8  89 c1                mov    %eax -> %ecx 
  0x00007f0f05c404ea  4c 89 c3             mov    %r8 -> %rbx 
  0x00007f0f05c404ed  4c 8b 56 18          mov    0x18(%rsi)[8byte] -> %r10 
  0x00007f0f05c404f1  49 d3 e9             shr    %cl %r9 -> %r9 
  0x00007f0f05c404f4  44 89 d9             mov    %r11d -> %ecx 
  0x00007f0f05c404f7  48 83 c7 20          add    $0x0000000000000020 %rdi -> %rdi 
  0x00007f0f05c404fb  48 d3 e3             shl    %cl %rbx -> %rbx 
  0x00007f0f05c404fe  49 09 d9             or     %rbx %r9 -> %r9 
  0x00007f0f05c40501  4c 89 4f f8          mov    %r9 -> 0xfffffff8(%rdi)[8byte] 
  0x00007f0f05c40505  48 83 ea 04          sub    $0x0000000000000004 %rdx -> %rdx 
  0x00007f0f05c40509  74 9d                jz     $0x00007f0f05c404a8 
Actual: 7f0f05c404a8

Block 788:
  0x00007f0f05c404a8  89 c1                mov    %eax -> %ecx 
  0x00007f0f05c404aa  49 d3 e8             shr    %cl %r8 -> %r8 
  0x00007f0f05c404ad  44 89 d9             mov    %r11d -> %ecx 
  0x00007f0f05c404b0  49 d3 e2             shl    %cl %r10 -> %r10 
  0x00007f0f05c404b3  4d 09 d0             or     %r10 %r8 -> %r8 
  0x00007f0f05c404b6  4c 89 07             mov    %r8 -> (%rdi)[8byte] 
  0x00007f0f05c404b9  5b                   pop    %rsp (%rsp)[8byte] -> %rbx %rsp 
  0x00007f0f05c404ba  c3                   ret    %rsp (%rsp)[8byte] -> %rsp 
Actual: 7f0f05c3fbe2

Block 789:
  0x00007f0f05c3fbe2  4c 89 e8             mov    %r13 -> %rax 
  0x00007f0f05c3fbe5  4c 89 ea             mov    %r13 -> %rdx 
  0x00007f0f05c3fbe8  48 83 e0 f8          and    $0xfffffffffffffff8 %rax -> %rax 
  0x00007f0f05c3fbec  83 e2 07             and    $0x00000007 %edx -> %edx 
  0x00007f0f05c3fbef  48 01 c3             add    %rax %rbx -> %rbx 
  0x00007f0f05c3fbf2  48 01 c5             add    %rax %rbp -> %rbp 
  0x00007f0f05c3fbf5  48 85 d2             test   %rdx %rdx 
  0x00007f0f05c3fbf8  0f 84 cc 00 00 00    jz     $0x00007f0f05c3fcca 
Actual: 7f0f05c3fcca

Block 790:
  0x00007f0f05c335ce  48 8b 85 68 ff ff ff mov    0xffffff68(%rbp)[8byte] -> %rax 
  0x00007f0f05c335d5  8b 4d 90             mov    0xffffff90(%rbp)[4byte] -> %ecx 
  0x00007f0f05c335d8  66 41 89 4c 45 00    data16 mov    %cx -> 0x00(%r13,%rax,2)[2byte] 
  0x00007f0f05c335de  e9 5b fd ff ff       jmp    $0x00007f0f05c3333e 
  0x00007f0f05c3333e  4d 8d 4c 5d 00       lea    0x00(%r13,%rbx,2) -> %r9 
  0x00007f0f05c33343  41 0f b7 01          movzx  (%r9)[2byte] -> %eax 
  0x00007f0f05c33347  8d 48 01             lea    0x01(%rax) -> %ecx 
  0x00007f0f05c3334a  48 8b 45 b8          mov    0xffffffb8(%rbp)[8byte] -> %rax 
  0x00007f0f05c3334e  66 41 89 09          data16 mov    %cx -> (%r9)[2byte] 
  0x00007f0f05c33352  48 8d 3c d8          lea    (%rax,%rbx,8) -> %rdi 
  0x00007f0f05c33356  4c 8b 27             mov    (%rdi)[8byte] -> %r12 
  0x00007f0f05c33359  4d 3b 64 24 28       cmp    %r12 0x28(%r12)[8byte] 
  0x00007f0f05c3335e  75 b0                jnz    $0x00007f0f05c33310 
Actual: 7f0f05c33360

Block 791:
  0x00007f0f05c3ff2e  66 48 0f 7e c1       movd   %xmm0[4byte] -> %rcx 
  0x00007f0f05c3ff33  f6 c2 18             test   %dl $0x18 
  0x00007f0f05c3ff36  75 22                jnz    $0x00007f0f05c3ff5a 
Actual: 7f0f05c3ff5a

Block 792:
  0x00007f0f05c3ff5a  48 89 0f             mov    %rcx -> (%rdi)[8byte] 
  0x00007f0f05c3ff5d  48 89 4c 17 f8       mov    %rcx -> 0xfffffff8(%rdi,%rdx,1)[8byte] 
  0x00007f0f05c3ff62  c3                   ret    %rsp (%rsp)[8byte] -> %rsp 
Actual: 7f0f05c3333e

Block 793:
  0x00007f0f05c40408  48 8b 0e             mov    (%rsi)[8byte] -> %rcx 
  0x00007f0f05c4040b  48 83 c2 03          add    $0x0000000000000003 %rdx -> %rdx 
  0x00007f0f05c4040f  48 83 ee 18          sub    $0x0000000000000018 %rsi -> %rsi 
  0x00007f0f05c40413  48 83 ef 20          sub    $0x0000000000000020 %rdi -> %rdi 
  0x00007f0f05c40417  e9 24 ff ff ff       jmp    $0x00007f0f05c40340 
  0x00007f0f05c40340  48 8b 46 20          mov    0x20(%rsi)[8byte] -> %rax 
  0x00007f0f05c40344  48 89 4f 20          mov    %rcx -> 0x20(%rdi)[8byte] 
  0x00007f0f05c40348  48 8b 4e 28          mov    0x28(%rsi)[8byte] -> %rcx 
  0x00007f0f05c4034c  48 89 47 28          mov    %rax -> 0x28(%rdi)[8byte] 
  0x00007f0f05c40350  48 8b 46 30          mov    0x30(%rsi)[8byte] -> %rax 
  0x00007f0f05c40354  48 89 4f 30          mov    %rcx -> 0x30(%rdi)[8byte] 
  0x00007f0f05c40358  48 8b 4e 38          mov    0x38(%rsi)[8byte] -> %rcx 
  0x00007f0f05c4035c  48 83 c7 40          add    $0x0000000000000040 %rdi -> %rdi 
  0x00007f0f05c40360  48 89 47 f8          mov    %rax -> 0xfffffff8(%rdi)[8byte] 
  0x00007f0f05c40364  48 83 ea 08          sub    $0x0000000000000008 %rdx -> %rdx 
  0x00007f0f05c40368  0f 84 ca 00 00 00    jz     $0x00007f0f05c40438 
Actual: 7f0f05c40438

Block 794:
  0x00007f0f05c3fbf5  48 85 d2             test   %rdx %rdx 
  0x00007f0f05c3fbf8  0f 84 cc 00 00 00    jz     $0x00007f0f05c3fcca 
Actual: 7f0f05c3fbfe

Block 795:
  0x00007f0f05c3fbfe  0f b6 03             movzx  (%rbx)[1byte] -> %eax 
  0x00007f0f05c3fc01  48 83 fa 01          cmp    %rdx $0x0000000000000001 
  0x00007f0f05c3fc05  88 45 00             mov    %al -> 0x00(%rbp)[1byte] 
  0x00007f0f05c3fc08  0f 84 bc 00 00 00    jz     $0x00007f0f05c3fcca 
Actual: 7f0f05c3fc0e

Block 796:
  0x00007f0f05c3fc0e  0f b6 43 01          movzx  0x01(%rbx)[1byte] -> %eax 
  0x00007f0f05c3fc12  48 83 fa 02          cmp    %rdx $0x0000000000000002 
  0x00007f0f05c3fc16  88 45 01             mov    %al -> 0x01(%rbp)[1byte] 
  0x00007f0f05c3fc19  0f 84 ab 00 00 00    jz     $0x00007f0f05c3fcca 
Actual: 7f0f05c3fc1f

Block 797:
  0x00007f0f05c3fc1f  0f b6 43 02          movzx  0x02(%rbx)[1byte] -> %eax 
  0x00007f0f05c3fc23  48 83 fa 03          cmp    %rdx $0x0000000000000003 
  0x00007f0f05c3fc27  88 45 02             mov    %al -> 0x02(%rbp)[1byte] 
  0x00007f0f05c3fc2a  0f 84 9a 00 00 00    jz     $0x00007f0f05c3fcca 
Actual: 7f0f05c3fc30

Block 798:
  0x00007f0f05c3fc30  0f b6 43 03          movzx  0x03(%rbx)[1byte] -> %eax 
  0x00007f0f05c3fc34  48 83 fa 04          cmp    %rdx $0x0000000000000004 
  0x00007f0f05c3fc38  88 45 03             mov    %al -> 0x03(%rbp)[1byte] 
  0x00007f0f05c3fc3b  0f 84 89 00 00 00    jz     $0x00007f0f05c3fcca 
Actual: 7f0f05c3fc41

Block 799:
  0x00007f0f05c3fc41  0f b6 43 04          movzx  0x04(%rbx)[1byte] -> %eax 
  0x00007f0f05c3fc45  48 83 fa 05          cmp    %rdx $0x0000000000000005 
  0x00007f0f05c3fc49  88 45 04             mov    %al -> 0x04(%rbp)[1byte] 
  0x00007f0f05c3fc4c  74 7c                jz     $0x00007f0f05c3fcca 
Actual: 7f0f05c3fc4e

Block 800:
  0x00007f0f05c3fc4e  0f b6 43 05          movzx  0x05(%rbx)[1byte] -> %eax 
  0x00007f0f05c3fc52  48 83 fa 06          cmp    %rdx $0x0000000000000006 
  0x00007f0f05c3fc56  88 45 05             mov    %al -> 0x05(%rbp)[1byte] 
  0x00007f0f05c3fc59  74 6f                jz     $0x00007f0f05c3fcca 
Actual: 7f0f05c3fc5b

Block 801:
  0x00007f0f05c3fc5b  0f b6 43 06          movzx  0x06(%rbx)[1byte] -> %eax 
  0x00007f0f05c3fc5f  48 83 fa 07          cmp    %rdx $0x0000000000000007 
  0x00007f0f05c3fc63  88 45 06             mov    %al -> 0x06(%rbp)[1byte] 
  0x00007f0f05c3fc66  74 62                jz     $0x00007f0f05c3fcca 
Actual: 7f0f05c3fc68

Block 802:
  0x00007f0f05c3fc68  0f b6 43 07          movzx  0x07(%rbx)[1byte] -> %eax 
  0x00007f0f05c3fc6c  48 83 fa 08          cmp    %rdx $0x0000000000000008 
  0x00007f0f05c3fc70  88 45 07             mov    %al -> 0x07(%rbp)[1byte] 
  0x00007f0f05c3fc73  74 55                jz     $0x00007f0f05c3fcca 
Actual: 7f0f05c3fc75

Block 803:
  0x00007f0f05c3fc75  0f b6 43 08          movzx  0x08(%rbx)[1byte] -> %eax 
  0x00007f0f05c3fc79  48 83 fa 09          cmp    %rdx $0x0000000000000009 
  0x00007f0f05c3fc7d  88 45 08             mov    %al -> 0x08(%rbp)[1byte] 
  0x00007f0f05c3fc80  74 48                jz     $0x00007f0f05c3fcca 
Actual: 7f0f05c3fc82

Block 804:
  0x00007f0f05c3fc82  0f b6 43 09          movzx  0x09(%rbx)[1byte] -> %eax 
  0x00007f0f05c3fc86  48 83 fa 0a          cmp    %rdx $0x000000000000000a 
  0x00007f0f05c3fc8a  88 45 09             mov    %al -> 0x09(%rbp)[1byte] 
  0x00007f0f05c3fc8d  74 3b                jz     $0x00007f0f05c3fcca 
Actual: 7f0f05c3fcca

Block 805:
  0x00007f0f05c403d8  48 8b 0e             mov    (%rsi)[8byte] -> %rcx 
  0x00007f0f05c403db  48 83 c2 05          add    $0x0000000000000005 %rdx -> %rdx 
  0x00007f0f05c403df  48 83 ee 28          sub    $0x0000000000000028 %rsi -> %rsi 
  0x00007f0f05c403e3  48 83 ef 30          sub    $0x0000000000000030 %rdi -> %rdi 
  0x00007f0f05c403e7  e9 64 ff ff ff       jmp    $0x00007f0f05c40350 
  0x00007f0f05c40350  48 8b 46 30          mov    0x30(%rsi)[8byte] -> %rax 
  0x00007f0f05c40354  48 89 4f 30          mov    %rcx -> 0x30(%rdi)[8byte] 
  0x00007f0f05c40358  48 8b 4e 38          mov    0x38(%rsi)[8byte] -> %rcx 
  0x00007f0f05c4035c  48 83 c7 40          add    $0x0000000000000040 %rdi -> %rdi 
  0x00007f0f05c40360  48 89 47 f8          mov    %rax -> 0xfffffff8(%rdi)[8byte] 
  0x00007f0f05c40364  48 83 ea 08          sub    $0x0000000000000008 %rdx -> %rdx 
  0x00007f0f05c40368  0f 84 ca 00 00 00    jz     $0x00007f0f05c40438 
Actual: 7f0f05c40438

Block 806:
  0x00007f0f05c3ff38  f6 c2 04             test   %dl $0x04 
  0x00007f0f05c3ff3b  75 16                jnz    $0x00007f0f05c3ff53 
Actual: 7f0f05c3ff53

Block 807:
  0x00007f0f05c3ff53  89 0f                mov    %ecx -> (%rdi)[4byte] 
  0x00007f0f05c3ff55  89 4c 17 fc          mov    %ecx -> 0xfffffffc(%rdi,%rdx,1)[4byte] 
  0x00007f0f05c3ff59  c3                   ret    %rsp (%rsp)[8byte] -> %rsp 
Actual: 7f0f05c3333e

Block 808:
  0x00007f0f05c3ff3d  f6 c2 01             test   %dl $0x01 
  0x00007f0f05c3ff40  74 02                jz     $0x00007f0f05c3ff44 
Actual: 7f0f05c3ff44

Block 809:
  0x00007f0f05c3ff44  f6 c2 02             test   %dl $0x02 
  0x00007f0f05c3ff47  0f 84 67 ff ff ff    jz     $0x00007f0f05c3feb4 
Actual: 7f0f05c3ff4d

Block 810:
  0x00007f0f05c3ff4d  66 89 4c 10 fe       data16 mov    %cx -> 0xfffffffe(%rax,%rdx,1)[2byte] 
  0x00007f0f05c3ff52  c3                   ret    %rsp (%rsp)[8byte] -> %rsp 
Actual: 7f0f05c3333e

Block 811:
  0x00007f0f05c33310  44 89 f3             mov    %r14d -> %ebx 
  0x00007f0f05c33313  48 39 5d c0          cmp    0xffffffc0(%rbp)[8byte] %rbx 
  0x00007f0f05c33317  44 89 75 a8          mov    %r14d -> 0xffffffa8(%rbp)[4byte] 
  0x00007f0f05c3331b  49 89 d8             mov    %rbx -> %r8 
  0x00007f0f05c3331e  0f 84 0c 01 00 00    jz     $0x00007f0f05c33430 
Actual: 7f0f05c33430

Block 812:
  0x00007f0f05c33430  48 8d 3d d1 44 21 00 lea    <rel> 0x00007f0f05e47908 -> %rdi 
  0x00007f0f05c33437  48 8b a5 70 ff ff ff mov    0xffffff70(%rbp)[8byte] -> %rsp 
  0x00007f0f05c3343e  ff 15 cc 4a 21 00    call   <rel> 0x00007f0f05e47f10[8byte] %rsp -> %rsp 0xfffffff8(%rsp)[8byte] 
Actual: 7f0f051efee0

Block 813:
  0x00007f0f051efee0  8b 77 10             mov    0x10(%rdi)[4byte] -> %esi 
  0x00007f0f051efee3  48 89 fa             mov    %rdi -> %rdx 
  0x00007f0f051efee6  89 f0                mov    %esi -> %eax 
  0x00007f0f051efee8  41 89 f0             mov    %esi -> %r8d 
  0x00007f0f051efeeb  25 7f 01 00 00       and    $0x0000017f %eax -> %eax 
  0x00007f0f051efef0  41 83 e0 7c          and    $0x0000007c %r8d -> %r8d 
  0x00007f0f051efef4  75 3a                jnz    $0x00007f0f051eff30 
Actual: 7f0f051efef6

Block 814:
  0x00007f0f051efef6  85 c0                test   %eax %eax 
  0x00007f0f051efef8  75 46                jnz    $0x00007f0f051eff40 
Actual: 7f0f051eff40

Block 815:
  0x00007f0f051eff40  3d 00 01 00 00       cmp    %eax $0x00000100 
  0x00007f0f051eff45  75 0b                jnz    $0x00007f0f051eff52 
Actual: 7f0f051eff52

Block 816:
  0x00007f0f051eff52  89 f0                mov    %esi -> %eax 
  0x00007f0f051eff54  83 e0 7f             and    $0x0000007f %eax -> %eax 
  0x00007f0f051eff57  83 f8 01             cmp    %eax $0x00000001 
  0x00007f0f051eff5a  75 1d                jnz    $0x00007f0f051eff79 
Actual: 7f0f051eff5c

Block 817:
  0x00007f0f051eff5c  64 8b 04 25 d0 02 00 mov    %fs:0x000002d0[4byte] -> %eax 
                      00
  0x00007f0f051eff64  39 47 08             cmp    0x08(%rdi)[4byte] %eax 
  0x00007f0f051eff67  74 08                jz     $0x00007f0f051eff71 
Actual: 7f0f051eff71

Block 818:
  0x00007f0f051eff71  83 6f 04 01          sub    $0x00000001 0x04(%rdi)[4byte] -> 0x04(%rdi)[4byte] 
  0x00007f0f051eff75  74 83                jz     $0x00007f0f051efefa 
Actual: 7f0f051efefa

Block 819:
  0x00007f0f051efefa  c7 42 08 00 00 00 00 mov    $0x00000000 -> 0x08(%rdx)[4byte] 
  0x00007f0f051eff01  83 6a 0c 01          sub    $0x00000001 0x0c(%rdx)[4byte] -> 0x0c(%rdx)[4byte] 
  0x00007f0f051eff05  81 e6 80 00 00 00    and    $0x00000080 %esi -> %esi 
  0x00007f0f051eff0b  f0 ff 0a             lock dec    (%rdx)[4byte] -> (%rdx)[4byte] 
  0x00007f0f051eff0e  74 16                jz     $0x00007f0f051eff26 
Actual: 7f0f051eff26

Block 820:
  0x00007f0f051eff26  90                   nop    
  0x00007f0f051eff27  44 89 c0             mov    %r8d -> %eax 
  0x00007f0f051eff2a  c3                   ret    %rsp (%rsp)[8byte] -> %rsp 
Actual: 7f0f05c33444

Block 821:
  0x00007f0f05c33444  8b 75 b4             mov    0xffffffb4(%rbp)[4byte] -> %esi 
  0x00007f0f05c33447  85 f6                test   %esi %esi 
  0x00007f0f05c33449  0f 84 c7 00 00 00    jz     $0x00007f0f05c33516 
Actual: 7f0f05c3344f

Block 822:
  0x00007f0f05c3344f  4c 89 7d a8          mov    %r15 -> 0xffffffa8(%rbp)[8byte] 
  0x00007f0f05c33453  4c 8b 7d b8          mov    0xffffffb8(%rbp)[8byte] -> %r15 
  0x00007f0f05c33457  45 31 ed             xor    %r13d %r13d -> %r13d 
  0x00007f0f05c3345a  66 0f 1f 44 00 00    data16 nop    0x00(%rax,%rax,1)[4byte] 
  0x00007f0f05c33460  4b 8b 1c ef          mov    (%r15,%r13,8)[8byte] -> %rbx 
  0x00007f0f05c33464  0f b6 83 14 03 00 00 movzx  0x00000314(%rbx)[1byte] -> %eax 
  0x00007f0f05c3346b  a8 08                test   %al $0x08 
  0x00007f0f05c3346d  0f 84 8a 00 00 00    jz     $0x00007f0f05c334fd 
Actual: 7f0f05c33473

Block 823:
  0x00007f0f05c33473  83 e0 f7             and    $0xfffffff7 %eax -> %eax 
  0x00007f0f05c33476  88 83 14 03 00 00    mov    %al -> 0x00000314(%rbx)[1byte] 
  0x00007f0f05c3347c  48 8b 83 10 01 00 00 mov    0x00000110(%rbx)[8byte] -> %rax 
  0x00007f0f05c33483  48 85 c0             test   %rax %rax 
  0x00007f0f05c33486  0f 84 94 00 00 00    jz     $0x00007f0f05c33520 
Actual: 7f0f05c3348c

Block 824:
  0x00007f0f05c3348c  f6 05 ed 37 21 00 02 test   <rel> 0x00007f0f05e46c80[1byte] $0x02 
  0x00007f0f05c33493  0f 85 9f 00 00 00    jnz    $0x00007f0f05c33538 
Actual: 7f0f05c33499

Block 825:
  0x00007f0f05c33499  4c 8b 60 08          mov    0x08(%rax)[8byte] -> %r12 
  0x00007f0f05c3349d  48 8b 83 20 01 00 00 mov    0x00000120(%rbx)[8byte] -> %rax 
  0x00007f0f05c334a4  4c 03 23             add    (%rbx)[8byte] %r12 -> %r12 
  0x00007f0f05c334a7  48 8b 50 08          mov    0x08(%rax)[8byte] -> %rdx 
  0x00007f0f05c334ab  48 c1 ea 03          shr    $0x0000000000000003 %rdx -> %rdx 
  0x00007f0f05c334af  85 d2                test   %edx %edx 
  0x00007f0f05c334b1  44 8d 72 ff          lea    0xffffffff(%rdx) -> %r14d 
  0x00007f0f05c334b5  75 0c                jnz    $0x00007f0f05c334c3 
Actual: 7f0f05c334c3

Block 826:
  0x00007f0f05c334c3  44 89 f2             mov    %r14d -> %edx 
  0x00007f0f05c334c6  41 ff 14 d4          call   (%r12,%rdx,8)[8byte] %rsp -> %rsp 0xfffffff8(%rsp)[8byte] 
Actual: 55e94ebe3b70

Block 827:
  0x000055e94ebe3b70  80 3d 49 b5 21 00 00 cmp    <rel> 0x000055e94edff0c0[1byte] $0x00 
  0x000055e94ebe3b77  75 27                jnz    $0x000055e94ebe3ba0 
Actual: 55e94ebe3b79

Block 828:
  0x000055e94ebe3b79  48 83 3d 3f b4 21 00 cmp    <rel> 0x000055e94edfefc0[8byte] $0x0000000000000000 
                      00
  0x000055e94ebe3b81  55                   push   %rbp %rsp -> %rsp 0xfffffff8(%rsp)[8byte] 
  0x000055e94ebe3b82  48 89 e5             mov    %rsp -> %rbp 
  0x000055e94ebe3b85  74 0c                jz     $0x000055e94ebe3b93 
Actual: 55e94ebe3b87

Block 829:
  0x000055e94ebe3b87  48 8d 3d d2 aa 21 00 lea    <rel> 0x000055e94edfe660 -> %rdi 
  0x000055e94ebe3b8e  e8 65 f7 ff ff       call   $0x000055e94ebe32f8 %rsp -> %rsp 0xfffffff8(%rsp)[8byte] 
  0x000055e94ebe32f8  ff 25 c2 bc 21 00    jmp    <rel> 0x000055e94edfefc0[8byte] 
Actual: 7f0f048274a0

Block 830:
  0x00007f0f048274a0  41 57                push   %r15 %rsp -> %rsp 0xfffffff8(%rsp)[8byte] 
  0x00007f0f048274a2  41 56                push   %r14 %rsp -> %rsp 0xfffffff8(%rsp)[8byte] 
  0x00007f0f048274a4  41 55                push   %r13 %rsp -> %rsp 0xfffffff8(%rsp)[8byte] 
  0x00007f0f048274a6  41 54                push   %r12 %rsp -> %rsp 0xfffffff8(%rsp)[8byte] 
  0x00007f0f048274a8  45 31 ed             xor    %r13d %r13d -> %r13d 
  0x00007f0f048274ab  55                   push   %rbp %rsp -> %rsp 0xfffffff8(%rsp)[8byte] 
  0x00007f0f048274ac  53                   push   %rbx %rsp -> %rsp 0xfffffff8(%rsp)[8byte] 
  0x00007f0f048274ad  48 89 fd             mov    %rdi -> %rbp 
  0x00007f0f048274b0  48 83 ec 08          sub    $0x0000000000000008 %rsp -> %rsp 
  0x00007f0f048274b4  4c 8b 35 1d 31 38 00 mov    <rel> 0x00007f0f04baa5d8[8byte] -> %r14 
  0x00007f0f048274bb  4d 85 f6             test   %r14 %r14 
  0x00007f0f048274be  0f 84 98 00 00 00    jz     $0x00007f0f0482755c 
Actual: 7f0f048274c4

Block 831:
  0x00007f0f048274c4  0f 1f 40 00          nop    0x00(%rax)[4byte] 
  0x00007f0f048274c8  49 8b 46 08          mov    0x08(%r14)[8byte] -> %rax 
  0x00007f0f048274cc  4d 8d 66 10          lea    0x10(%r14) -> %r12 
  0x00007f0f048274d0  48 c1 e0 05          shl    $0x0000000000000005 %rax -> %rax 
  0x00007f0f048274d4  49 8d 5c 06 f0       lea    0xfffffff0(%r14,%rax,1) -> %rbx 
  0x00007f0f048274d9  4c 39 e3             cmp    %rbx %r12 
  0x00007f0f048274dc  72 72                jb     $0x00007f0f04827550 
Actual: 7f0f04827550

Block 832:
  0x00007f0f04827550  4d 8b 36             mov    (%r14)[8byte] -> %r14 
  0x00007f0f04827553  4d 85 f6             test   %r14 %r14 
  0x00007f0f04827556  0f 85 6c ff ff ff    jnz    $0x00007f0f048274c8 
Actual: 7f0f0482755c

Block 833:
  0x00007f0f0482755c  48 8b 0d 7d 30 38 00 mov    <rel> 0x00007f0f04baa5e0[8byte] -> %rcx 
  0x00007f0f04827563  48 85 c9             test   %rcx %rcx 
  0x00007f0f04827566  74 4f                jz     $0x00007f0f048275b7 
Actual: 7f0f04827568

Block 834:
  0x00007f0f04827568  0f 1f 84 00 00 00 00 nop    0x00000000(%rax,%rax,1)[4byte] 
                      00
  0x00007f0f04827570  48 8b 41 08          mov    0x08(%rcx)[8byte] -> %rax 
  0x00007f0f04827574  48 8d 51 10          lea    0x10(%rcx) -> %rdx 
  0x00007f0f04827578  48 c1 e0 05          shl    $0x0000000000000005 %rax -> %rax 
  0x00007f0f0482757c  48 8d 44 01 f0       lea    0xfffffff0(%rcx,%rax,1) -> %rax 
  0x00007f0f04827581  48 39 d0             cmp    %rax %rdx 
  0x00007f0f04827584  72 29                jb     $0x00007f0f048275af 
Actual: 7f0f048275af

Block 835:
  0x00007f0f048275af  48 8b 09             mov    (%rcx)[8byte] -> %rcx 
  0x00007f0f048275b2  48 85 c9             test   %rcx %rcx 
  0x00007f0f048275b5  75 b9                jnz    $0x00007f0f04827570 
Actual: 7f0f048275b7

Block 836:
  0x00007f0f048275b7  48 85 ed             test   %rbp %rbp 
  0x00007f0f048275ba  0f 84 a9 00 00 00    jz     $0x00007f0f04827669 
Actual: 7f0f048275c0

Block 837:
  0x00007f0f048275c0  48 83 c4 08          add    $0x0000000000000008 %rsp -> %rsp 
  0x00007f0f048275c4  48 89 ef             mov    %rbp -> %rdi 
  0x00007f0f048275c7  5b                   pop    %rsp (%rsp)[8byte] -> %rbx %rsp 
  0x00007f0f048275c8  5d                   pop    %rsp (%rsp)[8byte] -> %rbp %rsp 
  0x00007f0f048275c9  41 5c                pop    %rsp (%rsp)[8byte] -> %r12 %rsp 
  0x00007f0f048275cb  41 5d                pop    %rsp (%rsp)[8byte] -> %r13 %rsp 
  0x00007f0f048275cd  41 5e                pop    %rsp (%rsp)[8byte] -> %r14 %rsp 
  0x00007f0f048275cf  41 5f                pop    %rsp (%rsp)[8byte] -> %r15 %rsp 
  0x00007f0f048275d1  e9 9a 79 0d 00       jmp    $0x00007f0f048fef70 
  0x00007f0f048fef70  4c 8b 0d 91 07 2b 00 mov    <rel> 0x00007f0f04baf708[8byte] -> %r9 
  0x00007f0f048fef77  4d 85 c9             test   %r9 %r9 
  0x00007f0f048fef7a  0f 84 76 01 00 00    jz     $0x00007f0f048ff0f6 
Actual: 7f0f048fef80

Block 838:
  0x00007f0f048fef80  49 3b 79 20          cmp    %rdi 0x20(%r9)[8byte] 
  0x00007f0f048fef84  49 89 fa             mov    %rdi -> %r10 
  0x00007f0f048fef87  75 10                jnz    $0x00007f0f048fef99 
Actual: 7f0f048fef99

Block 839:
  0x00007f0f048fef99  49 8b 11             mov    (%r9)[8byte] -> %rdx 
  0x00007f0f048fef9c  48 85 d2             test   %rdx %rdx 
  0x00007f0f048fef9f  75 ef                jnz    $0x00007f0f048fef90 
Actual: 7f0f048fefa1

Block 840:
  0x00007f0f048fefa1  f3 c3                ret    %rsp (%rsp)[8byte] -> %rsp 
Actual: 55e94ebe3b93

Block 841:
  0x000055e94ebe3b93  e8 48 ff ff ff       call   $0x000055e94ebe3ae0 %rsp -> %rsp 0xfffffff8(%rsp)[8byte] 
  0x000055e94ebe3ae0  48 8d 3d c1 b5 21 00 lea    <rel> 0x000055e94edff0a8 -> %rdi 
  0x000055e94ebe3ae7  48 8d 05 c1 b5 21 00 lea    <rel> 0x000055e94edff0af -> %rax 
  0x000055e94ebe3aee  55                   push   %rbp %rsp -> %rsp 0xfffffff8(%rsp)[8byte] 
  0x000055e94ebe3aef  48 29 f8             sub    %rdi %rax -> %rax 
  0x000055e94ebe3af2  48 89 e5             mov    %rsp -> %rbp 
  0x000055e94ebe3af5  48 83 f8 0e          cmp    %rax $0x000000000000000e 
  0x000055e94ebe3af9  76 15                jbe    $0x000055e94ebe3b10 
Actual: 55e94ebe3b10

Block 842:
  0x000055e94ebe3b10  5d                   pop    %rsp (%rsp)[8byte] -> %rbp %rsp 
  0x000055e94ebe3b11  c3                   ret    %rsp (%rsp)[8byte] -> %rsp 
Actual: 55e94ebe3b98

Block 843:
  0x000055e94ebe3b98  5d                   pop    %rsp (%rsp)[8byte] -> %rbp %rsp 
  0x000055e94ebe3b99  c6 05 20 b5 21 00 01 mov    $0x01 -> <rel> 0x000055e94edff0c0[1byte] 
  0x000055e94ebe3ba0  f3 c3                ret    %rsp (%rsp)[8byte] -> %rsp 
Actual: 7f0f05c334ca

Block 844:
  0x00007f0f05c334ca  45 85 f6             test   %r14d %r14d 
  0x00007f0f05c334cd  41 8d 56 ff          lea    0xffffffff(%r14) -> %edx 
  0x00007f0f05c334d1  75 ed                jnz    $0x00007f0f05c334c0 
Actual: 7f0f05c334d3

Block 845:
  0x00007f0f05c334d3  48 8b 83 a8 00 00 00 mov    0x000000a8(%rbx)[8byte] -> %rax 
  0x00007f0f05c334da  48 85 c0             test   %rax %rax 
  0x00007f0f05c334dd  74 09                jz     $0x00007f0f05c334e8 
Actual: 7f0f05c334df

Block 846:
  0x00007f0f05c334df  48 8b 40 08          mov    0x08(%rax)[8byte] -> %rax 
  0x00007f0f05c334e3  48 03 03             add    (%rbx)[8byte] %rax -> %rax 
  0x00007f0f05c334e6  ff d0                call   %rax %rsp -> %rsp 0xfffffff8(%rsp)[8byte] 
Actual: 55e94ebf7d6c

Block 847:
  0x000055e94ebf7d6c  48 83 ec 08          sub    $0x0000000000000008 %rsp -> %rsp 
  0x000055e94ebf7d70  48 83 c4 08          add    $0x0000000000000008 %rsp -> %rsp 
  0x000055e94ebf7d74  c3                   ret    %rsp (%rsp)[8byte] -> %rsp 
Actual: 7f0f05c334e8

Block 848:
  0x00007f0f05c334e8  8b 4d b0             mov    0xffffffb0(%rbp)[4byte] -> %ecx 
  0x00007f0f05c334eb  85 c9                test   %ecx %ecx 
  0x00007f0f05c334ed  75 0e                jnz    $0x00007f0f05c334fd 
Actual: 7f0f05c334ef

Block 849:
  0x00007f0f05c334ef  8b 05 f3 38 21 00    mov    <rel> 0x00007f0f05e46de8[4byte] -> %eax 
  0x00007f0f05c334f5  85 c0                test   %eax %eax 
  0x00007f0f05c334f7  0f 85 e6 00 00 00    jnz    $0x00007f0f05c335e3 
Actual: 7f0f05c334fd

Block 850:
  0x00007f0f05c334fd  83 ab 10 03 00 00 01 sub    $0x00000001 0x00000310(%rbx)[4byte] -> 0x00000310(%rbx)[4byte] 
  0x00007f0f05c33504  49 83 c5 01          add    $0x0000000000000001 %r13 -> %r13 
  0x00007f0f05c33508  44 39 6d b4          cmp    0xffffffb4(%rbp)[4byte] %r13d 
  0x00007f0f05c3350c  0f 87 4e ff ff ff    jnbe   $0x00007f0f05c33460 
Actual: 7f0f05c33460

Block 851:
  0x00007f0f05c33460  4b 8b 1c ef          mov    (%r15,%r13,8)[8byte] -> %rbx 
  0x00007f0f05c33464  0f b6 83 14 03 00 00 movzx  0x00000314(%rbx)[1byte] -> %eax 
  0x00007f0f05c3346b  a8 08                test   %al $0x08 
  0x00007f0f05c3346d  0f 84 8a 00 00 00    jz     $0x00007f0f05c334fd 
Actual: 7f0f05c334fd

Block 852:
  0x00007f0f05c33520  48 8b 83 a8 00 00 00 mov    0x000000a8(%rbx)[8byte] -> %rax 
  0x00007f0f05c33527  48 85 c0             test   %rax %rax 
  0x00007f0f05c3352a  74 bc                jz     $0x00007f0f05c334e8 
Actual: 7f0f05c3352c

Block 853:
  0x00007f0f05c3352c  f6 05 4d 37 21 00 02 test   <rel> 0x00007f0f05e46c80[1byte] $0x02 
  0x00007f0f05c33533  74 aa                jz     $0x00007f0f05c334df 
Actual: 7f0f05c334df

Block 854:
  0x00007f0f05a13970  55                   push   %rbp %rsp -> %rsp 0xfffffff8(%rsp)[8byte] 
  0x00007f0f05a13971  48 89 e5             mov    %rsp -> %rbp 
  0x00007f0f05a13974  b8 00 00 00 00       mov    $0x00000000 -> %eax 
  0x00007f0f05a13979  5d                   pop    %rsp (%rsp)[8byte] -> %rbp %rsp 
  0x00007f0f05a1397a  c3                   ret    %rsp (%rsp)[8byte] -> %rsp 
Actual: 7f0f05c334e8

Block 855:
  0x00007f0f04fc4450  80 3d c9 fe 21 00 00 cmp    <rel> 0x00007f0f051e4320[1byte] $0x00 
  0x00007f0f04fc4457  74 27                jz     $0x00007f0f04fc4480 
Actual: 7f0f04fc4480

Block 856:
  0x00007f0f04fc4480  f3 c3                ret    %rsp (%rsp)[8byte] -> %rsp 
Actual: 7f0f05c334ca

Block 857:
  0x00007f0f05c334c0  41 89 d6             mov    %edx -> %r14d 
  0x00007f0f05c334c3  44 89 f2             mov    %r14d -> %edx 
  0x00007f0f05c334c6  41 ff 14 d4          call   (%r12,%rdx,8)[8byte] %rsp -> %rsp 0xfffffff8(%rsp)[8byte] 
Actual: 7f0f04fc43e0

Block 858:
  0x00007f0f04fc43e0  55                   push   %rbp %rsp -> %rsp 0xfffffff8(%rsp)[8byte] 
  0x00007f0f04fc43e1  53                   push   %rbx %rsp -> %rsp 0xfffffff8(%rsp)[8byte] 
  0x00007f0f04fc43e2  48 8d 2d 27 ff 21 00 lea    <rel> 0x00007f0f051e4310 -> %rbp 
  0x00007f0f04fc43e9  48 8d 1d 30 fe 21 00 lea    <rel> 0x00007f0f051e4220 -> %rbx 
  0x00007f0f04fc43f0  48 83 ec 08          sub    $0x0000000000000008 %rsp -> %rsp 
  0x00007f0f04fc43f4  48 8b 3d 05 fe 21 00 mov    <rel> 0x00007f0f051e4200[8byte] -> %rdi 
  0x00007f0f04fc43fb  e8 d8 f9 ff ff       call   $0x00007f0f04fc3dd8 %rsp -> %rsp 0xfffffff8(%rsp)[8byte] 
  0x00007f0f04fc3dd8  ff 25 0a dc 21 00    jmp    <rel> 0x00007f0f051e19e8[8byte] 
Actual: 7f0f0486f260

Block 859:
  0x00007f0f04fc4400  48 c7 05 f5 fd 21 00 mov    $0x0000000000000000 -> <rel> 0x00007f0f051e4200[8byte] 
                      00 00 00 00
  0x00007f0f04fc440b  0f 1f 44 00 00       nop    0x00(%rax,%rax,1)[4byte] 
  0x00007f0f04fc4410  48 8b 3b             mov    (%rbx)[8byte] -> %rdi 
  0x00007f0f04fc4413  48 83 c3 08          add    $0x0000000000000008 %rbx -> %rbx 
  0x00007f0f04fc4417  e8 bc f9 ff ff       call   $0x00007f0f04fc3dd8 %rsp -> %rsp 0xfffffff8(%rsp)[8byte] 
  0x00007f0f04fc3dd8  ff 25 0a dc 21 00    jmp    <rel> 0x00007f0f051e19e8[8byte] 
Actual: 7f0f0486f260

Block 860:
  0x00007f0f04fc441c  48 c7 43 f8 00 00 00 mov    $0x0000000000000000 -> 0xfffffff8(%rbx)[8byte] 
                      00
  0x00007f0f04fc4424  48 39 eb             cmp    %rbx %rbp 
  0x00007f0f04fc4427  75 e7                jnz    $0x00007f0f04fc4410 
Actual: 7f0f04fc4410

Block 861:
  0x00007f0f04fc4410  48 8b 3b             mov    (%rbx)[8byte] -> %rdi 
  0x00007f0f04fc4413  48 83 c3 08          add    $0x0000000000000008 %rbx -> %rbx 
  0x00007f0f04fc4417  e8 bc f9 ff ff       call   $0x00007f0f04fc3dd8 %rsp -> %rsp 0xfffffff8(%rsp)[8byte] 
  0x00007f0f04fc3dd8  ff 25 0a dc 21 00    jmp    <rel> 0x00007f0f051e19e8[8byte] 
Actual: 7f0f0486f260

Block 862:
  0x00007f0f04fc4429  48 8b 3d d8 fd 21 00 mov    <rel> 0x00007f0f051e4208[8byte] -> %rdi 
  0x00007f0f04fc4430  e8 a3 f9 ff ff       call   $0x00007f0f04fc3dd8 %rsp -> %rsp 0xfffffff8(%rsp)[8byte] 
  0x00007f0f04fc3dd8  ff 25 0a dc 21 00    jmp    <rel> 0x00007f0f051e19e8[8byte] 
Actual: 7f0f0486f260

Block 863:
  0x00007f0f04fc4435  48 c7 05 c8 fd 21 00 mov    $0x0000000000000000 -> <rel> 0x00007f0f051e4208[8byte] 
                      00 00 00 00
  0x00007f0f04fc4440  48 83 c4 08          add    $0x0000000000000008 %rsp -> %rsp 
  0x00007f0f04fc4444  5b                   pop    %rsp (%rsp)[8byte] -> %rbx %rsp 
  0x00007f0f04fc4445  5d                   pop    %rsp (%rsp)[8byte] -> %rbp %rsp 
  0x00007f0f04fc4446  c3                   ret    %rsp (%rsp)[8byte] -> %rsp 
Actual: 7f0f05c334ca

Block 864:
  0x00007f0f04fc43c0  8b 05 12 dd 21 00    mov    <rel> 0x00007f0f051e20d8[4byte] -> %eax 
  0x00007f0f04fc43c6  85 c0                test   %eax %eax 
  0x00007f0f04fc43c8  74 15                jz     $0x00007f0f04fc43df 
Actual: 7f0f04fc43df

Block 865:
  0x00007f0f04fc43df  c3                   ret    %rsp (%rsp)[8byte] -> %rsp 
Actual: 7f0f05c334ca

Block 866:
  0x00007f0f04fc43a0  53                   push   %rbx %rsp -> %rsp 0xfffffff8(%rsp)[8byte] 
  0x00007f0f04fc43a1  48 8b 1d 98 d6 21 00 mov    <rel> 0x00007f0f051e1a40[8byte] -> %rbx 
  0x00007f0f04fc43a8  48 8b 3b             mov    (%rbx)[8byte] -> %rdi 
  0x00007f0f04fc43ab  e8 28 fa ff ff       call   $0x00007f0f04fc3dd8 %rsp -> %rsp 0xfffffff8(%rsp)[8byte] 
  0x00007f0f04fc3dd8  ff 25 0a dc 21 00    jmp    <rel> 0x00007f0f051e19e8[8byte] 
Actual: 7f0f0486f260

Block 867:
  0x00007f0f04fc43b0  48 c7 03 00 00 00 00 mov    $0x0000000000000000 -> (%rbx)[8byte] 
  0x00007f0f04fc43b7  5b                   pop    %rsp (%rsp)[8byte] -> %rbx %rsp 
  0x00007f0f04fc43b8  c3                   ret    %rsp (%rsp)[8byte] -> %rsp 
Actual: 7f0f05c334ca

Block 868:
  0x00007f0f04fc4380  8b 05 02 dd 21 00    mov    <rel> 0x00007f0f051e2088[4byte] -> %eax 
  0x00007f0f04fc4386  85 c0                test   %eax %eax 
  0x00007f0f04fc4388  74 15                jz     $0x00007f0f04fc439f 
Actual: 7f0f04fc439f

Block 869:
  0x00007f0f04fc439f  c3                   ret    %rsp (%rsp)[8byte] -> %rsp 
Actual: 7f0f05c334ca

Block 870:
  0x00007f0f04fc4770  80 3d e9 d8 21 00 00 cmp    <rel> 0x00007f0f051e2060[1byte] $0x00 
  0x00007f0f04fc4777  75 27                jnz    $0x00007f0f04fc47a0 
Actual: 7f0f04fc4779

Block 871:
  0x00007f0f04fc4779  48 83 3d 37 d8 21 00 cmp    <rel> 0x00007f0f051e1fb8[8byte] $0x0000000000000000 
                      00
  0x00007f0f04fc4781  55                   push   %rbp %rsp -> %rsp 0xfffffff8(%rsp)[8byte] 
  0x00007f0f04fc4782  48 89 e5             mov    %rsp -> %rbp 
  0x00007f0f04fc4785  74 0c                jz     $0x00007f0f04fc4793 
Actual: 7f0f04fc4787

Block 872:
  0x00007f0f04fc4787  48 8d 3d d2 cf 21 00 lea    <rel> 0x00007f0f051e1760 -> %rdi 
  0x00007f0f04fc478e  e8 bd fb ff ff       call   $0x00007f0f04fc4350 %rsp -> %rsp 0xfffffff8(%rsp)[8byte] 
  0x00007f0f04fc4350  ff 25 62 dc 21 00    jmp    <rel> 0x00007f0f051e1fb8[8byte] 
Actual: 7f0f048274a0

Block 873:
  0x00007f0f04fc4793  e8 48 ff ff ff       call   $0x00007f0f04fc46e0 %rsp -> %rsp 0xfffffff8(%rsp)[8byte] 
  0x00007f0f04fc46e0  48 8d 3d 71 d9 21 00 lea    <rel> 0x00007f0f051e2058 -> %rdi 
  0x00007f0f04fc46e7  48 8d 05 71 d9 21 00 lea    <rel> 0x00007f0f051e205f -> %rax 
  0x00007f0f04fc46ee  55                   push   %rbp %rsp -> %rsp 0xfffffff8(%rsp)[8byte] 
  0x00007f0f04fc46ef  48 29 f8             sub    %rdi %rax -> %rax 
  0x00007f0f04fc46f2  48 89 e5             mov    %rsp -> %rbp 
  0x00007f0f04fc46f5  48 83 f8 0e          cmp    %rax $0x000000000000000e 
  0x00007f0f04fc46f9  76 15                jbe    $0x00007f0f04fc4710 
Actual: 7f0f04fc4710

Block 874:
  0x00007f0f04fc4710  5d                   pop    %rsp (%rsp)[8byte] -> %rbp %rsp 
  0x00007f0f04fc4711  c3                   ret    %rsp (%rsp)[8byte] -> %rsp 
Actual: 7f0f04fc4798

Block 875:
  0x00007f0f04fc4798  5d                   pop    %rsp (%rsp)[8byte] -> %rbp %rsp 
  0x00007f0f04fc4799  c6 05 c0 d8 21 00 01 mov    $0x01 -> <rel> 0x00007f0f051e2060[1byte] 
  0x00007f0f04fc47a0  f3 c3                ret    %rsp (%rsp)[8byte] -> %rsp 
Actual: 7f0f05c334ca

Block 876:
  0x00007f0f04fda4bc  48 83 ec 08          sub    $0x0000000000000008 %rsp -> %rsp 
  0x00007f0f04fda4c0  48 83 c4 08          add    $0x0000000000000008 %rsp -> %rsp 
  0x00007f0f04fda4c4  c3                   ret    %rsp (%rsp)[8byte] -> %rsp 
Actual: 7f0f05c334e8

Block 877:
  0x00007f0f04db6df0  80 3d 59 62 20 00 00 cmp    <rel> 0x00007f0f04fbd050[1byte] $0x00 
  0x00007f0f04db6df7  75 27                jnz    $0x00007f0f04db6e20 
Actual: 7f0f04db6df9

Block 878:
  0x00007f0f04db6df9  48 83 3d ef 61 20 00 cmp    <rel> 0x00007f0f04fbcff0[8byte] $0x0000000000000000 
                      00
  0x00007f0f04db6e01  55                   push   %rbp %rsp -> %rsp 0xfffffff8(%rsp)[8byte] 
  0x00007f0f04db6e02  48 89 e5             mov    %rsp -> %rbp 
  0x00007f0f04db6e05  74 0c                jz     $0x00007f0f04db6e13 
Actual: 7f0f04db6e07

Block 879:
  0x00007f0f04db6e07  48 8d 3d c2 5d 20 00 lea    <rel> 0x00007f0f04fbcbd0 -> %rdi 
  0x00007f0f04db6e0e  e8 35 ff ff ff       call   $0x00007f0f04db6d48 %rsp -> %rsp 0xfffffff8(%rsp)[8byte] 
  0x00007f0f04db6d48  ff 25 a2 62 20 00    jmp    <rel> 0x00007f0f04fbcff0[8byte] 
Actual: 7f0f048274a0

Block 880:
  0x00007f0f04db6e13  e8 48 ff ff ff       call   $0x00007f0f04db6d60 %rsp -> %rsp 0xfffffff8(%rsp)[8byte] 
  0x00007f0f04db6d60  48 8d 3d e9 62 20 00 lea    <rel> 0x00007f0f04fbd050 -> %rdi 
  0x00007f0f04db6d67  48 8d 05 e9 62 20 00 lea    <rel> 0x00007f0f04fbd057 -> %rax 
  0x00007f0f04db6d6e  55                   push   %rbp %rsp -> %rsp 0xfffffff8(%rsp)[8byte] 
  0x00007f0f04db6d6f  48 29 f8             sub    %rdi %rax -> %rax 
  0x00007f0f04db6d72  48 89 e5             mov    %rsp -> %rbp 
  0x00007f0f04db6d75  48 83 f8 0e          cmp    %rax $0x000000000000000e 
  0x00007f0f04db6d79  76 15                jbe    $0x00007f0f04db6d90 
Actual: 7f0f04db6d90

Block 881:
  0x00007f0f04db6d90  5d                   pop    %rsp (%rsp)[8byte] -> %rbp %rsp 
  0x00007f0f04db6d91  c3                   ret    %rsp (%rsp)[8byte] -> %rsp 
Actual: 7f0f04db6e18

Block 882:
  0x00007f0f04db6e18  5d                   pop    %rsp (%rsp)[8byte] -> %rbp %rsp 
  0x00007f0f04db6e19  c6 05 30 62 20 00 01 mov    $0x01 -> <rel> 0x00007f0f04fbd050[1byte] 
  0x00007f0f04db6e20  f3 c3                ret    %rsp (%rsp)[8byte] -> %rsp 
Actual: 7f0f05c334ca

Block 883:
  0x00007f0f04dbad64  48 83 ec 08          sub    $0x0000000000000008 %rsp -> %rsp 
  0x00007f0f04dbad68  48 83 c4 08          add    $0x0000000000000008 %rsp -> %rsp 
  0x00007f0f04dbad6c  c3                   ret    %rsp (%rsp)[8byte] -> %rsp 
Actual: 7f0f05c334e8

Block 884:
  0x00007f0f04bb12f0  80 3d 09 2d 20 00 00 cmp    <rel> 0x00007f0f04db4000[1byte] $0x00 
  0x00007f0f04bb12f7  75 27                jnz    $0x00007f0f04bb1320 
Actual: 7f0f04bb12f9

Block 885:
  0x00007f0f04bb12f9  48 83 3d ef 2c 20 00 cmp    <rel> 0x00007f0f04db3ff0[8byte] $0x0000000000000000 
                      00
  0x00007f0f04bb1301  55                   push   %rbp %rsp -> %rsp 0xfffffff8(%rsp)[8byte] 
  0x00007f0f04bb1302  48 89 e5             mov    %rsp -> %rbp 
  0x00007f0f04bb1305  74 0c                jz     $0x00007f0f04bb1313 
Actual: 7f0f04bb1307

Block 886:
  0x00007f0f04bb1307  48 8d 3d 8a 29 20 00 lea    <rel> 0x00007f0f04db3c98 -> %rdi 
  0x00007f0f04bb130e  e8 35 ff ff ff       call   $0x00007f0f04bb1248 %rsp -> %rsp 0xfffffff8(%rsp)[8byte] 
  0x00007f0f04bb1248  ff 25 a2 2d 20 00    jmp    <rel> 0x00007f0f04db3ff0[8byte] 
Actual: 7f0f048274a0

Block 887:
  0x00007f0f04bb1313  e8 48 ff ff ff       call   $0x00007f0f04bb1260 %rsp -> %rsp 0xfffffff8(%rsp)[8byte] 
  0x00007f0f04bb1260  48 8d 3d 99 2d 20 00 lea    <rel> 0x00007f0f04db4000 -> %rdi 
  0x00007f0f04bb1267  48 8d 05 99 2d 20 00 lea    <rel> 0x00007f0f04db4007 -> %rax 
  0x00007f0f04bb126e  55                   push   %rbp %rsp -> %rsp 0xfffffff8(%rsp)[8byte] 
  0x00007f0f04bb126f  48 29 f8             sub    %rdi %rax -> %rax 
  0x00007f0f04bb1272  48 89 e5             mov    %rsp -> %rbp 
  0x00007f0f04bb1275  48 83 f8 0e          cmp    %rax $0x000000000000000e 
  0x00007f0f04bb1279  76 15                jbe    $0x00007f0f04bb1290 
Actual: 7f0f04bb1290

Block 888:
  0x00007f0f04bb1290  5d                   pop    %rsp (%rsp)[8byte] -> %rbp %rsp 
  0x00007f0f04bb1291  c3                   ret    %rsp (%rsp)[8byte] -> %rsp 
Actual: 7f0f04bb1318

Block 889:
  0x00007f0f04bb1318  5d                   pop    %rsp (%rsp)[8byte] -> %rbp %rsp 
  0x00007f0f04bb1319  c6 05 e0 2c 20 00 01 mov    $0x01 -> <rel> 0x00007f0f04db4000[1byte] 
  0x00007f0f04bb1320  f3 c3                ret    %rsp (%rsp)[8byte] -> %rsp 
Actual: 7f0f05c334ca

Block 890:
  0x00007f0f04bb336c  48 83 ec 08          sub    $0x0000000000000008 %rsp -> %rsp 
  0x00007f0f04bb3370  48 83 c4 08          add    $0x0000000000000008 %rsp -> %rsp 
  0x00007f0f04bb3374  c3                   ret    %rsp (%rsp)[8byte] -> %rsp 
Actual: 7f0f05c334e8

Block 891:
  0x00007f0f045eada0  48 8d 3d 19 23 20 00 lea    <rel> 0x00007f0f047ed0c0 -> %rdi 
  0x00007f0f045eada7  e9 24 04 00 00       jmp    $0x00007f0f045eb1d0 
  0x00007f0f045eb1d0  48 8b 77 18          mov    0x18(%rdi)[8byte] -> %rsi 
  0x00007f0f045eb1d4  48 85 f6             test   %rsi %rsi 
  0x00007f0f045eb1d7  74 1d                jz     $0x00007f0f045eb1f6 
Actual: 7f0f045eb1f6

Block 892:
  0x00007f0f045eb1f6  f3 c3                ret    %rsp (%rsp)[8byte] -> %rsp 
Actual: 7f0f05c334ca

Block 893:
  0x00007f0f045eae40  80 3d 39 22 20 00 00 cmp    <rel> 0x00007f0f047ed080[1byte] $0x00 
  0x00007f0f045eae47  75 27                jnz    $0x00007f0f045eae70 
Actual: 7f0f045eae49

Block 894:
  0x00007f0f045eae49  48 83 3d a7 21 20 00 cmp    <rel> 0x00007f0f047ecff8[8byte] $0x0000000000000000 
                      00
  0x00007f0f045eae51  55                   push   %rbp %rsp -> %rsp 0xfffffff8(%rsp)[8byte] 
  0x00007f0f045eae52  48 89 e5             mov    %rsp -> %rbp 
  0x00007f0f045eae55  74 0c                jz     $0x00007f0f045eae63 
Actual: 7f0f045eae57

Block 895:
  0x00007f0f045eae57  48 8d 3d 22 1f 20 00 lea    <rel> 0x00007f0f047ecd80 -> %rdi 
  0x00007f0f045eae5e  e8 35 ff ff ff       call   $0x00007f0f045ead98 %rsp -> %rsp 0xfffffff8(%rsp)[8byte] 
  0x00007f0f045ead98  ff 25 5a 22 20 00    jmp    <rel> 0x00007f0f047ecff8[8byte] 
Actual: 7f0f048274a0

Block 896:
  0x00007f0f045eae63  e8 48 ff ff ff       call   $0x00007f0f045eadb0 %rsp -> %rsp 0xfffffff8(%rsp)[8byte] 
  0x00007f0f045eadb0  48 8d 3d b1 22 20 00 lea    <rel> 0x00007f0f047ed068 -> %rdi 
  0x00007f0f045eadb7  48 8d 05 b1 22 20 00 lea    <rel> 0x00007f0f047ed06f -> %rax 
  0x00007f0f045eadbe  55                   push   %rbp %rsp -> %rsp 0xfffffff8(%rsp)[8byte] 
  0x00007f0f045eadbf  48 29 f8             sub    %rdi %rax -> %rax 
  0x00007f0f045eadc2  48 89 e5             mov    %rsp -> %rbp 
  0x00007f0f045eadc5  48 83 f8 0e          cmp    %rax $0x000000000000000e 
  0x00007f0f045eadc9  76 15                jbe    $0x00007f0f045eade0 
Actual: 7f0f045eade0

Block 897:
  0x00007f0f045eade0  5d                   pop    %rsp (%rsp)[8byte] -> %rbp %rsp 
  0x00007f0f045eade1  c3                   ret    %rsp (%rsp)[8byte] -> %rsp 
Actual: 7f0f045eae68

Block 898:
  0x00007f0f045eae68  5d                   pop    %rsp (%rsp)[8byte] -> %rbp %rsp 
  0x00007f0f045eae69  c6 05 10 22 20 00 01 mov    $0x01 -> <rel> 0x00007f0f047ed080[1byte] 
  0x00007f0f045eae70  f3 c3                ret    %rsp (%rsp)[8byte] -> %rsp 
Actual: 7f0f05c334ca

Block 899:
  0x00007f0f045eb9b0  48 83 ec 08          sub    $0x0000000000000008 %rsp -> %rsp 
  0x00007f0f045eb9b4  48 83 c4 08          add    $0x0000000000000008 %rsp -> %rsp 
  0x00007f0f045eb9b8  c3                   ret    %rsp (%rsp)[8byte] -> %rsp 
Actual: 7f0f05c334e8

Block 900:
  0x00007f0f042e5640  80 3d 95 3a 30 00 00 cmp    <rel> 0x00007f0f045e90dc[1byte] $0x00 
  0x00007f0f042e5647  75 27                jnz    $0x00007f0f042e5670 
Actual: 7f0f042e5649

Block 901:
  0x00007f0f042e5649  48 83 3d 9f 39 30 00 cmp    <rel> 0x00007f0f045e8ff0[8byte] $0x0000000000000000 
                      00
  0x00007f0f042e5651  55                   push   %rbp %rsp -> %rsp 0xfffffff8(%rsp)[8byte] 
  0x00007f0f042e5652  48 89 e5             mov    %rsp -> %rbp 
  0x00007f0f042e5655  74 0c                jz     $0x00007f0f042e5663 
Actual: 7f0f042e5657

Block 902:
  0x00007f0f042e5657  48 8d 3d 22 37 30 00 lea    <rel> 0x00007f0f045e8d80 -> %rdi 
  0x00007f0f042e565e  e8 45 ff ff ff       call   $0x00007f0f042e55a8 %rsp -> %rsp 0xfffffff8(%rsp)[8byte] 
  0x00007f0f042e55a8  ff 25 42 3a 30 00    jmp    <rel> 0x00007f0f045e8ff0[8byte] 
Actual: 7f0f048274a0

Block 903:
  0x00007f0f042e5663  e8 48 ff ff ff       call   $0x00007f0f042e55b0 %rsp -> %rsp 0xfffffff8(%rsp)[8byte] 
  0x00007f0f042e55b0  48 8d 3d 29 3b 30 00 lea    <rel> 0x00007f0f045e90e0 -> %rdi 
  0x00007f0f042e55b7  48 8d 05 29 3b 30 00 lea    <rel> 0x00007f0f045e90e7 -> %rax 
  0x00007f0f042e55be  55                   push   %rbp %rsp -> %rsp 0xfffffff8(%rsp)[8byte] 
  0x00007f0f042e55bf  48 29 f8             sub    %rdi %rax -> %rax 
  0x00007f0f042e55c2  48 89 e5             mov    %rsp -> %rbp 
  0x00007f0f042e55c5  48 83 f8 0e          cmp    %rax $0x000000000000000e 
  0x00007f0f042e55c9  76 15                jbe    $0x00007f0f042e55e0 
Actual: 7f0f042e55e0

Block 904:
  0x00007f0f042e55e0  5d                   pop    %rsp (%rsp)[8byte] -> %rbp %rsp 
  0x00007f0f042e55e1  c3                   ret    %rsp (%rsp)[8byte] -> %rsp 
Actual: 7f0f042e5668

Block 905:
  0x00007f0f042e5668  5d                   pop    %rsp (%rsp)[8byte] -> %rbp %rsp 
  0x00007f0f042e5669  c6 05 6c 3a 30 00 01 mov    $0x01 -> <rel> 0x00007f0f045e90dc[1byte] 
  0x00007f0f042e5670  f3 c3                ret    %rsp (%rsp)[8byte] -> %rsp 
Actual: 7f0f05c334ca

Block 906:
  0x00007f0f0435759c  48 83 ec 08          sub    $0x0000000000000008 %rsp -> %rsp 
  0x00007f0f043575a0  48 83 c4 08          add    $0x0000000000000008 %rsp -> %rsp 
  0x00007f0f043575a4  c3                   ret    %rsp (%rsp)[8byte] -> %rsp 
Actual: 7f0f05c334e8

Block 907:
  0x00007f0f0406e8a0  80 3d 99 07 27 00 00 cmp    <rel> 0x00007f0f042df040[1byte] $0x00 
  0x00007f0f0406e8a7  75 27                jnz    $0x00007f0f0406e8d0 
Actual: 7f0f0406e8a9

Block 908:
  0x00007f0f0406e8a9  48 83 3d 17 07 27 00 cmp    <rel> 0x00007f0f042defc8[8byte] $0x0000000000000000 
                      00
  0x00007f0f0406e8b1  55                   push   %rbp %rsp -> %rsp 0xfffffff8(%rsp)[8byte] 
  0x00007f0f0406e8b2  48 89 e5             mov    %rsp -> %rbp 
  0x00007f0f0406e8b5  74 0c                jz     $0x00007f0f0406e8c3 
Actual: 7f0f0406e8b7

Block 909:
  0x00007f0f0406e8b7  48 8d 3d e2 02 27 00 lea    <rel> 0x00007f0f042deba0 -> %rdi 
  0x00007f0f0406e8be  e8 dd fc ff ff       call   $0x00007f0f0406e5a0 %rsp -> %rsp 0xfffffff8(%rsp)[8byte] 
  0x00007f0f0406e5a0  ff 25 22 0a 27 00    jmp    <rel> 0x00007f0f042defc8[8byte] 
Actual: 7f0f048274a0

Block 910:
  0x00007f0f0406e8c3  e8 48 ff ff ff       call   $0x00007f0f0406e810 %rsp -> %rsp 0xfffffff8(%rsp)[8byte] 
  0x00007f0f0406e810  48 8d 3d 11 08 27 00 lea    <rel> 0x00007f0f042df028 -> %rdi 
  0x00007f0f0406e817  48 8d 05 11 08 27 00 lea    <rel> 0x00007f0f042df02f -> %rax 
  0x00007f0f0406e81e  55                   push   %rbp %rsp -> %rsp 0xfffffff8(%rsp)[8byte] 
  0x00007f0f0406e81f  48 29 f8             sub    %rdi %rax -> %rax 
  0x00007f0f0406e822  48 89 e5             mov    %rsp -> %rbp 
  0x00007f0f0406e825  48 83 f8 0e          cmp    %rax $0x000000000000000e 
  0x00007f0f0406e829  76 15                jbe    $0x00007f0f0406e840 
Actual: 7f0f0406e840

Block 911:
  0x00007f0f0406e840  5d                   pop    %rsp (%rsp)[8byte] -> %rbp %rsp 
  0x00007f0f0406e841  c3                   ret    %rsp (%rsp)[8byte] -> %rsp 
Actual: 7f0f0406e8c8

Block 912:
  0x00007f0f0406e8c8  5d                   pop    %rsp (%rsp)[8byte] -> %rbp %rsp 
  0x00007f0f0406e8c9  c6 05 70 07 27 00 01 mov    $0x01 -> <rel> 0x00007f0f042df040[1byte] 
  0x00007f0f0406e8d0  f3 c3                ret    %rsp (%rsp)[8byte] -> %rsp 
Actual: 7f0f05c334ca

Block 913:
  0x00007f0f040c0624  48 83 ec 08          sub    $0x0000000000000008 %rsp -> %rsp 
  0x00007f0f040c0628  48 83 c4 08          add    $0x0000000000000008 %rsp -> %rsp 
  0x00007f0f040c062c  c3                   ret    %rsp (%rsp)[8byte] -> %rsp 
Actual: 7f0f05c334e8

Block 914:
  0x00007f0f051eaa70  80 3d 29 18 21 00 00 cmp    <rel> 0x00007f0f053fc2a0[1byte] $0x00 
  0x00007f0f051eaa77  75 27                jnz    $0x00007f0f051eaaa0 
Actual: 7f0f051eaa79

Block 915:
  0x00007f0f051eaa79  48 83 3d 67 15 21 00 cmp    <rel> 0x00007f0f053fbfe8[8byte] $0x0000000000000000 
                      00
  0x00007f0f051eaa81  55                   push   %rbp %rsp -> %rsp 0xfffffff8(%rsp)[8byte] 
  0x00007f0f051eaa82  48 89 e5             mov    %rsp -> %rbp 
  0x00007f0f051eaa85  74 0c                jz     $0x00007f0f051eaa93 
Actual: 7f0f051eaa87

Block 916:
  0x00007f0f051eaa87  48 8d 3d f2 10 21 00 lea    <rel> 0x00007f0f053fbb80 -> %rdi 
  0x00007f0f051eaa8e  e8 3d ff ff ff       call   $0x00007f0f051ea9d0 %rsp -> %rsp 0xfffffff8(%rsp)[8byte] 
  0x00007f0f051ea9d0  ff 25 12 16 21 00    jmp    <rel> 0x00007f0f053fbfe8[8byte] 
Actual: 7f0f048274a0

Block 917:
  0x00007f0f051eaa93  e8 48 ff ff ff       call   $0x00007f0f051ea9e0 %rsp -> %rsp 0xfffffff8(%rsp)[8byte] 
  0x00007f0f051ea9e0  48 8d 3d b9 18 21 00 lea    <rel> 0x00007f0f053fc2a0 -> %rdi 
  0x00007f0f051ea9e7  48 8d 05 b9 18 21 00 lea    <rel> 0x00007f0f053fc2a7 -> %rax 
  0x00007f0f051ea9ee  55                   push   %rbp %rsp -> %rsp 0xfffffff8(%rsp)[8byte] 
  0x00007f0f051ea9ef  48 29 f8             sub    %rdi %rax -> %rax 
  0x00007f0f051ea9f2  48 89 e5             mov    %rsp -> %rbp 
  0x00007f0f051ea9f5  48 83 f8 0e          cmp    %rax $0x000000000000000e 
  0x00007f0f051ea9f9  76 15                jbe    $0x00007f0f051eaa10 
Actual: 7f0f051eaa10

Block 918:
  0x00007f0f051eaa10  5d                   pop    %rsp (%rsp)[8byte] -> %rbp %rsp 
  0x00007f0f051eaa11  c3                   ret    %rsp (%rsp)[8byte] -> %rsp 
Actual: 7f0f051eaa98

Block 919:
  0x00007f0f051eaa98  5d                   pop    %rsp (%rsp)[8byte] -> %rbp %rsp 
  0x00007f0f051eaa99  c6 05 00 18 21 00 01 mov    $0x01 -> <rel> 0x00007f0f053fc2a0[1byte] 
  0x00007f0f051eaaa0  f3 c3                ret    %rsp (%rsp)[8byte] -> %rsp 
Actual: 7f0f05c334ca

Block 920:
  0x00007f0f051f7374  48 83 ec 08          sub    $0x0000000000000008 %rsp -> %rsp 
  0x00007f0f051f7378  48 83 c4 08          add    $0x0000000000000008 %rsp -> %rsp 
  0x00007f0f051f737c  c3                   ret    %rsp (%rsp)[8byte] -> %rsp 
Actual: 7f0f05c334e8

Block 921:
  0x00007f0f05c33512  4c 8b 7d a8          mov    0xffffffa8(%rbp)[8byte] -> %r15 
  0x00007f0f05c33516  48 8b 65 98          mov    0xffffff98(%rbp)[8byte] -> %rsp 
  0x00007f0f05c3351a  e9 f6 fc ff ff       jmp    $0x00007f0f05c33215 
  0x00007f0f05c33215  48 83 6d c8 01       sub    $0x0000000000000001 0xffffffc8(%rbp)[8byte] -> 0xffffffc8(%rbp)[8byte] 
  0x00007f0f05c3321a  49 81 ef 90 00 00 00 sub    $0x0000000000000090 %r15 -> %r15 
  0x00007f0f05c33221  48 8b 45 c8          mov    0xffffffc8(%rbp)[8byte] -> %rax 
  0x00007f0f05c33225  48 83 f8 ff          cmp    %rax $0xffffffffffffffff 
  0x00007f0f05c33229  0f 84 01 04 00 00    jz     $0x00007f0f05c33630 
Actual: 7f0f05c33630

Block 922:
  0x00007f0f05c33630  8b 55 a4             mov    0xffffffa4(%rbp)[4byte] -> %edx 
  0x00007f0f05c33633  85 d2                test   %edx %edx 
  0x00007f0f05c33635  75 26                jnz    $0x00007f0f05c3365d 
Actual: 7f0f05c33637

Block 923:
  0x00007f0f05c33637  8b 05 ab 37 21 00    mov    <rel> 0x00007f0f05e46de8[4byte] -> %eax 
  0x00007f0f05c3363d  85 c0                test   %eax %eax 
  0x00007f0f05c3363f  74 1c                jz     $0x00007f0f05c3365d 
Actual: 7f0f05c3365d

Block 924:
  0x00007f0f05c3365d  f6 05 1c 36 21 00 80 test   <rel> 0x00007f0f05e46c80[1byte] $0x80 
  0x00007f0f05c33664  75 6d                jnz    $0x00007f0f05c336d3 
Actual: 7f0f05c33666

Block 925:
  0x00007f0f05c33666  48 8d 65 d8          lea    0xffffffd8(%rbp) -> %rsp 
  0x00007f0f05c3366a  5b                   pop    %rsp (%rsp)[8byte] -> %rbx %rsp 
  0x00007f0f05c3366b  41 5c                pop    %rsp (%rsp)[8byte] -> %r12 %rsp 
  0x00007f0f05c3366d  41 5d                pop    %rsp (%rsp)[8byte] -> %r13 %rsp 
  0x00007f0f05c3366f  41 5e                pop    %rsp (%rsp)[8byte] -> %r14 %rsp 
  0x00007f0f05c33671  41 5f                pop    %rsp (%rsp)[8byte] -> %r15 %rsp 
  0x00007f0f05c33673  5d                   pop    %rsp (%rsp)[8byte] -> %rbp %rsp 
  0x00007f0f05c33674  c3                   ret    %rsp (%rsp)[8byte] -> %rsp 
Actual: 7f0f048271e8

Block 926:
  0x00007f0f0482715f  49 8b 45 00          mov    0x00(%r13)[8byte] -> %rax 
  0x00007f0f04827163  48 85 c0             test   %rax %rax 
  0x00007f0f04827166  48 89 45 00          mov    %rax -> 0x00(%rbp)[8byte] 
  0x00007f0f0482716a  0f 85 9d 00 00 00    jnz    $0x00007f0f0482720d 
Actual: 7f0f04827170

Block 927:
  0x00007f0f04827170  45 84 e4             test   %r12l %r12l 
  0x00007f0f04827173  74 1f                jz     $0x00007f0f04827194 
Actual: 7f0f04827175

Block 928:
  0x00007f0f04827175  48 8d 2d dc f6 37 00 lea    <rel> 0x00007f0f04ba6858 -> %rbp 
  0x00007f0f0482717c  4c 8d 25 dd f6 37 00 lea    <rel> 0x00007f0f04ba6860 -> %r12 
  0x00007f0f04827183  4c 39 e5             cmp    %rbp %r12 
  0x00007f0f04827186  73 0c                jnb    $0x00007f0f04827194 
Actual: 7f0f04827188

Block 929:
  0x00007f0f04827188  ff 55 00             call   0x00(%rbp)[8byte] %rsp -> %rsp 0xfffffff8(%rsp)[8byte] 
Actual: 7f0f048681a0

Block 930:
  0x00007f0f048681a0  41 55                push   %r13 %rsp -> %rsp 0xfffffff8(%rsp)[8byte] 
  0x00007f0f048681a2  41 54                push   %r12 %rsp -> %rsp 0xfffffff8(%rsp)[8byte] 
  0x00007f0f048681a4  31 ff                xor    %edi %edi -> %edi 
  0x00007f0f048681a6  55                   push   %rbp %rsp -> %rsp 0xfffffff8(%rsp)[8byte] 
  0x00007f0f048681a7  53                   push   %rbx %rsp -> %rsp 0xfffffff8(%rsp)[8byte] 
  0x00007f0f048681a8  64 4c 8b 24 25 10 00 mov    %fs:0x10[8byte] -> %r12 
                      00 00
  0x00007f0f048681b1  48 83 ec 08          sub    $0x0000000000000008 %rsp -> %rsp 
  0x00007f0f048681b5  e8 e6 fc ff ff       call   $0x00007f0f04867ea0 %rsp -> %rsp 0xfffffff8(%rsp)[8byte] 
  0x00007f0f04867ea0  41 57                push   %r15 %rsp -> %rsp 0xfffffff8(%rsp)[8byte] 
  0x00007f0f04867ea2  41 56                push   %r14 %rsp -> %rsp 0xfffffff8(%rsp)[8byte] 
  0x00007f0f04867ea4  41 89 fe             mov    %edi -> %r14d 
  0x00007f0f04867ea7  41 55                push   %r13 %rsp -> %rsp 0xfffffff8(%rsp)[8byte] 
  0x00007f0f04867ea9  41 54                push   %r12 %rsp -> %rsp 0xfffffff8(%rsp)[8byte] 
  0x00007f0f04867eab  55                   push   %rbp %rsp -> %rsp 0xfffffff8(%rsp)[8byte] 
  0x00007f0f04867eac  53                   push   %rbx %rsp -> %rsp 0xfffffff8(%rsp)[8byte] 
  0x00007f0f04867ead  48 83 ec 28          sub    $0x0000000000000028 %rsp -> %rsp 
  0x00007f0f04867eb1  85 ff                test   %edi %edi 
  0x00007f0f04867eb3  0f 84 2f 02 00 00    jz     $0x00007f0f048680e8 
Actual: 7f0f048680e8

Block 931:
  0x00007f0f048680e8  48 8b 1d 11 34 34 00 mov    <rel> 0x00007f0f04bab500[8byte] -> %rbx 
  0x00007f0f048680ef  45 31 ed             xor    %r13d %r13d -> %r13d 
  0x00007f0f048680f2  44 8b 3d 3f 46 34 00 mov    <rel> 0x00007f0f04bac738[4byte] -> %r15d 
  0x00007f0f048680f9  48 85 db             test   %rbx %rbx 
  0x00007f0f048680fc  0f 85 59 fe ff ff    jnz    $0x00007f0f04867f5b 
Actual: 7f0f04868102

Block 932:
  0x00007f0f04868102  31 ed                xor    %ebp %ebp -> %ebp 
  0x00007f0f04868104  eb cc                jmp    $0x00007f0f048680d2 
  0x00007f0f048680d2  48 83 c4 28          add    $0x0000000000000028 %rsp -> %rsp 
  0x00007f0f048680d6  89 e8                mov    %ebp -> %eax 
  0x00007f0f048680d8  5b                   pop    %rsp (%rsp)[8byte] -> %rbx %rsp 
  0x00007f0f048680d9  5d                   pop    %rsp (%rsp)[8byte] -> %rbp %rsp 
  0x00007f0f048680da  41 5c                pop    %rsp (%rsp)[8byte] -> %r12 %rsp 
  0x00007f0f048680dc  41 5d                pop    %rsp (%rsp)[8byte] -> %r13 %rsp 
  0x00007f0f048680de  41 5e                pop    %rsp (%rsp)[8byte] -> %r14 %rsp 
  0x00007f0f048680e0  41 5f                pop    %rsp (%rsp)[8byte] -> %r15 %rsp 
  0x00007f0f048680e2  c3                   ret    %rsp (%rsp)[8byte] -> %rsp 
Actual: 7f0f048681ba

Block 933:
  0x00007f0f048681ba  48 8b 1d 3f 33 34 00 mov    <rel> 0x00007f0f04bab500[8byte] -> %rbx 
  0x00007f0f048681c1  41 89 c5             mov    %eax -> %r13d 
  0x00007f0f048681c4  48 85 db             test   %rbx %rbx 
  0x00007f0f048681c7  0f 85 96 00 00 00    jnz    $0x00007f0f04868263 
Actual: 7f0f048681cd

Block 934:
  0x00007f0f048681cd  e9 f6 00 00 00       jmp    $0x00007f0f048682c8 
  0x00007f0f048682c8  48 83 c4 08          add    $0x0000000000000008 %rsp -> %rsp 
  0x00007f0f048682cc  44 89 e8             mov    %r13d -> %eax 
  0x00007f0f048682cf  5b                   pop    %rsp (%rsp)[8byte] -> %rbx %rsp 
  0x00007f0f048682d0  5d                   pop    %rsp (%rsp)[8byte] -> %rbp %rsp 
  0x00007f0f048682d1  41 5c                pop    %rsp (%rsp)[8byte] -> %r12 %rsp 
  0x00007f0f048682d3  41 5d                pop    %rsp (%rsp)[8byte] -> %r13 %rsp 
  0x00007f0f048682d5  c3                   ret    %rsp (%rsp)[8byte] -> %rsp 
Actual: 7f0f0482718b

Block 935:
  0x00007f0f0482718b  48 83 c5 08          add    $0x0000000000000008 %rbp -> %rbp 
  0x00007f0f0482718f  4c 39 e5             cmp    %rbp %r12 
  0x00007f0f04827192  72 f4                jb     $0x00007f0f04827188 
Actual: 7f0f04827194

Block 936:
  0x00007f0f04827194  89 df                mov    %ebx -> %edi 
  0x00007f0f04827196  e8 35 fa 08 00       call   $0x00007f0f048b6bd0 %rsp -> %rsp 0xfffffff8(%rsp)[8byte] 
  0x00007f0f048b6bd0  48 63 d7             movsxd %edi -> %rdx 
  0x00007f0f048b6bd3  4c 8b 0d 8e 32 2f 00 mov    <rel> 0x00007f0f04ba9e68[8byte] -> %r9 
  0x00007f0f048b6bda  41 b8 e7 00 00 00    mov    $0x000000e7 -> %r8d 
  0x00007f0f048b6be0  be 3c 00 00 00       mov    $0x0000003c -> %esi 
  0x00007f0f048b6be5  eb 19                jmp    $0x00007f0f048b6c00 
  0x00007f0f048b6c00  48 89 d7             mov    %rdx -> %rdi 
  0x00007f0f048b6c03  44 89 c0             mov    %r8d -> %eax 
  0x00007f0f048b6c06  0f 05                syscall -> %rcx 
