
Block 1:
  0x00007f8b31959969  b8 00 00 00 00       mov    $0x00000000 -> %eax 
  0x00007f8b3195996e  c9                   leave  %rbp %rsp (%rbp)[8byte] -> %rsp %rbp 
  0x00007f8b3195996f  c3                   ret    %rsp (%rsp)[8byte] -> %rsp 
Actual: 7f8b31b78d6a

Block 2:
  0x00007f8b31b78d6a  48 8b 93 08 01 00 00 mov    0x00000108(%rbx)[8byte] -> %rdx 
  0x00007f8b31b78d71  48 85 d2             test   %rdx %rdx 
  0x00007f8b31b78d74  74 3d                jz     $0x00007f8b31b78db3 
Actual: 7f8b31b78db3

Block 3:
  0x00007f8b31b78db3  5b                   pop    %rsp (%rsp)[8byte] -> %rbx %rsp 
  0x00007f8b31b78db4  5d                   pop    %rsp (%rsp)[8byte] -> %rbp %rsp 
  0x00007f8b31b78db5  41 5c                pop    %rsp (%rsp)[8byte] -> %r12 %rsp 
  0x00007f8b31b78db7  41 5d                pop    %rsp (%rsp)[8byte] -> %r13 %rsp 
  0x00007f8b31b78db9  41 5e                pop    %rsp (%rsp)[8byte] -> %r14 %rsp 
  0x00007f8b31b78dbb  c3                   ret    %rsp (%rsp)[8byte] -> %rsp 
Actual: 7f8b31b78ebb

Block 4:
  0x00007f8b31b78ebb  eb d3                jmp    $0x00007f8b31b78e90 
  0x00007f8b31b78e90  83 eb 01             sub    $0x00000001 %ebx -> %ebx 
  0x00007f8b31b78e93  83 fb ff             cmp    %ebx $0xffffffff 
  0x00007f8b31b78e96  74 28                jz     $0x00007f8b31b78ec0 
Actual: 7f8b31b78e98

Block 5:
  0x00007f8b31b78e98  49 8b 96 b8 03 00 00 mov    0x000003b8(%r14)[8byte] -> %rdx 
  0x00007f8b31b78e9f  89 d8                mov    %ebx -> %eax 
  0x00007f8b31b78ea1  48 8b 3c c2          mov    (%rdx,%rax,8)[8byte] -> %rdi 
  0x00007f8b31b78ea5  f6 87 14 03 00 00 08 test   0x00000314(%rdi)[1byte] $0x08 
  0x00007f8b31b78eac  75 e2                jnz    $0x00007f8b31b78e90 
Actual: 7f8b31b78eae

Block 6:
  0x00007f8b31b78eae  4c 89 e9             mov    %r13 -> %rcx 
  0x00007f8b31b78eb1  4c 89 e2             mov    %r12 -> %rdx 
  0x00007f8b31b78eb4  89 ee                mov    %ebp -> %esi 
  0x00007f8b31b78eb6  e8 55 fe ff ff       call   $0x00007f8b31b78d10 %rsp -> %rsp 0xfffffff8(%rsp)[8byte] 
  0x00007f8b31b78d10  0f b6 87 14 03 00 00 movzx  0x00000314(%rdi)[1byte] -> %eax 
  0x00007f8b31b78d17  4c 8b 47 08          mov    0x08(%rdi)[8byte] -> %r8 
  0x00007f8b31b78d1b  83 c8 08             or     $0x00000008 %eax -> %eax 
  0x00007f8b31b78d1e  88 87 14 03 00 00    mov    %al -> 0x00000314(%rdi)[1byte] 
  0x00007f8b31b78d24  45 0f b6 08          movzx  (%r8)[1byte] -> %r9d 
  0x00007f8b31b78d28  45 84 c9             test   %r9l %r9l 
  0x00007f8b31b78d2b  0f 84 d7 00 00 00    jz     $0x00007f8b31b78e08 
Actual: 7f8b31b78e08

Block 7:
  0x00007f8b31b78e08  a8 03                test   %al $0x03 
  0x00007f8b31b78e0a  0f 85 21 ff ff ff    jnz    $0x00007f8b31b78d31 
Actual: 7f8b31b78e10

Block 8:
  0x00007f8b31b78e10  f3 c3                ret    %rsp (%rsp)[8byte] -> %rsp 
Actual: 7f8b31b78ebb

Block 9:
  0x00007f8b31b78ec0  48 8d 05 b9 50 21 00 lea    <rel> 0x00007f8b31d8df80 -> %rax 
  0x00007f8b31b78ec7  c7 00 00 00 00 00    mov    $0x00000000 -> (%rax)[4byte] 
  0x00007f8b31b78ecd  48 83 c4 08          add    $0x0000000000000008 %rsp -> %rsp 
  0x00007f8b31b78ed1  5b                   pop    %rsp (%rsp)[8byte] -> %rbx %rsp 
  0x00007f8b31b78ed2  5d                   pop    %rsp (%rsp)[8byte] -> %rbp %rsp 
  0x00007f8b31b78ed3  41 5c                pop    %rsp (%rsp)[8byte] -> %r12 %rsp 
  0x00007f8b31b78ed5  41 5d                pop    %rsp (%rsp)[8byte] -> %r13 %rsp 
  0x00007f8b31b78ed7  41 5e                pop    %rsp (%rsp)[8byte] -> %r14 %rsp 
  0x00007f8b31b78ed9  41 5f                pop    %rsp (%rsp)[8byte] -> %r15 %rsp 
  0x00007f8b31b78edb  c3                   ret    %rsp (%rsp)[8byte] -> %rsp 
Actual: 7f8b31b69cba

Block 10:
  0x00007f8b31b69cba  48 8d 15 ff f4 00 00 lea    <rel> 0x00007f8b31b791c0 -> %rdx 
  0x00007f8b31b69cc1  4c 89 ec             mov    %r13 -> %rsp 
  0x00007f8b31b69cc4  41 ff e4             jmp    %r12 
Actual: 55ccfba92ab0

Block 11:
  0x000055ccfba92ab0  31 ed                xor    %ebp %ebp -> %ebp 
  0x000055ccfba92ab2  49 89 d1             mov    %rdx -> %r9 
  0x000055ccfba92ab5  5e                   pop    %rsp (%rsp)[8byte] -> %rsi %rsp 
  0x000055ccfba92ab6  48 89 e2             mov    %rsp -> %rdx 
  0x000055ccfba92ab9  48 83 e4 f0          and    $0xfffffffffffffff0 %rsp -> %rsp 
  0x000055ccfba92abd  50                   push   %rax %rsp -> %rsp 0xfffffff8(%rsp)[8byte] 
  0x000055ccfba92abe  54                   push   %rsp %rsp -> %rsp 0xfffffff8(%rsp)[8byte] 
  0x000055ccfba92abf  4c 8d 05 6a 42 01 00 lea    <rel> 0x000055ccfbaa6d30 -> %r8 
  0x000055ccfba92ac6  48 8d 0d f3 41 01 00 lea    <rel> 0x000055ccfbaa6cc0 -> %rcx 
  0x000055ccfba92acd  48 8d 3d 5c f8 ff ff lea    <rel> 0x000055ccfba92330 -> %rdi 
  0x000055ccfba92ad4  e8 ef f5 ff ff       call   $0x000055ccfba920c8 %rsp -> %rsp 0xfffffff8(%rsp)[8byte] 
  0x000055ccfba920c8  ff 25 9a bc 21 00    jmp    <rel> 0x000055ccfbcadd68[8byte] 
Actual: 7f8b30754640

Block 12:
  0x00007f8b30754640  41 56                push   %r14 %rsp -> %rsp 0xfffffff8(%rsp)[8byte] 
  0x00007f8b30754642  41 55                push   %r13 %rsp -> %rsp 0xfffffff8(%rsp)[8byte] 
  0x00007f8b30754644  41 54                push   %r12 %rsp -> %rsp 0xfffffff8(%rsp)[8byte] 
  0x00007f8b30754646  55                   push   %rbp %rsp -> %rsp 0xfffffff8(%rsp)[8byte] 
  0x00007f8b30754647  48 89 cd             mov    %rcx -> %rbp 
  0x00007f8b3075464a  53                   push   %rbx %rsp -> %rsp 0xfffffff8(%rsp)[8byte] 
  0x00007f8b3075464b  48 81 ec 90 00 00 00 sub    $0x0000000000000090 %rsp -> %rsp 
  0x00007f8b30754652  48 8b 05 47 b7 39 00 mov    <rel> 0x00007f8b30aefda0[8byte] -> %rax 
  0x00007f8b30754659  48 89 7c 24 18       mov    %rdi -> 0x18(%rsp)[8byte] 
  0x00007f8b3075465e  89 74 24 14          mov    %esi -> 0x14(%rsp)[4byte] 
  0x00007f8b30754662  48 89 54 24 08       mov    %rdx -> 0x08(%rsp)[8byte] 
  0x00007f8b30754667  48 85 c0             test   %rax %rax 
  0x00007f8b3075466a  0f 84 c8 00 00 00    jz     $0x00007f8b30754738 
Actual: 7f8b30754670

Block 13:
  0x00007f8b30754670  8b 00                mov    (%rax)[4byte] -> %eax 
  0x00007f8b30754672  85 c0                test   %eax %eax 
  0x00007f8b30754674  0f 94 c0             setz   -> %al 
  0x00007f8b30754677  48 8d 15 e2 b9 39 00 lea    <rel> 0x00007f8b30af0060 -> %rdx 
  0x00007f8b3075467e  0f b6 c0             movzx  %al -> %eax 
  0x00007f8b30754681  4d 85 c9             test   %r9 %r9 
  0x00007f8b30754684  89 02                mov    %eax -> (%rdx)[4byte] 
  0x00007f8b30754686  74 0c                jz     $0x00007f8b30754694 
Actual: 7f8b30754688

Block 14:
  0x00007f8b30754688  31 d2                xor    %edx %edx -> %edx 
  0x00007f8b3075468a  31 f6                xor    %esi %esi -> %esi 
  0x00007f8b3075468c  4c 89 cf             mov    %r9 -> %rdi 
  0x00007f8b3075468f  e8 bc 8d 01 00       call   $0x00007f8b3076d450 %rsp -> %rsp 0xfffffff8(%rsp)[8byte] 
  0x00007f8b3076d450  41 54                push   %r12 %rsp -> %rsp 0xfffffff8(%rsp)[8byte] 
  0x00007f8b3076d452  55                   push   %rbp %rsp -> %rsp 0xfffffff8(%rsp)[8byte] 
  0x00007f8b3076d453  49 89 f4             mov    %rsi -> %r12 
  0x00007f8b3076d456  53                   push   %rbx %rsp -> %rsp 0xfffffff8(%rsp)[8byte] 
  0x00007f8b3076d457  48 89 fb             mov    %rdi -> %rbx 
  0x00007f8b3076d45a  48 8d 3d 77 31 38 00 lea    <rel> 0x00007f8b30af05d8 -> %rdi 
  0x00007f8b3076d461  48 89 d5             mov    %rdx -> %rbp 
  0x00007f8b3076d464  e8 27 fe ff ff       call   $0x00007f8b3076d290 %rsp -> %rsp 0xfffffff8(%rsp)[8byte] 
  0x00007f8b3076d290  55                   push   %rbp %rsp -> %rsp 0xfffffff8(%rsp)[8byte] 
  0x00007f8b3076d291  53                   push   %rbx %rsp -> %rsp 0xfffffff8(%rsp)[8byte] 
  0x00007f8b3076d292  49 89 f8             mov    %rdi -> %r8 
  0x00007f8b3076d295  be 01 00 00 00       mov    $0x00000001 -> %esi 
  0x00007f8b3076d29a  31 c0                xor    %eax %eax -> %eax 
  0x00007f8b3076d29c  48 83 ec 08          sub    $0x0000000000000008 %rsp -> %rsp 
  0x00007f8b3076d2a0  83 3d 59 84 38 00 00 cmp    <rel> 0x00007f8b30af5700[4byte] $0x00000000 
  0x00007f8b3076d2a7  74 0c                jz     $0x00007f8b3076d2b5 
Actual: 7f8b3076d2b5

Block 15:
  0x00007f8b3076d2b5  0f b1 35 74 4d 38 00 cmpxchg %esi <rel> 0x00007f8b30af2030[4byte] %eax -> <rel> 0x00007f8b30af2030[4byte] %eax 
  0x00007f8b3076d2bc  74 1a                jz     $0x00007f8b3076d2d8 
Actual: 7f8b3076d2d8

Block 16:
  0x00007f8b3076d2d8  49 8b 18             mov    (%r8)[8byte] -> %rbx 
  0x00007f8b3076d2db  31 ff                xor    %edi %edi -> %edi 
  0x00007f8b3076d2dd  48 85 db             test   %rbx %rbx 
  0x00007f8b3076d2e0  48 89 d8             mov    %rbx -> %rax 
  0x00007f8b3076d2e3  0f 84 ee 00 00 00    jz     $0x00007f8b3076d3d7 
Actual: 7f8b3076d2e9

Block 17:
  0x00007f8b3076d2e9  0f 1f 80 00 00 00 00 nop    0x00000000(%rax)[4byte] 
  0x00007f8b3076d2f0  48 8b 48 08          mov    0x08(%rax)[8byte] -> %rcx 
  0x00007f8b3076d2f4  48 85 c9             test   %rcx %rcx 
  0x00007f8b3076d2f7  74 3e                jz     $0x00007f8b3076d337 
Actual: 7f8b3076d337

Block 18:
  0x00007f8b3076d337  48 8b 10             mov    (%rax)[8byte] -> %rdx 
  0x00007f8b3076d33a  48 c7 40 08 00 00 00 mov    $0x0000000000000000 -> 0x08(%rax)[8byte] 
                      00
  0x00007f8b3076d342  48 89 c7             mov    %rax -> %rdi 
  0x00007f8b3076d345  48 85 d2             test   %rdx %rdx 
  0x00007f8b3076d348  74 7f                jz     $0x00007f8b3076d3c9 
Actual: 7f8b3076d3c9

Block 19:
  0x00007f8b3076d3c9  48 8d 70 10          lea    0x10(%rax) -> %rsi 
  0x00007f8b3076d3cd  48 c7 40 08 01 00 00 mov    $0x0000000000000001 -> 0x08(%rax)[8byte] 
                      00
  0x00007f8b3076d3d5  eb 9b                jmp    $0x00007f8b3076d372 
  0x00007f8b3076d372  48 c7 06 01 00 00 00 mov    $0x0000000000000001 -> (%rsi)[8byte] 
  0x00007f8b3076d379  48 83 05 7f 80 38 00 add    $0x0000000000000001 <rel> 0x00007f8b30af5400[8byte] -> <rel> 0x00007f8b30af5400[8byte] 
                      01
  0x00007f8b3076d381  83 3d 78 83 38 00 00 cmp    <rel> 0x00007f8b30af5700[4byte] $0x00000000 
  0x00007f8b3076d388  74 0b                jz     $0x00007f8b3076d395 
Actual: 7f8b3076d395

Block 20:
  0x00007f8b3076d395  ff 0d 95 4c 38 00    dec    <rel> 0x00007f8b30af2030[4byte] -> <rel> 0x00007f8b30af2030[4byte] 
  0x00007f8b3076d39b  74 1a                jz     $0x00007f8b3076d3b7 
Actual: 7f8b3076d3b7

Block 21:
  0x00007f8b3076d3b7  48 83 c4 08          add    $0x0000000000000008 %rsp -> %rsp 
  0x00007f8b3076d3bb  48 89 f0             mov    %rsi -> %rax 
  0x00007f8b3076d3be  5b                   pop    %rsp (%rsp)[8byte] -> %rbx %rsp 
  0x00007f8b3076d3bf  5d                   pop    %rsp (%rsp)[8byte] -> %rbp %rsp 
  0x00007f8b3076d3c0  c3                   ret    %rsp (%rsp)[8byte] -> %rsp 
Actual: 7f8b3076d469

Block 22:
  0x00007f8b3076d469  48 85 c0             test   %rax %rax 
  0x00007f8b3076d46c  74 2a                jz     $0x00007f8b3076d498 
Actual: 7f8b3076d46e

Block 23:
  0x00007f8b3076d46e  48 89 df             mov    %rbx -> %rdi 
  0x00007f8b3076d471  4c 89 60 10          mov    %r12 -> 0x10(%rax)[8byte] 
  0x00007f8b3076d475  48 89 68 18          mov    %rbp -> 0x18(%rax)[8byte] 
  0x00007f8b3076d479  64 48 33 3c 25 30 00 xor    %fs:0x30[8byte] %rdi -> %rdi 
                      00 00
  0x00007f8b3076d482  48 c1 c7 11          rol    $0x0000000000000011 %rdi -> %rdi 
  0x00007f8b3076d486  48 89 78 08          mov    %rdi -> 0x08(%rax)[8byte] 
  0x00007f8b3076d48a  48 c7 00 04 00 00 00 mov    $0x0000000000000004 -> (%rax)[8byte] 
  0x00007f8b3076d491  31 c0                xor    %eax %eax -> %eax 
  0x00007f8b3076d493  5b                   pop    %rsp (%rsp)[8byte] -> %rbx %rsp 
  0x00007f8b3076d494  5d                   pop    %rsp (%rsp)[8byte] -> %rbp %rsp 
  0x00007f8b3076d495  41 5c                pop    %rsp (%rsp)[8byte] -> %r12 %rsp 
  0x00007f8b3076d497  c3                   ret    %rsp (%rsp)[8byte] -> %rsp 
Actual: 7f8b30754694

Block 24:
  0x00007f8b30754694  48 8b 15 c5 b7 39 00 mov    <rel> 0x00007f8b30aefe60[8byte] -> %rdx 
  0x00007f8b3075469b  8b 1a                mov    (%rdx)[4byte] -> %ebx 
  0x00007f8b3075469d  83 e3 02             and    $0x00000002 %ebx -> %ebx 
  0x00007f8b307546a0  0f 85 d1 00 00 00    jnz    $0x00007f8b30754777 
Actual: 7f8b307546a6

Block 25:
  0x00007f8b307546a6  48 85 ed             test   %rbp %rbp 
  0x00007f8b307546a9  74 15                jz     $0x00007f8b307546c0 
Actual: 7f8b307546ab

Block 26:
  0x00007f8b307546ab  48 8b 05 f6 b7 39 00 mov    <rel> 0x00007f8b30aefea8[8byte] -> %rax 
  0x00007f8b307546b2  48 8b 74 24 08       mov    0x08(%rsp)[8byte] -> %rsi 
  0x00007f8b307546b7  8b 7c 24 14          mov    0x14(%rsp)[4byte] -> %edi 
  0x00007f8b307546bb  48 8b 10             mov    (%rax)[8byte] -> %rdx 
  0x00007f8b307546be  ff d5                call   %rbp %rsp -> %rsp 0xfffffff8(%rsp)[8byte] 
Actual: 55ccfbaa6cc0

Block 27:
  0x000055ccfbaa6cc0  41 57                push   %r15 %rsp -> %rsp 0xfffffff8(%rsp)[8byte] 
  0x000055ccfbaa6cc2  4c 8d 3d 7f 69 20 00 lea    <rel> 0x000055ccfbcad648 -> %r15 
  0x000055ccfbaa6cc9  41 56                push   %r14 %rsp -> %rsp 0xfffffff8(%rsp)[8byte] 
  0x000055ccfbaa6ccb  41 55                push   %r13 %rsp -> %rsp 0xfffffff8(%rsp)[8byte] 
  0x000055ccfbaa6ccd  41 54                push   %r12 %rsp -> %rsp 0xfffffff8(%rsp)[8byte] 
  0x000055ccfbaa6ccf  41 89 fe             mov    %edi -> %r14d 
  0x000055ccfbaa6cd2  55                   push   %rbp %rsp -> %rsp 0xfffffff8(%rsp)[8byte] 
  0x000055ccfbaa6cd3  48 8d 2d 76 69 20 00 lea    <rel> 0x000055ccfbcad650 -> %rbp 
  0x000055ccfbaa6cda  53                   push   %rbx %rsp -> %rsp 0xfffffff8(%rsp)[8byte] 
  0x000055ccfbaa6cdb  49 89 f5             mov    %rsi -> %r13 
  0x000055ccfbaa6cde  49 89 d4             mov    %rdx -> %r12 
  0x000055ccfbaa6ce1  4c 29 fd             sub    %r15 %rbp -> %rbp 
  0x000055ccfbaa6ce4  48 83 ec 08          sub    $0x0000000000000008 %rsp -> %rsp 
  0x000055ccfbaa6ce8  48 c1 fd 03          sar    $0x0000000000000003 %rbp -> %rbp 
  0x000055ccfbaa6cec  e8 77 b1 fe ff       call   $0x000055ccfba91e68 %rsp -> %rsp 0xfffffff8(%rsp)[8byte] 
  0x000055ccfba91e68  48 83 ec 08          sub    $0x0000000000000008 %rsp -> %rsp 
  0x000055ccfba91e6c  48 8b 05 75 bf 21 00 mov    <rel> 0x000055ccfbcadde8[8byte] -> %rax 
  0x000055ccfba91e73  48 85 c0             test   %rax %rax 
  0x000055ccfba91e76  74 05                jz     $0x000055ccfba91e7d 
Actual: 55ccfba91e7d

Block 28:
  0x000055ccfba91e7d  48 83 c4 08          add    $0x0000000000000008 %rsp -> %rsp 
  0x000055ccfba91e81  c3                   ret    %rsp (%rsp)[8byte] -> %rsp 
Actual: 55ccfbaa6cf1

Block 29:
  0x000055ccfbaa6cf1  48 85 ed             test   %rbp %rbp 
  0x000055ccfbaa6cf4  74 22                jz     $0x000055ccfbaa6d18 
Actual: 55ccfbaa6cf6

Block 30:
  0x000055ccfbaa6cf6  31 db                xor    %ebx %ebx -> %ebx 
  0x000055ccfbaa6cf8  0f 1f 84 00 00 00 00 nop    0x00000000(%rax,%rax,1)[4byte] 
                      00
  0x000055ccfbaa6d00  49 8b 04 df          mov    (%r15,%rbx,8)[8byte] -> %rax 
  0x000055ccfbaa6d04  48 83 c3 01          add    $0x0000000000000001 %rbx -> %rbx 
  0x000055ccfbaa6d08  4c 89 e2             mov    %r12 -> %rdx 
  0x000055ccfbaa6d0b  4c 89 ee             mov    %r13 -> %rsi 
  0x000055ccfbaa6d0e  44 89 f7             mov    %r14d -> %edi 
  0x000055ccfbaa6d11  ff d0                call   %rax %rsp -> %rsp 0xfffffff8(%rsp)[8byte] 
Actual: 55ccfba92bb0

Block 31:
  0x000055ccfba92bb0  48 8d 3d a1 aa 21 00 lea    <rel> 0x000055ccfbcad658 -> %rdi 
  0x000055ccfba92bb7  48 83 3f 00          cmp    (%rdi)[8byte] $0x0000000000000000 
  0x000055ccfba92bbb  75 0b                jnz    $0x000055ccfba92bc8 
Actual: 55ccfba92bbd

Block 32:
  0x000055ccfba92bbd  e9 5e ff ff ff       jmp    $0x000055ccfba92b20 
  0x000055ccfba92b20  48 8d 3d 81 b5 21 00 lea    <rel> 0x000055ccfbcae0a8 -> %rdi 
  0x000055ccfba92b27  48 8d 35 7a b5 21 00 lea    <rel> 0x000055ccfbcae0a8 -> %rsi 
  0x000055ccfba92b2e  55                   push   %rbp %rsp -> %rsp 0xfffffff8(%rsp)[8byte] 
  0x000055ccfba92b2f  48 29 fe             sub    %rdi %rsi -> %rsi 
  0x000055ccfba92b32  48 89 e5             mov    %rsp -> %rbp 
  0x000055ccfba92b35  48 c1 fe 03          sar    $0x0000000000000003 %rsi -> %rsi 
  0x000055ccfba92b39  48 89 f0             mov    %rsi -> %rax 
  0x000055ccfba92b3c  48 c1 e8 3f          shr    $0x000000000000003f %rax -> %rax 
  0x000055ccfba92b40  48 01 c6             add    %rax %rsi -> %rsi 
  0x000055ccfba92b43  48 d1 fe             sar    $0x0000000000000001 %rsi -> %rsi 
  0x000055ccfba92b46  74 18                jz     $0x000055ccfba92b60 
Actual: 55ccfba92b60

Block 33:
  0x000055ccfba92b60  5d                   pop    %rsp (%rsp)[8byte] -> %rbp %rsp 
  0x000055ccfba92b61  c3                   ret    %rsp (%rsp)[8byte] -> %rsp 
Actual: 55ccfbaa6d13

Block 34:
  0x000055ccfbaa6d13  48 39 dd             cmp    %rbp %rbx 
  0x000055ccfbaa6d16  75 e8                jnz    $0x000055ccfbaa6d00 
Actual: 55ccfbaa6d18

Block 35:
  0x000055ccfbaa6d18  48 83 c4 08          add    $0x0000000000000008 %rsp -> %rsp 
  0x000055ccfbaa6d1c  5b                   pop    %rsp (%rsp)[8byte] -> %rbx %rsp 
  0x000055ccfbaa6d1d  5d                   pop    %rsp (%rsp)[8byte] -> %rbp %rsp 
  0x000055ccfbaa6d1e  41 5c                pop    %rsp (%rsp)[8byte] -> %r12 %rsp 
  0x000055ccfbaa6d20  41 5d                pop    %rsp (%rsp)[8byte] -> %r13 %rsp 
  0x000055ccfbaa6d22  41 5e                pop    %rsp (%rsp)[8byte] -> %r14 %rsp 
  0x000055ccfbaa6d24  41 5f                pop    %rsp (%rsp)[8byte] -> %r15 %rsp 
  0x000055ccfbaa6d26  c3                   ret    %rsp (%rsp)[8byte] -> %rsp 
Actual: 7f8b307546c0

Block 36:
  0x00007f8b307546c0  48 8b 05 99 b7 39 00 mov    <rel> 0x00007f8b30aefe60[8byte] -> %rax 
  0x00007f8b307546c7  44 8b b0 68 01 00 00 mov    0x00000168(%rax)[4byte] -> %r14d 
  0x00007f8b307546ce  45 85 f6             test   %r14d %r14d 
  0x00007f8b307546d1  0f 85 f4 00 00 00    jnz    $0x00007f8b307547cb 
Actual: 7f8b307546d7

Block 37:
  0x00007f8b307546d7  85 db                test   %ebx %ebx 
  0x00007f8b307546d9  0f 85 c9 00 00 00    jnz    $0x00007f8b307547a8 
Actual: 7f8b307546df

Block 38:
  0x00007f8b307546df  48 8d 7c 24 20       lea    0x20(%rsp) -> %rdi 
  0x00007f8b307546e4  e8 47 3e 01 00       call   $0x00007f8b30768530 %rsp -> %rsp 0xfffffff8(%rsp)[8byte] 
  0x00007f8b30768530  31 f6                xor    %esi %esi -> %esi 
  0x00007f8b30768532  e9 59 ff ff ff       jmp    $0x00007f8b30768490 
  0x00007f8b30768490  48 89 1f             mov    %rbx -> (%rdi)[8byte] 
  0x00007f8b30768493  48 89 e8             mov    %rbp -> %rax 
  0x00007f8b30768496  64 48 33 04 25 30 00 xor    %fs:0x30[8byte] %rax -> %rax 
                      00 00
  0x00007f8b3076849f  48 c1 c0 11          rol    $0x0000000000000011 %rax -> %rax 
  0x00007f8b307684a3  48 89 47 08          mov    %rax -> 0x08(%rdi)[8byte] 
  0x00007f8b307684a7  4c 89 67 10          mov    %r12 -> 0x10(%rdi)[8byte] 
  0x00007f8b307684ab  4c 89 6f 18          mov    %r13 -> 0x18(%rdi)[8byte] 
  0x00007f8b307684af  4c 89 77 20          mov    %r14 -> 0x20(%rdi)[8byte] 
  0x00007f8b307684b3  4c 89 7f 28          mov    %r15 -> 0x28(%rdi)[8byte] 
  0x00007f8b307684b7  48 8d 54 24 08       lea    0x08(%rsp) -> %rdx 
  0x00007f8b307684bc  64 48 33 14 25 30 00 xor    %fs:0x30[8byte] %rdx -> %rdx 
                      00 00
  0x00007f8b307684c5  48 c1 c2 11          rol    $0x0000000000000011 %rdx -> %rdx 
  0x00007f8b307684c9  48 89 57 30          mov    %rdx -> 0x30(%rdi)[8byte] 
  0x00007f8b307684cd  48 8b 04 24          mov    (%rsp)[8byte] -> %rax 
  0x00007f8b307684d1  90                   nop    
  0x00007f8b307684d2  64 48 33 04 25 30 00 xor    %fs:0x30[8byte] %rax -> %rax 
                      00 00
  0x00007f8b307684db  48 c1 c0 11          rol    $0x0000000000000011 %rax -> %rax 
  0x00007f8b307684df  48 89 47 38          mov    %rax -> 0x38(%rdi)[8byte] 
  0x00007f8b307684e3  e9 08 00 00 00       jmp    $0x00007f8b307684f0 
  0x00007f8b307684f0  85 f6                test   %esi %esi 
  0x00007f8b307684f2  53                   push   %rbx %rsp -> %rsp 0xfffffff8(%rsp)[8byte] 
  0x00007f8b307684f3  48 89 fb             mov    %rdi -> %rbx 
  0x00007f8b307684f6  74 15                jz     $0x00007f8b3076850d 
Actual: 7f8b3076850d

Block 39:
  0x00007f8b3076850d  89 73 40             mov    %esi -> 0x40(%rbx)[4byte] 
  0x00007f8b30768510  31 c0                xor    %eax %eax -> %eax 
  0x00007f8b30768512  5b                   pop    %rsp (%rsp)[8byte] -> %rbx %rsp 
  0x00007f8b30768513  c3                   ret    %rsp (%rsp)[8byte] -> %rsp 
Actual: 7f8b307546e9

Block 40:
  0x00007f8b307546e9  85 c0                test   %eax %eax 
  0x00007f8b307546eb  75 52                jnz    $0x00007f8b3075473f 
Actual: 7f8b307546ed

Block 41:
  0x00007f8b307546ed  64 48 8b 04 25 00 03 mov    %fs:0x00000300[8byte] -> %rax 
                      00 00
  0x00007f8b307546f6  48 89 44 24 68       mov    %rax -> 0x68(%rsp)[8byte] 
  0x00007f8b307546fb  64 48 8b 04 25 f8 02 mov    %fs:0x000002f8[8byte] -> %rax 
                      00 00
  0x00007f8b30754704  48 89 44 24 70       mov    %rax -> 0x70(%rsp)[8byte] 
  0x00007f8b30754709  48 8d 44 24 20       lea    0x20(%rsp) -> %rax 
  0x00007f8b3075470e  64 48 89 04 25 00 03 mov    %rax -> %fs:0x00000300[8byte] 
                      00 00
  0x00007f8b30754717  48 8b 05 8a b7 39 00 mov    <rel> 0x00007f8b30aefea8[8byte] -> %rax 
  0x00007f8b3075471e  48 8b 74 24 08       mov    0x08(%rsp)[8byte] -> %rsi 
  0x00007f8b30754723  8b 7c 24 14          mov    0x14(%rsp)[4byte] -> %edi 
  0x00007f8b30754727  48 8b 10             mov    (%rax)[8byte] -> %rdx 
  0x00007f8b3075472a  48 8b 44 24 18       mov    0x18(%rsp)[8byte] -> %rax 
  0x00007f8b3075472f  ff d0                call   %rax %rsp -> %rsp 0xfffffff8(%rsp)[8byte] 
Actual: 55ccfba92330

Block 42:
  0x000055ccfba92330  41 57                push   %r15 %rsp -> %rsp 0xfffffff8(%rsp)[8byte] 
  0x000055ccfba92332  41 56                push   %r14 %rsp -> %rsp 0xfffffff8(%rsp)[8byte] 
  0x000055ccfba92334  41 55                push   %r13 %rsp -> %rsp 0xfffffff8(%rsp)[8byte] 
  0x000055ccfba92336  41 54                push   %r12 %rsp -> %rsp 0xfffffff8(%rsp)[8byte] 
  0x000055ccfba92338  55                   push   %rbp %rsp -> %rsp 0xfffffff8(%rsp)[8byte] 
  0x000055ccfba92339  53                   push   %rbx %rsp -> %rsp 0xfffffff8(%rsp)[8byte] 
  0x000055ccfba9233a  48 89 f3             mov    %rsi -> %rbx 
  0x000055ccfba9233d  89 fd                mov    %edi -> %ebp 
  0x000055ccfba9233f  48 81 ec 28 01 00 00 sub    $0x0000000000000128 %rsp -> %rsp 
  0x000055ccfba92346  64 48 8b 04 25 28 00 mov    %fs:0x28[8byte] -> %rax 
                      00 00
  0x000055ccfba9234f  48 89 84 24 18 01 00 mov    %rax -> 0x00000118(%rsp)[8byte] 
                      00
  0x000055ccfba92357  31 c0                xor    %eax %eax -> %eax 
  0x000055ccfba92359  e8 72 fb ff ff       call   $0x000055ccfba91ed0 %rsp -> %rsp 0xfffffff8(%rsp)[8byte] 
  0x000055ccfba91ed0  ff 25 7a bc 21 00    jmp    <rel> 0x000055ccfbcadb50[8byte] 
Actual: 7f8b30f201e0

Block 43:
  0x00007f8b30f201e0  48 8b 05 59 78 20 00 mov    <rel> 0x00007f8b31127a40[8byte] -> %rax 
  0x00007f8b30f201e7  48 83 38 00          cmp    (%rax)[8byte] $0x0000000000000000 
  0x00007f8b30f201eb  74 13                jz     $0x00007f8b30f20200 
Actual: 7f8b30f20200

Block 44:
  0x00007f8b30f20200  31 c0                xor    %eax %eax -> %eax 
  0x00007f8b30f20202  0f b6 c0             movzx  %al -> %eax 
  0x00007f8b30f20205  c3                   ret    %rsp (%rsp)[8byte] -> %rsp 
Actual: 55ccfba9235e

Block 45:
  0x000055ccfba9235e  48 8b 3b             mov    (%rbx)[8byte] -> %rdi 
  0x000055ccfba92361  89 44 24 10          mov    %eax -> 0x10(%rsp)[4byte] 
  0x000055ccfba92365  4c 8d 64 24 30       lea    0x30(%rsp) -> %r12 
  0x000055ccfba9236a  e8 41 a8 00 00       call   $0x000055ccfba9cbb0 %rsp -> %rsp 0xfffffff8(%rsp)[8byte] 
  0x000055ccfba9cbb0  48 85 ff             test   %rdi %rdi 
  0x000055ccfba9cbb3  53                   push   %rbx %rsp -> %rsp 0xfffffff8(%rsp)[8byte] 
  0x000055ccfba9cbb4  74 7a                jz     $0x000055ccfba9cc30 
Actual: 55ccfba9cbb6

Block 46:
  0x000055ccfba9cbb6  be 2f 00 00 00       mov    $0x0000002f -> %esi 
  0x000055ccfba9cbbb  48 89 fb             mov    %rdi -> %rbx 
  0x000055ccfba9cbbe  e8 65 54 ff ff       call   $0x000055ccfba92028 %rsp -> %rsp 0xfffffff8(%rsp)[8byte] 
  0x000055ccfba92028  ff 25 9a bc 21 00    jmp    <rel> 0x000055ccfbcadcc8[8byte] 
Actual: 7f8b307bde90

Block 47:
  0x00007f8b307bde90  66 0f 6e ce          movd   %esi -> %xmm1 
  0x00007f8b307bde94  48 89 f8             mov    %rdi -> %rax 
  0x00007f8b307bde97  25 ff 0f 00 00       and    $0x00000fff %eax -> %eax 
  0x00007f8b307bde9c  66 0f 60 c9          punpcklbw %xmm1 %xmm1 -> %xmm1 
  0x00007f8b307bdea0  48 3d c0 0f 00 00    cmp    %rax $0x0000000000000fc0 
  0x00007f8b307bdea6  66 0f 61 c9          punpcklwd %xmm1 %xmm1 -> %xmm1 
  0x00007f8b307bdeaa  66 0f 70 c9 00       pshufd %xmm1 $0x00 -> %xmm1 
  0x00007f8b307bdeaf  0f 87 fb 01 00 00    jnbe   $0x00007f8b307be0b0 
Actual: 7f8b307bdeb5

Block 48:
  0x00007f8b307bdeb5  f3 0f 6f 07          movdqu (%rdi)[16byte] -> %xmm0 
  0x00007f8b307bdeb9  66 0f ef d2          pxor   %xmm2 %xmm2 -> %xmm2 
  0x00007f8b307bdebd  66 0f 6f d8          movdqa %xmm0 -> %xmm3 
  0x00007f8b307bdec1  66 0f 74 c1          pcmpeqb %xmm1 %xmm0 -> %xmm0 
  0x00007f8b307bdec5  66 0f 74 da          pcmpeqb %xmm2 %xmm3 -> %xmm3 
  0x00007f8b307bdec9  66 0f d7 c8          pmovmskb %xmm0 -> %ecx 
  0x00007f8b307bdecd  66 0f d7 d3          pmovmskb %xmm3 -> %edx 
  0x00007f8b307bded1  48 85 d2             test   %rdx %rdx 
  0x00007f8b307bded4  74 1a                jz     $0x00007f8b307bdef0 
Actual: 7f8b307bded6

Block 49:
  0x00007f8b307bded6  48 8d 42 ff          lea    0xffffffff(%rdx) -> %rax 
  0x00007f8b307bdeda  48 31 d0             xor    %rdx %rax -> %rax 
  0x00007f8b307bdedd  48 21 c8             and    %rcx %rax -> %rax 
  0x00007f8b307bdee0  0f 84 ba 01 00 00    jz     $0x00007f8b307be0a0 
Actual: 7f8b307be0a0

Block 50:
  0x00007f8b307be0a0  31 c0                xor    %eax %eax -> %eax 
  0x00007f8b307be0a2  c3                   ret    %rsp (%rsp)[8byte] -> %rsp 
Actual: 55ccfba9cbc3

Block 51:
  0x000055ccfba9cbc3  48 85 c0             test   %rax %rax 
  0x000055ccfba9cbc6  74 52                jz     $0x000055ccfba9cc1a 
Actual: 55ccfba9cc1a

Block 52:
  0x000055ccfba9cc1a  48 8d 05 17 19 21 00 lea    <rel> 0x000055ccfbcae538 -> %rax 
  0x000055ccfba9cc21  48 89 18             mov    %rbx -> (%rax)[8byte] 
  0x000055ccfba9cc24  48 8b 05 e5 11 21 00 mov    <rel> 0x000055ccfbcade10[8byte] -> %rax 
  0x000055ccfba9cc2b  48 89 18             mov    %rbx -> (%rax)[8byte] 
  0x000055ccfba9cc2e  5b                   pop    %rsp (%rsp)[8byte] -> %rbx %rsp 
  0x000055ccfba9cc2f  c3                   ret    %rsp (%rsp)[8byte] -> %rsp 
Actual: 55ccfba9236f

Block 53:
  0x000055ccfba9236f  48 8d 35 70 62 01 00 lea    <rel> 0x000055ccfbaa85e6 -> %rsi 
  0x000055ccfba92376  bf 06 00 00 00       mov    $0x00000006 -> %edi 
  0x000055ccfba9237b  e8 88 fe ff ff       call   $0x000055ccfba92208 %rsp -> %rsp 0xfffffff8(%rsp)[8byte] 
  0x000055ccfba92208  ff 25 aa bc 21 00    jmp    <rel> 0x000055ccfbcadeb8[8byte] 
Actual: 7f8b3075e0d0

Block 54:
  0x00007f8b3075e0d0  41 57                push   %r15 %rsp -> %rsp 0xfffffff8(%rsp)[8byte] 
  0x00007f8b3075e0d2  41 56                push   %r14 %rsp -> %rsp 0xfffffff8(%rsp)[8byte] 
  0x00007f8b3075e0d4  41 55                push   %r13 %rsp -> %rsp 0xfffffff8(%rsp)[8byte] 
  0x00007f8b3075e0d6  41 54                push   %r12 %rsp -> %rsp 0xfffffff8(%rsp)[8byte] 
  0x00007f8b3075e0d8  55                   push   %rbp %rsp -> %rsp 0xfffffff8(%rsp)[8byte] 
  0x00007f8b3075e0d9  53                   push   %rbx %rsp -> %rsp 0xfffffff8(%rsp)[8byte] 
  0x00007f8b3075e0da  48 81 ec 18 01 00 00 sub    $0x0000000000000118 %rsp -> %rsp 
  0x00007f8b3075e0e1  83 ff 0c             cmp    %edi $0x0000000c 
  0x00007f8b3075e0e4  0f 87 a6 01 00 00    jnbe   $0x00007f8b3075e290 
Actual: 7f8b3075e0ea

Block 55:
  0x00007f8b3075e0ea  48 85 f6             test   %rsi %rsi 
  0x00007f8b3075e0ed  0f 84 6d 04 00 00    jz     $0x00007f8b3075e560 
Actual: 7f8b3075e0f3

Block 56:
  0x00007f8b3075e0f3  44 8b 0d f6 75 39 00 mov    <rel> 0x00007f8b30af56f0[4byte] -> %r9d 
  0x00007f8b3075e0fa  48 89 f5             mov    %rsi -> %rbp 
  0x00007f8b3075e0fd  89 fb                mov    %edi -> %ebx 
  0x00007f8b3075e0ff  45 85 c9             test   %r9d %r9d 
  0x00007f8b3075e102  0f 85 a8 01 00 00    jnz    $0x00007f8b3075e2b0 
Actual: 7f8b3075e2b0

Block 57:
  0x00007f8b3075e2b0  4c 63 eb             movsxd %ebx -> %r13 
  0x00007f8b3075e2b3  4c 8d 25 46 31 39 00 lea    <rel> 0x00007f8b30af1400 -> %r12 
  0x00007f8b3075e2ba  48 8b 05 c7 73 39 00 mov    <rel> 0x00007f8b30af5688[8byte] -> %rax 
  0x00007f8b3075e2c1  4d 8d 7d 10          lea    0x10(%r13) -> %r15 
  0x00007f8b3075e2c5  48 8d 3d 34 36 39 00 lea    <rel> 0x00007f8b30af1900 -> %rdi 
  0x00007f8b3075e2cc  48 c1 c8 11          ror    $0x0000000000000011 %rax -> %rax 
  0x00007f8b3075e2d0  64 48 33 04 25 30 00 xor    %fs:0x30[8byte] %rax -> %rax 
                      00 00
  0x00007f8b3075e2d9  ff d0                call   %rax %rsp -> %rsp 0xfffffff8(%rsp)[8byte] 
Actual: 7f8b31137040

Block 58:
  0x00007f8b31137040  48 89 fa             mov    %rdi -> %rdx 
  0x00007f8b31137043  90                   nop    
  0x00007f8b31137044  0f b6 47 20          movzx  0x20(%rdi)[1byte] -> %eax 
  0x00007f8b31137048  84 c0                test   %al %al 
  0x00007f8b3113704a  7e 6c                jle    $0x00007f8b311370b8 
Actual: 7f8b311370b8

Block 59:
  0x00007f8b311370b8  8b 0d da b1 20 00    mov    <rel> 0x00007f8b31342298[4byte] -> %ecx 
  0x00007f8b311370be  bf ff ff ff ff       mov    $0xffffffff -> %edi 
  0x00007f8b311370c3  85 c9                test   %ecx %ecx 
  0x00007f8b311370c5  7f 39                jnle   $0x00007f8b31137100 
Actual: 7f8b311370c7

Block 60:
  0x00007f8b311370c7  eb 89                jmp    $0x00007f8b31137052 
  0x00007f8b31137052  bf 01 00 00 00       mov    $0x00000001 -> %edi 
  0x00007f8b31137057  31 c0                xor    %eax %eax -> %eax 
  0x00007f8b31137059  8b 72 1c             mov    0x1c(%rdx)[4byte] -> %esi 
  0x00007f8b3113705c  f0 0f b1 3a          lock cmpxchg %edi (%rdx)[4byte] %eax -> (%rdx)[4byte] %eax 
  0x00007f8b31137060  74 16                jz     $0x00007f8b31137078 
Actual: 7f8b31137078

Block 61:
  0x00007f8b31137078  8b 42 18             mov    0x18(%rdx)[4byte] -> %eax 
  0x00007f8b3113707b  0b 42 04             or     0x04(%rdx)[4byte] %eax -> %eax 
  0x00007f8b3113707e  0f 85 bc 00 00 00    jnz    $0x00007f8b31137140 
Actual: 7f8b31137084

Block 62:
  0x00007f8b31137084  64 8b 04 25 d0 02 00 mov    %fs:0x000002d0[4byte] -> %eax 
                      00
  0x00007f8b3113708c  89 42 18             mov    %eax -> 0x18(%rdx)[4byte] 
  0x00007f8b3113708f  90                   nop    
  0x00007f8b31137090  8b 72 1c             mov    0x1c(%rdx)[4byte] -> %esi 
  0x00007f8b31137093  f0 ff 0a             lock dec    (%rdx)[4byte] -> (%rdx)[4byte] 
  0x00007f8b31137096  74 16                jz     $0x00007f8b311370ae 
Actual: 7f8b311370ae

Block 63:
  0x00007f8b311370ae  31 c0                xor    %eax %eax -> %eax 
  0x00007f8b311370b0  c3                   ret    %rsp (%rsp)[8byte] -> %rsp 
Actual: 7f8b3075e2db

Block 64:
  0x00007f8b3075e2db  4f 8b 34 fc          mov    (%r12,%r15,8)[8byte] -> %r14 
  0x00007f8b3075e2df  48 89 ef             mov    %rbp -> %rdi 
  0x00007f8b3075e2e2  4c 89 f6             mov    %r14 -> %rsi 
  0x00007f8b3075e2e5  e8 b6 c4 05 00       call   $0x00007f8b307ba7a0 %rsp -> %rsp 0xfffffff8(%rsp)[8byte] 
  0x00007f8b307ba7a0  89 f1                mov    %esi -> %ecx 
  0x00007f8b307ba7a2  89 f8                mov    %edi -> %eax 
  0x00007f8b307ba7a4  48 83 e1 3f          and    $0x000000000000003f %rcx -> %rcx 
  0x00007f8b307ba7a8  48 83 e0 3f          and    $0x000000000000003f %rax -> %rax 
  0x00007f8b307ba7ac  83 f9 30             cmp    %ecx $0x00000030 
  0x00007f8b307ba7af  77 3f                jnbe   $0x00007f8b307ba7f0 
Actual: 7f8b307ba7f0

Block 65:
  0x00007f8b307ba7f0  48 83 e6 f0          and    $0xfffffffffffffff0 %rsi -> %rsi 
  0x00007f8b307ba7f4  48 83 e7 f0          and    $0xfffffffffffffff0 %rdi -> %rdi 
  0x00007f8b307ba7f8  ba ff ff 00 00       mov    $0x0000ffff -> %edx 
  0x00007f8b307ba7fd  45 31 c0             xor    %r8d %r8d -> %r8d 
  0x00007f8b307ba800  83 e1 0f             and    $0x0000000f %ecx -> %ecx 
  0x00007f8b307ba803  83 e0 0f             and    $0x0000000f %eax -> %eax 
  0x00007f8b307ba806  39 c1                cmp    %ecx %eax 
  0x00007f8b307ba808  74 26                jz     $0x00007f8b307ba830 
Actual: 7f8b307ba80a

Block 66:
  0x00007f8b307ba80a  77 07                jnbe   $0x00007f8b307ba813 
Actual: 7f8b307ba813

Block 67:
  0x00007f8b307ba813  4c 8d 48 0f          lea    0x0f(%rax) -> %r9 
  0x00007f8b307ba817  49 29 c9             sub    %rcx %r9 -> %r9 
  0x00007f8b307ba81a  4c 8d 15 af d4 0f 00 lea    <rel> 0x00007f8b308b7cd0 -> %r10 
  0x00007f8b307ba821  4f 63 0c 8a          movsxd (%r10,%r9,4)[4byte] -> %r9 
  0x00007f8b307ba825  4f 8d 14 0a          lea    (%r10,%r9,1) -> %r10 
  0x00007f8b307ba829  41 ff e2             jmp    %r10 
Actual: 7f8b307bb910

Block 68:
  0x00007f8b307bb910  66 0f ef c0          pxor   %xmm0 %xmm0 -> %xmm0 
  0x00007f8b307bb914  66 0f 6f 17          movdqa (%rdi)[16byte] -> %xmm2 
  0x00007f8b307bb918  66 0f 6f 0e          movdqa (%rsi)[16byte] -> %xmm1 
  0x00007f8b307bb91c  66 0f 74 c1          pcmpeqb %xmm1 %xmm0 -> %xmm0 
  0x00007f8b307bb920  66 0f 73 fa 02       pslldq $0x02 %xmm2 -> %xmm2 
  0x00007f8b307bb925  66 0f 74 d1          pcmpeqb %xmm1 %xmm2 -> %xmm2 
  0x00007f8b307bb929  66 0f f8 d0          psubb  %xmm0 %xmm2 -> %xmm2 
  0x00007f8b307bb92d  66 44 0f d7 ca       pmovmskb %xmm2 -> %r9d 
  0x00007f8b307bb932  d3 ea                shr    %cl %edx -> %edx 
  0x00007f8b307bb934  41 d3 e9             shr    %cl %r9d -> %r9d 
  0x00007f8b307bb937  44 29 ca             sub    %r9d %edx -> %edx 
  0x00007f8b307bb93a  0f 85 55 02 00 00    jnz    $0x00007f8b307bbb95 
Actual: 7f8b307bbb95

Block 69:
  0x00007f8b307bbb95  48 8d 3c 07          lea    (%rdi,%rax,1) -> %rdi 
  0x00007f8b307bbb99  48 8d 34 0e          lea    (%rsi,%rcx,1) -> %rsi 
  0x00007f8b307bbb9d  45 85 c0             test   %r8d %r8d 
  0x00007f8b307bbba0  74 0e                jz     $0x00007f8b307bbbb0 
Actual: 7f8b307bbbb0

Block 70:
  0x00007f8b307bbbb0  48 0f bc d2          bsf    %rdx -> %rdx 
  0x00007f8b307bbbb4  0f b6 0c 16          movzx  (%rsi,%rdx,1)[1byte] -> %ecx 
  0x00007f8b307bbbb8  0f b6 04 17          movzx  (%rdi,%rdx,1)[1byte] -> %eax 
  0x00007f8b307bbbbc  29 c8                sub    %ecx %eax -> %eax 
  0x00007f8b307bbbbe  c3                   ret    %rsp (%rsp)[8byte] -> %rsp 
Actual: 7f8b3075e2ea

Block 71:
  0x00007f8b3075e2ea  85 c0                test   %eax %eax 
  0x00007f8b3075e2ec  0f 85 56 fe ff ff    jnz    $0x00007f8b3075e148 
Actual: 7f8b3075e148

Block 72:
  0x00007f8b3075e148  48 8d 3d d7 e7 15 00 lea    <rel> 0x00007f8b308bc926 -> %rdi 
  0x00007f8b3075e14f  48 c7 44 24 20 00 00 mov    $0x0000000000000000 -> 0x20(%rsp)[8byte] 
                      00 00
  0x00007f8b3075e158  48 c7 44 24 28 00 00 mov    $0x0000000000000000 -> 0x28(%rsp)[8byte] 
                      00 00
  0x00007f8b3075e161  e8 0a e8 00 00       call   $0x00007f8b3076c970 %rsp -> %rsp 0xfffffff8(%rsp)[8byte] 
  0x00007f8b3076c970  41 57                push   %r15 %rsp -> %rsp 0xfffffff8(%rsp)[8byte] 
  0x00007f8b3076c972  41 56                push   %r14 %rsp -> %rsp 0xfffffff8(%rsp)[8byte] 
  0x00007f8b3076c974  49 89 ff             mov    %rdi -> %r15 
  0x00007f8b3076c977  41 55                push   %r13 %rsp -> %rsp 0xfffffff8(%rsp)[8byte] 
  0x00007f8b3076c979  41 54                push   %r12 %rsp -> %rsp 0xfffffff8(%rsp)[8byte] 
  0x00007f8b3076c97b  55                   push   %rbp %rsp -> %rsp 0xfffffff8(%rsp)[8byte] 
  0x00007f8b3076c97c  53                   push   %rbx %rsp -> %rsp 0xfffffff8(%rsp)[8byte] 
  0x00007f8b3076c97d  48 83 ec 08          sub    $0x0000000000000008 %rsp -> %rsp 
  0x00007f8b3076c981  e8 2a f8 04 00       call   $0x00007f8b307bc1b0 %rsp -> %rsp 0xfffffff8(%rsp)[8byte] 
  0x00007f8b307bc1b0  66 0f ef c0          pxor   %xmm0 %xmm0 -> %xmm0 
  0x00007f8b307bc1b4  66 0f ef c9          pxor   %xmm1 %xmm1 -> %xmm1 
  0x00007f8b307bc1b8  66 0f ef d2          pxor   %xmm2 %xmm2 -> %xmm2 
  0x00007f8b307bc1bc  66 0f ef db          pxor   %xmm3 %xmm3 -> %xmm3 
  0x00007f8b307bc1c0  48 89 f8             mov    %rdi -> %rax 
  0x00007f8b307bc1c3  48 89 f9             mov    %rdi -> %rcx 
  0x00007f8b307bc1c6  48 81 e1 ff 0f 00 00 and    $0x0000000000000fff %rcx -> %rcx 
  0x00007f8b307bc1cd  48 81 f9 cf 0f 00 00 cmp    %rcx $0x0000000000000fcf 
  0x00007f8b307bc1d4  77 6a                jnbe   $0x00007f8b307bc240 
Actual: 7f8b307bc1d6

Block 73:
  0x00007f8b307bc1d6  f3 0f 6f 20          movdqu (%rax)[16byte] -> %xmm4 
  0x00007f8b307bc1da  66 0f 74 e0          pcmpeqb %xmm0 %xmm4 -> %xmm4 
  0x00007f8b307bc1de  66 0f d7 d4          pmovmskb %xmm4 -> %edx 
  0x00007f8b307bc1e2  85 d2                test   %edx %edx 
  0x00007f8b307bc1e4  74 04                jz     $0x00007f8b307bc1ea 
Actual: 7f8b307bc1e6

Block 74:
  0x00007f8b307bc1e6  0f bc c2             bsf    %edx -> %eax 
  0x00007f8b307bc1e9  c3                   ret    %rsp (%rsp)[8byte] -> %rsp 
Actual: 7f8b3076c986

Block 75:
  0x00007f8b3076c986  49 89 c5             mov    %rax -> %r13 
  0x00007f8b3076c989  48 8b 05 18 35 38 00 mov    <rel> 0x00007f8b30aefea8[8byte] -> %rax 
  0x00007f8b3076c990  48 8b 28             mov    (%rax)[8byte] -> %rbp 
  0x00007f8b3076c993  48 85 ed             test   %rbp %rbp 
  0x00007f8b3076c996  0f 84 ac 00 00 00    jz     $0x00007f8b3076ca48 
Actual: 7f8b3076c99c

Block 76:
  0x00007f8b3076c99c  41 0f b6 07          movzx  (%r15)[1byte] -> %eax 
  0x00007f8b3076c9a0  84 c0                test   %al %al 
  0x00007f8b3076c9a2  0f 84 a0 00 00 00    jz     $0x00007f8b3076ca48 
Actual: 7f8b3076c9a8

Block 77:
  0x00007f8b3076c9a8  41 80 7f 01 00       cmp    0x01(%r15)[1byte] $0x00 
  0x00007f8b3076c9ad  75 41                jnz    $0x00007f8b3076c9f0 
Actual: 7f8b3076c9f0

Block 78:
  0x00007f8b3076c9f0  48 8b 5d 00          mov    0x00(%rbp)[8byte] -> %rbx 
  0x00007f8b3076c9f4  45 0f b7 27          movzx  (%r15)[2byte] -> %r12d 
  0x00007f8b3076c9f8  49 83 c7 02          add    $0x0000000000000002 %r15 -> %r15 
  0x00007f8b3076c9fc  4d 8d 75 fe          lea    0xfffffffe(%r13) -> %r14 
  0x00007f8b3076ca00  48 85 db             test   %rbx %rbx 
  0x00007f8b3076ca03  75 18                jnz    $0x00007f8b3076ca1d 
Actual: 7f8b3076ca1d

Block 79:
  0x00007f8b3076ca1d  66 44 3b 23          data16 cmp    %r12w (%rbx)[2byte] 
  0x00007f8b3076ca21  75 ed                jnz    $0x00007f8b3076ca10 
Actual: 7f8b3076ca10

Block 80:
  0x00007f8b3076ca10  48 83 c5 08          add    $0x0000000000000008 %rbp -> %rbp 
  0x00007f8b3076ca14  48 8b 5d 00          mov    0x00(%rbp)[8byte] -> %rbx 
  0x00007f8b3076ca18  48 85 db             test   %rbx %rbx 
  0x00007f8b3076ca1b  74 b9                jz     $0x00007f8b3076c9d6 
Actual: 7f8b3076ca1d

Block 81:
  0x00007f8b3076ca23  48 8d 7b 02          lea    0x02(%rbx) -> %rdi 
  0x00007f8b3076ca27  4c 89 f2             mov    %r14 -> %rdx 
  0x00007f8b3076ca2a  4c 89 fe             mov    %r15 -> %rsi 
  0x00007f8b3076ca2d  e8 ce fb 04 00       call   $0x00007f8b307bc600 %rsp -> %rsp 0xfffffff8(%rsp)[8byte] 
  0x00007f8b307bc600  48 85 d2             test   %rdx %rdx 
  0x00007f8b307bc603  0f 84 2b 18 00 00    jz     $0x00007f8b307bde34 
Actual: 7f8b307bc609

Block 82:
  0x00007f8b307bc609  48 83 fa 01          cmp    %rdx $0x0000000000000001 
  0x00007f8b307bc60d  0f 84 2d 18 00 00    jz     $0x00007f8b307bde40 
Actual: 7f8b307bc613

Block 83:
  0x00007f8b307bc613  49 89 d3             mov    %rdx -> %r11 
  0x00007f8b307bc616  89 f1                mov    %esi -> %ecx 
  0x00007f8b307bc618  89 f8                mov    %edi -> %eax 
  0x00007f8b307bc61a  48 83 e1 3f          and    $0x000000000000003f %rcx -> %rcx 
  0x00007f8b307bc61e  48 83 e0 3f          and    $0x000000000000003f %rax -> %rax 
  0x00007f8b307bc622  83 f9 30             cmp    %ecx $0x00000030 
  0x00007f8b307bc625  77 49                jnbe   $0x00007f8b307bc670 
Actual: 7f8b307bc627

Block 84:
  0x00007f8b307bc627  83 f8 30             cmp    %eax $0x00000030 
  0x00007f8b307bc62a  77 44                jnbe   $0x00007f8b307bc670 
Actual: 7f8b307bc62c

Block 85:
  0x00007f8b307bc62c  66 0f 12 0f          movlpd (%rdi)[8byte] -> %xmm1[8byte] 
  0x00007f8b307bc630  66 0f 12 16          movlpd (%rsi)[8byte] -> %xmm2[8byte] 
  0x00007f8b307bc634  66 0f 16 4f 08       movhpd 0x08(%rdi)[8byte] -> %xmm1[8byte] 
  0x00007f8b307bc639  66 0f 16 56 08       movhpd 0x08(%rsi)[8byte] -> %xmm2[8byte] 
  0x00007f8b307bc63e  66 0f ef c0          pxor   %xmm0 %xmm0 -> %xmm0 
  0x00007f8b307bc642  66 0f 74 c1          pcmpeqb %xmm1 %xmm0 -> %xmm0 
  0x00007f8b307bc646  66 0f 74 ca          pcmpeqb %xmm2 %xmm1 -> %xmm1 
  0x00007f8b307bc64a  66 0f f8 c8          psubb  %xmm0 %xmm1 -> %xmm1 
  0x00007f8b307bc64e  66 0f d7 d1          pmovmskb %xmm1 -> %edx 
  0x00007f8b307bc652  81 ea ff ff 00 00    sub    $0x0000ffff %edx -> %edx 
  0x00007f8b307bc658  0f 85 c2 17 00 00    jnz    $0x00007f8b307bde20 
Actual: 7f8b307bde20

Block 86:
  0x00007f8b307bde20  48 0f bc d2          bsf    %rdx -> %rdx 
  0x00007f8b307bde24  49 29 d3             sub    %rdx %r11 -> %r11 
  0x00007f8b307bde27  76 0b                jbe    $0x00007f8b307bde34 
Actual: 7f8b307bde29

Block 87:
  0x00007f8b307bde29  0f b6 0c 16          movzx  (%rsi,%rdx,1)[1byte] -> %ecx 
  0x00007f8b307bde2d  0f b6 04 17          movzx  (%rdi,%rdx,1)[1byte] -> %eax 
  0x00007f8b307bde31  29 c8                sub    %ecx %eax -> %eax 
  0x00007f8b307bde33  c3                   ret    %rsp (%rsp)[8byte] -> %rsp 
Actual: 7f8b3076ca32

Block 88:
  0x00007f8b3076ca32  85 c0                test   %eax %eax 
  0x00007f8b3076ca34  75 da                jnz    $0x00007f8b3076ca10 
Actual: 7f8b3076ca10

Block 89:
  0x00007f8b3076c9d6  48 83 c4 08          add    $0x0000000000000008 %rsp -> %rsp 
  0x00007f8b3076c9da  48 89 d8             mov    %rbx -> %rax 
  0x00007f8b3076c9dd  5b                   pop    %rsp (%rsp)[8byte] -> %rbx %rsp 
  0x00007f8b3076c9de  5d                   pop    %rsp (%rsp)[8byte] -> %rbp %rsp 
  0x00007f8b3076c9df  41 5c                pop    %rsp (%rsp)[8byte] -> %r12 %rsp 
  0x00007f8b3076c9e1  41 5d                pop    %rsp (%rsp)[8byte] -> %r13 %rsp 
  0x00007f8b3076c9e3  41 5e                pop    %rsp (%rsp)[8byte] -> %r14 %rsp 
  0x00007f8b3076c9e5  41 5f                pop    %rsp (%rsp)[8byte] -> %r15 %rsp 
  0x00007f8b3076c9e7  c3                   ret    %rsp (%rsp)[8byte] -> %rsp 
Actual: 7f8b3075e166

Block 90:
  0x00007f8b3075e166  48 85 c0             test   %rax %rax 
  0x00007f8b3075e169  74 09                jz     $0x00007f8b3075e174 
Actual: 7f8b3075e174

Block 91:
  0x00007f8b3075e174  83 fb 06             cmp    %ebx $0x00000006 
  0x00007f8b3075e177  0f 85 d3 02 00 00    jnz    $0x00007f8b3075e450 
Actual: 7f8b3075e17d

Block 92:
  0x00007f8b3075e17d  be 3b 00 00 00       mov    $0x0000003b -> %esi 
  0x00007f8b3075e182  48 89 ef             mov    %rbp -> %rdi 
  0x00007f8b3075e185  48 89 6c 24 30       mov    %rbp -> 0x30(%rsp)[8byte] 
  0x00007f8b3075e18a  48 89 6c 24 38       mov    %rbp -> 0x38(%rsp)[8byte] 
  0x00007f8b3075e18f  48 89 6c 24 40       mov    %rbp -> 0x40(%rsp)[8byte] 
  0x00007f8b3075e194  48 89 6c 24 48       mov    %rbp -> 0x48(%rsp)[8byte] 
  0x00007f8b3075e199  48 89 6c 24 50       mov    %rbp -> 0x50(%rsp)[8byte] 
  0x00007f8b3075e19e  48 89 6c 24 58       mov    %rbp -> 0x58(%rsp)[8byte] 
  0x00007f8b3075e1a3  48 89 6c 24 68       mov    %rbp -> 0x68(%rsp)[8byte] 
  0x00007f8b3075e1a8  48 89 6c 24 70       mov    %rbp -> 0x70(%rsp)[8byte] 
  0x00007f8b3075e1ad  48 89 6c 24 78       mov    %rbp -> 0x78(%rsp)[8byte] 
  0x00007f8b3075e1b2  48 89 ac 24 80 00 00 mov    %rbp -> 0x00000080(%rsp)[8byte] 
                      00
  0x00007f8b3075e1ba  48 89 ac 24 88 00 00 mov    %rbp -> 0x00000088(%rsp)[8byte] 
                      00
  0x00007f8b3075e1c2  48 89 ac 24 90 00 00 mov    %rbp -> 0x00000090(%rsp)[8byte] 
                      00
  0x00007f8b3075e1ca  e8 71 c3 05 00       call   $0x00007f8b307ba540 %rsp -> %rsp 0xfffffff8(%rsp)[8byte] 
  0x00007f8b307ba540  66 0f 6e ce          movd   %esi -> %xmm1 
  0x00007f8b307ba544  89 f8                mov    %edi -> %eax 
  0x00007f8b307ba546  25 ff 0f 00 00       and    $0x00000fff %eax -> %eax 
  0x00007f8b307ba54b  66 0f 60 c9          punpcklbw %xmm1 %xmm1 -> %xmm1 
  0x00007f8b307ba54f  3d c0 0f 00 00       cmp    %eax $0x00000fc0 
  0x00007f8b307ba554  66 0f 61 c9          punpcklwd %xmm1 %xmm1 -> %xmm1 
  0x00007f8b307ba558  66 0f 70 c9 00       pshufd %xmm1 $0x00 -> %xmm1 
  0x00007f8b307ba55d  0f 8f 5d 01 00 00    jnle   $0x00007f8b307ba6c0 
Actual: 7f8b307ba563

Block 93:
  0x00007f8b307ba563  f3 0f 6f 07          movdqu (%rdi)[16byte] -> %xmm0 
  0x00007f8b307ba567  66 0f ef db          pxor   %xmm3 %xmm3 -> %xmm3 
  0x00007f8b307ba56b  66 0f 6f e0          movdqa %xmm0 -> %xmm4 
  0x00007f8b307ba56f  66 0f 74 c1          pcmpeqb %xmm1 %xmm0 -> %xmm0 
  0x00007f8b307ba573  66 0f 74 e3          pcmpeqb %xmm3 %xmm4 -> %xmm4 
  0x00007f8b307ba577  66 0f eb c4          por    %xmm4 %xmm0 -> %xmm0 
  0x00007f8b307ba57b  66 0f d7 c0          pmovmskb %xmm0 -> %eax 
  0x00007f8b307ba57f  85 c0                test   %eax %eax 
  0x00007f8b307ba581  74 15                jz     $0x00007f8b307ba598 
Actual: 7f8b307ba583

Block 94:
  0x00007f8b307ba583  0f bc c0             bsf    %eax -> %eax 
  0x00007f8b307ba586  ba 00 00 00 00       mov    $0x00000000 -> %edx 
  0x00007f8b307ba58b  48 8d 04 07          lea    (%rdi,%rax,1) -> %rax 
  0x00007f8b307ba58f  40 38 30             cmp    (%rax)[1byte] %sil 
  0x00007f8b307ba592  48 0f 45 c2          cmovnz %rdx %rax -> %rax 
  0x00007f8b307ba596  c3                   ret    %rsp (%rsp)[8byte] -> %rsp 
Actual: 7f8b3075e1cf

Block 95:
  0x00007f8b3075e1cf  48 85 c0             test   %rax %rax 
  0x00007f8b3075e1d2  48 89 44 24 18       mov    %rax -> 0x18(%rsp)[8byte] 
  0x00007f8b3075e1d7  0f 84 f3 05 00 00    jz     $0x00007f8b3075e7d0 
Actual: 7f8b3075e7d0

Block 96:
  0x00007f8b3075e7d0  48 8d 5c 24 30       lea    0x30(%rsp) -> %rbx 
  0x00007f8b3075e7d5  e9 52 fe ff ff       jmp    $0x00007f8b3075e62c 
  0x00007f8b3075e62c  41 bd 0c 00 00 00    mov    $0x0000000c -> %r13d 
  0x00007f8b3075e632  c7 44 24 14 0d 00 00 mov    $0x0000000d -> 0x14(%rsp)[4byte] 
                      00
  0x00007f8b3075e63a  eb 27                jmp    $0x00007f8b3075e663 
  0x00007f8b3075e663  4d 63 f5             movsxd %r13d -> %r14 
  0x00007f8b3075e666  48 8b 74 24 28       mov    0x28(%rsp)[8byte] -> %rsi 
  0x00007f8b3075e66b  48 8b 7c 24 20       mov    0x20(%rsp)[8byte] -> %rdi 
  0x00007f8b3075e670  4a 8d 0c f3          lea    (%rbx,%r14,8) -> %rcx 
  0x00007f8b3075e674  44 89 ea             mov    %r13d -> %edx 
  0x00007f8b3075e677  e8 94 03 00 00       call   $0x00007f8b3075ea10 %rsp -> %rsp 0xfffffff8(%rsp)[8byte] 
  0x00007f8b3075ea10  55                   push   %rbp %rsp -> %rsp 0xfffffff8(%rsp)[8byte] 
  0x00007f8b3075ea11  48 89 e5             mov    %rsp -> %rbp 
  0x00007f8b3075ea14  41 57                push   %r15 %rsp -> %rsp 0xfffffff8(%rsp)[8byte] 
  0x00007f8b3075ea16  41 56                push   %r14 %rsp -> %rsp 0xfffffff8(%rsp)[8byte] 
  0x00007f8b3075ea18  41 55                push   %r13 %rsp -> %rsp 0xfffffff8(%rsp)[8byte] 
  0x00007f8b3075ea1a  41 54                push   %r12 %rsp -> %rsp 0xfffffff8(%rsp)[8byte] 
  0x00007f8b3075ea1c  49 89 fd             mov    %rdi -> %r13 
  0x00007f8b3075ea1f  53                   push   %rbx %rsp -> %rsp 0xfffffff8(%rsp)[8byte] 
  0x00007f8b3075ea20  49 89 f6             mov    %rsi -> %r14 
  0x00007f8b3075ea23  89 d3                mov    %edx -> %ebx 
  0x00007f8b3075ea25  49 89 cc             mov    %rcx -> %r12 
  0x00007f8b3075ea28  48 83 ec 58          sub    $0x0000000000000058 %rsp -> %rsp 
  0x00007f8b3075ea2c  4c 8b 39             mov    (%rcx)[8byte] -> %r15 
  0x00007f8b3075ea2f  4c 89 7d a0          mov    %r15 -> 0xffffffa0(%rbp)[8byte] 
  0x00007f8b3075ea33  41 80 3f 00          cmp    (%r15)[1byte] $0x00 
  0x00007f8b3075ea37  0f 84 8b 00 00 00    jz     $0x00007f8b3075eac8 
Actual: 7f8b3075eac8

Block 97:
  0x00007f8b3075eac8  48 8d 3d 5f de 15 00 lea    <rel> 0x00007f8b308bc92e -> %rdi 
  0x00007f8b3075eacf  e8 9c de 00 00       call   $0x00007f8b3076c970 %rsp -> %rsp 0xfffffff8(%rsp)[8byte] 
  0x00007f8b3076c970  41 57                push   %r15 %rsp -> %rsp 0xfffffff8(%rsp)[8byte] 
  0x00007f8b3076c972  41 56                push   %r14 %rsp -> %rsp 0xfffffff8(%rsp)[8byte] 
  0x00007f8b3076c974  49 89 ff             mov    %rdi -> %r15 
  0x00007f8b3076c977  41 55                push   %r13 %rsp -> %rsp 0xfffffff8(%rsp)[8byte] 
  0x00007f8b3076c979  41 54                push   %r12 %rsp -> %rsp 0xfffffff8(%rsp)[8byte] 
  0x00007f8b3076c97b  55                   push   %rbp %rsp -> %rsp 0xfffffff8(%rsp)[8byte] 
  0x00007f8b3076c97c  53                   push   %rbx %rsp -> %rsp 0xfffffff8(%rsp)[8byte] 
  0x00007f8b3076c97d  48 83 ec 08          sub    $0x0000000000000008 %rsp -> %rsp 
  0x00007f8b3076c981  e8 2a f8 04 00       call   $0x00007f8b307bc1b0 %rsp -> %rsp 0xfffffff8(%rsp)[8byte] 
  0x00007f8b307bc1b0  66 0f ef c0          pxor   %xmm0 %xmm0 -> %xmm0 
  0x00007f8b307bc1b4  66 0f ef c9          pxor   %xmm1 %xmm1 -> %xmm1 
  0x00007f8b307bc1b8  66 0f ef d2          pxor   %xmm2 %xmm2 -> %xmm2 
  0x00007f8b307bc1bc  66 0f ef db          pxor   %xmm3 %xmm3 -> %xmm3 
  0x00007f8b307bc1c0  48 89 f8             mov    %rdi -> %rax 
  0x00007f8b307bc1c3  48 89 f9             mov    %rdi -> %rcx 
  0x00007f8b307bc1c6  48 81 e1 ff 0f 00 00 and    $0x0000000000000fff %rcx -> %rcx 
  0x00007f8b307bc1cd  48 81 f9 cf 0f 00 00 cmp    %rcx $0x0000000000000fcf 
  0x00007f8b307bc1d4  77 6a                jnbe   $0x00007f8b307bc240 
Actual: 7f8b307bc1d6

Block 98:
  0x00007f8b3075ead4  48 85 c0             test   %rax %rax 
  0x00007f8b3075ead7  48 89 45 a0          mov    %rax -> 0xffffffa0(%rbp)[8byte] 
  0x00007f8b3075eadb  74 05                jz     $0x00007f8b3075eae2 
Actual: 7f8b3075eae2

Block 99:
  0x00007f8b3075eae2  48 8d 05 27 6f 14 00 lea    <rel> 0x00007f8b308a5a10 -> %rax 
  0x00007f8b3075eae9  4c 63 d3             movsxd %ebx -> %r10 
  0x00007f8b3075eaec  4c 89 55 98          mov    %r10 -> 0xffffff98(%rbp)[8byte] 
  0x00007f8b3075eaf0  42 0f b6 3c 10       movzx  (%rax,%r10,1)[1byte] -> %edi 
  0x00007f8b3075eaf5  48 8d 05 24 6f 14 00 lea    <rel> 0x00007f8b308a5a20 -> %rax 
  0x00007f8b3075eafc  48 01 c7             add    %rax %rdi -> %rdi 
  0x00007f8b3075eaff  e8 6c de 00 00       call   $0x00007f8b3076c970 %rsp -> %rsp 0xfffffff8(%rsp)[8byte] 
  0x00007f8b3076c970  41 57                push   %r15 %rsp -> %rsp 0xfffffff8(%rsp)[8byte] 
  0x00007f8b3076c972  41 56                push   %r14 %rsp -> %rsp 0xfffffff8(%rsp)[8byte] 
  0x00007f8b3076c974  49 89 ff             mov    %rdi -> %r15 
  0x00007f8b3076c977  41 55                push   %r13 %rsp -> %rsp 0xfffffff8(%rsp)[8byte] 
  0x00007f8b3076c979  41 54                push   %r12 %rsp -> %rsp 0xfffffff8(%rsp)[8byte] 
  0x00007f8b3076c97b  55                   push   %rbp %rsp -> %rsp 0xfffffff8(%rsp)[8byte] 
  0x00007f8b3076c97c  53                   push   %rbx %rsp -> %rsp 0xfffffff8(%rsp)[8byte] 
  0x00007f8b3076c97d  48 83 ec 08          sub    $0x0000000000000008 %rsp -> %rsp 
  0x00007f8b3076c981  e8 2a f8 04 00       call   $0x00007f8b307bc1b0 %rsp -> %rsp 0xfffffff8(%rsp)[8byte] 
  0x00007f8b307bc1b0  66 0f ef c0          pxor   %xmm0 %xmm0 -> %xmm0 
  0x00007f8b307bc1b4  66 0f ef c9          pxor   %xmm1 %xmm1 -> %xmm1 
  0x00007f8b307bc1b8  66 0f ef d2          pxor   %xmm2 %xmm2 -> %xmm2 
  0x00007f8b307bc1bc  66 0f ef db          pxor   %xmm3 %xmm3 -> %xmm3 
  0x00007f8b307bc1c0  48 89 f8             mov    %rdi -> %rax 
  0x00007f8b307bc1c3  48 89 f9             mov    %rdi -> %rcx 
  0x00007f8b307bc1c6  48 81 e1 ff 0f 00 00 and    $0x0000000000000fff %rcx -> %rcx 
  0x00007f8b307bc1cd  48 81 f9 cf 0f 00 00 cmp    %rcx $0x0000000000000fcf 
  0x00007f8b307bc1d4  77 6a                jnbe   $0x00007f8b307bc240 
Actual: 7f8b307bc1d6

Block 100:
  0x00007f8b307bc1ea  48 83 e0 f0          and    $0xfffffffffffffff0 %rax -> %rax 
  0x00007f8b307bc1ee  66 0f 74 48 10       pcmpeqb 0x10(%rax)[16byte] %xmm1 -> %xmm1 
  0x00007f8b307bc1f3  66 0f 74 50 20       pcmpeqb 0x20(%rax)[16byte] %xmm2 -> %xmm2 
  0x00007f8b307bc1f8  66 0f 74 58 30       pcmpeqb 0x30(%rax)[16byte] %xmm3 -> %xmm3 
  0x00007f8b307bc1fd  66 0f d7 d1          pmovmskb %xmm1 -> %edx 
  0x00007f8b307bc201  66 44 0f d7 c2       pmovmskb %xmm2 -> %r8d 
  0x00007f8b307bc206  66 0f d7 cb          pmovmskb %xmm3 -> %ecx 
  0x00007f8b307bc20a  48 c1 e2 10          shl    $0x0000000000000010 %rdx -> %rdx 
  0x00007f8b307bc20e  48 c1 e1 10          shl    $0x0000000000000010 %rcx -> %rcx 
  0x00007f8b307bc212  4c 09 c1             or     %r8 %rcx -> %rcx 
  0x00007f8b307bc215  48 c1 e1 20          shl    $0x0000000000000020 %rcx -> %rcx 
  0x00007f8b307bc219  48 09 ca             or     %rcx %rdx -> %rdx 
  0x00007f8b307bc21c  48 89 f9             mov    %rdi -> %rcx 
  0x00007f8b307bc21f  48 31 c1             xor    %rax %rcx -> %rcx 
  0x00007f8b307bc222  48 83 e0 c0          and    $0xffffffffffffffc0 %rax -> %rax 
  0x00007f8b307bc226  48 d3 fa             sar    %cl %rdx -> %rdx 
  0x00007f8b307bc229  48 85 d2             test   %rdx %rdx 
  0x00007f8b307bc22c  0f 84 7e 00 00 00    jz     $0x00007f8b307bc2b0 
Actual: 7f8b307bc232

Block 101:
  0x00007f8b307bc232  48 0f bc c2          bsf    %rdx -> %rax 
  0x00007f8b307bc236  c3                   ret    %rsp (%rsp)[8byte] -> %rsp 
Actual: 7f8b3076c986

Block 102:
  0x00007f8b3075eb04  48 85 c0             test   %rax %rax 
  0x00007f8b3075eb07  48 89 45 a0          mov    %rax -> 0xffffffa0(%rbp)[8byte] 
  0x00007f8b3075eb0b  4c 8b 55 98          mov    0xffffff98(%rbp)[8byte] -> %r10 
  0x00007f8b3075eb0f  74 05                jz     $0x00007f8b3075eb16 
Actual: 7f8b3075eb16

Block 103:
  0x00007f8b3075eb16  48 8d 3d 18 de 15 00 lea    <rel> 0x00007f8b308bc935 -> %rdi 
  0x00007f8b3075eb1d  4c 89 55 98          mov    %r10 -> 0xffffff98(%rbp)[8byte] 
  0x00007f8b3075eb21  e8 4a de 00 00       call   $0x00007f8b3076c970 %rsp -> %rsp 0xfffffff8(%rsp)[8byte] 
  0x00007f8b3076c970  41 57                push   %r15 %rsp -> %rsp 0xfffffff8(%rsp)[8byte] 
  0x00007f8b3076c972  41 56                push   %r14 %rsp -> %rsp 0xfffffff8(%rsp)[8byte] 
  0x00007f8b3076c974  49 89 ff             mov    %rdi -> %r15 
  0x00007f8b3076c977  41 55                push   %r13 %rsp -> %rsp 0xfffffff8(%rsp)[8byte] 
  0x00007f8b3076c979  41 54                push   %r12 %rsp -> %rsp 0xfffffff8(%rsp)[8byte] 
  0x00007f8b3076c97b  55                   push   %rbp %rsp -> %rsp 0xfffffff8(%rsp)[8byte] 
  0x00007f8b3076c97c  53                   push   %rbx %rsp -> %rsp 0xfffffff8(%rsp)[8byte] 
  0x00007f8b3076c97d  48 83 ec 08          sub    $0x0000000000000008 %rsp -> %rsp 
  0x00007f8b3076c981  e8 2a f8 04 00       call   $0x00007f8b307bc1b0 %rsp -> %rsp 0xfffffff8(%rsp)[8byte] 
  0x00007f8b307bc1b0  66 0f ef c0          pxor   %xmm0 %xmm0 -> %xmm0 
  0x00007f8b307bc1b4  66 0f ef c9          pxor   %xmm1 %xmm1 -> %xmm1 
  0x00007f8b307bc1b8  66 0f ef d2          pxor   %xmm2 %xmm2 -> %xmm2 
  0x00007f8b307bc1bc  66 0f ef db          pxor   %xmm3 %xmm3 -> %xmm3 
  0x00007f8b307bc1c0  48 89 f8             mov    %rdi -> %rax 
  0x00007f8b307bc1c3  48 89 f9             mov    %rdi -> %rcx 
  0x00007f8b307bc1c6  48 81 e1 ff 0f 00 00 and    $0x0000000000000fff %rcx -> %rcx 
  0x00007f8b307bc1cd  48 81 f9 cf 0f 00 00 cmp    %rcx $0x0000000000000fcf 
  0x00007f8b307bc1d4  77 6a                jnbe   $0x00007f8b307bc240 
Actual: 7f8b307bc1d6

Block 104:
  0x00007f8b307bc670  48 83 e6 f0          and    $0xfffffffffffffff0 %rsi -> %rsi 
  0x00007f8b307bc674  48 83 e7 f0          and    $0xfffffffffffffff0 %rdi -> %rdi 
  0x00007f8b307bc678  ba ff ff 00 00       mov    $0x0000ffff -> %edx 
  0x00007f8b307bc67d  45 31 c0             xor    %r8d %r8d -> %r8d 
  0x00007f8b307bc680  83 e1 0f             and    $0x0000000f %ecx -> %ecx 
  0x00007f8b307bc683  83 e0 0f             and    $0x0000000f %eax -> %eax 
  0x00007f8b307bc686  39 c1                cmp    %ecx %eax 
  0x00007f8b307bc688  74 26                jz     $0x00007f8b307bc6b0 
Actual: 7f8b307bc6b0

Block 105:
  0x00007f8b307bc6b0  66 0f 6f 0e          movdqa (%rsi)[16byte] -> %xmm1 
  0x00007f8b307bc6b4  66 0f ef c0          pxor   %xmm0 %xmm0 -> %xmm0 
  0x00007f8b307bc6b8  66 0f 74 c1          pcmpeqb %xmm1 %xmm0 -> %xmm0 
  0x00007f8b307bc6bc  66 0f 74 0f          pcmpeqb (%rdi)[16byte] %xmm1 -> %xmm1 
  0x00007f8b307bc6c0  66 0f f8 c8          psubb  %xmm0 %xmm1 -> %xmm1 
  0x00007f8b307bc6c4  66 44 0f d7 c9       pmovmskb %xmm1 -> %r9d 
  0x00007f8b307bc6c9  d3 ea                shr    %cl %edx -> %edx 
  0x00007f8b307bc6cb  41 d3 e9             shr    %cl %r9d -> %r9d 
  0x00007f8b307bc6ce  44 29 ca             sub    %r9d %edx -> %edx 
  0x00007f8b307bc6d1  0f 85 2e 17 00 00    jnz    $0x00007f8b307bde05 
Actual: 7f8b307bde05

Block 106:
  0x00007f8b307bde05  48 8d 3c 07          lea    (%rdi,%rax,1) -> %rdi 
  0x00007f8b307bde09  48 8d 34 0e          lea    (%rsi,%rcx,1) -> %rsi 
  0x00007f8b307bde0d  45 85 c0             test   %r8d %r8d 
  0x00007f8b307bde10  74 0e                jz     $0x00007f8b307bde20 
Actual: 7f8b307bde20

Block 107:
  0x00007f8b307bde34  31 c0                xor    %eax %eax -> %eax 
  0x00007f8b307bde36  c3                   ret    %rsp (%rsp)[8byte] -> %rsp 
Actual: 7f8b3076ca32

Block 108:
  0x00007f8b3076ca36  42 80 3c 2b 3d       cmp    (%rbx,%r13,1)[1byte] $0x3d 
  0x00007f8b3076ca3b  75 d3                jnz    $0x00007f8b3076ca10 
Actual: 7f8b3076ca3d

Block 109:
  0x00007f8b3076ca3d  4a 8d 5c 2b 01       lea    0x01(%rbx,%r13,1) -> %rbx 
  0x00007f8b3076ca42  eb 92                jmp    $0x00007f8b3076c9d6 
  0x00007f8b3076c9d6  48 83 c4 08          add    $0x0000000000000008 %rsp -> %rsp 
  0x00007f8b3076c9da  48 89 d8             mov    %rbx -> %rax 
  0x00007f8b3076c9dd  5b                   pop    %rsp (%rsp)[8byte] -> %rbx %rsp 
  0x00007f8b3076c9de  5d                   pop    %rsp (%rsp)[8byte] -> %rbp %rsp 
  0x00007f8b3076c9df  41 5c                pop    %rsp (%rsp)[8byte] -> %r12 %rsp 
  0x00007f8b3076c9e1  41 5d                pop    %rsp (%rsp)[8byte] -> %r13 %rsp 
  0x00007f8b3076c9e3  41 5e                pop    %rsp (%rsp)[8byte] -> %r14 %rsp 
  0x00007f8b3076c9e5  41 5f                pop    %rsp (%rsp)[8byte] -> %r15 %rsp 
  0x00007f8b3076c9e7  c3                   ret    %rsp (%rsp)[8byte] -> %rsp 
Actual: 7f8b3075eb26

Block 110:
  0x00007f8b3075eb26  48 85 c0             test   %rax %rax 
  0x00007f8b3075eb29  48 89 45 a0          mov    %rax -> 0xffffffa0(%rbp)[8byte] 
  0x00007f8b3075eb2d  4c 8b 55 98          mov    0xffffff98(%rbp)[8byte] -> %r10 
  0x00007f8b3075eb31  0f 84 32 ff ff ff    jz     $0x00007f8b3075ea69 
Actual: 7f8b3075eb37

Block 111:
  0x00007f8b3075eb37  80 38 00             cmp    (%rax)[1byte] $0x00 
  0x00007f8b3075eb3a  0f 84 29 ff ff ff    jz     $0x00007f8b3075ea69 
Actual: 7f8b3075eb40

Block 112:
  0x00007f8b3075eb40  49 89 c7             mov    %rax -> %r15 
  0x00007f8b3075eb43  e9 f5 fe ff ff       jmp    $0x00007f8b3075ea3d 
  0x00007f8b3075ea3d  48 8d 35 b4 f1 15 00 lea    <rel> 0x00007f8b308bdbf8 -> %rsi 
  0x00007f8b3075ea44  4c 89 ff             mov    %r15 -> %rdi 
  0x00007f8b3075ea47  e8 54 bd 05 00       call   $0x00007f8b307ba7a0 %rsp -> %rsp 0xfffffff8(%rsp)[8byte] 
  0x00007f8b307ba7a0  89 f1                mov    %esi -> %ecx 
  0x00007f8b307ba7a2  89 f8                mov    %edi -> %eax 
  0x00007f8b307ba7a4  48 83 e1 3f          and    $0x000000000000003f %rcx -> %rcx 
  0x00007f8b307ba7a8  48 83 e0 3f          and    $0x000000000000003f %rax -> %rax 
  0x00007f8b307ba7ac  83 f9 30             cmp    %ecx $0x00000030 
  0x00007f8b307ba7af  77 3f                jnbe   $0x00007f8b307ba7f0 
Actual: 7f8b307ba7f0

Block 113:
  0x00007f8b307ba80c  41 89 d0             mov    %edx -> %r8d 
  0x00007f8b307ba80f  91                   xchg   %ecx %eax -> %ecx %eax 
  0x00007f8b307ba810  48 87 f7             xchg   %rdi %rsi -> %rdi %rsi 
  0x00007f8b307ba813  4c 8d 48 0f          lea    0x0f(%rax) -> %r9 
  0x00007f8b307ba817  49 29 c9             sub    %rcx %r9 -> %r9 
  0x00007f8b307ba81a  4c 8d 15 af d4 0f 00 lea    <rel> 0x00007f8b308b7cd0 -> %r10 
  0x00007f8b307ba821  4f 63 0c 8a          movsxd (%r10,%r9,4)[4byte] -> %r9 
  0x00007f8b307ba825  4f 8d 14 0a          lea    (%r10,%r9,1) -> %r10 
  0x00007f8b307ba829  41 ff e2             jmp    %r10 
Actual: 7f8b307bb910

Block 114:
  0x00007f8b307bbba2  48 87 f7             xchg   %rdi %rsi -> %rdi %rsi 
  0x00007f8b307bbba5  90                   nop    
  0x00007f8b307bbba6  66 2e 0f 1f 84 00 00 data16 nop    %cs:0x00000000(%rax,%rax,1)[4byte] 
                      00 00 00
  0x00007f8b307bbbb0  48 0f bc d2          bsf    %rdx -> %rdx 
  0x00007f8b307bbbb4  0f b6 0c 16          movzx  (%rsi,%rdx,1)[1byte] -> %ecx 
  0x00007f8b307bbbb8  0f b6 04 17          movzx  (%rdi,%rdx,1)[1byte] -> %eax 
  0x00007f8b307bbbbc  29 c8                sub    %ecx %eax -> %eax 
  0x00007f8b307bbbbe  c3                   ret    %rsp (%rsp)[8byte] -> %rsp 
Actual: 7f8b3075ea4c

Block 115:
  0x00007f8b3075ea4c  85 c0                test   %eax %eax 
  0x00007f8b3075ea4e  4c 63 d3             movsxd %ebx -> %r10 
  0x00007f8b3075ea51  74 16                jz     $0x00007f8b3075ea69 
Actual: 7f8b3075ea53

Block 116:
  0x00007f8b3075ea53  48 8d 35 af e0 15 00 lea    <rel> 0x00007f8b308bcb09 -> %rsi 
  0x00007f8b3075ea5a  4c 89 ff             mov    %r15 -> %rdi 
  0x00007f8b3075ea5d  e8 3e bd 05 00       call   $0x00007f8b307ba7a0 %rsp -> %rsp 0xfffffff8(%rsp)[8byte] 
  0x00007f8b307ba7a0  89 f1                mov    %esi -> %ecx 
  0x00007f8b307ba7a2  89 f8                mov    %edi -> %eax 
  0x00007f8b307ba7a4  48 83 e1 3f          and    $0x000000000000003f %rcx -> %rcx 
  0x00007f8b307ba7a8  48 83 e0 3f          and    $0x000000000000003f %rax -> %rax 
  0x00007f8b307ba7ac  83 f9 30             cmp    %ecx $0x00000030 
  0x00007f8b307ba7af  77 3f                jnbe   $0x00007f8b307ba7f0 
Actual: 7f8b307ba7b1

Block 117:
  0x00007f8b307ba7b1  83 f8 30             cmp    %eax $0x00000030 
  0x00007f8b307ba7b4  77 3a                jnbe   $0x00007f8b307ba7f0 
Actual: 7f8b307ba7b6

Block 118:
  0x00007f8b307ba7b6  66 0f 12 0f          movlpd (%rdi)[8byte] -> %xmm1[8byte] 
  0x00007f8b307ba7ba  66 0f 12 16          movlpd (%rsi)[8byte] -> %xmm2[8byte] 
  0x00007f8b307ba7be  66 0f 16 4f 08       movhpd 0x08(%rdi)[8byte] -> %xmm1[8byte] 
  0x00007f8b307ba7c3  66 0f 16 56 08       movhpd 0x08(%rsi)[8byte] -> %xmm2[8byte] 
  0x00007f8b307ba7c8  66 0f ef c0          pxor   %xmm0 %xmm0 -> %xmm0 
  0x00007f8b307ba7cc  66 0f 74 c1          pcmpeqb %xmm1 %xmm0 -> %xmm0 
  0x00007f8b307ba7d0  66 0f 74 ca          pcmpeqb %xmm2 %xmm1 -> %xmm1 
  0x00007f8b307ba7d4  66 0f f8 c8          psubb  %xmm0 %xmm1 -> %xmm1 
  0x00007f8b307ba7d8  66 0f d7 d1          pmovmskb %xmm1 -> %edx 
  0x00007f8b307ba7dc  81 ea ff ff 00 00    sub    $0x0000ffff %edx -> %edx 
  0x00007f8b307ba7e2  0f 85 c8 13 00 00    jnz    $0x00007f8b307bbbb0 
Actual: 7f8b307bbbb0

Block 119:
  0x00007f8b3075ea62  85 c0                test   %eax %eax 
  0x00007f8b3075ea64  4c 63 d3             movsxd %ebx -> %r10 
  0x00007f8b3075ea67  75 27                jnz    $0x00007f8b3075ea90 
Actual: 7f8b3075ea90

Block 120:
  0x00007f8b3075ea90  4c 89 ff             mov    %r15 -> %rdi 
  0x00007f8b3075ea93  e8 18 d7 05 00       call   $0x00007f8b307bc1b0 %rsp -> %rsp 0xfffffff8(%rsp)[8byte] 
  0x00007f8b307bc1b0  66 0f ef c0          pxor   %xmm0 %xmm0 -> %xmm0 
  0x00007f8b307bc1b4  66 0f ef c9          pxor   %xmm1 %xmm1 -> %xmm1 
  0x00007f8b307bc1b8  66 0f ef d2          pxor   %xmm2 %xmm2 -> %xmm2 
  0x00007f8b307bc1bc  66 0f ef db          pxor   %xmm3 %xmm3 -> %xmm3 
  0x00007f8b307bc1c0  48 89 f8             mov    %rdi -> %rax 
  0x00007f8b307bc1c3  48 89 f9             mov    %rdi -> %rcx 
  0x00007f8b307bc1c6  48 81 e1 ff 0f 00 00 and    $0x0000000000000fff %rcx -> %rcx 
  0x00007f8b307bc1cd  48 81 f9 cf 0f 00 00 cmp    %rcx $0x0000000000000fcf 
  0x00007f8b307bc1d4  77 6a                jnbe   $0x00007f8b307bc240 
Actual: 7f8b307bc1d6

Block 121:
  0x00007f8b3075ea98  48 3d ff 00 00 00    cmp    %rax $0x00000000000000ff 
  0x00007f8b3075ea9e  0f 86 ac 00 00 00    jbe    $0x00007f8b3075eb50 
Actual: 7f8b3075eb50

Block 122:
  0x00007f8b3075eb50  48 8d 15 69 6f 14 00 lea    <rel> 0x00007f8b308a5ac0 -> %rdx 
  0x00007f8b3075eb57  b9 04 00 00 00       mov    $0x00000004 -> %ecx 
  0x00007f8b3075eb5c  48 89 c6             mov    %rax -> %rsi 
  0x00007f8b3075eb5f  4c 89 ff             mov    %r15 -> %rdi 
  0x00007f8b3075eb62  48 89 45 98          mov    %rax -> 0xffffff98(%rbp)[8byte] 
  0x00007f8b3075eb66  e8 95 81 06 00       call   $0x00007f8b307c6d00 %rsp -> %rsp 0xfffffff8(%rsp)[8byte] 
  0x00007f8b307c6d00  48 85 c9             test   %rcx %rcx 
  0x00007f8b307c6d03  0f 84 5f 02 00 00    jz     $0x00007f8b307c6f68 
Actual: 7f8b307c6d09

Block 123:
  0x00007f8b307c6d09  48 39 f1             cmp    %rcx %rsi 
  0x00007f8b307c6d0c  0f 87 ba 03 00 00    jnbe   $0x00007f8b307c70cc 
Actual: 7f8b307c6d12

Block 124:
  0x00007f8b307c6d12  48 83 f9 1f          cmp    %rcx $0x000000000000001f 
  0x00007f8b307c6d16  0f 87 7e 02 00 00    jnbe   $0x00007f8b307c6f9a 
Actual: 7f8b307c6d1c

Block 125:
  0x00007f8b307c6d1c  41 57                push   %r15 %rsp -> %rsp 0xfffffff8(%rsp)[8byte] 
  0x00007f8b307c6d1e  41 56                push   %r14 %rsp -> %rsp 0xfffffff8(%rsp)[8byte] 
  0x00007f8b307c6d20  49 89 f6             mov    %rsi -> %r14 
  0x00007f8b307c6d23  41 55                push   %r13 %rsp -> %rsp 0xfffffff8(%rsp)[8byte] 
  0x00007f8b307c6d25  41 54                push   %r12 %rsp -> %rsp 0xfffffff8(%rsp)[8byte] 
  0x00007f8b307c6d27  49 89 fc             mov    %rdi -> %r12 
  0x00007f8b307c6d2a  55                   push   %rbp %rsp -> %rsp 0xfffffff8(%rsp)[8byte] 
  0x00007f8b307c6d2b  53                   push   %rbx %rsp -> %rsp 0xfffffff8(%rsp)[8byte] 
  0x00007f8b307c6d2c  48 89 d3             mov    %rdx -> %rbx 
  0x00007f8b307c6d2f  48 89 cd             mov    %rcx -> %rbp 
  0x00007f8b307c6d32  48 83 ec 18          sub    $0x0000000000000018 %rsp -> %rsp 
  0x00007f8b307c6d36  0f b6 32             movzx  (%rdx)[1byte] -> %esi 
  0x00007f8b307c6d39  4c 89 f2             mov    %r14 -> %rdx 
  0x00007f8b307c6d3c  e8 4f 85 ff ff       call   $0x00007f8b307bf290 %rsp -> %rsp 0xfffffff8(%rsp)[8byte] 
  0x00007f8b307bf290  66 48 0f 6e ce       movd   %rsi -> %xmm1 
  0x00007f8b307bf295  48 89 f9             mov    %rdi -> %rcx 
  0x00007f8b307bf298  66 0f 60 c9          punpcklbw %xmm1 %xmm1 -> %xmm1 
  0x00007f8b307bf29c  48 85 d2             test   %rdx %rdx 
  0x00007f8b307bf29f  0f 84 2b 03 00 00    jz     $0x00007f8b307bf5d0 
Actual: 7f8b307bf2a5

Block 126:
  0x00007f8b307bf2a5  66 0f 60 c9          punpcklbw %xmm1 %xmm1 -> %xmm1 
  0x00007f8b307bf2a9  48 83 e1 3f          and    $0x000000000000003f %rcx -> %rcx 
  0x00007f8b307bf2ad  66 0f 70 c9 00       pshufd %xmm1 $0x00 -> %xmm1 
  0x00007f8b307bf2b2  48 83 f9 30          cmp    %rcx $0x0000000000000030 
  0x00007f8b307bf2b6  77 48                jnbe   $0x00007f8b307bf300 
Actual: 7f8b307bf2b8

Block 127:
  0x00007f8b307bf2b8  f3 0f 6f 07          movdqu (%rdi)[16byte] -> %xmm0 
  0x00007f8b307bf2bc  66 0f 74 c1          pcmpeqb %xmm1 %xmm0 -> %xmm0 
  0x00007f8b307bf2c0  66 0f d7 c0          pmovmskb %xmm0 -> %eax 
  0x00007f8b307bf2c4  85 c0                test   %eax %eax 
  0x00007f8b307bf2c6  0f 85 c4 02 00 00    jnz    $0x00007f8b307bf590 
Actual: 7f8b307bf2cc

Block 128:
  0x00007f8b307bf2cc  48 83 ea 10          sub    $0x0000000000000010 %rdx -> %rdx 
  0x00007f8b307bf2d0  0f 86 fa 02 00 00    jbe    $0x00007f8b307bf5d0 
Actual: 7f8b307bf5d0

Block 129:
  0x00007f8b307bf5d0  48 31 c0             xor    %rax %rax -> %rax 
  0x00007f8b307bf5d3  c3                   ret    %rsp (%rsp)[8byte] -> %rsp 
Actual: 7f8b307c6d41

Block 130:
  0x00007f8b307c6d41  48 85 c0             test   %rax %rax 
  0x00007f8b307c6d44  49 89 c5             mov    %rax -> %r13 
  0x00007f8b307c6d47  0f 84 c3 01 00 00    jz     $0x00007f8b307c6f10 
Actual: 7f8b307c6f10

Block 131:
  0x00007f8b307c6f10  31 c0                xor    %eax %eax -> %eax 
  0x00007f8b307c6f12  48 83 c4 18          add    $0x0000000000000018 %rsp -> %rsp 
  0x00007f8b307c6f16  5b                   pop    %rsp (%rsp)[8byte] -> %rbx %rsp 
  0x00007f8b307c6f17  5d                   pop    %rsp (%rsp)[8byte] -> %rbp %rsp 
  0x00007f8b307c6f18  41 5c                pop    %rsp (%rsp)[8byte] -> %r12 %rsp 
  0x00007f8b307c6f1a  41 5d                pop    %rsp (%rsp)[8byte] -> %r13 %rsp 
  0x00007f8b307c6f1c  41 5e                pop    %rsp (%rsp)[8byte] -> %r14 %rsp 
  0x00007f8b307c6f1e  41 5f                pop    %rsp (%rsp)[8byte] -> %r15 %rsp 
  0x00007f8b307c6f20  c3                   ret    %rsp (%rsp)[8byte] -> %rsp 
Actual: 7f8b3075eb6b

Block 132:
  0x00007f8b3075eb6b  48 85 c0             test   %rax %rax 
  0x00007f8b3075eb6e  4c 8b 45 98          mov    0xffffff98(%rbp)[8byte] -> %r8 
  0x00007f8b3075eb72  0f 85 2c ff ff ff    jnz    $0x00007f8b3075eaa4 
Actual: 7f8b3075eb78

Block 133:
  0x00007f8b3075eb78  49 83 f8 02          cmp    %r8 $0x0000000000000002 
  0x00007f8b3075eb7c  0f 84 b6 05 00 00    jz     $0x00007f8b3075f138 
Actual: 7f8b3075eb82

Block 134:
  0x00007f8b3075eb82  76 16                jbe    $0x00007f8b3075eb9a 
Actual: 7f8b3075eb84

Block 135:
  0x00007f8b3075eb84  41 80 3f 2e          cmp    (%r15)[1byte] $0x2e 
  0x00007f8b3075eb88  0f 84 2a 06 00 00    jz     $0x00007f8b3075f1b8 
Actual: 7f8b3075eb8e

Block 136:
  0x00007f8b3075eb8e  43 80 7c 07 fd 2f    cmp    0xfffffffd(%r15,%r8,1)[1byte] $0x2f 
  0x00007f8b3075eb94  0f 84 fc 05 00 00    jz     $0x00007f8b3075f196 
Actual: 7f8b3075eb9a

Block 137:
  0x00007f8b3075eb9a  4c 89 c2             mov    %r8 -> %rdx 
  0x00007f8b3075eb9d  be 2f 00 00 00       mov    $0x0000002f -> %esi 
  0x00007f8b3075eba2  4c 89 ff             mov    %r15 -> %rdi 
  0x00007f8b3075eba5  e8 e6 06 06 00       call   $0x00007f8b307bf290 %rsp -> %rsp 0xfffffff8(%rsp)[8byte] 
  0x00007f8b307bf290  66 48 0f 6e ce       movd   %rsi -> %xmm1 
  0x00007f8b307bf295  48 89 f9             mov    %rdi -> %rcx 
  0x00007f8b307bf298  66 0f 60 c9          punpcklbw %xmm1 %xmm1 -> %xmm1 
  0x00007f8b307bf29c  48 85 d2             test   %rdx %rdx 
  0x00007f8b307bf29f  0f 84 2b 03 00 00    jz     $0x00007f8b307bf5d0 
Actual: 7f8b307bf2a5

Block 138:
  0x00007f8b3075ebaa  48 85 c0             test   %rax %rax 
  0x00007f8b3075ebad  74 0a                jz     $0x00007f8b3075ebb9 
Actual: 7f8b3075ebb9

Block 139:
  0x00007f8b3075ebb9  48 8b 7d a0          mov    0xffffffa0(%rbp)[8byte] -> %rdi 
  0x00007f8b3075ebbd  4d 85 ed             test   %r13 %r13 
  0x00007f8b3075ebc0  49 89 3c 24          mov    %rdi -> (%r12)[8byte] 
  0x00007f8b3075ebc4  0f 84 f6 03 00 00    jz     $0x00007f8b3075efc0 
Actual: 7f8b3075efc0

Block 140:
  0x00007f8b3075efc0  4c 89 e6             mov    %r12 -> %rsi 
  0x00007f8b3075efc3  89 df                mov    %ebx -> %edi 
  0x00007f8b3075efc5  e8 76 08 00 00       call   $0x00007f8b3075f840 %rsp -> %rsp 0xfffffff8(%rsp)[8byte] 
  0x00007f8b3075f840  55                   push   %rbp %rsp -> %rsp 0xfffffff8(%rsp)[8byte] 
  0x00007f8b3075f841  48 89 e5             mov    %rsp -> %rbp 
  0x00007f8b3075f844  41 57                push   %r15 %rsp -> %rsp 0xfffffff8(%rsp)[8byte] 
  0x00007f8b3075f846  41 56                push   %r14 %rsp -> %rsp 0xfffffff8(%rsp)[8byte] 
  0x00007f8b3075f848  41 55                push   %r13 %rsp -> %rsp 0xfffffff8(%rsp)[8byte] 
  0x00007f8b3075f84a  41 54                push   %r12 %rsp -> %rsp 0xfffffff8(%rsp)[8byte] 
  0x00007f8b3075f84c  49 89 f5             mov    %rsi -> %r13 
  0x00007f8b3075f84f  53                   push   %rbx %rsp -> %rsp 0xfffffff8(%rsp)[8byte] 
  0x00007f8b3075f850  48 81 ec 08 01 00 00 sub    $0x0000000000000108 %rsp -> %rsp 
  0x00007f8b3075f857  89 bd dc fe ff ff    mov    %edi -> 0xfffffedc(%rbp)[4byte] 
  0x00007f8b3075f85d  bf 1e 00 00 00       mov    $0x0000001e -> %edi 
  0x00007f8b3075f862  48 8b 1e             mov    (%rsi)[8byte] -> %rbx 
  0x00007f8b3075f865  e8 c6 eb 09 00       call   $0x00007f8b307fe430 %rsp -> %rsp 0xfffffff8(%rsp)[8byte] 
  0x00007f8b307fe430  55                   push   %rbp %rsp -> %rsp 0xfffffff8(%rsp)[8byte] 
  0x00007f8b307fe431  53                   push   %rbx %rsp -> %rsp 0xfffffff8(%rsp)[8byte] 
  0x00007f8b307fe432  89 fb                mov    %edi -> %ebx 
  0x00007f8b307fe434  8d 83 47 ff ff ff    lea    0xffffff47(%rbx) -> %eax 
  0x00007f8b307fe43a  48 83 ec 38          sub    $0x0000000000000038 %rsp -> %rsp 
  0x00007f8b307fe43e  83 f8 0e             cmp    %eax $0x0000000e 
  0x00007f8b307fe441  0f 86 21 01 00 00    jbe    $0x00007f8b307fe568 
Actual: 7f8b307fe447

Block 141:
  0x00007f8b307fe447  83 fb 22             cmp    %ebx $0x00000022 
  0x00007f8b307fe44a  0f 84 90 01 00 00    jz     $0x00007f8b307fe5e0 
Actual: 7f8b307fe450

Block 142:
  0x00007f8b307fe450  0f 8f c2 00 00 00    jnle   $0x00007f8b307fe518 
Actual: 7f8b307fe456

Block 143:
  0x00007f8b307fe456  85 db                test   %ebx %ebx 
  0x00007f8b307fe458  0f 84 22 01 00 00    jz     $0x00007f8b307fe580 
Actual: 7f8b307fe45e

Block 144:
  0x00007f8b307fe45e  83 fb 03             cmp    %ebx $0x00000003 
  0x00007f8b307fe461  48 8d 3d 58 f9 0b 00 lea    <rel> 0x00007f8b308bddc0 -> %rdi 
  0x00007f8b307fe468  0f 85 8a 00 00 00    jnz    $0x00007f8b307fe4f8 
Actual: 7f8b307fe4f8

Block 145:
  0x00007f8b307fe4f8  81 fb f6 00 00 00    cmp    %ebx $0x000000f6 
  0x00007f8b307fe4fe  0f 87 35 06 00 00    jnbe   $0x00007f8b307feb39 
Actual: 7f8b307fe504

Block 146:
  0x00007f8b307fe504  48 8d 15 09 af 0b 00 lea    <rel> 0x00007f8b308b9414 -> %rdx 
  0x00007f8b307fe50b  48 63 04 9a          movsxd (%rdx,%rbx,4)[4byte] -> %rax 
  0x00007f8b307fe50f  48 01 d0             add    %rdx %rax -> %rax 
  0x00007f8b307fe512  ff e0                jmp    %rax 
Actual: 7f8b307fe766

Block 147:
  0x00007f8b307fe766  e8 c5 e7 02 00       call   $0x00007f8b3082cf30 %rsp -> %rsp 0xfffffff8(%rsp)[8byte] 
  0x00007f8b3082cf30  48 8b 05 29 2f 2c 00 mov    <rel> 0x00007f8b30aefe60[8byte] -> %rax 
  0x00007f8b3082cf37  48 8b 40 18          mov    0x18(%rax)[8byte] -> %rax 
  0x00007f8b3082cf3b  c3                   ret    %rsp (%rsp)[8byte] -> %rsp 
Actual: 7f8b307fe76b

Block 148:
  0x00007f8b307fe76b  48 98                cwde   %ax -> %rax 
  0x00007f8b307fe76d  e9 e8 fd ff ff       jmp    $0x00007f8b307fe55a 
  0x00007f8b307fe55a  48 83 c4 38          add    $0x0000000000000038 %rsp -> %rsp 
  0x00007f8b307fe55e  5b                   pop    %rsp (%rsp)[8byte] -> %rbx %rsp 
  0x00007f8b307fe55f  5d                   pop    %rsp (%rsp)[8byte] -> %rbp %rsp 
  0x00007f8b307fe560  c3                   ret    %rsp (%rsp)[8byte] -> %rsp 
Actual: 7f8b3075f86a

Block 149:
  0x00007f8b3075f86a  4c 8b 35 cf 20 39 00 mov    <rel> 0x00007f8b30af1940[8byte] -> %r14 
  0x00007f8b3075f871  4d 85 f6             test   %r14 %r14 
  0x00007f8b3075f874  75 21                jnz    $0x00007f8b3075f897 
Actual: 7f8b3075f876

Block 150:
  0x00007f8b3075f876  eb 48                jmp    $0x00007f8b3075f8c0 
  0x00007f8b3075f8c0  be 2e 00 00 00       mov    $0x0000002e -> %esi 
  0x00007f8b3075f8c5  48 89 df             mov    %rbx -> %rdi 
  0x00007f8b3075f8c8  e8 73 ac 05 00       call   $0x00007f8b307ba540 %rsp -> %rsp 0xfffffff8(%rsp)[8byte] 
  0x00007f8b307ba540  66 0f 6e ce          movd   %esi -> %xmm1 
  0x00007f8b307ba544  89 f8                mov    %edi -> %eax 
  0x00007f8b307ba546  25 ff 0f 00 00       and    $0x00000fff %eax -> %eax 
  0x00007f8b307ba54b  66 0f 60 c9          punpcklbw %xmm1 %xmm1 -> %xmm1 
  0x00007f8b307ba54f  3d c0 0f 00 00       cmp    %eax $0x00000fc0 
  0x00007f8b307ba554  66 0f 61 c9          punpcklwd %xmm1 %xmm1 -> %xmm1 
  0x00007f8b307ba558  66 0f 70 c9 00       pshufd %xmm1 $0x00 -> %xmm1 
  0x00007f8b307ba55d  0f 8f 5d 01 00 00    jnle   $0x00007f8b307ba6c0 
Actual: 7f8b307ba563

Block 151:
  0x00007f8b3075f8cd  48 85 c0             test   %rax %rax 
  0x00007f8b3075f8d0  74 0a                jz     $0x00007f8b3075f8dc 
Actual: 7f8b3075f8d2

Block 152:
  0x00007f8b3075f8d2  f6 40 01 bf          test   0x01(%rax)[1byte] $0xbf 
  0x00007f8b3075f8d6  0f 85 84 02 00 00    jnz    $0x00007f8b3075fb60 
Actual: 7f8b3075fb60

Block 153:
  0x00007f8b3075fb60  4c 8d 70 01          lea    0x01(%rax) -> %r14 
  0x00007f8b3075fb64  be 40 00 00 00       mov    $0x00000040 -> %esi 
  0x00007f8b3075fb69  4c 89 f7             mov    %r14 -> %rdi 
  0x00007f8b3075fb6c  e8 7f 77 06 00       call   $0x00007f8b307c72f0 %rsp -> %rsp 0xfffffff8(%rsp)[8byte] 
  0x00007f8b307c72f0  66 0f 6e ce          movd   %esi -> %xmm1 
  0x00007f8b307c72f4  89 f8                mov    %edi -> %eax 
  0x00007f8b307c72f6  25 ff 0f 00 00       and    $0x00000fff %eax -> %eax 
  0x00007f8b307c72fb  66 0f 60 c9          punpcklbw %xmm1 %xmm1 -> %xmm1 
  0x00007f8b307c72ff  3d c0 0f 00 00       cmp    %eax $0x00000fc0 
  0x00007f8b307c7304  66 0f 61 c9          punpcklwd %xmm1 %xmm1 -> %xmm1 
  0x00007f8b307c7308  66 0f 70 c9 00       pshufd %xmm1 $0x00 -> %xmm1 
  0x00007f8b307c730d  0f 8f 4d 01 00 00    jnle   $0x00007f8b307c7460 
Actual: 7f8b307c7313

Block 154:
  0x00007f8b307c7313  f3 0f 6f 07          movdqu (%rdi)[16byte] -> %xmm0 
  0x00007f8b307c7317  66 0f ef db          pxor   %xmm3 %xmm3 -> %xmm3 
  0x00007f8b307c731b  66 0f 6f e0          movdqa %xmm0 -> %xmm4 
  0x00007f8b307c731f  66 0f 74 c1          pcmpeqb %xmm1 %xmm0 -> %xmm0 
  0x00007f8b307c7323  66 0f 74 e3          pcmpeqb %xmm3 %xmm4 -> %xmm4 
  0x00007f8b307c7327  66 0f eb c4          por    %xmm4 %xmm0 -> %xmm0 
  0x00007f8b307c732b  66 0f d7 c0          pmovmskb %xmm0 -> %eax 
  0x00007f8b307c732f  85 c0                test   %eax %eax 
  0x00007f8b307c7331  74 0d                jz     $0x00007f8b307c7340 
Actual: 7f8b307c7333

Block 155:
  0x00007f8b307c7333  0f bc c0             bsf    %eax -> %eax 
  0x00007f8b307c7336  48 8d 04 07          lea    (%rdi,%rax,1) -> %rax 
  0x00007f8b307c733a  c3                   ret    %rsp (%rsp)[8byte] -> %rsp 
Actual: 7f8b3075fb71

Block 156:
  0x00007f8b3075fb71  49 89 c7             mov    %rax -> %r15 
  0x00007f8b3075fb74  4c 89 f7             mov    %r14 -> %rdi 
  0x00007f8b3075fb77  48 89 85 f8 fe ff ff mov    %rax -> 0xfffffef8(%rbp)[8byte] 
  0x00007f8b3075fb7e  4d 29 f7             sub    %r14 %r15 -> %r15 
  0x00007f8b3075fb81  4c 89 fe             mov    %r15 -> %rsi 
  0x00007f8b3075fb84  e8 87 64 00 00       call   $0x00007f8b30766010 %rsp -> %rsp 0xfffffff8(%rsp)[8byte] 
  0x00007f8b30766010  41 55                push   %r13 %rsp -> %rsp 0xfffffff8(%rsp)[8byte] 
  0x00007f8b30766012  41 54                push   %r12 %rsp -> %rsp 0xfffffff8(%rsp)[8byte] 
  0x00007f8b30766014  49 89 f5             mov    %rsi -> %r13 
  0x00007f8b30766017  55                   push   %rbp %rsp -> %rsp 0xfffffff8(%rsp)[8byte] 
  0x00007f8b30766018  53                   push   %rbx %rsp -> %rsp 0xfffffff8(%rsp)[8byte] 
  0x00007f8b30766019  48 89 fb             mov    %rdi -> %rbx 
  0x00007f8b3076601c  48 83 ec 08          sub    $0x0000000000000008 %rsp -> %rsp 
  0x00007f8b30766020  48 85 f6             test   %rsi %rsi 
  0x00007f8b30766023  0f 84 ec 00 00 00    jz     $0x00007f8b30766115 
Actual: 7f8b30766029

Block 157:
  0x00007f8b30766029  48 8b 2d 58 8b 38 00 mov    <rel> 0x00007f8b30aeeb88[8byte] -> %rbp 
  0x00007f8b30766030  4c 8d 24 37          lea    (%rdi,%rsi,1) -> %r12 
  0x00007f8b30766034  48 89 fa             mov    %rdi -> %rdx 
  0x00007f8b30766037  41 b8 01 00 00 00    mov    $0x00000001 -> %r8d 
  0x00007f8b3076603d  31 ff                xor    %edi %edi -> %edi 
  0x00007f8b3076603f  31 f6                xor    %esi %esi -> %esi 
  0x00007f8b30766041  0f 1f 80 00 00 00 00 nop    0x00000000(%rax)[4byte] 
  0x00007f8b30766048  0f b6 0a             movzx  (%rdx)[1byte] -> %ecx 
  0x00007f8b3076604b  f6 44 4d 00 08       test   0x00(%rbp,%rcx,2)[1byte] $0x08 
  0x00007f8b30766050  48 89 c8             mov    %rcx -> %rax 
  0x00007f8b30766053  74 0e                jz     $0x00007f8b30766063 
Actual: 7f8b30766055

Block 158:
  0x00007f8b30766055  83 e8 30             sub    $0x00000030 %eax -> %eax 
  0x00007f8b30766058  48 83 c7 01          add    $0x0000000000000001 %rdi -> %rdi 
  0x00007f8b3076605c  83 f8 0a             cmp    %eax $0x0000000a 
  0x00007f8b3076605f  44 0f 43 c6          cmovnb %esi %r8d -> %r8d 
  0x00007f8b30766063  48 83 c2 01          add    $0x0000000000000001 %rdx -> %rdx 
  0x00007f8b30766067  49 39 d4             cmp    %r12 %rdx 
  0x00007f8b3076606a  75 dc                jnz    $0x00007f8b30766048 
Actual: 7f8b30766048

Block 159:
  0x00007f8b30766048  0f b6 0a             movzx  (%rdx)[1byte] -> %ecx 
  0x00007f8b3076604b  f6 44 4d 00 08       test   0x00(%rbp,%rcx,2)[1byte] $0x08 
  0x00007f8b30766050  48 89 c8             mov    %rcx -> %rax 
  0x00007f8b30766053  74 0e                jz     $0x00007f8b30766063 
Actual: 7f8b30766055

Block 160:
  0x00007f8b30766063  48 83 c2 01          add    $0x0000000000000001 %rdx -> %rdx 
  0x00007f8b30766067  49 39 d4             cmp    %r12 %rdx 
  0x00007f8b3076606a  75 dc                jnz    $0x00007f8b30766048 
Actual: 7f8b30766048

Block 161:
  0x00007f8b3076606c  45 85 c0             test   %r8d %r8d 
  0x00007f8b3076606f  75 77                jnz    $0x00007f8b307660e8 
Actual: 7f8b30766071

Block 162:
  0x00007f8b30766071  48 83 c7 01          add    $0x0000000000000001 %rdi -> %rdi 
  0x00007f8b30766075  e8 6e d8 fe ff       call   $0x00007f8b307538e8 %rsp -> %rsp 0xfffffff8(%rsp)[8byte] 
  0x00007f8b307538e8  ff 25 3a c5 39 00    jmp    <rel> 0x00007f8b30aefe28[8byte] 
Actual: 7f8b307b4f00

Block 163:
  0x00007f8b307b4f00  55                   push   %rbp %rsp -> %rsp 0xfffffff8(%rsp)[8byte] 
  0x00007f8b307b4f01  53                   push   %rbx %rsp -> %rsp 0xfffffff8(%rsp)[8byte] 
  0x00007f8b307b4f02  48 83 ec 08          sub    $0x0000000000000008 %rsp -> %rsp 
  0x00007f8b307b4f06  48 8b 05 d3 af 33 00 mov    <rel> 0x00007f8b30aefee0[8byte] -> %rax 
  0x00007f8b307b4f0d  48 8b 00             mov    (%rax)[8byte] -> %rax 
  0x00007f8b307b4f10  48 85 c0             test   %rax %rax 
  0x00007f8b307b4f13  0f 85 0f 01 00 00    jnz    $0x00007f8b307b5028 
Actual: 7f8b307b4f19

Block 164:
  0x00007f8b307b4f19  48 8b 05 40 ae 33 00 mov    <rel> 0x00007f8b30aefd60[8byte] -> %rax 
  0x00007f8b307b4f20  48 89 fd             mov    %rdi -> %rbp 
  0x00007f8b307b4f23  64 48 8b 18          mov    %fs:(%rax)[8byte] -> %rbx 
  0x00007f8b307b4f27  48 85 db             test   %rbx %rbx 
  0x00007f8b307b4f2a  74 08                jz     $0x00007f8b307b4f34 
Actual: 7f8b307b4f2c

Block 165:
  0x00007f8b307b4f2c  8b 43 04             mov    0x04(%rbx)[4byte] -> %eax 
  0x00007f8b307b4f2f  83 e0 04             and    $0x00000004 %eax -> %eax 
  0x00007f8b307b4f32  74 5c                jz     $0x00007f8b307b4f90 
Actual: 7f8b307b4f90

Block 166:
  0x00007f8b307b4f90  be 01 00 00 00       mov    $0x00000001 -> %esi 
  0x00007f8b307b4f95  83 3d 64 07 34 00 00 cmp    <rel> 0x00007f8b30af5700[4byte] $0x00000000 
  0x00007f8b307b4f9c  74 08                jz     $0x00007f8b307b4fa6 
Actual: 7f8b307b4fa6

Block 167:
  0x00007f8b307b4fa6  0f b1 33             cmpxchg %esi (%rbx)[4byte] %eax -> (%rbx)[4byte] %eax 
  0x00007f8b307b4fa9  74 16                jz     $0x00007f8b307b4fc1 
Actual: 7f8b307b4fc1

Block 168:
  0x00007f8b307b4fc1  e9 7f ff ff ff       jmp    $0x00007f8b307b4f45 
  0x00007f8b307b4f45  48 89 ee             mov    %rbp -> %rsi 
  0x00007f8b307b4f48  48 89 df             mov    %rbx -> %rdi 
  0x00007f8b307b4f4b  e8 d0 e0 ff ff       call   $0x00007f8b307b3020 %rsp -> %rsp 0xfffffff8(%rsp)[8byte] 
  0x00007f8b307b3020  48 83 fe bf          cmp    %rsi $0xffffffffffffffbf 
  0x00007f8b307b3024  0f 87 97 08 00 00    jnbe   $0x00007f8b307b38c1 
Actual: 7f8b307b302a

Block 169:
  0x00007f8b307b302a  48 89 f0             mov    %rsi -> %rax 
  0x00007f8b307b302d  41 57                push   %r15 %rsp -> %rsp 0xfffffff8(%rsp)[8byte] 
  0x00007f8b307b302f  41 56                push   %r14 %rsp -> %rsp 0xfffffff8(%rsp)[8byte] 
  0x00007f8b307b3031  48 83 c0 17          add    $0x0000000000000017 %rax -> %rax 
  0x00007f8b307b3035  41 55                push   %r13 %rsp -> %rsp 0xfffffff8(%rsp)[8byte] 
  0x00007f8b307b3037  41 54                push   %r12 %rsp -> %rsp 0xfffffff8(%rsp)[8byte] 
  0x00007f8b307b3039  55                   push   %rbp %rsp -> %rsp 0xfffffff8(%rsp)[8byte] 
  0x00007f8b307b303a  53                   push   %rbx %rsp -> %rsp 0xfffffff8(%rsp)[8byte] 
  0x00007f8b307b303b  49 89 c4             mov    %rax -> %r12 
  0x00007f8b307b303e  49 83 e4 f0          and    $0xfffffffffffffff0 %r12 -> %r12 
  0x00007f8b307b3042  48 89 fd             mov    %rdi -> %rbp 
  0x00007f8b307b3045  48 81 ec a8 00 00 00 sub    $0x00000000000000a8 %rsp -> %rsp 
  0x00007f8b307b304c  48 83 f8 20          cmp    %rax $0x0000000000000020 
  0x00007f8b307b3050  b8 20 00 00 00       mov    $0x00000020 -> %eax 
  0x00007f8b307b3055  4c 0f 42 e0          cmovb  %rax %r12 -> %r12 
  0x00007f8b307b3059  48 89 74 24 10       mov    %rsi -> 0x10(%rsp)[8byte] 
  0x00007f8b307b305e  31 f6                xor    %esi %esi -> %esi 
  0x00007f8b307b3060  48 85 ff             test   %rdi %rdi 
  0x00007f8b307b3063  0f 84 73 08 00 00    jz     $0x00007f8b307b38dc 
Actual: 7f8b307b3069

Block 170:
  0x00007f8b307b3069  4c 3b 25 68 f7 33 00 cmp    %r12 <rel> 0x00007f8b30af27d8[8byte] 
  0x00007f8b307b3070  77 71                jnbe   $0x00007f8b307b30e3 
Actual: 7f8b307b3072

Block 171:
  0x00007f8b307b3072  44 89 e7             mov    %r12d -> %edi 
  0x00007f8b307b3075  c1 ef 04             shr    $0x00000004 %edi -> %edi 
  0x00007f8b307b3078  8d 47 fe             lea    0xfffffffe(%rdi) -> %eax 
  0x00007f8b307b307b  4c 8b 54 c5 08       mov    0x08(%rbp,%rax,8)[8byte] -> %r10 
  0x00007f8b307b3080  48 89 c7             mov    %rax -> %rdi 
  0x00007f8b307b3083  48 8d 4c c5 08       lea    0x08(%rbp,%rax,8) -> %rcx 
  0x00007f8b307b3088  4d 85 d2             test   %r10 %r10 
  0x00007f8b307b308b  74 56                jz     $0x00007f8b307b30e3 
Actual: 7f8b307b30e3

Block 172:
  0x00007f8b307b30e3  49 81 fc ff 03 00 00 cmp    %r12 $0x00000000000003ff 
  0x00007f8b307b30ea  77 64                jnbe   $0x00007f8b307b3150 
Actual: 7f8b307b30ec

Block 173:
  0x00007f8b307b30ec  44 89 e0             mov    %r12d -> %eax 
  0x00007f8b307b30ef  c1 e8 04             shr    $0x00000004 %eax -> %eax 
  0x00007f8b307b30f2  89 04 24             mov    %eax -> (%rsp)[4byte] 
  0x00007f8b307b30f5  05 ff ff ff 7f       add    $0x7fffffff %eax -> %eax 
  0x00007f8b307b30fa  01 c0                add    %eax %eax -> %eax 
  0x00007f8b307b30fc  48 8d 44 c5 68       lea    0x68(%rbp,%rax,8) -> %rax 
  0x00007f8b307b3101  4c 8b 70 08          mov    0x08(%rax)[8byte] -> %r14 
  0x00007f8b307b3105  48 8d 48 f0          lea    0xfffffff0(%rax) -> %rcx 
  0x00007f8b307b3109  4c 39 f1             cmp    %rcx %r14 
  0x00007f8b307b310c  74 67                jz     $0x00007f8b307b3175 
Actual: 7f8b307b3175

Block 174:
  0x00007f8b307b3175  4c 89 e0             mov    %r12 -> %rax 
  0x00007f8b307b3178  4c 89 e7             mov    %r12 -> %rdi 
  0x00007f8b307b317b  4c 8d 6d 58          lea    0x58(%rbp) -> %r13 
  0x00007f8b307b317f  48 c1 e8 06          shr    $0x0000000000000006 %rax -> %rax 
  0x00007f8b307b3183  48 c1 ef 09          shr    $0x0000000000000009 %rdi -> %rdi 
  0x00007f8b307b3187  4c 89 e1             mov    %r12 -> %rcx 
  0x00007f8b307b318a  48 89 44 24 40       mov    %rax -> 0x40(%rsp)[8byte] 
  0x00007f8b307b318f  83 c0 30             add    $0x00000030 %eax -> %eax 
  0x00007f8b307b3192  48 89 7c 24 50       mov    %rdi -> 0x50(%rsp)[8byte] 
  0x00007f8b307b3197  89 44 24 4c          mov    %eax -> 0x4c(%rsp)[4byte] 
  0x00007f8b307b319b  83 c7 5b             add    $0x0000005b %edi -> %edi 
  0x00007f8b307b319e  44 89 e0             mov    %r12d -> %eax 
  0x00007f8b307b31a1  c1 e8 04             shr    $0x00000004 %eax -> %eax 
  0x00007f8b307b31a4  89 7c 24 60          mov    %edi -> 0x60(%rsp)[4byte] 
  0x00007f8b307b31a8  48 8d bc 24 80 00 00 lea    0x00000080(%rsp) -> %rdi 
                      00
  0x00007f8b307b31b0  4c 89 e3             mov    %r12 -> %rbx 
  0x00007f8b307b31b3  4c 89 e6             mov    %r12 -> %rsi 
  0x00007f8b307b31b6  89 44 24 48          mov    %eax -> 0x48(%rsp)[4byte] 
  0x00007f8b307b31ba  b8 01 00 00 00       mov    $0x00000001 -> %eax 
  0x00007f8b307b31bf  48 c1 e9 0c          shr    $0x000000000000000c %rcx -> %rcx 
  0x00007f8b307b31c3  48 c1 eb 0f          shr    $0x000000000000000f %rbx -> %rbx 
  0x00007f8b307b31c7  48 c1 ee 12          shr    $0x0000000000000012 %rsi -> %rsi 
  0x00007f8b307b31cb  48 29 f8             sub    %rdi %rax -> %rax 
  0x00007f8b307b31ce  48 89 4c 24 58       mov    %rcx -> 0x58(%rsp)[8byte] 
  0x00007f8b307b31d3  48 89 5c 24 68       mov    %rbx -> 0x68(%rsp)[8byte] 
  0x00007f8b307b31d8  48 89 74 24 70       mov    %rsi -> 0x70(%rsp)[8byte] 
  0x00007f8b307b31dd  83 c3 77             add    $0x00000077 %ebx -> %ebx 
  0x00007f8b307b31e0  83 c6 7c             add    $0x0000007c %esi -> %esi 
  0x00007f8b307b31e3  83 c1 6e             add    $0x0000006e %ecx -> %ecx 
  0x00007f8b307b31e6  48 89 44 24 38       mov    %rax -> 0x38(%rsp)[8byte] 
  0x00007f8b307b31eb  4c 89 e8             mov    %r13 -> %rax 
  0x00007f8b307b31ee  89 74 24 7c          mov    %esi -> 0x7c(%rsp)[4byte] 
  0x00007f8b307b31f2  4d 89 e5             mov    %r12 -> %r13 
  0x00007f8b307b31f5  89 5c 24 78          mov    %ebx -> 0x78(%rsp)[4byte] 
  0x00007f8b307b31f9  89 4c 24 64          mov    %ecx -> 0x64(%rsp)[4byte] 
  0x00007f8b307b31fd  49 89 c4             mov    %rax -> %r12 
  0x00007f8b307b3200  48 89 7c 24 08       mov    %rdi -> 0x08(%rsp)[8byte] 
  0x00007f8b307b3205  48 8d 44 24 7f       lea    0x7f(%rsp) -> %rax 
  0x00007f8b307b320a  41 bf 10 27 00 00    mov    $0x00002710 -> %r15d 
  0x00007f8b307b3210  48 89 44 24 18       mov    %rax -> 0x18(%rsp)[8byte] 
  0x00007f8b307b3215  eb 53                jmp    $0x00007f8b307b326a 
  0x00007f8b307b326a  48 8b 5d 70          mov    0x70(%rbp)[8byte] -> %rbx 
  0x00007f8b307b326e  4c 39 e3             cmp    %rbx %r12 
  0x00007f8b307b3271  0f 84 79 03 00 00    jz     $0x00007f8b307b35f0 
Actual: 7f8b307b35f0

Block 175:
  0x00007f8b307b35f0  49 81 fd ff 03 00 00 cmp    %r13 $0x00000000000003ff 
  0x00007f8b307b35f7  0f 87 a1 01 00 00    jnbe   $0x00007f8b307b379e 
Actual: 7f8b307b35fd

Block 176:
  0x00007f8b307b35fd  8b 04 24             mov    (%rsp)[4byte] -> %eax 
  0x00007f8b307b3600  8d 48 01             lea    0x01(%rax) -> %ecx 
  0x00007f8b307b3603  01 c0                add    %eax %eax -> %eax 
  0x00007f8b307b3605  48 8d 54 c5 58       lea    0x58(%rbp,%rax,8) -> %rdx 
  0x00007f8b307b360a  89 cf                mov    %ecx -> %edi 
  0x00007f8b307b360c  c1 ef 05             shr    $0x00000005 %edi -> %edi 
  0x00007f8b307b360f  89 f8                mov    %edi -> %eax 
  0x00007f8b307b3611  8b b4 85 58 08 00 00 mov    0x00000858(%rbp,%rax,4)[4byte] -> %esi 
  0x00007f8b307b3618  b8 01 00 00 00       mov    $0x00000001 -> %eax 
  0x00007f8b307b361d  d3 e0                shl    %cl %eax -> %eax 
  0x00007f8b307b361f  39 f0                cmp    %eax %esi 
  0x00007f8b307b3621  77 3d                jnbe   $0x00007f8b307b3660 
Actual: 7f8b307b3660

Block 177:
  0x00007f8b307b3660  8d 47 01             lea    0x01(%rdi) -> %eax 
  0x00007f8b307b3663  83 f8 03             cmp    %eax $0x00000003 
  0x00007f8b307b3666  77 3d                jnbe   $0x00007f8b307b36a5 
Actual: 7f8b307b3668

Block 178:
  0x00007f8b307b3668  89 c2                mov    %eax -> %edx 
  0x00007f8b307b366a  8b b4 95 58 08 00 00 mov    0x00000858(%rbp,%rdx,4)[4byte] -> %esi 
  0x00007f8b307b3671  85 f6                test   %esi %esi 
  0x00007f8b307b3673  0f 85 d8 02 00 00    jnz    $0x00007f8b307b3951 
Actual: 7f8b307b3679

Block 179:
  0x00007f8b307b3679  8d 47 02             lea    0x02(%rdi) -> %eax 
  0x00007f8b307b367c  83 f8 04             cmp    %eax $0x00000004 
  0x00007f8b307b367f  74 24                jz     $0x00007f8b307b36a5 
Actual: 7f8b307b3681

Block 180:
  0x00007f8b307b3681  89 c2                mov    %eax -> %edx 
  0x00007f8b307b3683  8b b4 95 58 08 00 00 mov    0x00000858(%rbp,%rdx,4)[4byte] -> %esi 
  0x00007f8b307b368a  85 f6                test   %esi %esi 
  0x00007f8b307b368c  0f 85 bf 02 00 00    jnz    $0x00007f8b307b3951 
Actual: 7f8b307b3692

Block 181:
  0x00007f8b307b3692  83 ff 01             cmp    %edi $0x00000001 
  0x00007f8b307b3695  74 0e                jz     $0x00007f8b307b36a5 
Actual: 7f8b307b3697

Block 182:
  0x00007f8b307b3697  8b b5 64 08 00 00    mov    0x00000864(%rbp)[4byte] -> %esi 
  0x00007f8b307b369d  85 f6                test   %esi %esi 
  0x00007f8b307b369f  0f 85 8b 03 00 00    jnz    $0x00007f8b307b3a30 
Actual: 7f8b307b36a5

Block 183:
  0x00007f8b307b36a5  4c 8b 55 58          mov    0x58(%rbp)[8byte] -> %r10 
  0x00007f8b307b36a9  49 8d 55 20          lea    0x20(%r13) -> %rdx 
  0x00007f8b307b36ad  49 8b 42 08          mov    0x08(%r10)[8byte] -> %rax 
  0x00007f8b307b36b1  48 83 e0 f8          and    $0xfffffffffffffff8 %rax -> %rax 
  0x00007f8b307b36b5  48 39 d0             cmp    %rax %rdx 
  0x00007f8b307b36b8  0f 83 f2 04 00 00    jnb    $0x00007f8b307b3bb0 
Actual: 7f8b307b3bb0

Block 184:
  0x00007f8b307b3bb0  48 8d 15 49 cf 33 00 lea    <rel> 0x00007f8b30af0b00 -> %rdx 
  0x00007f8b307b3bb7  4c 29 e8             sub    %r13 %rax -> %rax 
  0x00007f8b307b3bba  31 c9                xor    %ecx %ecx -> %ecx 
  0x00007f8b307b3bbc  4b 8d 34 2a          lea    (%r10,%r13,1) -> %rsi 
  0x00007f8b307b3bc0  48 39 d5             cmp    %rbp %rdx 
  0x00007f8b307b3bc3  4c 89 ea             mov    %r13 -> %rdx 
  0x00007f8b307b3bc6  0f 95 c1             setnz  -> %cl 
  0x00007f8b307b3bc9  48 83 ca 01          or     $0x0000000000000001 %rdx -> %rdx 
  0x00007f8b307b3bcd  48 83 c8 01          or     $0x0000000000000001 %rax -> %rax 
  0x00007f8b307b3bd1  48 c1 e1 02          shl    $0x0000000000000002 %rcx -> %rcx 
  0x00007f8b307b3bd5  48 89 75 58          mov    %rsi -> 0x58(%rbp)[8byte] 
  0x00007f8b307b3bd9  49 83 c2 10          add    $0x0000000000000010 %r10 -> %r10 
  0x00007f8b307b3bdd  48 09 ca             or     %rcx %rdx -> %rdx 
  0x00007f8b307b3be0  49 89 52 f8          mov    %rdx -> 0xfffffff8(%r10)[8byte] 
  0x00007f8b307b3be4  48 89 46 08          mov    %rax -> 0x08(%rsi)[8byte] 
  0x00007f8b307b3be8  8b 05 e6 eb 33 00    mov    <rel> 0x00007f8b30af27d4[4byte] -> %eax 
  0x00007f8b307b3bee  85 c0                test   %eax %eax 
  0x00007f8b307b3bf0  0f 84 e5 f9 ff ff    jz     $0x00007f8b307b35db 
Actual: 7f8b307b35db

Block 185:
  0x00007f8b307b35db  48 81 c4 a8 00 00 00 add    $0x00000000000000a8 %rsp -> %rsp 
  0x00007f8b307b35e2  4c 89 d0             mov    %r10 -> %rax 
  0x00007f8b307b35e5  5b                   pop    %rsp (%rsp)[8byte] -> %rbx %rsp 
  0x00007f8b307b35e6  5d                   pop    %rsp (%rsp)[8byte] -> %rbp %rsp 
  0x00007f8b307b35e7  41 5c                pop    %rsp (%rsp)[8byte] -> %r12 %rsp 
  0x00007f8b307b35e9  41 5d                pop    %rsp (%rsp)[8byte] -> %r13 %rsp 
  0x00007f8b307b35eb  41 5e                pop    %rsp (%rsp)[8byte] -> %r14 %rsp 
  0x00007f8b307b35ed  41 5f                pop    %rsp (%rsp)[8byte] -> %r15 %rsp 
  0x00007f8b307b35ef  c3                   ret    %rsp (%rsp)[8byte] -> %rsp 
Actual: 7f8b307b4f50

Block 186:
  0x00007f8b307b4f50  48 85 c0             test   %rax %rax 
  0x00007f8b307b4f53  48 89 c2             mov    %rax -> %rdx 
  0x00007f8b307b4f56  0f 84 9c 00 00 00    jz     $0x00007f8b307b4ff8 
Actual: 7f8b307b4f5c

Block 187:
  0x00007f8b307b4f5c  83 3d 9d 07 34 00 00 cmp    <rel> 0x00007f8b30af5700[4byte] $0x00000000 
  0x00007f8b307b4f63  74 07                jz     $0x00007f8b307b4f6c 
Actual: 7f8b307b4f6c

Block 188:
  0x00007f8b307b4f6c  ff 0b                dec    (%rbx)[4byte] -> (%rbx)[4byte] 
  0x00007f8b307b4f6e  74 16                jz     $0x00007f8b307b4f86 
Actual: 7f8b307b4f86

Block 189:
  0x00007f8b307b4f86  48 83 c4 08          add    $0x0000000000000008 %rsp -> %rsp 
  0x00007f8b307b4f8a  48 89 d0             mov    %rdx -> %rax 
  0x00007f8b307b4f8d  5b                   pop    %rsp (%rsp)[8byte] -> %rbx %rsp 
  0x00007f8b307b4f8e  5d                   pop    %rsp (%rsp)[8byte] -> %rbp %rsp 
  0x00007f8b307b4f8f  c3                   ret    %rsp (%rsp)[8byte] -> %rsp 
Actual: 7f8b3076607a

Block 190:
  0x00007f8b3076607a  48 85 c0             test   %rax %rax 
  0x00007f8b3076607d  48 89 c1             mov    %rax -> %rcx 
  0x00007f8b30766080  0f 84 a0 00 00 00    jz     $0x00007f8b30766126 
Actual: 7f8b30766086

Block 191:
  0x00007f8b30766086  48 89 c8             mov    %rcx -> %rax 
  0x00007f8b30766089  4c 8b 05 00 8b 38 00 mov    <rel> 0x00007f8b30aeeb90[8byte] -> %r8 
  0x00007f8b30766090  48 89 df             mov    %rbx -> %rdi 
  0x00007f8b30766093  eb 17                jmp    $0x00007f8b307660ac 
  0x00007f8b307660ac  0f b6 37             movzx  (%rdi)[1byte] -> %esi 
  0x00007f8b307660af  f6 44 75 01 04       test   0x01(%rbp,%rsi,2)[1byte] $0x04 
  0x00007f8b307660b4  48 89 f2             mov    %rsi -> %rdx 
  0x00007f8b307660b7  75 df                jnz    $0x00007f8b30766098 
Actual: 7f8b30766098

Block 192:
  0x00007f8b30766098  41 8b 14 b0          mov    (%r8,%rsi,4)[4byte] -> %edx 
  0x00007f8b3076609c  48 83 c1 01          add    $0x0000000000000001 %rcx -> %rcx 
  0x00007f8b307660a0  88 51 ff             mov    %dl -> 0xffffffff(%rcx)[1byte] 
  0x00007f8b307660a3  48 83 c7 01          add    $0x0000000000000001 %rdi -> %rdi 
  0x00007f8b307660a7  49 39 fc             cmp    %r12 %rdi 
  0x00007f8b307660aa  74 28                jz     $0x00007f8b307660d4 
Actual: 7f8b307660ac

Block 193:
  0x00007f8b307660ac  0f b6 37             movzx  (%rdi)[1byte] -> %esi 
  0x00007f8b307660af  f6 44 75 01 04       test   0x01(%rbp,%rsi,2)[1byte] $0x04 
  0x00007f8b307660b4  48 89 f2             mov    %rsi -> %rdx 
  0x00007f8b307660b7  75 df                jnz    $0x00007f8b30766098 
Actual: 7f8b30766098

Block 194:
  0x00007f8b307660b9  40 0f b6 f6          movzx  %sil -> %esi 
  0x00007f8b307660bd  83 ee 30             sub    $0x00000030 %esi -> %esi 
  0x00007f8b307660c0  83 fe 09             cmp    %esi $0x00000009 
  0x00007f8b307660c3  77 de                jnbe   $0x00007f8b307660a3 
Actual: 7f8b307660a3

Block 195:
  0x00007f8b307660a3  48 83 c7 01          add    $0x0000000000000001 %rdi -> %rdi 
  0x00007f8b307660a7  49 39 fc             cmp    %r12 %rdi 
  0x00007f8b307660aa  74 28                jz     $0x00007f8b307660d4 
Actual: 7f8b307660ac

Block 196:
  0x00007f8b307660c5  48 83 c7 01          add    $0x0000000000000001 %rdi -> %rdi 
  0x00007f8b307660c9  88 11                mov    %dl -> (%rcx)[1byte] 
  0x00007f8b307660cb  48 83 c1 01          add    $0x0000000000000001 %rcx -> %rcx 
  0x00007f8b307660cf  49 39 fc             cmp    %r12 %rdi 
  0x00007f8b307660d2  75 d8                jnz    $0x00007f8b307660ac 
Actual: 7f8b307660d4

Block 197:
  0x00007f8b307660d4  c6 01 00             mov    $0x00 -> (%rcx)[1byte] 
  0x00007f8b307660d7  48 83 c4 08          add    $0x0000000000000008 %rsp -> %rsp 
  0x00007f8b307660db  5b                   pop    %rsp (%rsp)[8byte] -> %rbx %rsp 
  0x00007f8b307660dc  5d                   pop    %rsp (%rsp)[8byte] -> %rbp %rsp 
  0x00007f8b307660dd  41 5c                pop    %rsp (%rsp)[8byte] -> %r12 %rsp 
  0x00007f8b307660df  41 5d                pop    %rsp (%rsp)[8byte] -> %r13 %rsp 
  0x00007f8b307660e1  c3                   ret    %rsp (%rsp)[8byte] -> %rsp 
Actual: 7f8b3075fb89

Block 198:
  0x00007f8b3075fb89  48 85 c0             test   %rax %rax 
  0x00007f8b3075fb8c  49 89 c4             mov    %rax -> %r12 
  0x00007f8b3075fb8f  74 ac                jz     $0x00007f8b3075fb3d 
Actual: 7f8b3075fb91

Block 199:
  0x00007f8b3075fb91  4c 89 fa             mov    %r15 -> %rdx 
  0x00007f8b3075fb94  4c 89 f6             mov    %r14 -> %rsi 
  0x00007f8b3075fb97  48 89 c7             mov    %rax -> %rdi 
  0x00007f8b3075fb9a  e8 61 ca 05 00       call   $0x00007f8b307bc600 %rsp -> %rsp 0xfffffff8(%rsp)[8byte] 
  0x00007f8b307bc600  48 85 d2             test   %rdx %rdx 
  0x00007f8b307bc603  0f 84 2b 18 00 00    jz     $0x00007f8b307bde34 
Actual: 7f8b307bc609

Block 200:
  0x00007f8b3075fb9f  85 c0                test   %eax %eax 
  0x00007f8b3075fba1  75 07                jnz    $0x00007f8b3075fbaa 
Actual: 7f8b3075fbaa

Block 201:
  0x00007f8b3075fbaa  4c 89 e7             mov    %r12 -> %rdi 
  0x00007f8b3075fbad  e8 fe c5 05 00       call   $0x00007f8b307bc1b0 %rsp -> %rsp 0xfffffff8(%rsp)[8byte] 
  0x00007f8b307bc1b0  66 0f ef c0          pxor   %xmm0 %xmm0 -> %xmm0 
  0x00007f8b307bc1b4  66 0f ef c9          pxor   %xmm1 %xmm1 -> %xmm1 
  0x00007f8b307bc1b8  66 0f ef d2          pxor   %xmm2 %xmm2 -> %xmm2 
  0x00007f8b307bc1bc  66 0f ef db          pxor   %xmm3 %xmm3 -> %xmm3 
  0x00007f8b307bc1c0  48 89 f8             mov    %rdi -> %rax 
  0x00007f8b307bc1c3  48 89 f9             mov    %rdi -> %rcx 
  0x00007f8b307bc1c6  48 81 e1 ff 0f 00 00 and    $0x0000000000000fff %rcx -> %rcx 
  0x00007f8b307bc1cd  48 81 f9 cf 0f 00 00 cmp    %rcx $0x0000000000000fcf 
  0x00007f8b307bc1d4  77 6a                jnbe   $0x00007f8b307bc240 
Actual: 7f8b307bc1d6

Block 202:
  0x00007f8b3075fbb2  48 8b bd f8 fe ff ff mov    0xfffffef8(%rbp)[8byte] -> %rdi 
  0x00007f8b3075fbb9  49 89 c7             mov    %rax -> %r15 
  0x00007f8b3075fbbc  e8 ef c5 05 00       call   $0x00007f8b307bc1b0 %rsp -> %rsp 0xfffffff8(%rsp)[8byte] 
  0x00007f8b307bc1b0  66 0f ef c0          pxor   %xmm0 %xmm0 -> %xmm0 
  0x00007f8b307bc1b4  66 0f ef c9          pxor   %xmm1 %xmm1 -> %xmm1 
  0x00007f8b307bc1b8  66 0f ef d2          pxor   %xmm2 %xmm2 -> %xmm2 
  0x00007f8b307bc1bc  66 0f ef db          pxor   %xmm3 %xmm3 -> %xmm3 
  0x00007f8b307bc1c0  48 89 f8             mov    %rdi -> %rax 
  0x00007f8b307bc1c3  48 89 f9             mov    %rdi -> %rcx 
  0x00007f8b307bc1c6  48 81 e1 ff 0f 00 00 and    $0x0000000000000fff %rcx -> %rcx 
  0x00007f8b307bc1cd  48 81 f9 cf 0f 00 00 cmp    %rcx $0x0000000000000fcf 
  0x00007f8b307bc1d4  77 6a                jnbe   $0x00007f8b307bc240 
Actual: 7f8b307bc1d6

Block 203:
  0x00007f8b3075fbc1  4c 89 f2             mov    %r14 -> %rdx 
  0x00007f8b3075fbc4  4c 8d 40 01          lea    0x01(%rax) -> %r8 
  0x00007f8b3075fbc8  48 89 de             mov    %rbx -> %rsi 
  0x00007f8b3075fbcb  48 29 da             sub    %rbx %rdx -> %rdx 
  0x00007f8b3075fbce  49 8d 04 17          lea    (%r15,%rdx,1) -> %rax 
  0x00007f8b3075fbd2  4c 89 85 f0 fe ff ff mov    %r8 -> 0xfffffef0(%rbp)[8byte] 
  0x00007f8b3075fbd9  49 8d 44 00 1e       lea    0x1e(%r8,%rax,1) -> %rax 
  0x00007f8b3075fbde  48 83 e0 f0          and    $0xfffffffffffffff0 %rax -> %rax 
  0x00007f8b3075fbe2  48 29 c4             sub    %rax %rsp -> %rsp 
  0x00007f8b3075fbe5  4c 8d 74 24 0f       lea    0x0f(%rsp) -> %r14 
  0x00007f8b3075fbea  49 83 e6 f0          and    $0xfffffffffffffff0 %r14 -> %r14 
  0x00007f8b3075fbee  4c 89 f7             mov    %r14 -> %rdi 
  0x00007f8b3075fbf1  4c 89 f3             mov    %r14 -> %rbx 
  0x00007f8b3075fbf4  e8 97 03 06 00       call   $0x00007f8b307bff90 %rsp -> %rsp 0xfffffff8(%rsp)[8byte] 
  0x00007f8b307bff90  48 83 fa 20          cmp    %rdx $0x0000000000000020 
  0x00007f8b307bff94  73 7a                jnb    $0x00007f8b307c0010 
Actual: 7f8b307bff96

Block 204:
  0x00007f8b307bff96  f6 c2 01             test   %dl $0x01 
  0x00007f8b307bff99  74 0b                jz     $0x00007f8b307bffa6 
Actual: 7f8b307bffa6

Block 205:
  0x00007f8b307bffa6  f6 c2 02             test   %dl $0x02 
  0x00007f8b307bffa9  74 0e                jz     $0x00007f8b307bffb9 
Actual: 7f8b307bffab

Block 206:
  0x00007f8b307bffab  0f b7 0e             movzx  (%rsi)[2byte] -> %ecx 
  0x00007f8b307bffae  66 89 0f             data16 mov    %cx -> (%rdi)[2byte] 
  0x00007f8b307bffb1  48 83 c6 02          add    $0x0000000000000002 %rsi -> %rsi 
  0x00007f8b307bffb5  48 83 c7 02          add    $0x0000000000000002 %rdi -> %rdi 
  0x00007f8b307bffb9  f6 c2 04             test   %dl $0x04 
  0x00007f8b307bffbc  74 0c                jz     $0x00007f8b307bffca 
Actual: 7f8b307bffbe

Block 207:
  0x00007f8b307bffbe  8b 0e                mov    (%rsi)[4byte] -> %ecx 
  0x00007f8b307bffc0  89 0f                mov    %ecx -> (%rdi)[4byte] 
  0x00007f8b307bffc2  48 83 c6 04          add    $0x0000000000000004 %rsi -> %rsi 
  0x00007f8b307bffc6  48 83 c7 04          add    $0x0000000000000004 %rdi -> %rdi 
  0x00007f8b307bffca  f6 c2 08             test   %dl $0x08 
  0x00007f8b307bffcd  74 11                jz     $0x00007f8b307bffe0 
Actual: 7f8b307bffe0

Block 208:
  0x00007f8b307bffe0  81 e2 f0 00 00 00    and    $0x000000f0 %edx -> %edx 
  0x00007f8b307bffe6  74 23                jz     $0x00007f8b307c000b 
Actual: 7f8b307c000b

Block 209:
  0x00007f8b307c000b  48 89 f8             mov    %rdi -> %rax 
  0x00007f8b307c000e  c3                   ret    %rsp (%rsp)[8byte] -> %rsp 
Actual: 7f8b3075fbf9

Block 210:
  0x00007f8b3075fbf9  4c 89 fa             mov    %r15 -> %rdx 
  0x00007f8b3075fbfc  4c 89 e6             mov    %r12 -> %rsi 
  0x00007f8b3075fbff  48 89 c7             mov    %rax -> %rdi 
  0x00007f8b3075fc02  e8 89 03 06 00       call   $0x00007f8b307bff90 %rsp -> %rsp 0xfffffff8(%rsp)[8byte] 
  0x00007f8b307bff90  48 83 fa 20          cmp    %rdx $0x0000000000000020 
  0x00007f8b307bff94  73 7a                jnb    $0x00007f8b307c0010 
Actual: 7f8b307bff96

Block 211:
  0x00007f8b307bffb9  f6 c2 04             test   %dl $0x04 
  0x00007f8b307bffbc  74 0c                jz     $0x00007f8b307bffca 
Actual: 7f8b307bffbe

Block 212:
  0x00007f8b3075fc07  4c 8b 85 f0 fe ff ff mov    0xfffffef0(%rbp)[8byte] -> %r8 
  0x00007f8b3075fc0e  48 8b b5 f8 fe ff ff mov    0xfffffef8(%rbp)[8byte] -> %rsi 
  0x00007f8b3075fc15  48 89 c7             mov    %rax -> %rdi 
  0x00007f8b3075fc18  4c 89 c2             mov    %r8 -> %rdx 
  0x00007f8b3075fc1b  e8 30 54 06 00       call   $0x00007f8b307c5050 %rsp -> %rsp 0xfffffff8(%rsp)[8byte] 
  0x00007f8b307c5050  48 83 fa 20          cmp    %rdx $0x0000000000000020 
  0x00007f8b307c5054  48 89 f8             mov    %rdi -> %rax 
  0x00007f8b307c5057  73 77                jnb    $0x00007f8b307c50d0 
Actual: 7f8b307c5059

Block 213:
  0x00007f8b307c5059  f6 c2 01             test   %dl $0x01 
  0x00007f8b307c505c  74 0b                jz     $0x00007f8b307c5069 
Actual: 7f8b307c505e

Block 214:
  0x00007f8b307c505e  0f b6 0e             movzx  (%rsi)[1byte] -> %ecx 
  0x00007f8b307c5061  88 0f                mov    %cl -> (%rdi)[1byte] 
  0x00007f8b307c5063  48 ff c6             inc    %rsi -> %rsi 
  0x00007f8b307c5066  48 ff c7             inc    %rdi -> %rdi 
  0x00007f8b307c5069  f6 c2 02             test   %dl $0x02 
  0x00007f8b307c506c  74 12                jz     $0x00007f8b307c5080 
Actual: 7f8b307c5080

Block 215:
  0x00007f8b307c5080  f6 c2 04             test   %dl $0x04 
  0x00007f8b307c5083  74 0c                jz     $0x00007f8b307c5091 
Actual: 7f8b307c5091

Block 216:
  0x00007f8b307c5091  f6 c2 08             test   %dl $0x08 
  0x00007f8b307c5094  74 0e                jz     $0x00007f8b307c50a4 
Actual: 7f8b307c50a4

Block 217:
  0x00007f8b307c50a4  81 e2 f0 00 00 00    and    $0x000000f0 %edx -> %edx 
  0x00007f8b307c50aa  74 1f                jz     $0x00007f8b307c50cb 
Actual: 7f8b307c50cb

Block 218:
  0x00007f8b307c50cb  f3 c3                ret    %rsp (%rsp)[8byte] -> %rsp 
Actual: 7f8b3075fc20

Block 219:
  0x00007f8b3075fc20  4c 89 e7             mov    %r12 -> %rdi 
  0x00007f8b3075fc23  e8 e8 3c ff ff       call   $0x00007f8b30753910 %rsp -> %rsp 0xfffffff8(%rsp)[8byte] 
  0x00007f8b30753910  ff 25 7a c6 39 00    jmp    <rel> 0x00007f8b30aeff90[8byte] 
Actual: 7f8b307b5260

Block 220:
  0x00007f8b307b5260  41 55                push   %r13 %rsp -> %rsp 0xfffffff8(%rsp)[8byte] 
  0x00007f8b307b5262  41 54                push   %r12 %rsp -> %rsp 0xfffffff8(%rsp)[8byte] 
  0x00007f8b307b5264  55                   push   %rbp %rsp -> %rsp 0xfffffff8(%rsp)[8byte] 
  0x00007f8b307b5265  53                   push   %rbx %rsp -> %rsp 0xfffffff8(%rsp)[8byte] 
  0x00007f8b307b5266  48 83 ec 28          sub    $0x0000000000000028 %rsp -> %rsp 
  0x00007f8b307b526a  48 8b 05 77 ac 33 00 mov    <rel> 0x00007f8b30aefee8[8byte] -> %rax 
  0x00007f8b307b5271  48 8b 00             mov    (%rax)[8byte] -> %rax 
  0x00007f8b307b5274  48 85 c0             test   %rax %rax 
  0x00007f8b307b5277  0f 85 d3 00 00 00    jnz    $0x00007f8b307b5350 
Actual: 7f8b307b527d

Block 221:
  0x00007f8b307b527d  48 85 ff             test   %rdi %rdi 
  0x00007f8b307b5280  74 2a                jz     $0x00007f8b307b52ac 
Actual: 7f8b307b5282

Block 222:
  0x00007f8b307b5282  48 8b 47 f8          mov    0xfffffff8(%rdi)[8byte] -> %rax 
  0x00007f8b307b5286  48 8d 77 f0          lea    0xfffffff0(%rdi) -> %rsi 
  0x00007f8b307b528a  a8 02                test   %al $0x02 
  0x00007f8b307b528c  75 32                jnz    $0x00007f8b307b52c0 
Actual: 7f8b307b528e

Block 223:
  0x00007f8b307b528e  a8 04                test   %al $0x04 
  0x00007f8b307b5290  48 8d 3d 69 b8 33 00 lea    <rel> 0x00007f8b30af0b00 -> %rdi 
  0x00007f8b307b5297  74 0c                jz     $0x00007f8b307b52a5 
Actual: 7f8b307b52a5

Block 224:
  0x00007f8b307b52a5  31 d2                xor    %edx %edx -> %edx 
  0x00007f8b307b52a7  e8 34 c5 ff ff       call   $0x00007f8b307b17e0 %rsp -> %rsp 0xfffffff8(%rsp)[8byte] 
  0x00007f8b307b17e0  41 57                push   %r15 %rsp -> %rsp 0xfffffff8(%rsp)[8byte] 
  0x00007f8b307b17e2  41 56                push   %r14 %rsp -> %rsp 0xfffffff8(%rsp)[8byte] 
  0x00007f8b307b17e4  41 89 d6             mov    %edx -> %r14d 
  0x00007f8b307b17e7  41 55                push   %r13 %rsp -> %rsp 0xfffffff8(%rsp)[8byte] 
  0x00007f8b307b17e9  41 54                push   %r12 %rsp -> %rsp 0xfffffff8(%rsp)[8byte] 
  0x00007f8b307b17eb  55                   push   %rbp %rsp -> %rsp 0xfffffff8(%rsp)[8byte] 
  0x00007f8b307b17ec  53                   push   %rbx %rsp -> %rsp 0xfffffff8(%rsp)[8byte] 
  0x00007f8b307b17ed  48 89 fd             mov    %rdi -> %rbp 
  0x00007f8b307b17f0  48 89 f3             mov    %rsi -> %rbx 
  0x00007f8b307b17f3  48 83 ec 78          sub    $0x0000000000000078 %rsp -> %rsp 
  0x00007f8b307b17f7  48 8b 46 08          mov    0x08(%rsi)[8byte] -> %rax 
  0x00007f8b307b17fb  49 89 c4             mov    %rax -> %r12 
  0x00007f8b307b17fe  49 83 e4 f8          and    $0xfffffffffffffff8 %r12 -> %r12 
  0x00007f8b307b1802  4c 89 e2             mov    %r12 -> %rdx 
  0x00007f8b307b1805  48 f7 da             neg    %rdx -> %rdx 
  0x00007f8b307b1808  48 39 d6             cmp    %rsi %rdx 
  0x00007f8b307b180b  0f 87 9f 04 00 00    jnbe   $0x00007f8b307b1cb0 
Actual: 7f8b307b1811

Block 225:
  0x00007f8b307b1811  40 f6 c6 0f          test   %sil $0x0f 
  0x00007f8b307b1815  0f 85 95 04 00 00    jnz    $0x00007f8b307b1cb0 
Actual: 7f8b307b181b

Block 226:
  0x00007f8b307b181b  49 83 fc 1f          cmp    %r12 $0x000000000000001f 
  0x00007f8b307b181f  0f 86 3b 05 00 00    jbe    $0x00007f8b307b1d60 
Actual: 7f8b307b1825

Block 227:
  0x00007f8b307b1825  a8 08                test   %al $0x08 
  0x00007f8b307b1827  0f 85 33 05 00 00    jnz    $0x00007f8b307b1d60 
Actual: 7f8b307b182d

Block 228:
  0x00007f8b307b182d  4c 3b 25 a4 0f 34 00 cmp    %r12 <rel> 0x00007f8b30af27d8[8byte] 
  0x00007f8b307b1834  0f 87 fe 00 00 00    jnbe   $0x00007f8b307b1938 
Actual: 7f8b307b183a

Block 229:
  0x00007f8b307b183a  4a 8d 14 26          lea    (%rsi,%r12,1) -> %rdx 
  0x00007f8b307b183e  48 8b 42 08          mov    0x08(%rdx)[8byte] -> %rax 
  0x00007f8b307b1842  48 83 f8 10          cmp    %rax $0x0000000000000010 
  0x00007f8b307b1846  0f 86 84 06 00 00    jbe    $0x00007f8b307b1ed0 
Actual: 7f8b307b184c

Block 230:
  0x00007f8b307b184c  48 83 e0 f8          and    $0xfffffffffffffff8 %rax -> %rax 
  0x00007f8b307b1850  48 3b 87 80 08 00 00 cmp    %rax 0x00000880(%rdi)[8byte] 
  0x00007f8b307b1857  0f 83 73 06 00 00    jnb    $0x00007f8b307b1ed0 
Actual: 7f8b307b185d

Block 231:
  0x00007f8b307b185d  8b 35 71 0f 34 00    mov    <rel> 0x00007f8b30af27d4[4byte] -> %esi 
  0x00007f8b307b1863  4c 8d 43 10          lea    0x10(%rbx) -> %r8 
  0x00007f8b307b1867  85 f6                test   %esi %esi 
  0x00007f8b307b1869  0f 85 21 08 00 00    jnz    $0x00007f8b307b2090 
Actual: 7f8b307b186f

Block 232:
  0x00007f8b307b186f  64 83 3c 25 18 00 00 cmp    %fs:0x18[4byte] $0x00000000 
                      00 00
  0x00007f8b307b1878  74 01                jz     $0x00007f8b307b187b 
Actual: 7f8b307b187b

Block 233:
  0x00007f8b307b187b  83 65 04 fe          and    $0xfffffffe 0x04(%rbp)[4byte] -> 0x04(%rbp)[4byte] 
  0x00007f8b307b187f  41 c1 ec 04          shr    $0x00000004 %r12d -> %r12d 
  0x00007f8b307b1883  41 8d 44 24 fe       lea    0xfffffffe(%r12) -> %eax 
  0x00007f8b307b1888  48 8b 54 c5 08       mov    0x08(%rbp,%rax,8)[8byte] -> %rdx 
  0x00007f8b307b188d  49 89 c4             mov    %rax -> %r12 
  0x00007f8b307b1890  48 8d 74 c5 08       lea    0x08(%rbp,%rax,8) -> %rsi 
  0x00007f8b307b1895  48 39 d3             cmp    %rbx %rdx 
  0x00007f8b307b1898  74 52                jz     $0x00007f8b307b18ec 
Actual: 7f8b307b189a

Block 234:
  0x00007f8b307b189a  45 85 f6             test   %r14d %r14d 
  0x00007f8b307b189d  bf ff ff ff ff       mov    $0xffffffff -> %edi 
  0x00007f8b307b18a2  41 0f 95 c1          setnz  -> %r9l 
  0x00007f8b307b18a6  66 2e 0f 1f 84 00 00 data16 nop    %cs:0x00000000(%rax,%rax,1)[4byte] 
                      00 00 00
  0x00007f8b307b18b0  48 85 d2             test   %rdx %rdx 
  0x00007f8b307b18b3  0f 95 c1             setnz  -> %cl 
  0x00007f8b307b18b6  44 20 c9             and    %r9l %cl -> %cl 
  0x00007f8b307b18b9  74 09                jz     $0x00007f8b307b18c4 
Actual: 7f8b307b18c4

Block 235:
  0x00007f8b307b18c4  48 89 53 10          mov    %rdx -> 0x10(%rbx)[8byte] 
  0x00007f8b307b18c8  48 89 d0             mov    %rdx -> %rax 
  0x00007f8b307b18cb  64 83 3c 25 18 00 00 cmp    %fs:0x18[4byte] $0x00000000 
                      00 00
  0x00007f8b307b18d4  74 01                jz     $0x00007f8b307b18d7 
Actual: 7f8b307b18d7

Block 236:
  0x00007f8b307b18d7  48 0f b1 1e          cmpxchg %rbx (%rsi)[8byte] %rax -> (%rsi)[8byte] %rax 
  0x00007f8b307b18db  48 39 d0             cmp    %rax %rdx 
  0x00007f8b307b18de  0f 84 9c 05 00 00    jz     $0x00007f8b307b1e80 
Actual: 7f8b307b1e80

Block 237:
  0x00007f8b307b1e80  44 39 e7             cmp    %edi %r12d 
  0x00007f8b307b1e83  0f 84 9b fa ff ff    jz     $0x00007f8b307b1924 
Actual: 7f8b307b1e89

Block 238:
  0x00007f8b307b1e89  84 c9                test   %cl %cl 
  0x00007f8b307b1e8b  0f 84 93 fa ff ff    jz     $0x00007f8b307b1924 
Actual: 7f8b307b1924

Block 239:
  0x00007f8b307b1924  48 83 c4 78          add    $0x0000000000000078 %rsp -> %rsp 
  0x00007f8b307b1928  5b                   pop    %rsp (%rsp)[8byte] -> %rbx %rsp 
  0x00007f8b307b1929  5d                   pop    %rsp (%rsp)[8byte] -> %rbp %rsp 
  0x00007f8b307b192a  41 5c                pop    %rsp (%rsp)[8byte] -> %r12 %rsp 
  0x00007f8b307b192c  41 5d                pop    %rsp (%rsp)[8byte] -> %r13 %rsp 
  0x00007f8b307b192e  41 5e                pop    %rsp (%rsp)[8byte] -> %r14 %rsp 
  0x00007f8b307b1930  41 5f                pop    %rsp (%rsp)[8byte] -> %r15 %rsp 
  0x00007f8b307b1932  c3                   ret    %rsp (%rsp)[8byte] -> %rsp 
Actual: 7f8b307b52ac

Block 240:
  0x00007f8b307b52ac  48 83 c4 28          add    $0x0000000000000028 %rsp -> %rsp 
  0x00007f8b307b52b0  5b                   pop    %rsp (%rsp)[8byte] -> %rbx %rsp 
  0x00007f8b307b52b1  5d                   pop    %rsp (%rsp)[8byte] -> %rbp %rsp 
  0x00007f8b307b52b2  41 5c                pop    %rsp (%rsp)[8byte] -> %r12 %rsp 
  0x00007f8b307b52b4  41 5d                pop    %rsp (%rsp)[8byte] -> %r13 %rsp 
  0x00007f8b307b52b6  c3                   ret    %rsp (%rsp)[8byte] -> %rsp 
Actual: 7f8b3075fc28

Block 241:
  0x00007f8b3075fc28  e9 af fc ff ff       jmp    $0x00007f8b3075f8dc 
  0x00007f8b3075f8dc  48 83 3d 24 21 39 00 cmp    <rel> 0x00007f8b30af1a08[8byte] $0x0000000000000000 
                      00
  0x00007f8b3075f8e4  0f 84 43 03 00 00    jz     $0x00007f8b3075fc2d 
Actual: 7f8b3075fc2d

Block 242:
  0x00007f8b3075fc2d  48 8d 05 bc 1d 39 00 lea    <rel> 0x00007f8b30af19f0 -> %rax 
  0x00007f8b3075fc34  ba 02 00 00 00       mov    $0x00000002 -> %edx 
  0x00007f8b3075fc39  be 00 00 08 00       mov    $0x00080000 -> %esi 
  0x00007f8b3075fc3e  48 8d 3d 9b 1b 16 00 lea    <rel> 0x00007f8b308c17e0 -> %rdi 
  0x00007f8b3075fc45  48 89 05 bc 1d 39 00 mov    %rax -> <rel> 0x00007f8b30af1a08[8byte] 
  0x00007f8b3075fc4c  89 d0                mov    %edx -> %eax 
  0x00007f8b3075fc4e  0f 05                syscall -> %rcx 
Actual: 7f8b3075fc50

Block 243:
  0x00007f8b3075fc50  48 3d 00 f0 ff ff    cmp    %rax $0xfffffffffffff000 
  0x00007f8b3075fc56  49 89 c7             mov    %rax -> %r15 
  0x00007f8b3075fc59  0f 87 b1 00 00 00    jnbe   $0x00007f8b3075fd10 
Actual: 7f8b3075fc5f

Block 244:
  0x00007f8b3075fc5f  85 c0                test   %eax %eax 
  0x00007f8b3075fc61  0f 88 d6 fe ff ff    js     $0x00007f8b3075fb3d 
Actual: 7f8b3075fc67

Block 245:
  0x00007f8b3075fc67  48 8d 15 f2 1c 39 00 lea    <rel> 0x00007f8b30af1960 -> %rdx 
  0x00007f8b3075fc6e  89 c6                mov    %eax -> %esi 
  0x00007f8b3075fc70  bf 01 00 00 00       mov    $0x00000001 -> %edi 
  0x00007f8b3075fc75  e8 b6 6c 0c 00       call   $0x00007f8b30826930 %rsp -> %rsp 0xfffffff8(%rsp)[8byte] 
  0x00007f8b30826930  83 ff 01             cmp    %edi $0x00000001 
  0x00007f8b30826933  89 f0                mov    %esi -> %eax 
  0x00007f8b30826935  77 31                jnbe   $0x00007f8b30826968 
Actual: 7f8b30826937

Block 246:
  0x00007f8b30826937  48 63 f8             movsxd %eax -> %rdi 
  0x00007f8b3082693a  48 89 d6             mov    %rdx -> %rsi 
  0x00007f8b3082693d  b8 05 00 00 00       mov    $0x00000005 -> %eax 
  0x00007f8b30826942  0f 05                syscall -> %rcx 
  0x00007f8b30826944  48 3d 00 f0 ff ff    cmp    %rax $0xfffffffffffff000 
  0x00007f8b3082694a  77 04                jnbe   $0x00007f8b30826950 
Actual: 7f8b3082694c

Block 247:
  0x00007f8b3082694c  f3 c3                ret    %rsp (%rsp)[8byte] -> %rsp 
Actual: 7f8b3075fc7a

Block 248:
  0x00007f8b3075fc7a  83 f8 ff             cmp    %eax $0xffffffff 
  0x00007f8b3075fc7d  0f 84 b0 fe ff ff    jz     $0x00007f8b3075fb33 
Actual: 7f8b3075fc83

Block 249:
  0x00007f8b3075fc83  4c 8b 25 06 1d 39 00 mov    <rel> 0x00007f8b30af1990[8byte] -> %r12 
  0x00007f8b3075fc8a  45 31 c9             xor    %r9d %r9d -> %r9d 
  0x00007f8b3075fc8d  31 ff                xor    %edi %edi -> %edi 
  0x00007f8b3075fc8f  45 89 f8             mov    %r15d -> %r8d 
  0x00007f8b3075fc92  b9 02 00 00 00       mov    $0x00000002 -> %ecx 
  0x00007f8b3075fc97  ba 01 00 00 00       mov    $0x00000001 -> %edx 
  0x00007f8b3075fc9c  4c 89 e6             mov    %r12 -> %rsi 
  0x00007f8b3075fc9f  e8 fc 14 0d 00       call   $0x00007f8b308311a0 %rsp -> %rsp 0xfffffff8(%rsp)[8byte] 
  0x00007f8b308311a0  48 85 ff             test   %rdi %rdi 
  0x00007f8b308311a3  41 57                push   %r15 %rsp -> %rsp 0xfffffff8(%rsp)[8byte] 
  0x00007f8b308311a5  4d 89 cf             mov    %r9 -> %r15 
  0x00007f8b308311a8  41 56                push   %r14 %rsp -> %rsp 0xfffffff8(%rsp)[8byte] 
  0x00007f8b308311aa  41 89 ce             mov    %ecx -> %r14d 
  0x00007f8b308311ad  41 55                push   %r13 %rsp -> %rsp 0xfffffff8(%rsp)[8byte] 
  0x00007f8b308311af  49 89 f5             mov    %rsi -> %r13 
  0x00007f8b308311b2  41 54                push   %r12 %rsp -> %rsp 0xfffffff8(%rsp)[8byte] 
  0x00007f8b308311b4  49 89 fc             mov    %rdi -> %r12 
  0x00007f8b308311b7  55                   push   %rbp %rsp -> %rsp 0xfffffff8(%rsp)[8byte] 
  0x00007f8b308311b8  53                   push   %rbx %rsp -> %rsp 0xfffffff8(%rsp)[8byte] 
  0x00007f8b308311b9  74 35                jz     $0x00007f8b308311f0 
Actual: 7f8b308311f0

Block 250:
  0x00007f8b308311f0  f6 c2 04             test   %dl $0x04 
  0x00007f8b308311f3  74 c6                jz     $0x00007f8b308311bb 
Actual: 7f8b308311bb

Block 251:
  0x00007f8b308311bb  49 63 e8             movsxd %r8d -> %rbp 
  0x00007f8b308311be  48 63 da             movsxd %edx -> %rbx 
  0x00007f8b308311c1  4d 89 f9             mov    %r15 -> %r9 
  0x00007f8b308311c4  49 89 e8             mov    %rbp -> %r8 
  0x00007f8b308311c7  4d 63 d6             movsxd %r14d -> %r10 
  0x00007f8b308311ca  48 89 da             mov    %rbx -> %rdx 
  0x00007f8b308311cd  4c 89 ee             mov    %r13 -> %rsi 
  0x00007f8b308311d0  4c 89 e7             mov    %r12 -> %rdi 
  0x00007f8b308311d3  b8 09 00 00 00       mov    $0x00000009 -> %eax 
  0x00007f8b308311d8  0f 05                syscall -> %rcx 
Actual: 7f8b308311da

Block 252:
  0x00007f8b308311da  48 3d 00 f0 ff ff    cmp    %rax $0xfffffffffffff000 
  0x00007f8b308311e0  77 56                jnbe   $0x00007f8b30831238 
Actual: 7f8b308311e2

Block 253:
  0x00007f8b308311e2  5b                   pop    %rsp (%rsp)[8byte] -> %rbx %rsp 
  0x00007f8b308311e3  5d                   pop    %rsp (%rsp)[8byte] -> %rbp %rsp 
  0x00007f8b308311e4  41 5c                pop    %rsp (%rsp)[8byte] -> %r12 %rsp 
  0x00007f8b308311e6  41 5d                pop    %rsp (%rsp)[8byte] -> %r13 %rsp 
  0x00007f8b308311e8  41 5e                pop    %rsp (%rsp)[8byte] -> %r14 %rsp 
  0x00007f8b308311ea  41 5f                pop    %rsp (%rsp)[8byte] -> %r15 %rsp 
  0x00007f8b308311ec  c3                   ret    %rsp (%rsp)[8byte] -> %rsp 
Actual: 7f8b3075fca4

Block 254:
  0x00007f8b3075fca4  48 83 f8 ff          cmp    %rax $0xffffffffffffffff 
  0x00007f8b3075fca8  49 89 c6             mov    %rax -> %r14 
  0x00007f8b3075fcab  0f 84 82 fe ff ff    jz     $0x00007f8b3075fb33 
Actual: 7f8b3075fcb1

Block 255:
  0x00007f8b3075fcb1  8b 40 10             mov    0x10(%rax)[4byte] -> %eax 
  0x00007f8b3075fcb4  48 8d 14 40          lea    (%rax,%rax,2) -> %rdx 
  0x00007f8b3075fcb8  41 8b 46 08          mov    0x08(%r14)[4byte] -> %eax 
  0x00007f8b3075fcbc  48 8d 04 90          lea    (%rax,%rdx,4) -> %rax 
  0x00007f8b3075fcc0  41 8b 56 24          mov    0x24(%r14)[4byte] -> %edx 
  0x00007f8b3075fcc4  48 8d 14 52          lea    (%rdx,%rdx,2) -> %rdx 
  0x00007f8b3075fcc8  48 8d 0c d2          lea    (%rdx,%rdx,8) -> %rcx 
  0x00007f8b3075fccc  41 8b 56 20          mov    0x20(%r14)[4byte] -> %edx 
  0x00007f8b3075fcd0  48 8d 14 8a          lea    (%rdx,%rcx,4) -> %rdx 
  0x00007f8b3075fcd4  48 39 d0             cmp    %rax %rdx 
  0x00007f8b3075fcd7  48 0f 4c c2          cmovl  %rdx %rax -> %rax 
  0x00007f8b3075fcdb  41 8b 56 18          mov    0x18(%r14)[4byte] -> %edx 
  0x00007f8b3075fcdf  41 03 56 14          add    0x14(%r14)[4byte] %edx -> %edx 
  0x00007f8b3075fce3  48 39 d0             cmp    %rax %rdx 
  0x00007f8b3075fce6  48 0f 4c c2          cmovl  %rdx %rax -> %rax 
  0x00007f8b3075fcea  49 39 c4             cmp    %r12 %rax 
  0x00007f8b3075fced  0f 82 35 fe ff ff    jb     $0x00007f8b3075fb28 
Actual: 7f8b3075fcf3

Block 256:
  0x00007f8b3075fcf3  49 63 ff             movsxd %r15d -> %rdi 
  0x00007f8b3075fcf6  b8 03 00 00 00       mov    $0x00000003 -> %eax 
  0x00007f8b3075fcfb  0f 05                syscall -> %rcx 
Actual: 7f8b3075fcfd

Block 257:
  0x00007f8b3075fcfd  4c 89 35 ec 1c 39 00 mov    %r14 -> <rel> 0x00007f8b30af19f0[8byte] 
  0x00007f8b3075fd04  44 89 25 f1 1c 39 00 mov    %r12d -> <rel> 0x00007f8b30af19fc[4byte] 
  0x00007f8b3075fd0b  e9 ea fb ff ff       jmp    $0x00007f8b3075f8fa 
  0x00007f8b3075f8fa  48 89 df             mov    %rbx -> %rdi 
  0x00007f8b3075f8fd  e8 ae c8 05 00       call   $0x00007f8b307bc1b0 %rsp -> %rsp 0xfffffff8(%rsp)[8byte] 
  0x00007f8b307bc1b0  66 0f ef c0          pxor   %xmm0 %xmm0 -> %xmm0 
  0x00007f8b307bc1b4  66 0f ef c9          pxor   %xmm1 %xmm1 -> %xmm1 
  0x00007f8b307bc1b8  66 0f ef d2          pxor   %xmm2 %xmm2 -> %xmm2 
  0x00007f8b307bc1bc  66 0f ef db          pxor   %xmm3 %xmm3 -> %xmm3 
  0x00007f8b307bc1c0  48 89 f8             mov    %rdi -> %rax 
  0x00007f8b307bc1c3  48 89 f9             mov    %rdi -> %rcx 
  0x00007f8b307bc1c6  48 81 e1 ff 0f 00 00 and    $0x0000000000000fff %rcx -> %rcx 
  0x00007f8b307bc1cd  48 81 f9 cf 0f 00 00 cmp    %rcx $0x0000000000000fcf 
  0x00007f8b307bc1d4  77 6a                jnbe   $0x00007f8b307bc240 
Actual: 7f8b307bc1d6

Block 258:
  0x00007f8b3075f902  48 85 c0             test   %rax %rax 
  0x00007f8b3075f905  89 c2                mov    %eax -> %edx 
  0x00007f8b3075f907  0f 84 18 04 00 00    jz     $0x00007f8b3075fd25 
Actual: 7f8b3075f90d

Block 259:
  0x00007f8b3075f90d  48 8d 34 03          lea    (%rbx,%rax,1) -> %rsi 
  0x00007f8b3075f911  48 89 d9             mov    %rbx -> %rcx 
  0x00007f8b3075f914  0f 1f 40 00          nop    0x00(%rax)[4byte] 
  0x00007f8b3075f918  0f b6 01             movzx  (%rcx)[1byte] -> %eax 
  0x00007f8b3075f91b  c1 c2 09             rol    $0x00000009 %edx -> %edx 
  0x00007f8b3075f91e  48 83 c1 01          add    $0x0000000000000001 %rcx -> %rcx 
  0x00007f8b3075f922  01 c2                add    %eax %edx -> %edx 
  0x00007f8b3075f924  48 39 ce             cmp    %rsi %rcx 
  0x00007f8b3075f927  75 ef                jnz    $0x00007f8b3075f918 
Actual: 7f8b3075f918

Block 260:
  0x00007f8b3075f918  0f b6 01             movzx  (%rcx)[1byte] -> %eax 
  0x00007f8b3075f91b  c1 c2 09             rol    $0x00000009 %edx -> %edx 
  0x00007f8b3075f91e  48 83 c1 01          add    $0x0000000000000001 %rcx -> %rcx 
  0x00007f8b3075f922  01 c2                add    %eax %edx -> %edx 
  0x00007f8b3075f924  48 39 ce             cmp    %rsi %rcx 
  0x00007f8b3075f927  75 ef                jnz    $0x00007f8b3075f918 
Actual: 7f8b3075f918

Block 261:
  0x00007f8b3075f929  41 89 d0             mov    %edx -> %r8d 
  0x00007f8b3075f92c  85 d2                test   %edx %edx 
  0x00007f8b3075f92e  b8 ff ff ff ff       mov    $0xffffffff -> %eax 
  0x00007f8b3075f933  4c 0f 44 c0          cmovz  %rax %r8 -> %r8 
  0x00007f8b3075f937  41 8b 4e 10          mov    0x10(%r14)[4byte] -> %ecx 
  0x00007f8b3075f93b  85 c9                test   %ecx %ecx 
  0x00007f8b3075f93d  0f 84 fa 01 00 00    jz     $0x00007f8b3075fb3d 
Actual: 7f8b3075f943

Block 262:
  0x00007f8b3075f943  41 89 ca             mov    %ecx -> %r10d 
  0x00007f8b3075f946  4c 89 c0             mov    %r8 -> %rax 
  0x00007f8b3075f949  31 d2                xor    %edx %edx -> %edx 
  0x00007f8b3075f94b  49 f7 f2             div    %r10 %rdx %rax -> %rdx %rax 
  0x00007f8b3075f94e  83 e9 02             sub    $0x00000002 %ecx -> %ecx 
  0x00007f8b3075f951  4c 89 c0             mov    %r8 -> %rax 
  0x00007f8b3075f954  48 89 d6             mov    %rdx -> %rsi 
  0x00007f8b3075f957  31 d2                xor    %edx %edx -> %edx 
  0x00007f8b3075f959  48 f7 f1             div    %rcx %rdx %rax -> %rdx %rax 
  0x00007f8b3075f95c  41 8b 46 08          mov    0x08(%r14)[4byte] -> %eax 
  0x00007f8b3075f960  48 89 85 d0 fe ff ff mov    %rax -> 0xfffffed0(%rbp)[8byte] 
  0x00007f8b3075f967  4c 8d 4a 01          lea    0x01(%rdx) -> %r9 
  0x00007f8b3075f96b  48 89 c2             mov    %rax -> %rdx 
  0x00007f8b3075f96e  4f 8d 1c 49          lea    (%r9,%r9,2) -> %r11 
  0x00007f8b3075f972  4e 8d 24 9d 00 00 00 lea    0x00(,%r11,4) -> %r12 
                      00
  0x00007f8b3075f97a  48 8d 04 76          lea    (%rsi,%rsi,2) -> %rax 
  0x00007f8b3075f97e  4a 8d 0c 0e          lea    (%rsi,%r9,1) -> %rcx 
  0x00007f8b3075f982  48 8d 14 82          lea    (%rdx,%rax,4) -> %rdx 
  0x00007f8b3075f986  4d 8d 3c 16          lea    (%r14,%rdx,1) -> %r15 
  0x00007f8b3075f98a  eb 17                jmp    $0x00007f8b3075f9a3 
  0x00007f8b3075f9a3  41 8b 77 04          mov    0x04(%r15)[4byte] -> %esi 
  0x00007f8b3075f9a7  85 f6                test   %esi %esi 
  0x00007f8b3075f9a9  0f 84 8e 01 00 00    jz     $0x00007f8b3075fb3d 
Actual: 7f8b3075f9af

Block 263:
  0x00007f8b3075f9af  41 8b 07             mov    (%r15)[4byte] -> %eax 
  0x00007f8b3075f9b2  4c 39 c0             cmp    %rax %r8 
  0x00007f8b3075f9b5  75 d9                jnz    $0x00007f8b3075f990 
Actual: 7f8b3075f9b7

Block 264:
  0x00007f8b3075f9b7  4c 01 f6             add    %r14 %rsi -> %rsi 
  0x00007f8b3075f9ba  48 89 df             mov    %rbx -> %rdi 
  0x00007f8b3075f9bd  4c 89 85 e0 fe ff ff mov    %r8 -> 0xfffffee0(%rbp)[8byte] 
  0x00007f8b3075f9c4  48 89 8d e8 fe ff ff mov    %rcx -> 0xfffffee8(%rbp)[8byte] 
  0x00007f8b3075f9cb  4c 89 8d f0 fe ff ff mov    %r9 -> 0xfffffef0(%rbp)[8byte] 
  0x00007f8b3075f9d2  4c 89 95 f8 fe ff ff mov    %r10 -> 0xfffffef8(%rbp)[8byte] 
  0x00007f8b3075f9d9  e8 c2 ad 05 00       call   $0x00007f8b307ba7a0 %rsp -> %rsp 0xfffffff8(%rsp)[8byte] 
  0x00007f8b307ba7a0  89 f1                mov    %esi -> %ecx 
  0x00007f8b307ba7a2  89 f8                mov    %edi -> %eax 
  0x00007f8b307ba7a4  48 83 e1 3f          and    $0x000000000000003f %rcx -> %rcx 
  0x00007f8b307ba7a8  48 83 e0 3f          and    $0x000000000000003f %rax -> %rax 
  0x00007f8b307ba7ac  83 f9 30             cmp    %ecx $0x00000030 
  0x00007f8b307ba7af  77 3f                jnbe   $0x00007f8b307ba7f0 
Actual: 7f8b307ba7b1

Block 265:
  0x00007f8b3075f9de  85 c0                test   %eax %eax 
  0x00007f8b3075f9e0  4c 8b 95 f8 fe ff ff mov    0xfffffef8(%rbp)[8byte] -> %r10 
  0x00007f8b3075f9e7  4c 8b 8d f0 fe ff ff mov    0xfffffef0(%rbp)[8byte] -> %r9 
  0x00007f8b3075f9ee  48 8b 8d e8 fe ff ff mov    0xfffffee8(%rbp)[8byte] -> %rcx 
  0x00007f8b3075f9f5  4c 8b 85 e0 fe ff ff mov    0xfffffee0(%rbp)[8byte] -> %r8 
  0x00007f8b3075f9fc  75 92                jnz    $0x00007f8b3075f990 
Actual: 7f8b3075f9fe

Block 266:
  0x00007f8b3075f9fe  41 8b 47 08          mov    0x08(%r15)[4byte] -> %eax 
  0x00007f8b3075fa02  85 c0                test   %eax %eax 
  0x00007f8b3075fa04  0f 84 33 01 00 00    jz     $0x00007f8b3075fb3d 
Actual: 7f8b3075fa0a

Block 267:
  0x00007f8b3075fa0a  4d 8d 04 06          lea    (%r14,%rax,1) -> %r8 
  0x00007f8b3075fa0e  48 8d 85 00 ff ff ff lea    0xffffff00(%rbp) -> %rax 
  0x00007f8b3075fa15  44 8b 15 e0 1f 39 00 mov    <rel> 0x00007f8b30af19fc[4byte] -> %r10d 
  0x00007f8b3075fa1c  bf 01 00 00 00       mov    $0x00000001 -> %edi 
  0x00007f8b3075fa21  31 d2                xor    %edx %edx -> %edx 
  0x00007f8b3075fa23  48 89 85 f8 fe ff ff mov    %rax -> 0xfffffef8(%rbp)[8byte] 
  0x00007f8b3075fa2a  48 89 c1             mov    %rax -> %rcx 
  0x00007f8b3075fa2d  eb 0b                jmp    $0x00007f8b3075fa3a 
  0x00007f8b3075fa3a  48 83 fa 06          cmp    %rdx $0x0000000000000006 
  0x00007f8b3075fa3e  74 ef                jz     $0x00007f8b3075fa2f 
Actual: 7f8b3075fa40

Block 268:
  0x00007f8b3075fa40  41 8b 44 d0 04       mov    0x04(%r8,%rdx,8)[4byte] -> %eax 
  0x00007f8b3075fa45  41 8b 74 d0 08       mov    0x08(%r8,%rdx,8)[4byte] -> %esi 
  0x00007f8b3075fa4a  44 8d 0c 30          lea    (%rax,%rsi,1) -> %r9d 
  0x00007f8b3075fa4e  45 39 d1             cmp    %r9d %r10d 
  0x00007f8b3075fa51  0f 87 e6 00 00 00    jnbe   $0x00007f8b3075fb3d 
Actual: 7f8b3075fa57

Block 269:
  0x00007f8b3075fa57  4c 01 f0             add    %r14 %rax -> %rax 
  0x00007f8b3075fa5a  83 ff 0d             cmp    %edi $0x0000000d 
  0x00007f8b3075fa5d  48 89 01             mov    %rax -> (%rcx)[8byte] 
  0x00007f8b3075fa60  89 f0                mov    %esi -> %eax 
  0x00007f8b3075fa62  48 89 41 08          mov    %rax -> 0x08(%rcx)[8byte] 
  0x00007f8b3075fa66  75 c7                jnz    $0x00007f8b3075fa2f 
Actual: 7f8b3075fa2f

Block 270:
  0x00007f8b3075fa2f  48 83 c2 01          add    $0x0000000000000001 %rdx -> %rdx 
  0x00007f8b3075fa33  83 c7 01             add    $0x00000001 %edi -> %edi 
  0x00007f8b3075fa36  48 83 c1 10          add    $0x0000000000000010 %rcx -> %rcx 
  0x00007f8b3075fa3a  48 83 fa 06          cmp    %rdx $0x0000000000000006 
  0x00007f8b3075fa3e  74 ef                jz     $0x00007f8b3075fa2f 
Actual: 7f8b3075fa40

Block 271:
  0x00007f8b3075fa68  bf 78 00 00 00       mov    $0x00000078 -> %edi 
  0x00007f8b3075fa6d  e8 76 3e ff ff       call   $0x00007f8b307538e8 %rsp -> %rsp 0xfffffff8(%rsp)[8byte] 
  0x00007f8b307538e8  ff 25 3a c5 39 00    jmp    <rel> 0x00007f8b30aefe28[8byte] 
Actual: 7f8b307b4f00

Block 272:
  0x00007f8b3075fa72  48 85 c0             test   %rax %rax 
  0x00007f8b3075fa75  49 89 c7             mov    %rax -> %r15 
  0x00007f8b3075fa78  0f 84 bf 00 00 00    jz     $0x00007f8b3075fb3d 
Actual: 7f8b3075fa7e

Block 273:
  0x00007f8b3075fa7e  49 8b 7d 00          mov    0x00(%r13)[8byte] -> %rdi 
  0x00007f8b3075fa82  e8 79 c4 05 00       call   $0x00007f8b307bbf00 %rsp -> %rsp 0xfffffff8(%rsp)[8byte] 
  0x00007f8b307bbf00  55                   push   %rbp %rsp -> %rsp 0xfffffff8(%rsp)[8byte] 
  0x00007f8b307bbf01  53                   push   %rbx %rsp -> %rsp 0xfffffff8(%rsp)[8byte] 
  0x00007f8b307bbf02  48 89 fd             mov    %rdi -> %rbp 
  0x00007f8b307bbf05  48 83 ec 08          sub    $0x0000000000000008 %rsp -> %rsp 
  0x00007f8b307bbf09  e8 a2 02 00 00       call   $0x00007f8b307bc1b0 %rsp -> %rsp 0xfffffff8(%rsp)[8byte] 
  0x00007f8b307bc1b0  66 0f ef c0          pxor   %xmm0 %xmm0 -> %xmm0 
  0x00007f8b307bc1b4  66 0f ef c9          pxor   %xmm1 %xmm1 -> %xmm1 
  0x00007f8b307bc1b8  66 0f ef d2          pxor   %xmm2 %xmm2 -> %xmm2 
  0x00007f8b307bc1bc  66 0f ef db          pxor   %xmm3 %xmm3 -> %xmm3 
  0x00007f8b307bc1c0  48 89 f8             mov    %rdi -> %rax 
  0x00007f8b307bc1c3  48 89 f9             mov    %rdi -> %rcx 
  0x00007f8b307bc1c6  48 81 e1 ff 0f 00 00 and    $0x0000000000000fff %rcx -> %rcx 
  0x00007f8b307bc1cd  48 81 f9 cf 0f 00 00 cmp    %rcx $0x0000000000000fcf 
  0x00007f8b307bc1d4  77 6a                jnbe   $0x00007f8b307bc240 
Actual: 7f8b307bc1d6

Block 274:
  0x00007f8b307bbf0e  48 8d 58 01          lea    0x01(%rax) -> %rbx 
  0x00007f8b307bbf12  48 89 df             mov    %rbx -> %rdi 
  0x00007f8b307bbf15  e8 ce 79 f9 ff       call   $0x00007f8b307538e8 %rsp -> %rsp 0xfffffff8(%rsp)[8byte] 
  0x00007f8b307538e8  ff 25 3a c5 39 00    jmp    <rel> 0x00007f8b30aefe28[8byte] 
Actual: 7f8b307b4f00

Block 275:
  0x00007f8b307b308d  49 8b 52 10          mov    0x10(%r10)[8byte] -> %rdx 
  0x00007f8b307b3091  4c 89 d0             mov    %r10 -> %rax 
  0x00007f8b307b3094  64 83 3c 25 18 00 00 cmp    %fs:0x18[4byte] $0x00000000 
                      00 00
  0x00007f8b307b309d  74 01                jz     $0x00007f8b307b30a0 
Actual: 7f8b307b30a0

Block 276:
  0x00007f8b307b30a0  48 0f b1 11          cmpxchg %rdx (%rcx)[8byte] %rax -> (%rcx)[8byte] %rax 
  0x00007f8b307b30a4  49 39 c2             cmp    %r10 %rax 
  0x00007f8b307b30a7  48 89 c2             mov    %rax -> %rdx 
  0x00007f8b307b30aa  4d 89 d6             mov    %r10 -> %r14 
  0x00007f8b307b30ad  75 2f                jnz    $0x00007f8b307b30de 
Actual: 7f8b307b30af

Block 277:
  0x00007f8b307b30af  e9 03 05 00 00       jmp    $0x00007f8b307b35b7 
  0x00007f8b307b35b7  41 8b 46 08          mov    0x08(%r14)[4byte] -> %eax 
  0x00007f8b307b35bb  c1 e8 04             shr    $0x00000004 %eax -> %eax 
  0x00007f8b307b35be  83 e8 02             sub    $0x00000002 %eax -> %eax 
  0x00007f8b307b35c1  39 c7                cmp    %edi %eax 
  0x00007f8b307b35c3  0f 85 27 04 00 00    jnz    $0x00007f8b307b39f0 
Actual: 7f8b307b35c9

Block 278:
  0x00007f8b307b35c9  8b 05 05 f2 33 00    mov    <rel> 0x00007f8b30af27d4[4byte] -> %eax 
  0x00007f8b307b35cf  4d 8d 56 10          lea    0x10(%r14) -> %r10 
  0x00007f8b307b35d3  85 c0                test   %eax %eax 
  0x00007f8b307b35d5  0f 85 cc fe ff ff    jnz    $0x00007f8b307b34a7 
Actual: 7f8b307b35db

Block 279:
  0x00007f8b307bbf1a  48 85 c0             test   %rax %rax 
  0x00007f8b307bbf1d  74 19                jz     $0x00007f8b307bbf38 
Actual: 7f8b307bbf1f

Block 280:
  0x00007f8b307bbf1f  48 83 c4 08          add    $0x0000000000000008 %rsp -> %rsp 
  0x00007f8b307bbf23  48 89 da             mov    %rbx -> %rdx 
  0x00007f8b307bbf26  48 89 ee             mov    %rbp -> %rsi 
  0x00007f8b307bbf29  5b                   pop    %rsp (%rsp)[8byte] -> %rbx %rsp 
  0x00007f8b307bbf2a  5d                   pop    %rsp (%rsp)[8byte] -> %rbp %rsp 
  0x00007f8b307bbf2b  48 89 c7             mov    %rax -> %rdi 
  0x00007f8b307bbf2e  e9 1d 91 00 00       jmp    $0x00007f8b307c5050 
  0x00007f8b307c5050  48 83 fa 20          cmp    %rdx $0x0000000000000020 
  0x00007f8b307c5054  48 89 f8             mov    %rdi -> %rax 
  0x00007f8b307c5057  73 77                jnb    $0x00007f8b307c50d0 
Actual: 7f8b307c5059

Block 281:
  0x00007f8b307c5069  f6 c2 02             test   %dl $0x02 
  0x00007f8b307c506c  74 12                jz     $0x00007f8b307c5080 
Actual: 7f8b307c5080

Block 282:
  0x00007f8b307c5085  8b 0e                mov    (%rsi)[4byte] -> %ecx 
  0x00007f8b307c5087  89 0f                mov    %ecx -> (%rdi)[4byte] 
  0x00007f8b307c5089  48 83 c6 04          add    $0x0000000000000004 %rsi -> %rsi 
  0x00007f8b307c508d  48 83 c7 04          add    $0x0000000000000004 %rdi -> %rdi 
  0x00007f8b307c5091  f6 c2 08             test   %dl $0x08 
  0x00007f8b307c5094  74 0e                jz     $0x00007f8b307c50a4 
Actual: 7f8b307c5096

Block 283:
  0x00007f8b307c5096  48 8b 0e             mov    (%rsi)[8byte] -> %rcx 
  0x00007f8b307c5099  48 89 0f             mov    %rcx -> (%rdi)[8byte] 
  0x00007f8b307c509c  48 83 c6 08          add    $0x0000000000000008 %rsi -> %rsi 
  0x00007f8b307c50a0  48 83 c7 08          add    $0x0000000000000008 %rdi -> %rdi 
  0x00007f8b307c50a4  81 e2 f0 00 00 00    and    $0x000000f0 %edx -> %edx 
  0x00007f8b307c50aa  74 1f                jz     $0x00007f8b307c50cb 
Actual: 7f8b307c50cb

Block 284:
  0x00007f8b3075fa87  48 85 c0             test   %rax %rax 
  0x00007f8b3075fa8a  49 89 47 08          mov    %rax -> 0x08(%r15)[8byte] 
  0x00007f8b3075fa8e  0f 84 9c 02 00 00    jz     $0x00007f8b3075fd30 
Actual: 7f8b3075fa94

Block 285:
  0x00007f8b3075fa94  48 8b 05 a5 1e 39 00 mov    <rel> 0x00007f8b30af1940[8byte] -> %rax 
  0x00007f8b3075fa9b  bb 01 00 00 00       mov    $0x00000001 -> %ebx 
  0x00007f8b3075faa0  4c 89 3d 99 1e 39 00 mov    %r15 -> <rel> 0x00007f8b30af1940[8byte] 
  0x00007f8b3075faa7  45 31 f6             xor    %r14d %r14d -> %r14d 
  0x00007f8b3075faaa  49 89 07             mov    %rax -> (%r15)[8byte] 
  0x00007f8b3075faad  48 8b 85 f8 fe ff ff mov    0xfffffef8(%rbp)[8byte] -> %rax 
  0x00007f8b3075fab4  4c 8d 60 08          lea    0x08(%rax) -> %r12 
  0x00007f8b3075fab8  eb 0d                jmp    $0x00007f8b3075fac7 
  0x00007f8b3075fac7  49 83 fe 06          cmp    %r14 $0x0000000000000006 
  0x00007f8b3075facb  74 f3                jz     $0x00007f8b3075fac0 
Actual: 7f8b3075facd

Block 286:
  0x00007f8b3075facd  48 8b 95 f8 fe ff ff mov    0xfffffef8(%rbp)[8byte] -> %rdx 
  0x00007f8b3075fad4  4c 89 f0             mov    %r14 -> %rax 
  0x00007f8b3075fad7  44 89 f7             mov    %r14d -> %edi 
  0x00007f8b3075fada  48 c1 e0 04          shl    $0x0000000000000004 %rax -> %rax 
  0x00007f8b3075fade  48 8b 34 02          mov    (%rdx,%rax,1)[8byte] -> %rsi 
  0x00007f8b3075fae2  49 8b 14 04          mov    (%r12,%rax,1)[8byte] -> %rdx 
  0x00007f8b3075fae6  e8 45 f7 ff ff       call   $0x00007f8b3075f230 %rsp -> %rsp 0xfffffff8(%rsp)[8byte] 
  0x00007f8b3075f230  41 57                push   %r15 %rsp -> %rsp 0xfffffff8(%rsp)[8byte] 
  0x00007f8b3075f232  41 56                push   %r14 %rsp -> %rsp 0xfffffff8(%rsp)[8byte] 
  0x00007f8b3075f234  41 55                push   %r13 %rsp -> %rsp 0xfffffff8(%rsp)[8byte] 
  0x00007f8b3075f236  41 54                push   %r12 %rsp -> %rsp 0xfffffff8(%rsp)[8byte] 
  0x00007f8b3075f238  55                   push   %rbp %rsp -> %rsp 0xfffffff8(%rsp)[8byte] 
  0x00007f8b3075f239  53                   push   %rbx %rsp -> %rsp 0xfffffff8(%rsp)[8byte] 
  0x00007f8b3075f23a  48 83 ec 08          sub    $0x0000000000000008 %rsp -> %rsp 
  0x00007f8b3075f23e  48 83 fa 07          cmp    %rdx $0x0000000000000007 
  0x00007f8b3075f242  76 44                jbe    $0x00007f8b3075f288 
Actual: 7f8b3075f244

Block 287:
  0x00007f8b3075f244  83 ff 03             cmp    %edi $0x00000003 
  0x00007f8b3075f247  8b 0e                mov    (%rsi)[4byte] -> %ecx 
  0x00007f8b3075f249  b8 17 10 05 20       mov    $0x20051017 -> %eax 
  0x00007f8b3075f24e  74 13                jz     $0x00007f8b3075f263 
Actual: 7f8b3075f250

Block 288:
  0x00007f8b3075f250  89 f8                mov    %edi -> %eax 
  0x00007f8b3075f252  41 b8 20 07 09 20    mov    $0x20090720 -> %r8d 
  0x00007f8b3075f258  35 15 11 03 20       xor    $0x20031115 %eax -> %eax 
  0x00007f8b3075f25d  85 ff                test   %edi %edi 
  0x00007f8b3075f25f  41 0f 44 c0          cmovz  %r8d %eax -> %eax 
  0x00007f8b3075f263  39 c8                cmp    %eax %ecx 
  0x00007f8b3075f265  75 21                jnz    $0x00007f8b3075f288 
Actual: 7f8b3075f267

Block 289:
  0x00007f8b3075f267  48 8d 05 f2 6d 14 00 lea    <rel> 0x00007f8b308a6060 -> %rax 
  0x00007f8b3075f26e  44 8b 66 04          mov    0x04(%rsi)[4byte] -> %r12d 
  0x00007f8b3075f272  4c 63 ef             movsxd %edi -> %r13 
  0x00007f8b3075f275  4e 3b 24 e8          cmp    %r12 (%rax,%r13,8)[8byte] 
  0x00007f8b3075f279  72 0d                jb     $0x00007f8b3075f288 
Actual: 7f8b3075f27b

Block 290:
  0x00007f8b3075f27b  4a 8d 04 a5 08 00 00 lea    0x08(,%r12,4) -> %rax 
                      00
  0x00007f8b3075f283  48 39 c2             cmp    %rdx %rax 
  0x00007f8b3075f286  77 28                jnbe   $0x00007f8b3075f2b0 
Actual: 7f8b3075f2b0

Block 291:
  0x00007f8b3075f2b0  41 89 ff             mov    %edi -> %r15d 
  0x00007f8b3075f2b3  4a 8d 3c e5 40 00 00 lea    0x40(,%r12,8) -> %rdi 
                      00
  0x00007f8b3075f2bb  48 89 d5             mov    %rdx -> %rbp 
  0x00007f8b3075f2be  48 89 f3             mov    %rsi -> %rbx 
  0x00007f8b3075f2c1  e8 22 46 ff ff       call   $0x00007f8b307538e8 %rsp -> %rsp 0xfffffff8(%rsp)[8byte] 
  0x00007f8b307538e8  ff 25 3a c5 39 00    jmp    <rel> 0x00007f8b30aefe28[8byte] 
Actual: 7f8b307b4f00

Block 292:
  0x00007f8b3075f2c6  48 85 c0             test   %rax %rax 
  0x00007f8b3075f2c9  74 cd                jz     $0x00007f8b3075f298 
Actual: 7f8b3075f2cb

Block 293:
  0x00007f8b3075f2cb  4d 85 e4             test   %r12 %r12 
  0x00007f8b3075f2ce  48 89 58 08          mov    %rbx -> 0x08(%rax)[8byte] 
  0x00007f8b3075f2d2  48 89 68 10          mov    %rbp -> 0x10(%rax)[8byte] 
  0x00007f8b3075f2d6  48 c7 40 28 00 00 00 mov    $0x0000000000000000 -> 0x28(%rax)[8byte] 
                      00
  0x00007f8b3075f2de  48 c7 40 20 00 00 00 mov    $0x0000000000000000 -> 0x20(%rax)[8byte] 
                      00
  0x00007f8b3075f2e6  c7 40 30 00 00 00 00 mov    $0x00000000 -> 0x30(%rax)[4byte] 
  0x00007f8b3075f2ed  c7 40 34 00 00 00 00 mov    $0x00000000 -> 0x34(%rax)[4byte] 
  0x00007f8b3075f2f4  44 89 60 38          mov    %r12d -> 0x38(%rax)[4byte] 
  0x00007f8b3075f2f8  74 9e                jz     $0x00007f8b3075f298 
Actual: 7f8b3075f2fa

Block 294:
  0x00007f8b3075f2fa  8b 4b 08             mov    0x08(%rbx)[4byte] -> %ecx 
  0x00007f8b3075f2fd  48 39 cd             cmp    %rbp %rcx 
  0x00007f8b3075f300  48 89 cf             mov    %rcx -> %rdi 
  0x00007f8b3075f303  72 7b                jb     $0x00007f8b3075f380 
Actual: 7f8b3075f305

Block 295:
  0x00007f8b3075f305  4c 8d 15 94 d5 38 00 lea    <rel> 0x00007f8b30aec8a0 -> %r10 
  0x00007f8b3075f30c  4c 8d 05 0d 68 14 00 lea    <rel> 0x00007f8b308a5b20 -> %r8 
  0x00007f8b3075f313  31 d2                xor    %edx %edx -> %edx 
  0x00007f8b3075f315  45 89 f9             mov    %r15d -> %r9d 
  0x00007f8b3075f318  0f 1f 84 00 00 00 00 nop    0x00000000(%rax,%rax,1)[4byte] 
                      00
  0x00007f8b3075f320  41 83 ff 0c          cmp    %r15d $0x0000000c 
  0x00007f8b3075f324  0f 87 e6 00 00 00    jnbe   $0x00007f8b3075f410 
Actual: 7f8b3075f32a

Block 296:
  0x00007f8b3075f32a  4b 63 34 88          movsxd (%r8,%r9,4)[4byte] -> %rsi 
  0x00007f8b3075f32e  4c 01 c6             add    %r8 %rsi -> %rsi 
  0x00007f8b3075f331  ff e6                jmp    %rsi 
Actual: 7f8b3075f410

Block 297:
  0x00007f8b3075f410  45 85 ff             test   %r15d %r15d 
  0x00007f8b3075f413  0f 85 27 ff ff ff    jnz    $0x00007f8b3075f340 
Actual: 7f8b3075f419

Block 298:
  0x00007f8b3075f419  48 83 fa 47          cmp    %rdx $0x0000000000000047 
  0x00007f8b3075f41d  0f 87 2b ff ff ff    jnbe   $0x00007f8b3075f34e 
Actual: 7f8b3075f423

Block 299:
  0x00007f8b3075f423  e9 18 ff ff ff       jmp    $0x00007f8b3075f340 
  0x00007f8b3075f340  4b 8b 34 ea          mov    (%r10,%r13,8)[8byte] -> %rsi 
  0x00007f8b3075f344  83 3c 96 05          cmp    (%rsi,%rdx,4)[4byte] $0x00000005 
  0x00007f8b3075f348  0f 84 e2 00 00 00    jz     $0x00007f8b3075f430 
Actual: 7f8b3075f34e

Block 300:
  0x00007f8b3075f34e  48 01 d9             add    %rbx %rcx -> %rcx 
  0x00007f8b3075f351  48 89 4c d0 40       mov    %rcx -> 0x40(%rax,%rdx,8)[8byte] 
  0x00007f8b3075f356  48 83 c2 01          add    $0x0000000000000001 %rdx -> %rdx 
  0x00007f8b3075f35a  49 39 d4             cmp    %r12 %rdx 
  0x00007f8b3075f35d  0f 84 35 ff ff ff    jz     $0x00007f8b3075f298 
Actual: 7f8b3075f363

Block 301:
  0x00007f8b3075f363  8b 4c 93 08          mov    0x08(%rbx,%rdx,4)[4byte] -> %ecx 
  0x00007f8b3075f367  48 39 cd             cmp    %rbp %rcx 
  0x00007f8b3075f36a  48 89 cf             mov    %rcx -> %rdi 
  0x00007f8b3075f36d  73 b1                jnb    $0x00007f8b3075f320 
Actual: 7f8b3075f320

Block 302:
  0x00007f8b3075f320  41 83 ff 0c          cmp    %r15d $0x0000000c 
  0x00007f8b3075f324  0f 87 e6 00 00 00    jnbe   $0x00007f8b3075f410 
Actual: 7f8b3075f32a

Block 303:
  0x00007f8b3075f430  83 e7 03             and    $0x00000003 %edi -> %edi 
  0x00007f8b3075f433  0f 85 47 ff ff ff    jnz    $0x00007f8b3075f380 
Actual: 7f8b3075f439

Block 304:
  0x00007f8b3075f439  8b 0c 0b             mov    (%rbx,%rcx,1)[4byte] -> %ecx 
  0x00007f8b3075f43c  89 4c d0 40          mov    %ecx -> 0x40(%rax,%rdx,8)[4byte] 
  0x00007f8b3075f440  e9 11 ff ff ff       jmp    $0x00007f8b3075f356 
  0x00007f8b3075f356  48 83 c2 01          add    $0x0000000000000001 %rdx -> %rdx 
  0x00007f8b3075f35a  49 39 d4             cmp    %r12 %rdx 
  0x00007f8b3075f35d  0f 84 35 ff ff ff    jz     $0x00007f8b3075f298 
Actual: 7f8b3075f363

Block 305:
  0x00007f8b3075f298  48 83 c4 08          add    $0x0000000000000008 %rsp -> %rsp 
  0x00007f8b3075f29c  5b                   pop    %rsp (%rsp)[8byte] -> %rbx %rsp 
  0x00007f8b3075f29d  5d                   pop    %rsp (%rsp)[8byte] -> %rbp %rsp 
  0x00007f8b3075f29e  41 5c                pop    %rsp (%rsp)[8byte] -> %r12 %rsp 
  0x00007f8b3075f2a0  41 5d                pop    %rsp (%rsp)[8byte] -> %r13 %rsp 
  0x00007f8b3075f2a2  41 5e                pop    %rsp (%rsp)[8byte] -> %r14 %rsp 
  0x00007f8b3075f2a4  41 5f                pop    %rsp (%rsp)[8byte] -> %r15 %rsp 
  0x00007f8b3075f2a6  c3                   ret    %rsp (%rsp)[8byte] -> %rsp 
Actual: 7f8b3075faeb

Block 306:
  0x00007f8b3075faeb  48 85 c0             test   %rax %rax 
  0x00007f8b3075faee  4b 89 44 f7 10       mov    %rax -> 0x10(%r15,%r14,8)[8byte] 
  0x00007f8b3075faf3  74 15                jz     $0x00007f8b3075fb0a 
Actual: 7f8b3075faf5

Block 307:
  0x00007f8b3075faf5  49 8b 57 08          mov    0x08(%r15)[8byte] -> %rdx 
  0x00007f8b3075faf9  c7 40 18 02 00 00 00 mov    $0x00000002 -> 0x18(%rax)[4byte] 
  0x00007f8b3075fb00  c7 40 30 ff ff ff ff mov    $0xffffffff -> 0x30(%rax)[4byte] 
  0x00007f8b3075fb07  48 89 10             mov    %rdx -> (%rax)[8byte] 
  0x00007f8b3075fb0a  83 fb 0d             cmp    %ebx $0x0000000d 
  0x00007f8b3075fb0d  75 b1                jnz    $0x00007f8b3075fac0 
Actual: 7f8b3075fac0

Block 308:
  0x00007f8b3075fac0  49 83 c6 01          add    $0x0000000000000001 %r14 -> %r14 
  0x00007f8b3075fac4  83 c3 01             add    $0x00000001 %ebx -> %ebx 
  0x00007f8b3075fac7  49 83 fe 06          cmp    %r14 $0x0000000000000006 
  0x00007f8b3075facb  74 f3                jz     $0x00007f8b3075fac0 
Actual: 7f8b3075facd

Block 309:
  0x00007f8b3075f3e0  48 83 fa 05          cmp    %rdx $0x0000000000000005 
  0x00007f8b3075f3e4  0f 86 56 ff ff ff    jbe    $0x00007f8b3075f340 
Actual: 7f8b3075f340

Block 310:
  0x00007f8b3075f340  4b 8b 34 ea          mov    (%r10,%r13,8)[8byte] -> %rsi 
  0x00007f8b3075f344  83 3c 96 05          cmp    (%rsi,%rdx,4)[4byte] $0x00000005 
  0x00007f8b3075f348  0f 84 e2 00 00 00    jz     $0x00007f8b3075f430 
Actual: 7f8b3075f34e

Block 311:
  0x00007f8b3075f400  48 83 fa 6e          cmp    %rdx $0x000000000000006e 
  0x00007f8b3075f404  0f 86 36 ff ff ff    jbe    $0x00007f8b3075f340 
Actual: 7f8b3075f340

Block 312:
  0x00007f8b3075f263  39 c8                cmp    %eax %ecx 
  0x00007f8b3075f265  75 21                jnz    $0x00007f8b3075f288 
Actual: 7f8b3075f267

Block 313:
  0x00007f8b3075f3f0  48 83 fa 12          cmp    %rdx $0x0000000000000012 
  0x00007f8b3075f3f4  0f 86 46 ff ff ff    jbe    $0x00007f8b3075f340 
Actual: 7f8b3075f340

Block 314:
  0x00007f8b3075f3d0  48 83 fa 2d          cmp    %rdx $0x000000000000002d 
  0x00007f8b3075f3d4  0f 86 66 ff ff ff    jbe    $0x00007f8b3075f340 
Actual: 7f8b3075f340

Block 315:
  0x00007f8b3075f338  48 83 fa 04          cmp    %rdx $0x0000000000000004 
  0x00007f8b3075f33c  77 42                jnbe   $0x00007f8b3075f380 
Actual: 7f8b3075f33e

Block 316:
  0x00007f8b3075f33e  66 90                nop    
  0x00007f8b3075f340  4b 8b 34 ea          mov    (%r10,%r13,8)[8byte] -> %rsi 
  0x00007f8b3075f344  83 3c 96 05          cmp    (%rsi,%rdx,4)[4byte] $0x00000005 
  0x00007f8b3075f348  0f 84 e2 00 00 00    jz     $0x00007f8b3075f430 
Actual: 7f8b3075f34e

Block 317:
  0x00007f8b3075f3a0  48 83 fa 02          cmp    %rdx $0x0000000000000002 
  0x00007f8b3075f3a4  76 9a                jbe    $0x00007f8b3075f340 
Actual: 7f8b3075f340

Block 318:
  0x00007f8b3075f390  48 83 fa 06          cmp    %rdx $0x0000000000000006 
  0x00007f8b3075f394  76 aa                jbe    $0x00007f8b3075f340 
Actual: 7f8b3075f340

Block 319:
  0x00007f8b3075f3b0  48 83 fa 0c          cmp    %rdx $0x000000000000000c 
  0x00007f8b3075f3b4  76 8a                jbe    $0x00007f8b3075f340 
Actual: 7f8b3075f340

Block 320:
  0x00007f8b3075f378  48 83 fa 01          cmp    %rdx $0x0000000000000001 
  0x00007f8b3075f37c  76 c2                jbe    $0x00007f8b3075f340 
Actual: 7f8b3075f340

Block 321:
  0x00007f8b3075f3c0  48 83 fa 0f          cmp    %rdx $0x000000000000000f 
  0x00007f8b3075f3c4  0f 86 76 ff ff ff    jbe    $0x00007f8b3075f340 
Actual: 7f8b3075f340

Block 322:
  0x00007f8b3075fb0f  4c 63 a5 dc fe ff ff movsxd 0xfffffedc(%rbp)[4byte] -> %r12 
  0x00007f8b3075fb16  49 8b 47 08          mov    0x08(%r15)[8byte] -> %rax 
  0x00007f8b3075fb1a  49 89 45 00          mov    %rax -> 0x00(%r13)[8byte] 
  0x00007f8b3075fb1e  4b 8b 44 e7 10       mov    0x10(%r15,%r12,8)[8byte] -> %rax 
  0x00007f8b3075fb23  e9 88 fd ff ff       jmp    $0x00007f8b3075f8b0 
  0x00007f8b3075f8b0  48 8d 65 d8          lea    0xffffffd8(%rbp) -> %rsp 
  0x00007f8b3075f8b4  5b                   pop    %rsp (%rsp)[8byte] -> %rbx %rsp 
  0x00007f8b3075f8b5  41 5c                pop    %rsp (%rsp)[8byte] -> %r12 %rsp 
  0x00007f8b3075f8b7  41 5d                pop    %rsp (%rsp)[8byte] -> %r13 %rsp 
  0x00007f8b3075f8b9  41 5e                pop    %rsp (%rsp)[8byte] -> %r14 %rsp 
  0x00007f8b3075f8bb  41 5f                pop    %rsp (%rsp)[8byte] -> %r15 %rsp 
  0x00007f8b3075f8bd  5d                   pop    %rsp (%rsp)[8byte] -> %rbp %rsp 
  0x00007f8b3075f8be  c3                   ret    %rsp (%rsp)[8byte] -> %rsp 
Actual: 7f8b3075efca

Block 323:
  0x00007f8b3075efca  48 85 c0             test   %rax %rax 
  0x00007f8b3075efcd  0f 85 ac fa ff ff    jnz    $0x00007f8b3075ea7f 
Actual: 7f8b3075ea7f

Block 324:
  0x00007f8b3075ea7f  48 8d 65 d8          lea    0xffffffd8(%rbp) -> %rsp 
  0x00007f8b3075ea83  5b                   pop    %rsp (%rsp)[8byte] -> %rbx %rsp 
  0x00007f8b3075ea84  41 5c                pop    %rsp (%rsp)[8byte] -> %r12 %rsp 
  0x00007f8b3075ea86  41 5d                pop    %rsp (%rsp)[8byte] -> %r13 %rsp 
  0x00007f8b3075ea88  41 5e                pop    %rsp (%rsp)[8byte] -> %r14 %rsp 
  0x00007f8b3075ea8a  41 5f                pop    %rsp (%rsp)[8byte] -> %r15 %rsp 
  0x00007f8b3075ea8c  5d                   pop    %rsp (%rsp)[8byte] -> %rbp %rsp 
  0x00007f8b3075ea8d  c3                   ret    %rsp (%rsp)[8byte] -> %rsp 
Actual: 7f8b3075e67c

Block 325:
  0x00007f8b3075e67c  48 85 c0             test   %rax %rax 
  0x00007f8b3075e67f  4a 89 84 f4 a0 00 00 mov    %rax -> 0x000000a0(%rsp,%r14,8)[8byte] 
                      00
  0x00007f8b3075e687  74 57                jz     $0x00007f8b3075e6e0 
Actual: 7f8b3075e689

Block 326:
  0x00007f8b3075e689  83 78 30 ff          cmp    0x30(%rax)[4byte] $0xffffffff 
  0x00007f8b3075e68d  74 07                jz     $0x00007f8b3075e696 
Actual: 7f8b3075e696

Block 327:
  0x00007f8b3075e696  4e 8b 7c f4 30       mov    0x30(%rsp,%r14,8)[8byte] -> %r15 
  0x00007f8b3075e69b  48 8d 05 56 f5 15 00 lea    <rel> 0x00007f8b308bdbf8 -> %rax 
  0x00007f8b3075e6a2  48 89 44 24 08       mov    %rax -> 0x08(%rsp)[8byte] 
  0x00007f8b3075e6a7  49 39 c7             cmp    %r15 %rax 
  0x00007f8b3075e6aa  74 99                jz     $0x00007f8b3075e645 
Actual: 7f8b3075e6ac

Block 328:
  0x00007f8b3075e6ac  4b 8b ac f4 80 00 00 mov    0x00000080(%r12,%r14,8)[8byte] -> %rbp 
                      00
  0x00007f8b3075e6b4  4c 89 ff             mov    %r15 -> %rdi 
  0x00007f8b3075e6b7  48 89 ee             mov    %rbp -> %rsi 
  0x00007f8b3075e6ba  e8 e1 c0 05 00       call   $0x00007f8b307ba7a0 %rsp -> %rsp 0xfffffff8(%rsp)[8byte] 
  0x00007f8b307ba7a0  89 f1                mov    %esi -> %ecx 
  0x00007f8b307ba7a2  89 f8                mov    %edi -> %eax 
  0x00007f8b307ba7a4  48 83 e1 3f          and    $0x000000000000003f %rcx -> %rcx 
  0x00007f8b307ba7a8  48 83 e0 3f          and    $0x000000000000003f %rax -> %rax 
  0x00007f8b307ba7ac  83 f9 30             cmp    %ecx $0x00000030 
  0x00007f8b307ba7af  77 3f                jnbe   $0x00007f8b307ba7f0 
Actual: 7f8b307ba7f0

Block 329:
  0x00007f8b307bb190  66 0f ef c0          pxor   %xmm0 %xmm0 -> %xmm0 
  0x00007f8b307bb194  66 0f 6f 17          movdqa (%rdi)[16byte] -> %xmm2 
  0x00007f8b307bb198  66 0f 6f 0e          movdqa (%rsi)[16byte] -> %xmm1 
  0x00007f8b307bb19c  66 0f 74 c1          pcmpeqb %xmm1 %xmm0 -> %xmm0 
  0x00007f8b307bb1a0  66 0f 73 fa 08       pslldq $0x08 %xmm2 -> %xmm2 
  0x00007f8b307bb1a5  66 0f 74 d1          pcmpeqb %xmm1 %xmm2 -> %xmm2 
  0x00007f8b307bb1a9  66 0f f8 d0          psubb  %xmm0 %xmm2 -> %xmm2 
  0x00007f8b307bb1ad  66 44 0f d7 ca       pmovmskb %xmm2 -> %r9d 
  0x00007f8b307bb1b2  d3 ea                shr    %cl %edx -> %edx 
  0x00007f8b307bb1b4  41 d3 e9             shr    %cl %r9d -> %r9d 
  0x00007f8b307bb1b7  44 29 ca             sub    %r9d %edx -> %edx 
  0x00007f8b307bb1ba  0f 85 d5 09 00 00    jnz    $0x00007f8b307bbb95 
Actual: 7f8b307bbb95

Block 330:
  0x00007f8b3075e6bf  85 c0                test   %eax %eax 
  0x00007f8b3075e6c1  0f 84 79 ff ff ff    jz     $0x00007f8b3075e640 
Actual: 7f8b3075e6c7

Block 331:
  0x00007f8b3075e6c7  4c 89 ff             mov    %r15 -> %rdi 
  0x00007f8b3075e6ca  e8 31 d8 05 00       call   $0x00007f8b307bbf00 %rsp -> %rsp 0xfffffff8(%rsp)[8byte] 
  0x00007f8b307bbf00  55                   push   %rbp %rsp -> %rsp 0xfffffff8(%rsp)[8byte] 
  0x00007f8b307bbf01  53                   push   %rbx %rsp -> %rsp 0xfffffff8(%rsp)[8byte] 
  0x00007f8b307bbf02  48 89 fd             mov    %rdi -> %rbp 
  0x00007f8b307bbf05  48 83 ec 08          sub    $0x0000000000000008 %rsp -> %rsp 
  0x00007f8b307bbf09  e8 a2 02 00 00       call   $0x00007f8b307bc1b0 %rsp -> %rsp 0xfffffff8(%rsp)[8byte] 
  0x00007f8b307bc1b0  66 0f ef c0          pxor   %xmm0 %xmm0 -> %xmm0 
  0x00007f8b307bc1b4  66 0f ef c9          pxor   %xmm1 %xmm1 -> %xmm1 
  0x00007f8b307bc1b8  66 0f ef d2          pxor   %xmm2 %xmm2 -> %xmm2 
  0x00007f8b307bc1bc  66 0f ef db          pxor   %xmm3 %xmm3 -> %xmm3 
  0x00007f8b307bc1c0  48 89 f8             mov    %rdi -> %rax 
  0x00007f8b307bc1c3  48 89 f9             mov    %rdi -> %rcx 
  0x00007f8b307bc1c6  48 81 e1 ff 0f 00 00 and    $0x0000000000000fff %rcx -> %rcx 
  0x00007f8b307bc1cd  48 81 f9 cf 0f 00 00 cmp    %rcx $0x0000000000000fcf 
  0x00007f8b307bc1d4  77 6a                jnbe   $0x00007f8b307bc240 
Actual: 7f8b307bc1d6

Block 332:
  0x00007f8b3075e6cf  48 85 c0             test   %rax %rax 
  0x00007f8b3075e6d2  4a 89 44 f4 30       mov    %rax -> 0x30(%rsp,%r14,8)[8byte] 
  0x00007f8b3075e6d7  0f 85 68 ff ff ff    jnz    $0x00007f8b3075e645 
Actual: 7f8b3075e645

Block 333:
  0x00007f8b3075e645  45 85 ed             test   %r13d %r13d 
  0x00007f8b3075e648  41 8d 45 ff          lea    0xffffffff(%r13) -> %eax 
  0x00007f8b3075e64c  0f 8e 8e 01 00 00    jle    $0x00007f8b3075e7e0 
Actual: 7f8b3075e652

Block 334:
  0x00007f8b3075e652  83 f8 06             cmp    %eax $0x00000006 
  0x00007f8b3075e655  0f 84 11 03 00 00    jz     $0x00007f8b3075e96c 
Actual: 7f8b3075e65b

Block 335:
  0x00007f8b3075e65b  44 89 6c 24 14       mov    %r13d -> 0x14(%rsp)[4byte] 
  0x00007f8b3075e660  41 89 c5             mov    %eax -> %r13d 
  0x00007f8b3075e663  4d 63 f5             movsxd %r13d -> %r14 
  0x00007f8b3075e666  48 8b 74 24 28       mov    0x28(%rsp)[8byte] -> %rsi 
  0x00007f8b3075e66b  48 8b 7c 24 20       mov    0x20(%rsp)[8byte] -> %rdi 
  0x00007f8b3075e670  4a 8d 0c f3          lea    (%rbx,%r14,8) -> %rcx 
  0x00007f8b3075e674  44 89 ea             mov    %r13d -> %edx 
  0x00007f8b3075e677  e8 94 03 00 00       call   $0x00007f8b3075ea10 %rsp -> %rsp 0xfffffff8(%rsp)[8byte] 
  0x00007f8b3075ea10  55                   push   %rbp %rsp -> %rsp 0xfffffff8(%rsp)[8byte] 
  0x00007f8b3075ea11  48 89 e5             mov    %rsp -> %rbp 
  0x00007f8b3075ea14  41 57                push   %r15 %rsp -> %rsp 0xfffffff8(%rsp)[8byte] 
  0x00007f8b3075ea16  41 56                push   %r14 %rsp -> %rsp 0xfffffff8(%rsp)[8byte] 
  0x00007f8b3075ea18  41 55                push   %r13 %rsp -> %rsp 0xfffffff8(%rsp)[8byte] 
  0x00007f8b3075ea1a  41 54                push   %r12 %rsp -> %rsp 0xfffffff8(%rsp)[8byte] 
  0x00007f8b3075ea1c  49 89 fd             mov    %rdi -> %r13 
  0x00007f8b3075ea1f  53                   push   %rbx %rsp -> %rsp 0xfffffff8(%rsp)[8byte] 
  0x00007f8b3075ea20  49 89 f6             mov    %rsi -> %r14 
  0x00007f8b3075ea23  89 d3                mov    %edx -> %ebx 
  0x00007f8b3075ea25  49 89 cc             mov    %rcx -> %r12 
  0x00007f8b3075ea28  48 83 ec 58          sub    $0x0000000000000058 %rsp -> %rsp 
  0x00007f8b3075ea2c  4c 8b 39             mov    (%rcx)[8byte] -> %r15 
  0x00007f8b3075ea2f  4c 89 7d a0          mov    %r15 -> 0xffffffa0(%rbp)[8byte] 
  0x00007f8b3075ea33  41 80 3f 00          cmp    (%r15)[1byte] $0x00 
  0x00007f8b3075ea37  0f 84 8b 00 00 00    jz     $0x00007f8b3075eac8 
Actual: 7f8b3075eac8

Block 336:
  0x00007f8b3075f897  4d 8b 7e 08          mov    0x08(%r14)[8byte] -> %r15 
  0x00007f8b3075f89b  4c 39 fb             cmp    %rbx %r15 
  0x00007f8b3075f89e  75 e0                jnz    $0x00007f8b3075f880 
Actual: 7f8b3075f880

Block 337:
  0x00007f8b3075f880  4c 89 fe             mov    %r15 -> %rsi 
  0x00007f8b3075f883  48 89 df             mov    %rbx -> %rdi 
  0x00007f8b3075f886  e8 15 af 05 00       call   $0x00007f8b307ba7a0 %rsp -> %rsp 0xfffffff8(%rsp)[8byte] 
  0x00007f8b307ba7a0  89 f1                mov    %esi -> %ecx 
  0x00007f8b307ba7a2  89 f8                mov    %edi -> %eax 
  0x00007f8b307ba7a4  48 83 e1 3f          and    $0x000000000000003f %rcx -> %rcx 
  0x00007f8b307ba7a8  48 83 e0 3f          and    $0x000000000000003f %rax -> %rax 
  0x00007f8b307ba7ac  83 f9 30             cmp    %ecx $0x00000030 
  0x00007f8b307ba7af  77 3f                jnbe   $0x00007f8b307ba7f0 
Actual: 7f8b307ba7b1

Block 338:
  0x00007f8b3075f88b  85 c0                test   %eax %eax 
  0x00007f8b3075f88d  74 11                jz     $0x00007f8b3075f8a0 
Actual: 7f8b3075f8a0

Block 339:
  0x00007f8b3075f8a0  4c 63 a5 dc fe ff ff movsxd 0xfffffedc(%rbp)[4byte] -> %r12 
  0x00007f8b3075f8a7  4d 89 7d 00          mov    %r15 -> 0x00(%r13)[8byte] 
  0x00007f8b3075f8ab  4b 8b 44 e6 10       mov    0x10(%r14,%r12,8)[8byte] -> %rax 
  0x00007f8b3075f8b0  48 8d 65 d8          lea    0xffffffd8(%rbp) -> %rsp 
  0x00007f8b3075f8b4  5b                   pop    %rsp (%rsp)[8byte] -> %rbx %rsp 
  0x00007f8b3075f8b5  41 5c                pop    %rsp (%rsp)[8byte] -> %r12 %rsp 
  0x00007f8b3075f8b7  41 5d                pop    %rsp (%rsp)[8byte] -> %r13 %rsp 
  0x00007f8b3075f8b9  41 5e                pop    %rsp (%rsp)[8byte] -> %r14 %rsp 
  0x00007f8b3075f8bb  41 5f                pop    %rsp (%rsp)[8byte] -> %r15 %rsp 
  0x00007f8b3075f8bd  5d                   pop    %rsp (%rsp)[8byte] -> %rbp %rsp 
  0x00007f8b3075f8be  c3                   ret    %rsp (%rsp)[8byte] -> %rsp 
Actual: 7f8b3075efca

Block 340:
  0x00007f8b3075e96c  41 bd 06 00 00 00    mov    $0x00000006 -> %r13d 
  0x00007f8b3075e972  b8 05 00 00 00       mov    $0x00000005 -> %eax 
  0x00007f8b3075e977  e9 df fc ff ff       jmp    $0x00007f8b3075e65b 
  0x00007f8b3075e65b  44 89 6c 24 14       mov    %r13d -> 0x14(%rsp)[4byte] 
  0x00007f8b3075e660  41 89 c5             mov    %eax -> %r13d 
  0x00007f8b3075e663  4d 63 f5             movsxd %r13d -> %r14 
  0x00007f8b3075e666  48 8b 74 24 28       mov    0x28(%rsp)[8byte] -> %rsi 
  0x00007f8b3075e66b  48 8b 7c 24 20       mov    0x20(%rsp)[8byte] -> %rdi 
  0x00007f8b3075e670  4a 8d 0c f3          lea    (%rbx,%r14,8) -> %rcx 
  0x00007f8b3075e674  44 89 ea             mov    %r13d -> %edx 
  0x00007f8b3075e677  e8 94 03 00 00       call   $0x00007f8b3075ea10 %rsp -> %rsp 0xfffffff8(%rsp)[8byte] 
  0x00007f8b3075ea10  55                   push   %rbp %rsp -> %rsp 0xfffffff8(%rsp)[8byte] 
  0x00007f8b3075ea11  48 89 e5             mov    %rsp -> %rbp 
  0x00007f8b3075ea14  41 57                push   %r15 %rsp -> %rsp 0xfffffff8(%rsp)[8byte] 
  0x00007f8b3075ea16  41 56                push   %r14 %rsp -> %rsp 0xfffffff8(%rsp)[8byte] 
  0x00007f8b3075ea18  41 55                push   %r13 %rsp -> %rsp 0xfffffff8(%rsp)[8byte] 
  0x00007f8b3075ea1a  41 54                push   %r12 %rsp -> %rsp 0xfffffff8(%rsp)[8byte] 
  0x00007f8b3075ea1c  49 89 fd             mov    %rdi -> %r13 
  0x00007f8b3075ea1f  53                   push   %rbx %rsp -> %rsp 0xfffffff8(%rsp)[8byte] 
  0x00007f8b3075ea20  49 89 f6             mov    %rsi -> %r14 
  0x00007f8b3075ea23  89 d3                mov    %edx -> %ebx 
  0x00007f8b3075ea25  49 89 cc             mov    %rcx -> %r12 
  0x00007f8b3075ea28  48 83 ec 58          sub    $0x0000000000000058 %rsp -> %rsp 
  0x00007f8b3075ea2c  4c 8b 39             mov    (%rcx)[8byte] -> %r15 
  0x00007f8b3075ea2f  4c 89 7d a0          mov    %r15 -> 0xffffffa0(%rbp)[8byte] 
  0x00007f8b3075ea33  41 80 3f 00          cmp    (%r15)[1byte] $0x00 
  0x00007f8b3075ea37  0f 84 8b 00 00 00    jz     $0x00007f8b3075eac8 
Actual: 7f8b3075eac8

Block 341:
  0x00007f8b3075e7e0  85 c0                test   %eax %eax 
  0x00007f8b3075e7e2  0f 89 1c ff ff ff    jns    $0x00007f8b3075e704 
Actual: 7f8b3075e7e8

Block 342:
  0x00007f8b3075e7e8  44 89 6c 24 14       mov    %r13d -> 0x14(%rsp)[4byte] 
  0x00007f8b3075e7ed  48 89 de             mov    %rbx -> %rsi 
  0x00007f8b3075e7f0  bf 06 00 00 00       mov    $0x00000006 -> %edi 
  0x00007f8b3075e7f5  e8 e6 f5 ff ff       call   $0x00007f8b3075dde0 %rsp -> %rsp 0xfffffff8(%rsp)[8byte] 
  0x00007f8b3075dde0  41 57                push   %r15 %rsp -> %rsp 0xfffffff8(%rsp)[8byte] 
  0x00007f8b3075dde2  41 56                push   %r14 %rsp -> %rsp 0xfffffff8(%rsp)[8byte] 
  0x00007f8b3075dde4  48 8d 05 15 7c 14 00 lea    <rel> 0x00007f8b308a5a00 -> %rax 
  0x00007f8b3075ddeb  41 55                push   %r13 %rsp -> %rsp 0xfffffff8(%rsp)[8byte] 
  0x00007f8b3075dded  41 54                push   %r12 %rsp -> %rsp 0xfffffff8(%rsp)[8byte] 
  0x00007f8b3075ddef  45 31 f6             xor    %r14d %r14d -> %r14d 
  0x00007f8b3075ddf2  55                   push   %rbp %rsp -> %rsp 0xfffffff8(%rsp)[8byte] 
  0x00007f8b3075ddf3  53                   push   %rbx %rsp -> %rsp 0xfffffff8(%rsp)[8byte] 
  0x00007f8b3075ddf4  31 db                xor    %ebx %ebx -> %ebx 
  0x00007f8b3075ddf6  bd 01 00 00 00       mov    $0x00000001 -> %ebp 
  0x00007f8b3075ddfb  41 bc 01 00 00 00    mov    $0x00000001 -> %r12d 
  0x00007f8b3075de01  48 83 ec 28          sub    $0x0000000000000028 %rsp -> %rsp 
  0x00007f8b3075de05  83 ff 06             cmp    %edi $0x00000006 
  0x00007f8b3075de08  89 7c 24 14          mov    %edi -> 0x14(%rsp)[4byte] 
  0x00007f8b3075de0c  48 89 74 24 08       mov    %rsi -> 0x08(%rsp)[8byte] 
  0x00007f8b3075de11  48 89 04 24          mov    %rax -> (%rsp)[8byte] 
  0x00007f8b3075de15  75 10                jnz    $0x00007f8b3075de27 
Actual: 7f8b3075de17

Block 343:
  0x00007f8b3075de17  e9 db 00 00 00       jmp    $0x00007f8b3075def7 
  0x00007f8b3075def7  49 83 fe 06          cmp    %r14 $0x0000000000000006 
  0x00007f8b3075defb  74 f3                jz     $0x00007f8b3075def0 
Actual: 7f8b3075defd

Block 344:
  0x00007f8b3075defd  4c 8b 6c 24 08       mov    0x08(%rsp)[8byte] -> %r13 
  0x00007f8b3075df02  4f 8b 44 f5 00       mov    0x00(%r13,%r14,8)[8byte] -> %r8 
  0x00007f8b3075df07  4c 89 c7             mov    %r8 -> %rdi 
  0x00007f8b3075df0a  4c 89 44 24 18       mov    %r8 -> 0x18(%rsp)[8byte] 
  0x00007f8b3075df0f  e8 9c e2 05 00       call   $0x00007f8b307bc1b0 %rsp -> %rsp 0xfffffff8(%rsp)[8byte] 
  0x00007f8b307bc1b0  66 0f ef c0          pxor   %xmm0 %xmm0 -> %xmm0 
  0x00007f8b307bc1b4  66 0f ef c9          pxor   %xmm1 %xmm1 -> %xmm1 
  0x00007f8b307bc1b8  66 0f ef d2          pxor   %xmm2 %xmm2 -> %xmm2 
  0x00007f8b307bc1bc  66 0f ef db          pxor   %xmm3 %xmm3 -> %xmm3 
  0x00007f8b307bc1c0  48 89 f8             mov    %rdi -> %rax 
  0x00007f8b307bc1c3  48 89 f9             mov    %rdi -> %rcx 
  0x00007f8b307bc1c6  48 81 e1 ff 0f 00 00 and    $0x0000000000000fff %rcx -> %rcx 
  0x00007f8b307bc1cd  48 81 f9 cf 0f 00 00 cmp    %rcx $0x0000000000000fcf 
  0x00007f8b307bc1d4  77 6a                jnbe   $0x00007f8b307bc240 
Actual: 7f8b307bc1d6

Block 345:
  0x00007f8b3075df14  49 89 c7             mov    %rax -> %r15 
  0x00007f8b3075df17  48 8b 04 24          mov    (%rsp)[8byte] -> %rax 
  0x00007f8b3075df1b  42 0f b6 04 30       movzx  (%rax,%r14,1)[1byte] -> %eax 
  0x00007f8b3075df20  48 8d 5c 03 02       lea    0x02(%rbx,%rax,1) -> %rbx 
  0x00007f8b3075df25  4c 01 fb             add    %r15 %rbx -> %rbx 
  0x00007f8b3075df28  45 85 e4             test   %r12d %r12d 
  0x00007f8b3075df2b  74 1f                jz     $0x00007f8b3075df4c 
Actual: 7f8b3075df2d

Block 346:
  0x00007f8b3075df2d  49 8b 75 00          mov    0x00(%r13)[8byte] -> %rsi 
  0x00007f8b3075df31  4c 8b 44 24 18       mov    0x18(%rsp)[8byte] -> %r8 
  0x00007f8b3075df36  49 39 f0             cmp    %r8 %rsi 
  0x00007f8b3075df39  74 11                jz     $0x00007f8b3075df4c 
Actual: 7f8b3075df4c

Block 347:
  0x00007f8b3075df4c  83 fd 0d             cmp    %ebp $0x0000000d 
  0x00007f8b3075df4f  75 9f                jnz    $0x00007f8b3075def0 
Actual: 7f8b3075def0

Block 348:
  0x00007f8b3075def0  49 83 c6 01          add    $0x0000000000000001 %r14 -> %r14 
  0x00007f8b3075def4  83 c5 01             add    $0x00000001 %ebp -> %ebp 
  0x00007f8b3075def7  49 83 fe 06          cmp    %r14 $0x0000000000000006 
  0x00007f8b3075defb  74 f3                jz     $0x00007f8b3075def0 
Actual: 7f8b3075defd

Block 349:
  0x00007f8b3075df3b  4c 89 c7             mov    %r8 -> %rdi 
  0x00007f8b3075df3e  45 31 e4             xor    %r12d %r12d -> %r12d 
  0x00007f8b3075df41  e8 5a c8 05 00       call   $0x00007f8b307ba7a0 %rsp -> %rsp 0xfffffff8(%rsp)[8byte] 
  0x00007f8b307ba7a0  89 f1                mov    %esi -> %ecx 
  0x00007f8b307ba7a2  89 f8                mov    %edi -> %eax 
  0x00007f8b307ba7a4  48 83 e1 3f          and    $0x000000000000003f %rcx -> %rcx 
  0x00007f8b307ba7a8  48 83 e0 3f          and    $0x000000000000003f %rax -> %rax 
  0x00007f8b307ba7ac  83 f9 30             cmp    %ecx $0x00000030 
  0x00007f8b307ba7af  77 3f                jnbe   $0x00007f8b307ba7f0 
Actual: 7f8b307ba7b1

Block 350:
  0x00007f8b3075df46  85 c0                test   %eax %eax 
  0x00007f8b3075df48  41 0f 94 c4          setz   -> %r12l 
  0x00007f8b3075df4c  83 fd 0d             cmp    %ebp $0x0000000d 
  0x00007f8b3075df4f  75 9f                jnz    $0x00007f8b3075def0 
Actual: 7f8b3075def0

Block 351:
  0x00007f8b3075df51  45 85 e4             test   %r12d %r12d 
  0x00007f8b3075df54  0f 85 36 ff ff ff    jnz    $0x00007f8b3075de90 
Actual: 7f8b3075de90

Block 352:
  0x00007f8b3075de90  48 8b 44 24 08       mov    0x08(%rsp)[8byte] -> %rax 
  0x00007f8b3075de95  48 8d 35 5c fd 15 00 lea    <rel> 0x00007f8b308bdbf8 -> %rsi 
  0x00007f8b3075de9c  48 8b 28             mov    (%rax)[8byte] -> %rbp 
  0x00007f8b3075de9f  48 89 ef             mov    %rbp -> %rdi 
  0x00007f8b3075dea2  e8 f9 c8 05 00       call   $0x00007f8b307ba7a0 %rsp -> %rsp 0xfffffff8(%rsp)[8byte] 
  0x00007f8b307ba7a0  89 f1                mov    %esi -> %ecx 
  0x00007f8b307ba7a2  89 f8                mov    %edi -> %eax 
  0x00007f8b307ba7a4  48 83 e1 3f          and    $0x000000000000003f %rcx -> %rcx 
  0x00007f8b307ba7a8  48 83 e0 3f          and    $0x000000000000003f %rax -> %rax 
  0x00007f8b307ba7ac  83 f9 30             cmp    %ecx $0x00000030 
  0x00007f8b307ba7af  77 3f                jnbe   $0x00007f8b307ba7f0 
Actual: 7f8b307ba7f0

Block 353:
  0x00007f8b3075dea7  85 c0                test   %eax %eax 
  0x00007f8b3075dea9  0f 84 49 01 00 00    jz     $0x00007f8b3075dff8 
Actual: 7f8b3075deaf

Block 354:
  0x00007f8b3075deaf  48 8d 35 53 ec 15 00 lea    <rel> 0x00007f8b308bcb09 -> %rsi 
  0x00007f8b3075deb6  48 89 ef             mov    %rbp -> %rdi 
  0x00007f8b3075deb9  e8 e2 c8 05 00       call   $0x00007f8b307ba7a0 %rsp -> %rsp 0xfffffff8(%rsp)[8byte] 
  0x00007f8b307ba7a0  89 f1                mov    %esi -> %ecx 
  0x00007f8b307ba7a2  89 f8                mov    %edi -> %eax 
  0x00007f8b307ba7a4  48 83 e1 3f          and    $0x000000000000003f %rcx -> %rcx 
  0x00007f8b307ba7a8  48 83 e0 3f          and    $0x000000000000003f %rax -> %rax 
  0x00007f8b307ba7ac  83 f9 30             cmp    %ecx $0x00000030 
  0x00007f8b307ba7af  77 3f                jnbe   $0x00007f8b307ba7f0 
Actual: 7f8b307ba7b1

Block 355:
  0x00007f8b3075debe  48 8d 0d 33 fd 15 00 lea    <rel> 0x00007f8b308bdbf8 -> %rcx 
  0x00007f8b3075dec5  85 c0                test   %eax %eax 
  0x00007f8b3075dec7  48 89 4c 24 18       mov    %rcx -> 0x18(%rsp)[8byte] 
  0x00007f8b3075decc  0f 85 3e 01 00 00    jnz    $0x00007f8b3075e010 
Actual: 7f8b3075e010

Block 356:
  0x00007f8b3075e010  49 8d 5f 01          lea    0x01(%r15) -> %rbx 
  0x00007f8b3075e014  48 89 df             mov    %rbx -> %rdi 
  0x00007f8b3075e017  e8 cc 58 ff ff       call   $0x00007f8b307538e8 %rsp -> %rsp 0xfffffff8(%rsp)[8byte] 
  0x00007f8b307538e8  ff 25 3a c5 39 00    jmp    <rel> 0x00007f8b30aefe28[8byte] 
Actual: 7f8b307b4f00

Block 357:
  0x00007f8b3075e01c  48 85 c0             test   %rax %rax 
  0x00007f8b3075e01f  0f 84 81 00 00 00    jz     $0x00007f8b3075e0a6 
Actual: 7f8b3075e025

Block 358:
  0x00007f8b3075e025  48 83 c4 28          add    $0x0000000000000028 %rsp -> %rsp 
  0x00007f8b3075e029  48 89 da             mov    %rbx -> %rdx 
  0x00007f8b3075e02c  48 89 ee             mov    %rbp -> %rsi 
  0x00007f8b3075e02f  5b                   pop    %rsp (%rsp)[8byte] -> %rbx %rsp 
  0x00007f8b3075e030  5d                   pop    %rsp (%rsp)[8byte] -> %rbp %rsp 
  0x00007f8b3075e031  41 5c                pop    %rsp (%rsp)[8byte] -> %r12 %rsp 
  0x00007f8b3075e033  41 5d                pop    %rsp (%rsp)[8byte] -> %r13 %rsp 
  0x00007f8b3075e035  41 5e                pop    %rsp (%rsp)[8byte] -> %r14 %rsp 
  0x00007f8b3075e037  41 5f                pop    %rsp (%rsp)[8byte] -> %r15 %rsp 
  0x00007f8b3075e039  48 89 c7             mov    %rax -> %rdi 
  0x00007f8b3075e03c  e9 0f 70 06 00       jmp    $0x00007f8b307c5050 
  0x00007f8b307c5050  48 83 fa 20          cmp    %rdx $0x0000000000000020 
  0x00007f8b307c5054  48 89 f8             mov    %rdi -> %rax 
  0x00007f8b307c5057  73 77                jnb    $0x00007f8b307c50d0 
Actual: 7f8b307c5059

Block 359:
  0x00007f8b3075e7fa  48 85 c0             test   %rax %rax 
  0x00007f8b3075e7fd  49 89 c7             mov    %rax -> %r15 
  0x00007f8b3075e800  0f 84 e3 fe ff ff    jz     $0x00007f8b3075e6e9 
Actual: 7f8b3075e806

Block 360:
  0x00007f8b3075e806  4c 8d 25 f3 2b 39 00 lea    <rel> 0x00007f8b30af1400 -> %r12 
  0x00007f8b3075e80d  bd 01 00 00 00       mov    $0x00000001 -> %ebp 
  0x00007f8b3075e812  45 31 ed             xor    %r13d %r13d -> %r13d 
  0x00007f8b3075e815  4c 8d b4 24 a0 00 00 lea    0x000000a0(%rsp) -> %r14 
                      00
  0x00007f8b3075e81d  eb 0c                jmp    $0x00007f8b3075e82b 
  0x00007f8b3075e82b  49 83 fd 06          cmp    %r13 $0x0000000000000006 
  0x00007f8b3075e82f  74 ef                jz     $0x00007f8b3075e820 
Actual: 7f8b3075e831

Block 361:
  0x00007f8b3075e831  4b 8b 34 ee          mov    (%r14,%r13,8)[8byte] -> %rsi 
  0x00007f8b3075e835  48 8d 05 64 02 39 00 lea    <rel> 0x00007f8b30aeeaa0 -> %rax 
  0x00007f8b3075e83c  49 89 34 24          mov    %rsi -> (%r12)[8byte] 
  0x00007f8b3075e840  4a 8b 34 e8          mov    (%rax,%r13,8)[8byte] -> %rsi 
  0x00007f8b3075e844  48 85 f6             test   %rsi %rsi 
  0x00007f8b3075e847  74 02                jz     $0x00007f8b3075e84b 
Actual: 7f8b3075e849

Block 362:
  0x00007f8b3075e849  ff d6                call   %rsi %rsp -> %rsp 0xfffffff8(%rsp)[8byte] 
Actual: 7f8b30760cd0

Block 363:
  0x00007f8b30760cd0  48 8b 15 29 07 39 00 mov    <rel> 0x00007f8b30af1400[8byte] -> %rdx 
  0x00007f8b30760cd7  48 8b 35 da f0 38 00 mov    <rel> 0x00007f8b30aefdb8[8byte] -> %rsi 
  0x00007f8b30760cde  48 8d 3d 1b 07 39 00 lea    <rel> 0x00007f8b30af1400 -> %rdi 
  0x00007f8b30760ce5  48 8b 42 40          mov    0x40(%rdx)[8byte] -> %rax 
  0x00007f8b30760ce9  64 48 8b 36          mov    %fs:(%rsi)[8byte] -> %rsi 
  0x00007f8b30760ced  48 8d 88 00 01 00 00 lea    0x00000100(%rax) -> %rcx 
  0x00007f8b30760cf4  48 89 0d 6d 07 39 00 mov    %rcx -> <rel> 0x00007f8b30af1468[8byte] 
  0x00007f8b30760cfb  48 8b 42 58          mov    0x58(%rdx)[8byte] -> %rax 
  0x00007f8b30760cff  48 05 00 02 00 00    add    $0x0000000000000200 %rax -> %rax 
  0x00007f8b30760d05  48 89 05 64 07 39 00 mov    %rax -> <rel> 0x00007f8b30af1470[8byte] 
  0x00007f8b30760d0c  48 8b 52 48          mov    0x48(%rdx)[8byte] -> %rdx 
  0x00007f8b30760d10  48 81 c2 00 02 00 00 add    $0x0000000000000200 %rdx -> %rdx 
  0x00007f8b30760d17  48 39 fe             cmp    %rsi %rdi 
  0x00007f8b30760d1a  48 89 15 57 07 39 00 mov    %rdx -> <rel> 0x00007f8b30af1478[8byte] 
  0x00007f8b30760d21  74 7d                jz     $0x00007f8b30760da0 
Actual: 7f8b30760da0

Block 364:
  0x00007f8b30760da0  48 8b 3d 51 f0 38 00 mov    <rel> 0x00007f8b30aefdf8[8byte] -> %rdi 
  0x00007f8b30760da7  64 48 89 0f          mov    %rcx -> %fs:(%rdi)[8byte] 
  0x00007f8b30760dab  48 8b 0d 26 f1 38 00 mov    <rel> 0x00007f8b30aefed8[8byte] -> %rcx 
  0x00007f8b30760db2  64 48 89 11          mov    %rdx -> %fs:(%rcx)[8byte] 
  0x00007f8b30760db6  48 8b 15 6b f1 38 00 mov    <rel> 0x00007f8b30aeff28[8byte] -> %rdx 
  0x00007f8b30760dbd  64 48 89 02          mov    %rax -> %fs:(%rdx)[8byte] 
  0x00007f8b30760dc1  e9 5d ff ff ff       jmp    $0x00007f8b30760d23 
  0x00007f8b30760d23  48 8b 06             mov    (%rsi)[8byte] -> %rax 
  0x00007f8b30760d26  48 8b 0d 63 f1 38 00 mov    <rel> 0x00007f8b30aefe90[8byte] -> %rcx 
  0x00007f8b30760d2d  48 8b 78 40          mov    0x40(%rax)[8byte] -> %rdi 
  0x00007f8b30760d31  48 8b 70 58          mov    0x58(%rax)[8byte] -> %rsi 
  0x00007f8b30760d35  48 8d 97 00 01 00 00 lea    0x00000100(%rdi) -> %rdx 
  0x00007f8b30760d3c  48 8b 78 48          mov    0x48(%rax)[8byte] -> %rdi 
  0x00007f8b30760d40  48 89 11             mov    %rdx -> (%rcx)[8byte] 
  0x00007f8b30760d43  48 8b 0d 36 f1 38 00 mov    <rel> 0x00007f8b30aefe80[8byte] -> %rcx 
  0x00007f8b30760d4a  48 8d 97 00 02 00 00 lea    0x00000200(%rdi) -> %rdx 
  0x00007f8b30760d51  48 89 11             mov    %rdx -> (%rcx)[8byte] 
  0x00007f8b30760d54  48 8b 0d 1d f1 38 00 mov    <rel> 0x00007f8b30aefe78[8byte] -> %rcx 
  0x00007f8b30760d5b  48 8d 96 00 02 00 00 lea    0x00000200(%rsi) -> %rdx 
  0x00007f8b30760d62  48 89 11             mov    %rdx -> (%rcx)[8byte] 
  0x00007f8b30760d65  48 8b 48 68          mov    0x68(%rax)[8byte] -> %rcx 
  0x00007f8b30760d69  48 8b 15 40 f1 38 00 mov    <rel> 0x00007f8b30aefeb0[8byte] -> %rdx 
  0x00007f8b30760d70  48 89 0a             mov    %rcx -> (%rdx)[8byte] 
  0x00007f8b30760d73  48 8b 88 b8 00 00 00 mov    0x000000b8(%rax)[8byte] -> %rcx 
  0x00007f8b30760d7a  48 8b 15 3f f2 38 00 mov    <rel> 0x00007f8b30aeffc0[8byte] -> %rdx 
  0x00007f8b30760d81  48 89 0a             mov    %rcx -> (%rdx)[8byte] 
  0x00007f8b30760d84  48 8b 90 c0 00 00 00 mov    0x000000c0(%rax)[8byte] -> %rdx 
  0x00007f8b30760d8b  48 8b 05 3e f0 38 00 mov    <rel> 0x00007f8b30aefdd0[8byte] -> %rax 
  0x00007f8b30760d92  48 89 10             mov    %rdx -> (%rax)[8byte] 
  0x00007f8b30760d95  c3                   ret    %rsp (%rsp)[8byte] -> %rsp 
Actual: 7f8b3075e84b

Block 365:
  0x00007f8b3075e84b  4a 8b 34 eb          mov    (%rbx,%r13,8)[8byte] -> %rsi 
  0x00007f8b3075e84f  49 8b bc 24 80 00 00 mov    0x00000080(%r12)[8byte] -> %rdi 
                      00
  0x00007f8b3075e857  48 39 fe             cmp    %rsi %rdi 
  0x00007f8b3075e85a  74 23                jz     $0x00007f8b3075e87f 
Actual: 7f8b3075e85c

Block 366:
  0x00007f8b3075e85c  48 8d 05 95 f3 15 00 lea    <rel> 0x00007f8b308bdbf8 -> %rax 
  0x00007f8b3075e863  48 39 c7             cmp    %rdi %rax 
  0x00007f8b3075e866  74 0f                jz     $0x00007f8b3075e877 
Actual: 7f8b3075e877

Block 367:
  0x00007f8b3075e877  49 89 b4 24 80 00 00 mov    %rsi -> 0x00000080(%r12)[8byte] 
                      00
  0x00007f8b3075e87f  83 fd 0d             cmp    %ebp $0x0000000d 
  0x00007f8b3075e882  75 9c                jnz    $0x00007f8b3075e820 
Actual: 7f8b3075e820

Block 368:
  0x00007f8b3075e820  49 83 c5 01          add    $0x0000000000000001 %r13 -> %r13 
  0x00007f8b3075e824  83 c5 01             add    $0x00000001 %ebp -> %ebp 
  0x00007f8b3075e827  49 83 c4 08          add    $0x0000000000000008 %r12 -> %r12 
  0x00007f8b3075e82b  49 83 fd 06          cmp    %r13 $0x0000000000000006 
  0x00007f8b3075e82f  74 ef                jz     $0x00007f8b3075e820 
Actual: 7f8b3075e831

Block 369:
  0x00007f8b3075e884  48 8b 3d 25 2c 39 00 mov    <rel> 0x00007f8b30af14b0[8byte] -> %rdi 
  0x00007f8b3075e88b  49 39 ff             cmp    %r15 %rdi 
  0x00007f8b3075e88e  74 18                jz     $0x00007f8b3075e8a8 
Actual: 7f8b3075e890

Block 370:
  0x00007f8b3075e890  48 8d 05 61 f3 15 00 lea    <rel> 0x00007f8b308bdbf8 -> %rax 
  0x00007f8b3075e897  48 39 c7             cmp    %rdi %rax 
  0x00007f8b3075e89a  74 05                jz     $0x00007f8b3075e8a1 
Actual: 7f8b3075e8a1

Block 371:
  0x00007f8b3075e8a1  4c 89 3d 08 2c 39 00 mov    %r15 -> <rel> 0x00007f8b30af14b0[8byte] 
  0x00007f8b3075e8a8  48 8b 05 51 16 39 00 mov    <rel> 0x00007f8b30aeff00[8byte] -> %rax 
  0x00007f8b3075e8af  83 00 01             add    $0x00000001 (%rax)[4byte] -> (%rax)[4byte] 
  0x00007f8b3075e8b2  e9 99 fe ff ff       jmp    $0x00007f8b3075e750 
  0x00007f8b3075e750  8b 15 9a 6f 39 00    mov    <rel> 0x00007f8b30af56f0[4byte] -> %edx 
  0x00007f8b3075e756  85 d2                test   %edx %edx 
  0x00007f8b3075e758  0f 85 62 01 00 00    jnz    $0x00007f8b3075e8c0 
Actual: 7f8b3075e8c0

Block 372:
  0x00007f8b3075e8c0  48 8b 05 c9 6d 39 00 mov    <rel> 0x00007f8b30af5690[8byte] -> %rax 
  0x00007f8b3075e8c7  48 8d 3d 32 30 39 00 lea    <rel> 0x00007f8b30af1900 -> %rdi 
  0x00007f8b3075e8ce  48 c1 c8 11          ror    $0x0000000000000011 %rax -> %rax 
  0x00007f8b3075e8d2  64 48 33 04 25 30 00 xor    %fs:0x30[8byte] %rax -> %rax 
                      00 00
  0x00007f8b3075e8db  ff d0                call   %rax %rsp -> %rsp 0xfffffff8(%rsp)[8byte] 
Actual: 7f8b31137730

Block 373:
  0x00007f8b31137730  8b 77 1c             mov    0x1c(%rdi)[4byte] -> %esi 
  0x00007f8b31137733  48 89 fa             mov    %rdi -> %rdx 
  0x00007f8b31137736  83 fe 01             cmp    %esi $0x00000001 
  0x00007f8b31137739  4d 19 c0             sbb    %r8 %r8 -> %r8 
  0x00007f8b3113773c  41 81 e0 80 00 00 00 and    $0x00000080 %r8d -> %r8d 
  0x00007f8b31137743  49 83 c0 01          add    $0x0000000000000001 %r8 -> %r8 
  0x00007f8b31137747  90                   nop    
  0x00007f8b31137748  44 8b 4f 18          mov    0x18(%rdi)[4byte] -> %r9d 
  0x00007f8b3113774c  45 85 c9             test   %r9d %r9d 
  0x00007f8b3113774f  75 0f                jnz    $0x00007f8b31137760 
Actual: 7f8b31137760

Block 374:
  0x00007f8b31137760  48 83 ec 08          sub    $0x0000000000000008 %rsp -> %rsp 
  0x00007f8b31137764  bf 01 00 00 00       mov    $0x00000001 -> %edi 
  0x00007f8b31137769  31 c0                xor    %eax %eax -> %eax 
  0x00007f8b3113776b  f0 0f b1 3a          lock cmpxchg %edi (%rdx)[4byte] %eax -> (%rdx)[4byte] %eax 
  0x00007f8b3113776f  74 16                jz     $0x00007f8b31137787 
Actual: 7f8b31137787

Block 375:
  0x00007f8b31137787  8b 42 18             mov    0x18(%rdx)[4byte] -> %eax 
  0x00007f8b3113778a  85 c0                test   %eax %eax 
  0x00007f8b3113778c  0f 85 7e 00 00 00    jnz    $0x00007f8b31137810 
Actual: 7f8b31137810

Block 376:
  0x00007f8b31137810  8b 42 04             mov    0x04(%rdx)[4byte] -> %eax 
  0x00007f8b31137813  c7 42 18 00 00 00 00 mov    $0x00000000 -> 0x18(%rdx)[4byte] 
  0x00007f8b3113781a  85 c0                test   %eax %eax 
  0x00007f8b3113781c  0f 84 81 ff ff ff    jz     $0x00007f8b311377a3 
Actual: 7f8b311377a3

Block 377:
  0x00007f8b311377a3  8b 72 14             mov    0x14(%rdx)[4byte] -> %esi 
  0x00007f8b311377a6  49 89 d1             mov    %rdx -> %r9 
  0x00007f8b311377a9  85 f6                test   %esi %esi 
  0x00007f8b311377ab  0f 85 9f 00 00 00    jnz    $0x00007f8b31137850 
Actual: 7f8b311377b1

Block 378:
  0x00007f8b311377b1  8b 4a 10             mov    0x10(%rdx)[4byte] -> %ecx 
  0x00007f8b311377b4  85 c9                test   %ecx %ecx 
  0x00007f8b311377b6  74 6a                jz     $0x00007f8b31137822 
Actual: 7f8b31137822

Block 379:
  0x00007f8b31137822  8b 72 1c             mov    0x1c(%rdx)[4byte] -> %esi 
  0x00007f8b31137825  f0 ff 0a             lock dec    (%rdx)[4byte] -> (%rdx)[4byte] 
  0x00007f8b31137828  74 16                jz     $0x00007f8b31137840 
Actual: 7f8b31137840

Block 380:
  0x00007f8b31137840  31 c0                xor    %eax %eax -> %eax 
  0x00007f8b31137842  48 83 c4 08          add    $0x0000000000000008 %rsp -> %rsp 
  0x00007f8b31137846  c3                   ret    %rsp (%rsp)[8byte] -> %rsp 
Actual: 7f8b3075e8dd

Block 381:
  0x00007f8b3075e8dd  e9 7c fe ff ff       jmp    $0x00007f8b3075e75e 
  0x00007f8b3075e75e  48 8b 7c 24 20       mov    0x20(%rsp)[8byte] -> %rdi 
  0x00007f8b3075e763  e8 a8 51 ff ff       call   $0x00007f8b30753910 %rsp -> %rsp 0xfffffff8(%rsp)[8byte] 
  0x00007f8b30753910  ff 25 7a c6 39 00    jmp    <rel> 0x00007f8b30aeff90[8byte] 
Actual: 7f8b307b5260

Block 382:
  0x00007f8b3075e768  48 8b 7c 24 18       mov    0x18(%rsp)[8byte] -> %rdi 
  0x00007f8b3075e76d  e8 9e 51 ff ff       call   $0x00007f8b30753910 %rsp -> %rsp 0xfffffff8(%rsp)[8byte] 
  0x00007f8b30753910  ff 25 7a c6 39 00    jmp    <rel> 0x00007f8b30aeff90[8byte] 
Actual: 7f8b307b5260

Block 383:
  0x00007f8b3075e772  e9 b5 f9 ff ff       jmp    $0x00007f8b3075e12c 
  0x00007f8b3075e12c  48 81 c4 18 01 00 00 add    $0x0000000000000118 %rsp -> %rsp 
  0x00007f8b3075e133  4c 89 f8             mov    %r15 -> %rax 
  0x00007f8b3075e136  5b                   pop    %rsp (%rsp)[8byte] -> %rbx %rsp 
  0x00007f8b3075e137  5d                   pop    %rsp (%rsp)[8byte] -> %rbp %rsp 
  0x00007f8b3075e138  41 5c                pop    %rsp (%rsp)[8byte] -> %r12 %rsp 
  0x00007f8b3075e13a  41 5d                pop    %rsp (%rsp)[8byte] -> %r13 %rsp 
  0x00007f8b3075e13c  41 5e                pop    %rsp (%rsp)[8byte] -> %r14 %rsp 
  0x00007f8b3075e13e  41 5f                pop    %rsp (%rsp)[8byte] -> %r15 %rsp 
  0x00007f8b3075e140  c3                   ret    %rsp (%rsp)[8byte] -> %rsp 
Actual: 55ccfba92380

Block 384:
  0x000055ccfba92380  48 8d 35 aa 4a 01 00 lea    <rel> 0x000055ccfbaa6e31 -> %rsi 
  0x000055ccfba92387  48 8d 3d 95 4a 01 00 lea    <rel> 0x000055ccfbaa6e23 -> %rdi 
  0x000055ccfba9238e  e8 0d fc ff ff       call   $0x000055ccfba91fa0 %rsp -> %rsp 0xfffffff8(%rsp)[8byte] 
  0x000055ccfba91fa0  ff 25 9a bc 21 00    jmp    <rel> 0x000055ccfbcadc40[8byte] 
Actual: 7f8b30761560

Block 385:
  0x00007f8b30761560  41 57                push   %r15 %rsp -> %rsp 0xfffffff8(%rsp)[8byte] 
  0x00007f8b30761562  41 56                push   %r14 %rsp -> %rsp 0xfffffff8(%rsp)[8byte] 
  0x00007f8b30761564  41 55                push   %r13 %rsp -> %rsp 0xfffffff8(%rsp)[8byte] 
  0x00007f8b30761566  41 54                push   %r12 %rsp -> %rsp 0xfffffff8(%rsp)[8byte] 
  0x00007f8b30761568  55                   push   %rbp %rsp -> %rsp 0xfffffff8(%rsp)[8byte] 
  0x00007f8b30761569  53                   push   %rbx %rsp -> %rsp 0xfffffff8(%rsp)[8byte] 
  0x00007f8b3076156a  48 89 fd             mov    %rdi -> %rbp 
  0x00007f8b3076156d  48 83 ec 08          sub    $0x0000000000000008 %rsp -> %rsp 
  0x00007f8b30761571  48 85 ff             test   %rdi %rdi 
  0x00007f8b30761574  74 07                jz     $0x00007f8b3076157d 
Actual: 7f8b30761576

Block 386:
  0x00007f8b30761576  80 3f 00             cmp    (%rdi)[1byte] $0x00 
  0x00007f8b30761579  75 15                jnz    $0x00007f8b30761590 
Actual: 7f8b30761590

Block 387:
  0x00007f8b30761590  8b 15 5a 41 39 00    mov    <rel> 0x00007f8b30af56f0[4byte] -> %edx 
  0x00007f8b30761596  49 89 f4             mov    %rsi -> %r12 
  0x00007f8b30761599  85 d2                test   %edx %edx 
  0x00007f8b3076159b  0f 85 87 01 00 00    jnz    $0x00007f8b30761728 
Actual: 7f8b30761728

Block 388:
  0x00007f8b30761728  48 8b 05 59 3f 39 00 mov    <rel> 0x00007f8b30af5688[8byte] -> %rax 
  0x00007f8b3076172f  48 8d 3d 4a 03 39 00 lea    <rel> 0x00007f8b30af1a80 -> %rdi 
  0x00007f8b30761736  48 c1 c8 11          ror    $0x0000000000000011 %rax -> %rax 
  0x00007f8b3076173a  64 48 33 04 25 30 00 xor    %fs:0x30[8byte] %rax -> %rax 
                      00 00
  0x00007f8b30761743  ff d0                call   %rax %rsp -> %rsp 0xfffffff8(%rsp)[8byte] 
Actual: 7f8b31137040

Block 389:
  0x00007f8b30761745  e9 57 fe ff ff       jmp    $0x00007f8b307615a1 
  0x00007f8b307615a1  4c 8b 35 50 e9 38 00 mov    <rel> 0x00007f8b30aefef8[8byte] -> %r14 
  0x00007f8b307615a8  4d 8b 2e             mov    (%r14)[8byte] -> %r13 
  0x00007f8b307615ab  4d 85 ed             test   %r13 %r13 
  0x00007f8b307615ae  0f 84 bc 00 00 00    jz     $0x00007f8b30761670 
Actual: 7f8b30761670

Block 390:
  0x00007f8b30761670  4d 85 e4             test   %r12 %r12 
  0x00007f8b30761673  0f 84 d1 00 00 00    jz     $0x00007f8b3076174a 
Actual: 7f8b30761679

Block 391:
  0x00007f8b30761679  48 89 ef             mov    %rbp -> %rdi 
  0x00007f8b3076167c  e8 2f ab 05 00       call   $0x00007f8b307bc1b0 %rsp -> %rsp 0xfffffff8(%rsp)[8byte] 
  0x00007f8b307bc1b0  66 0f ef c0          pxor   %xmm0 %xmm0 -> %xmm0 
  0x00007f8b307bc1b4  66 0f ef c9          pxor   %xmm1 %xmm1 -> %xmm1 
  0x00007f8b307bc1b8  66 0f ef d2          pxor   %xmm2 %xmm2 -> %xmm2 
  0x00007f8b307bc1bc  66 0f ef db          pxor   %xmm3 %xmm3 -> %xmm3 
  0x00007f8b307bc1c0  48 89 f8             mov    %rdi -> %rax 
  0x00007f8b307bc1c3  48 89 f9             mov    %rdi -> %rcx 
  0x00007f8b307bc1c6  48 81 e1 ff 0f 00 00 and    $0x0000000000000fff %rcx -> %rcx 
  0x00007f8b307bc1cd  48 81 f9 cf 0f 00 00 cmp    %rcx $0x0000000000000fcf 
  0x00007f8b307bc1d4  77 6a                jnbe   $0x00007f8b307bc240 
Actual: 7f8b307bc1d6

Block 392:
  0x00007f8b30761681  48 8d 78 19          lea    0x19(%rax) -> %rdi 
  0x00007f8b30761685  49 89 c7             mov    %rax -> %r15 
  0x00007f8b30761688  e8 5b 22 ff ff       call   $0x00007f8b307538e8 %rsp -> %rsp 0xfffffff8(%rsp)[8byte] 
  0x00007f8b307538e8  ff 25 3a c5 39 00    jmp    <rel> 0x00007f8b30aefe28[8byte] 
Actual: 7f8b307b4f00

Block 393:
  0x00007f8b3076168d  48 85 c0             test   %rax %rax 
  0x00007f8b30761690  48 89 c3             mov    %rax -> %rbx 
  0x00007f8b30761693  0f 84 f1 00 00 00    jz     $0x00007f8b3076178a 
Actual: 7f8b30761699

Block 394:
  0x00007f8b30761699  49 8d 57 01          lea    0x01(%r15) -> %rdx 
  0x00007f8b3076169d  48 8d 78 18          lea    0x18(%rax) -> %rdi 
  0x00007f8b307616a1  48 89 ee             mov    %rbp -> %rsi 
  0x00007f8b307616a4  4c 8d 3d 75 01 16 00 lea    <rel> 0x00007f8b308c1820 -> %r15 
  0x00007f8b307616ab  e8 a0 39 06 00       call   $0x00007f8b307c5050 %rsp -> %rsp 0xfffffff8(%rsp)[8byte] 
  0x00007f8b307c5050  48 83 fa 20          cmp    %rdx $0x0000000000000020 
  0x00007f8b307c5054  48 89 f8             mov    %rdi -> %rax 
  0x00007f8b307c5057  73 77                jnb    $0x00007f8b307c50d0 
Actual: 7f8b307c5059

Block 395:
  0x00007f8b307c506e  0f b7 0e             movzx  (%rsi)[2byte] -> %ecx 
  0x00007f8b307c5071  66 89 0f             data16 mov    %cx -> (%rdi)[2byte] 
  0x00007f8b307c5074  48 83 c6 02          add    $0x0000000000000002 %rsi -> %rsi 
  0x00007f8b307c5078  48 83 c7 02          add    $0x0000000000000002 %rdi -> %rdi 
  0x00007f8b307c507c  0f 1f 40 00          nop    0x00(%rax)[4byte] 
  0x00007f8b307c5080  f6 c2 04             test   %dl $0x04 
  0x00007f8b307c5083  74 0c                jz     $0x00007f8b307c5091 
Actual: 7f8b307c5091

Block 396:
  0x00007f8b307616b0  48 8d 35 69 01 16 00 lea    <rel> 0x00007f8b308c1820 -> %rsi 
  0x00007f8b307616b7  4c 89 e7             mov    %r12 -> %rdi 
  0x00007f8b307616ba  e8 e1 90 05 00       call   $0x00007f8b307ba7a0 %rsp -> %rsp 0xfffffff8(%rsp)[8byte] 
  0x00007f8b307ba7a0  89 f1                mov    %esi -> %ecx 
  0x00007f8b307ba7a2  89 f8                mov    %edi -> %eax 
  0x00007f8b307ba7a4  48 83 e1 3f          and    $0x000000000000003f %rcx -> %rcx 
  0x00007f8b307ba7a8  48 83 e0 3f          and    $0x000000000000003f %rax -> %rax 
  0x00007f8b307ba7ac  83 f9 30             cmp    %ecx $0x00000030 
  0x00007f8b307ba7af  77 3f                jnbe   $0x00007f8b307ba7f0 
Actual: 7f8b307ba7b1

Block 397:
  0x00007f8b307bba50  66 0f ef c0          pxor   %xmm0 %xmm0 -> %xmm0 
  0x00007f8b307bba54  66 0f 6f 17          movdqa (%rdi)[16byte] -> %xmm2 
  0x00007f8b307bba58  66 0f 6f 0e          movdqa (%rsi)[16byte] -> %xmm1 
  0x00007f8b307bba5c  66 0f 74 c1          pcmpeqb %xmm1 %xmm0 -> %xmm0 
  0x00007f8b307bba60  66 0f 73 fa 01       pslldq $0x01 %xmm2 -> %xmm2 
  0x00007f8b307bba65  66 0f 74 d1          pcmpeqb %xmm1 %xmm2 -> %xmm2 
  0x00007f8b307bba69  66 0f f8 d0          psubb  %xmm0 %xmm2 -> %xmm2 
  0x00007f8b307bba6d  66 44 0f d7 ca       pmovmskb %xmm2 -> %r9d 
  0x00007f8b307bba72  d3 ea                shr    %cl %edx -> %edx 
  0x00007f8b307bba74  41 d3 e9             shr    %cl %r9d -> %r9d 
  0x00007f8b307bba77  44 29 ca             sub    %r9d %edx -> %edx 
  0x00007f8b307bba7a  0f 85 15 01 00 00    jnz    $0x00007f8b307bbb95 
Actual: 7f8b307bba80

Block 398:
  0x00007f8b307bba80  66 0f 6f 1f          movdqa (%rdi)[16byte] -> %xmm3 
  0x00007f8b307bba84  66 0f ef c0          pxor   %xmm0 %xmm0 -> %xmm0 
  0x00007f8b307bba88  48 c7 c1 10 00 00 00 mov    $0x0000000000000010 -> %rcx 
  0x00007f8b307bba8f  41 b9 0f 00 00 00    mov    $0x0000000f -> %r9d 
  0x00007f8b307bba95  4c 8d 57 0f          lea    0x0f(%rdi) -> %r10 
  0x00007f8b307bba99  49 81 e2 ff 0f 00 00 and    $0x0000000000000fff %r10 -> %r10 
  0x00007f8b307bbaa0  49 81 ea 00 10 00 00 sub    $0x0000000000001000 %r10 -> %r10 
  0x00007f8b307bbaa7  66 0f 1f 84 00 00 00 data16 nop    0x00000000(%rax,%rax,1)[4byte] 
                      00 00
  0x00007f8b307bbab0  49 83 c2 10          add    $0x0000000000000010 %r10 -> %r10 
  0x00007f8b307bbab4  0f 8f 96 00 00 00    jnle   $0x00007f8b307bbb50 
Actual: 7f8b307bbaba

Block 399:
  0x00007f8b307bbaba  66 0f 6f 0c 0e       movdqa (%rsi,%rcx,1)[16byte] -> %xmm1 
  0x00007f8b307bbabf  66 0f 6f 14 0f       movdqa (%rdi,%rcx,1)[16byte] -> %xmm2 
  0x00007f8b307bbac4  66 0f 6f e2          movdqa %xmm2 -> %xmm4 
  0x00007f8b307bbac8  66 0f 73 db 0f       psrldq $0x0f %xmm3 -> %xmm3 
  0x00007f8b307bbacd  66 0f 73 fa 01       pslldq $0x01 %xmm2 -> %xmm2 
  0x00007f8b307bbad2  66 0f eb d3          por    %xmm3 %xmm2 -> %xmm2 
  0x00007f8b307bbad6  66 0f 74 c1          pcmpeqb %xmm1 %xmm0 -> %xmm0 
  0x00007f8b307bbada  66 0f 74 ca          pcmpeqb %xmm2 %xmm1 -> %xmm1 
  0x00007f8b307bbade  66 0f f8 c8          psubb  %xmm0 %xmm1 -> %xmm1 
  0x00007f8b307bbae2  66 0f d7 d1          pmovmskb %xmm1 -> %edx 
  0x00007f8b307bbae6  81 ea ff ff 00 00    sub    $0x0000ffff %edx -> %edx 
  0x00007f8b307bbaec  0f 85 9e 00 00 00    jnz    $0x00007f8b307bbb90 
Actual: 7f8b307bbb90

Block 400:
  0x00007f8b307bbb90  49 8d 44 09 f0       lea    0xfffffff0(%r9,%rcx,1) -> %rax 
  0x00007f8b307bbb95  48 8d 3c 07          lea    (%rdi,%rax,1) -> %rdi 
  0x00007f8b307bbb99  48 8d 34 0e          lea    (%rsi,%rcx,1) -> %rsi 
  0x00007f8b307bbb9d  45 85 c0             test   %r8d %r8d 
  0x00007f8b307bbba0  74 0e                jz     $0x00007f8b307bbbb0 
Actual: 7f8b307bbba2

Block 401:
  0x00007f8b307616bf  85 c0                test   %eax %eax 
  0x00007f8b307616c1  0f 85 d8 00 00 00    jnz    $0x00007f8b3076179f 
Actual: 7f8b307616c7

Block 402:
  0x00007f8b307616c7  4d 85 ed             test   %r13 %r13 
  0x00007f8b307616ca  4c 89 7b 08          mov    %r15 -> 0x08(%rbx)[8byte] 
  0x00007f8b307616ce  48 c7 43 10 00 00 00 mov    $0x0000000000000000 -> 0x10(%rbx)[8byte] 
                      00
  0x00007f8b307616d6  0f 84 b5 00 00 00    jz     $0x00007f8b30761791 
Actual: 7f8b30761791

Block 403:
  0x00007f8b30761791  4c 89 2b             mov    %r13 -> (%rbx)[8byte] 
  0x00007f8b30761794  49 89 1e             mov    %rbx -> (%r14)[8byte] 
  0x00007f8b30761797  4c 89 fd             mov    %r15 -> %rbp 
  0x00007f8b3076179a  e9 94 fe ff ff       jmp    $0x00007f8b30761633 
  0x00007f8b30761633  48 8b 05 c6 e8 38 00 mov    <rel> 0x00007f8b30aeff00[8byte] -> %rax 
  0x00007f8b3076163a  83 00 01             add    $0x00000001 (%rax)[4byte] -> (%rax)[4byte] 
  0x00007f8b3076163d  8b 05 ad 40 39 00    mov    <rel> 0x00007f8b30af56f0[4byte] -> %eax 
  0x00007f8b30761643  85 c0                test   %eax %eax 
  0x00007f8b30761645  0f 84 32 ff ff ff    jz     $0x00007f8b3076157d 
Actual: 7f8b3076164b

Block 404:
  0x00007f8b3076164b  48 8b 05 3e 40 39 00 mov    <rel> 0x00007f8b30af5690[8byte] -> %rax 
  0x00007f8b30761652  48 8d 3d 27 04 39 00 lea    <rel> 0x00007f8b30af1a80 -> %rdi 
  0x00007f8b30761659  48 c1 c8 11          ror    $0x0000000000000011 %rax -> %rax 
  0x00007f8b3076165d  64 48 33 04 25 30 00 xor    %fs:0x30[8byte] %rax -> %rax 
                      00 00
  0x00007f8b30761666  ff d0                call   %rax %rsp -> %rsp 0xfffffff8(%rsp)[8byte] 
Actual: 7f8b31137730

Block 405:
  0x00007f8b30761668  e9 10 ff ff ff       jmp    $0x00007f8b3076157d 
  0x00007f8b3076157d  48 83 c4 08          add    $0x0000000000000008 %rsp -> %rsp 
  0x00007f8b30761581  48 89 e8             mov    %rbp -> %rax 
  0x00007f8b30761584  5b                   pop    %rsp (%rsp)[8byte] -> %rbx %rsp 
  0x00007f8b30761585  5d                   pop    %rsp (%rsp)[8byte] -> %rbp %rsp 
  0x00007f8b30761586  41 5c                pop    %rsp (%rsp)[8byte] -> %r12 %rsp 
  0x00007f8b30761588  41 5d                pop    %rsp (%rsp)[8byte] -> %r13 %rsp 
  0x00007f8b3076158a  41 5e                pop    %rsp (%rsp)[8byte] -> %r14 %rsp 
  0x00007f8b3076158c  41 5f                pop    %rsp (%rsp)[8byte] -> %r15 %rsp 
  0x00007f8b3076158e  c3                   ret    %rsp (%rsp)[8byte] -> %rsp 
Actual: 55ccfba92393

Block 406:
  0x000055ccfba92393  48 8d 3d 89 4a 01 00 lea    <rel> 0x000055ccfbaa6e23 -> %rdi 
  0x000055ccfba9239a  e8 d9 fb ff ff       call   $0x000055ccfba91f78 %rsp -> %rsp 0xfffffff8(%rsp)[8byte] 
  0x000055ccfba91f78  ff 25 92 bc 21 00    jmp    <rel> 0x000055ccfbcadc10[8byte] 
Actual: 7f8b307659c0

Block 407:
  0x00007f8b307659c0  55                   push   %rbp %rsp -> %rsp 0xfffffff8(%rsp)[8byte] 
  0x00007f8b307659c1  53                   push   %rbx %rsp -> %rsp 0xfffffff8(%rsp)[8byte] 
  0x00007f8b307659c2  48 83 ec 08          sub    $0x0000000000000008 %rsp -> %rsp 
  0x00007f8b307659c6  48 85 ff             test   %rdi %rdi 
  0x00007f8b307659c9  48 8b 1d 00 ac 38 00 mov    <rel> 0x00007f8b30af05d0[8byte] -> %rbx 
  0x00007f8b307659d0  74 71                jz     $0x00007f8b30765a43 
Actual: 7f8b307659d2

Block 408:
  0x00007f8b307659d2  8b 15 18 fd 38 00    mov    <rel> 0x00007f8b30af56f0[4byte] -> %edx 
  0x00007f8b307659d8  48 89 fb             mov    %rdi -> %rbx 
  0x00007f8b307659db  85 d2                test   %edx %edx 
  0x00007f8b307659dd  0f 85 a5 00 00 00    jnz    $0x00007f8b30765a88 
Actual: 7f8b30765a88

Block 409:
  0x00007f8b30765a88  48 8b 05 f9 fb 38 00 mov    <rel> 0x00007f8b30af5688[8byte] -> %rax 
  0x00007f8b30765a8f  48 8d 3d ea bf 38 00 lea    <rel> 0x00007f8b30af1a80 -> %rdi 
  0x00007f8b30765a96  48 c1 c8 11          ror    $0x0000000000000011 %rax -> %rax 
  0x00007f8b30765a9a  64 48 33 04 25 30 00 xor    %fs:0x30[8byte] %rax -> %rax 
                      00 00
  0x00007f8b30765aa3  ff d0                call   %rax %rsp -> %rsp 0xfffffff8(%rsp)[8byte] 
Actual: 7f8b31137040

Block 410:
  0x00007f8b30765aa5  e9 39 ff ff ff       jmp    $0x00007f8b307659e3 
  0x00007f8b307659e3  80 3b 00             cmp    (%rbx)[1byte] $0x00 
  0x00007f8b307659e6  48 8b 2d e3 ab 38 00 mov    <rel> 0x00007f8b30af05d0[8byte] -> %rbp 
  0x00007f8b307659ed  75 61                jnz    $0x00007f8b30765a50 
Actual: 7f8b30765a50

Block 411:
  0x00007f8b30765a50  48 8d 35 49 9f 15 00 lea    <rel> 0x00007f8b308bf9a0 -> %rsi 
  0x00007f8b30765a57  48 89 df             mov    %rbx -> %rdi 
  0x00007f8b30765a5a  e8 41 4d 05 00       call   $0x00007f8b307ba7a0 %rsp -> %rsp 0xfffffff8(%rsp)[8byte] 
  0x00007f8b307ba7a0  89 f1                mov    %esi -> %ecx 
  0x00007f8b307ba7a2  89 f8                mov    %edi -> %eax 
  0x00007f8b307ba7a4  48 83 e1 3f          and    $0x000000000000003f %rcx -> %rcx 
  0x00007f8b307ba7a8  48 83 e0 3f          and    $0x000000000000003f %rax -> %rax 
  0x00007f8b307ba7ac  83 f9 30             cmp    %ecx $0x00000030 
  0x00007f8b307ba7af  77 3f                jnbe   $0x00007f8b307ba7f0 
Actual: 7f8b307ba7b1

Block 412:
  0x00007f8b30765a5f  85 c0                test   %eax %eax 
  0x00007f8b30765a61  74 8c                jz     $0x00007f8b307659ef 
Actual: 7f8b30765a63

Block 413:
  0x00007f8b30765a63  48 89 ee             mov    %rbp -> %rsi 
  0x00007f8b30765a66  48 89 df             mov    %rbx -> %rdi 
  0x00007f8b30765a69  e8 32 4d 05 00       call   $0x00007f8b307ba7a0 %rsp -> %rsp 0xfffffff8(%rsp)[8byte] 
  0x00007f8b307ba7a0  89 f1                mov    %esi -> %ecx 
  0x00007f8b307ba7a2  89 f8                mov    %edi -> %eax 
  0x00007f8b307ba7a4  48 83 e1 3f          and    $0x000000000000003f %rcx -> %rcx 
  0x00007f8b307ba7a8  48 83 e0 3f          and    $0x000000000000003f %rax -> %rax 
  0x00007f8b307ba7ac  83 f9 30             cmp    %ecx $0x00000030 
  0x00007f8b307ba7af  77 3f                jnbe   $0x00007f8b307ba7f0 
Actual: 7f8b307ba7b1

Block 414:
  0x00007f8b30765a6e  85 c0                test   %eax %eax 
  0x00007f8b30765a70  75 3e                jnz    $0x00007f8b30765ab0 
Actual: 7f8b30765ab0

Block 415:
  0x00007f8b30765ab0  48 89 df             mov    %rbx -> %rdi 
  0x00007f8b30765ab3  e8 48 64 05 00       call   $0x00007f8b307bbf00 %rsp -> %rsp 0xfffffff8(%rsp)[8byte] 
  0x00007f8b307bbf00  55                   push   %rbp %rsp -> %rsp 0xfffffff8(%rsp)[8byte] 
  0x00007f8b307bbf01  53                   push   %rbx %rsp -> %rsp 0xfffffff8(%rsp)[8byte] 
  0x00007f8b307bbf02  48 89 fd             mov    %rdi -> %rbp 
  0x00007f8b307bbf05  48 83 ec 08          sub    $0x0000000000000008 %rsp -> %rsp 
  0x00007f8b307bbf09  e8 a2 02 00 00       call   $0x00007f8b307bc1b0 %rsp -> %rsp 0xfffffff8(%rsp)[8byte] 
  0x00007f8b307bc1b0  66 0f ef c0          pxor   %xmm0 %xmm0 -> %xmm0 
  0x00007f8b307bc1b4  66 0f ef c9          pxor   %xmm1 %xmm1 -> %xmm1 
  0x00007f8b307bc1b8  66 0f ef d2          pxor   %xmm2 %xmm2 -> %xmm2 
  0x00007f8b307bc1bc  66 0f ef db          pxor   %xmm3 %xmm3 -> %xmm3 
  0x00007f8b307bc1c0  48 89 f8             mov    %rdi -> %rax 
  0x00007f8b307bc1c3  48 89 f9             mov    %rdi -> %rcx 
  0x00007f8b307bc1c6  48 81 e1 ff 0f 00 00 and    $0x0000000000000fff %rcx -> %rcx 
  0x00007f8b307bc1cd  48 81 f9 cf 0f 00 00 cmp    %rcx $0x0000000000000fcf 
  0x00007f8b307bc1d4  77 6a                jnbe   $0x00007f8b307bc240 
Actual: 7f8b307bc1d6

Block 416:
  0x00007f8b30765ab8  48 85 c0             test   %rax %rax 
  0x00007f8b30765abb  48 89 c3             mov    %rax -> %rbx 
  0x00007f8b30765abe  0f 84 58 ff ff ff    jz     $0x00007f8b30765a1c 
Actual: 7f8b30765ac4

Block 417:
  0x00007f8b30765ac4  48 89 05 05 ab 38 00 mov    %rax -> <rel> 0x00007f8b30af05d0[8byte] 
  0x00007f8b30765acb  48 8d 05 ce 9e 15 00 lea    <rel> 0x00007f8b308bf9a0 -> %rax 
  0x00007f8b30765ad2  e9 29 ff ff ff       jmp    $0x00007f8b30765a00 
  0x00007f8b30765a00  48 8b 15 f9 a4 38 00 mov    <rel> 0x00007f8b30aeff00[8byte] -> %rdx 
  0x00007f8b30765a07  83 02 01             add    $0x00000001 (%rdx)[4byte] -> (%rdx)[4byte] 
  0x00007f8b30765a0a  48 39 c5             cmp    %rbp %rax 
  0x00007f8b30765a0d  74 0d                jz     $0x00007f8b30765a1c 
Actual: 7f8b30765a1c

Block 418:
  0x00007f8b30765a1c  8b 05 ce fc 38 00    mov    <rel> 0x00007f8b30af56f0[4byte] -> %eax 
  0x00007f8b30765a22  85 c0                test   %eax %eax 
  0x00007f8b30765a24  74 1d                jz     $0x00007f8b30765a43 
Actual: 7f8b30765a26

Block 419:
  0x00007f8b30765a26  48 8b 05 63 fc 38 00 mov    <rel> 0x00007f8b30af5690[8byte] -> %rax 
  0x00007f8b30765a2d  48 8d 3d 4c c0 38 00 lea    <rel> 0x00007f8b30af1a80 -> %rdi 
  0x00007f8b30765a34  48 c1 c8 11          ror    $0x0000000000000011 %rax -> %rax 
  0x00007f8b30765a38  64 48 33 04 25 30 00 xor    %fs:0x30[8byte] %rax -> %rax 
                      00 00
  0x00007f8b30765a41  ff d0                call   %rax %rsp -> %rsp 0xfffffff8(%rsp)[8byte] 
Actual: 7f8b31137730

Block 420:
  0x00007f8b30765a43  48 83 c4 08          add    $0x0000000000000008 %rsp -> %rsp 
  0x00007f8b30765a47  48 89 d8             mov    %rbx -> %rax 
  0x00007f8b30765a4a  5b                   pop    %rsp (%rsp)[8byte] -> %rbx %rsp 
  0x00007f8b30765a4b  5d                   pop    %rsp (%rsp)[8byte] -> %rbp %rsp 
  0x00007f8b30765a4c  c3                   ret    %rsp (%rsp)[8byte] -> %rsp 
Actual: 55ccfba9239f

Block 421:
  0x000055ccfba9239f  48 8d 3d ca 8a 00 00 lea    <rel> 0x000055ccfba9ae70 -> %rdi 
  0x000055ccfba923a6  e8 95 49 01 00       call   $0x000055ccfbaa6d40 %rsp -> %rsp 0xfffffff8(%rsp)[8byte] 
  0x000055ccfbaa6d40  48 8d 05 19 69 20 00 lea    <rel> 0x000055ccfbcad660 -> %rax 
  0x000055ccfbaa6d47  48 85 c0             test   %rax %rax 
  0x000055ccfbaa6d4a  74 14                jz     $0x000055ccfbaa6d60 
Actual: 55ccfbaa6d4c

Block 422:
  0x000055ccfbaa6d4c  48 8b 10             mov    (%rax)[8byte] -> %rdx 
  0x000055ccfbaa6d4f  31 f6                xor    %esi %esi -> %esi 
  0x000055ccfbaa6d51  e9 52 b5 fe ff       jmp    $0x000055ccfba922a8 
  0x000055ccfba922a8  ff 25 b2 bc 21 00    jmp    <rel> 0x000055ccfbcadf60[8byte] 
Actual: 7f8b3076d450

Block 423:
  0x00007f8b3076d450  41 54                push   %r12 %rsp -> %rsp 0xfffffff8(%rsp)[8byte] 
  0x00007f8b3076d452  55                   push   %rbp %rsp -> %rsp 0xfffffff8(%rsp)[8byte] 
  0x00007f8b3076d453  49 89 f4             mov    %rsi -> %r12 
  0x00007f8b3076d456  53                   push   %rbx %rsp -> %rsp 0xfffffff8(%rsp)[8byte] 
  0x00007f8b3076d457  48 89 fb             mov    %rdi -> %rbx 
  0x00007f8b3076d45a  48 8d 3d 77 31 38 00 lea    <rel> 0x00007f8b30af05d8 -> %rdi 
  0x00007f8b3076d461  48 89 d5             mov    %rdx -> %rbp 
  0x00007f8b3076d464  e8 27 fe ff ff       call   $0x00007f8b3076d290 %rsp -> %rsp 0xfffffff8(%rsp)[8byte] 
  0x00007f8b3076d290  55                   push   %rbp %rsp -> %rsp 0xfffffff8(%rsp)[8byte] 
  0x00007f8b3076d291  53                   push   %rbx %rsp -> %rsp 0xfffffff8(%rsp)[8byte] 
  0x00007f8b3076d292  49 89 f8             mov    %rdi -> %r8 
  0x00007f8b3076d295  be 01 00 00 00       mov    $0x00000001 -> %esi 
  0x00007f8b3076d29a  31 c0                xor    %eax %eax -> %eax 
  0x00007f8b3076d29c  48 83 ec 08          sub    $0x0000000000000008 %rsp -> %rsp 
  0x00007f8b3076d2a0  83 3d 59 84 38 00 00 cmp    <rel> 0x00007f8b30af5700[4byte] $0x00000000 
  0x00007f8b3076d2a7  74 0c                jz     $0x00007f8b3076d2b5 
Actual: 7f8b3076d2b5

Block 424:
  0x00007f8b3076d2f9  48 8d 51 ff          lea    0xffffffff(%rcx) -> %rdx 
  0x00007f8b3076d2fd  48 89 d6             mov    %rdx -> %rsi 
  0x00007f8b3076d300  48 c1 e6 05          shl    $0x0000000000000005 %rsi -> %rsi 
  0x00007f8b3076d304  48 83 7c 30 10 00    cmp    0x10(%rax,%rsi,1)[8byte] $0x0000000000000000 
  0x00007f8b3076d30a  75 43                jnz    $0x00007f8b3076d34f 
Actual: 7f8b3076d34f

Block 425:
  0x00007f8b3076d34f  48 89 ca             mov    %rcx -> %rdx 
  0x00007f8b3076d352  66 0f 1f 44 00 00    data16 nop    0x00(%rax,%rax,1)[4byte] 
  0x00007f8b3076d358  48 83 fa 20          cmp    %rdx $0x0000000000000020 
  0x00007f8b3076d35c  74 63                jz     $0x00007f8b3076d3c1 
Actual: 7f8b3076d35e

Block 426:
  0x00007f8b3076d35e  48 89 d1             mov    %rdx -> %rcx 
  0x00007f8b3076d361  48 83 c2 01          add    $0x0000000000000001 %rdx -> %rdx 
  0x00007f8b3076d365  48 c1 e1 05          shl    $0x0000000000000005 %rcx -> %rcx 
  0x00007f8b3076d369  48 89 50 08          mov    %rdx -> 0x08(%rax)[8byte] 
  0x00007f8b3076d36d  48 8d 74 08 10       lea    0x10(%rax,%rcx,1) -> %rsi 
  0x00007f8b3076d372  48 c7 06 01 00 00 00 mov    $0x0000000000000001 -> (%rsi)[8byte] 
  0x00007f8b3076d379  48 83 05 7f 80 38 00 add    $0x0000000000000001 <rel> 0x00007f8b30af5400[8byte] -> <rel> 0x00007f8b30af5400[8byte] 
                      01
  0x00007f8b3076d381  83 3d 78 83 38 00 00 cmp    <rel> 0x00007f8b30af5700[4byte] $0x00000000 
  0x00007f8b3076d388  74 0b                jz     $0x00007f8b3076d395 
Actual: 7f8b3076d395

Block 427:
  0x000055ccfba923ab  e8 20 fb ff ff       call   $0x000055ccfba91ed0 %rsp -> %rsp 0xfffffff8(%rsp)[8byte] 
  0x000055ccfba91ed0  ff 25 7a bc 21 00    jmp    <rel> 0x000055ccfbcadb50[8byte] 
Actual: 7f8b30f201e0

Block 428:
  0x000055ccfba923b0  4c 89 e7             mov    %r12 -> %rdi 
  0x000055ccfba923b3  41 89 c5             mov    %eax -> %r13d 
  0x000055ccfba923b6  e8 05 2e 00 00       call   $0x000055ccfba951c0 %rsp -> %rsp 0xfffffff8(%rsp)[8byte] 
  0x000055ccfba951c0  53                   push   %rbx %rsp -> %rsp 0xfffffff8(%rsp)[8byte] 
  0x000055ccfba951c1  48 89 fb             mov    %rdi -> %rbx 
  0x000055ccfba951c4  48 c7 07 00 00 00 00 mov    $0x0000000000000000 -> (%rdi)[8byte] 
  0x000055ccfba951cb  48 c7 47 40 00 00 00 mov    $0x0000000000000000 -> 0x40(%rdi)[8byte] 
                      00
  0x000055ccfba951d3  48 8d 7f 08          lea    0x08(%rdi) -> %rdi 
  0x000055ccfba951d7  48 89 d9             mov    %rbx -> %rcx 
  0x000055ccfba951da  31 c0                xor    %eax %eax -> %eax 
  0x000055ccfba951dc  48 83 e7 f8          and    $0xfffffffffffffff8 %rdi -> %rdi 
  0x000055ccfba951e0  48 29 f9             sub    %rdi %rcx -> %rcx 
  0x000055ccfba951e3  83 c1 48             add    $0x00000048 %ecx -> %ecx 
  0x000055ccfba951e6  c1 e9 03             shr    $0x00000003 %ecx -> %ecx 
  0x000055ccfba951e9  f3 48 ab             rep stos %rax %rdi %rcx -> %es:(%rdi)[8byte] %rdi %rcx 
  0x000055ccfba951ec  e8 6f ce ff ff       call   $0x000055ccfba92060 %rsp -> %rsp 0xfffffff8(%rsp)[8byte] 
  0x000055ccfba92060  ff 25 9a bc 21 00    jmp    <rel> 0x000055ccfbcadd00[8byte] 
Actual: 7f8b307fd700

Block 429:
  0x00007f8b307fd700  b8 6b 00 00 00       mov    $0x0000006b -> %eax 
  0x00007f8b307fd705  0f 05                syscall -> %rcx 
  0x00007f8b307fd707  c3                   ret    %rsp (%rsp)[8byte] -> %rsp 
Actual: 55ccfba951f1

Block 430:
  0x000055ccfba951f1  85 c0                test   %eax %eax 
  0x000055ccfba951f3  0f 94 c0             setz   -> %al 
  0x000055ccfba951f6  88 43 1a             mov    %al -> 0x1a(%rbx)[1byte] 
  0x000055ccfba951f9  88 43 19             mov    %al -> 0x19(%rbx)[1byte] 
  0x000055ccfba951fc  5b                   pop    %rsp (%rsp)[8byte] -> %rbx %rsp 
  0x000055ccfba951fd  c3                   ret    %rsp (%rsp)[8byte] -> %rsp 
Actual: 55ccfba923bb

Block 431:
  0x000055ccfba923bb  45 85 ed             test   %r13d %r13d 
  0x000055ccfba923be  c6 44 24 44 00       mov    $0x00 -> 0x44(%rsp)[1byte] 
  0x000055ccfba923c3  c7 44 24 60 01 00 00 mov    $0x00000001 -> 0x60(%rsp)[4byte] 
                      00
  0x000055ccfba923cb  0f 9f 44 24 54       setnle -> 0x54(%rsp)[1byte] 
  0x000055ccfba923d0  31 ff                xor    %edi %edi -> %edi 
  0x000055ccfba923d2  c7 44 24 34 02 00 00 mov    $0x00000002 -> 0x34(%rsp)[4byte] 
                      00
  0x000055ccfba923da  c6 44 24 45 00       mov    $0x00 -> 0x45(%rsp)[1byte] 
  0x000055ccfba923df  c6 44 24 46 00       mov    $0x00 -> 0x46(%rsp)[1byte] 
  0x000055ccfba923e4  c6 44 24 47 00       mov    $0x00 -> 0x47(%rsp)[1byte] 
  0x000055ccfba923e9  c7 44 24 38 04 00 00 mov    $0x00000004 -> 0x38(%rsp)[4byte] 
                      00
  0x000055ccfba923f1  c6 44 24 48 01       mov    $0x01 -> 0x48(%rsp)[1byte] 
  0x000055ccfba923f6  c6 44 24 4b 00       mov    $0x00 -> 0x4b(%rsp)[1byte] 
  0x000055ccfba923fb  c6 44 24 4c 01       mov    $0x01 -> 0x4c(%rsp)[1byte] 
  0x000055ccfba92400  c6 44 24 51 01       mov    $0x01 -> 0x51(%rsp)[1byte] 
  0x000055ccfba92405  c6 44 24 4d 01       mov    $0x01 -> 0x4d(%rsp)[1byte] 
  0x000055ccfba9240a  c6 44 24 4e 01       mov    $0x01 -> 0x4e(%rsp)[1byte] 
  0x000055ccfba9240f  c6 44 24 4f 00       mov    $0x00 -> 0x4f(%rsp)[1byte] 
  0x000055ccfba92414  c6 44 24 50 00       mov    $0x00 -> 0x50(%rsp)[1byte] 
  0x000055ccfba92419  c6 44 24 58 00       mov    $0x00 -> 0x58(%rsp)[1byte] 
  0x000055ccfba9241e  c6 44 24 52 01       mov    $0x01 -> 0x52(%rsp)[1byte] 
  0x000055ccfba92423  c6 44 24 53 00       mov    $0x00 -> 0x53(%rsp)[1byte] 
  0x000055ccfba92428  c6 44 24 55 00       mov    $0x00 -> 0x55(%rsp)[1byte] 
  0x000055ccfba9242d  c6 44 24 56 01       mov    $0x01 -> 0x56(%rsp)[1byte] 
  0x000055ccfba92432  c6 44 24 57 00       mov    $0x00 -> 0x57(%rsp)[1byte] 
  0x000055ccfba92437  c6 44 24 59 01       mov    $0x01 -> 0x59(%rsp)[1byte] 
  0x000055ccfba9243c  c7 44 24 3c 02 00 00 mov    $0x00000002 -> 0x3c(%rsp)[4byte] 
                      00
  0x000055ccfba92444  c6 44 24 5b 00       mov    $0x00 -> 0x5b(%rsp)[1byte] 
  0x000055ccfba92449  c6 44 24 5a 00       mov    $0x00 -> 0x5a(%rsp)[1byte] 
  0x000055ccfba9244e  c7 44 24 40 00 00 00 mov    $0x00000000 -> 0x40(%rsp)[4byte] 
                      00
  0x000055ccfba92456  e8 ed fa ff ff       call   $0x000055ccfba91f48 %rsp -> %rsp 0xfffffff8(%rsp)[8byte] 
  0x000055ccfba91f48  ff 25 8a bc 21 00    jmp    <rel> 0x000055ccfbcadbd8[8byte] 
Actual: 7f8b30828640

Block 432:
  0x00007f8b30828640  48 83 ec 48          sub    $0x0000000000000048 %rsp -> %rsp 
  0x00007f8b30828644  48 89 e6             mov    %rsp -> %rsi 
  0x00007f8b30828647  e8 b4 3b 00 00       call   $0x00007f8b3082c200 %rsp -> %rsp 0xfffffff8(%rsp)[8byte] 
  0x00007f8b3082c200  53                   push   %rbx %rsp -> %rsp 0xfffffff8(%rsp)[8byte] 
  0x00007f8b3082c201  49 89 f0             mov    %rsi -> %r8 
  0x00007f8b3082c204  48 63 ff             movsxd %edi -> %rdi 
  0x00007f8b3082c207  be 01 54 00 00       mov    $0x00005401 -> %esi 
  0x00007f8b3082c20c  b8 10 00 00 00       mov    $0x00000010 -> %eax 
  0x00007f8b3082c211  48 83 ec 30          sub    $0x0000000000000030 %rsp -> %rsp 
  0x00007f8b3082c215  48 89 e2             mov    %rsp -> %rdx 
  0x00007f8b3082c218  0f 05                syscall -> %rcx 
  0x00007f8b3082c21a  48 3d 00 f0 ff ff    cmp    %rax $0xfffffffffffff000 
  0x00007f8b3082c220  77 5e                jnbe   $0x00007f8b3082c280 
Actual: 7f8b3082c222

Block 433:
  0x00007f8b3082c222  85 c0                test   %eax %eax 
  0x00007f8b3082c224  89 c3                mov    %eax -> %ebx 
  0x00007f8b3082c226  75 4b                jnz    $0x00007f8b3082c273 
Actual: 7f8b3082c228

Block 434:
  0x00007f8b3082c228  0f b6 44 24 10       movzx  0x10(%rsp)[1byte] -> %eax 
  0x00007f8b3082c22d  4c 89 c7             mov    %r8 -> %rdi 
  0x00007f8b3082c230  48 8d 74 24 11       lea    0x11(%rsp) -> %rsi 
  0x00007f8b3082c235  66 0f 6f 04 24       movdqa (%rsp)[16byte] -> %xmm0 
  0x00007f8b3082c23a  48 83 c7 11          add    $0x0000000000000011 %rdi -> %rdi 
  0x00007f8b3082c23e  ba 13 00 00 00       mov    $0x00000013 -> %edx 
  0x00007f8b3082c243  41 0f 11 00          movups %xmm0 -> (%r8)[16byte] 
  0x00007f8b3082c247  41 88 40 10          mov    %al -> 0x10(%r8)[1byte] 
  0x00007f8b3082c24b  8b 44 24 08          mov    0x08(%rsp)[4byte] -> %eax 
  0x00007f8b3082c24f  25 0f 10 00 00       and    $0x0000100f %eax -> %eax 
  0x00007f8b3082c254  41 89 40 34          mov    %eax -> 0x34(%r8)[4byte] 
  0x00007f8b3082c258  41 89 40 38          mov    %eax -> 0x38(%r8)[4byte] 
  0x00007f8b3082c25c  e8 2f 3d f9 ff       call   $0x00007f8b307bff90 %rsp -> %rsp 0xfffffff8(%rsp)[8byte] 
  0x00007f8b307bff90  48 83 fa 20          cmp    %rdx $0x0000000000000020 
  0x00007f8b307bff94  73 7a                jnb    $0x00007f8b307c0010 
Actual: 7f8b307bff96

Block 435:
  0x00007f8b307bff9b  0f b6 0e             movzx  (%rsi)[1byte] -> %ecx 
  0x00007f8b307bff9e  88 0f                mov    %cl -> (%rdi)[1byte] 
  0x00007f8b307bffa0  48 ff c6             inc    %rsi -> %rsi 
  0x00007f8b307bffa3  48 ff c7             inc    %rdi -> %rdi 
  0x00007f8b307bffa6  f6 c2 02             test   %dl $0x02 
  0x00007f8b307bffa9  74 0e                jz     $0x00007f8b307bffb9 
Actual: 7f8b307bffab

Block 436:
  0x00007f8b307bffca  f6 c2 08             test   %dl $0x08 
  0x00007f8b307bffcd  74 11                jz     $0x00007f8b307bffe0 
Actual: 7f8b307bffe0

Block 437:
  0x00007f8b307bffe8  0f 1f 84 00 00 00 00 nop    0x00000000(%rax,%rax,1)[4byte] 
                      00
  0x00007f8b307bfff0  48 8b 0e             mov    (%rsi)[8byte] -> %rcx 
  0x00007f8b307bfff3  4c 8b 46 08          mov    0x08(%rsi)[8byte] -> %r8 
  0x00007f8b307bfff7  48 89 0f             mov    %rcx -> (%rdi)[8byte] 
  0x00007f8b307bfffa  4c 89 47 08          mov    %r8 -> 0x08(%rdi)[8byte] 
  0x00007f8b307bfffe  83 ea 10             sub    $0x00000010 %edx -> %edx 
  0x00007f8b307c0001  48 8d 76 10          lea    0x10(%rsi) -> %rsi 
  0x00007f8b307c0005  48 8d 7f 10          lea    0x10(%rdi) -> %rdi 
  0x00007f8b307c0009  75 e5                jnz    $0x00007f8b307bfff0 
Actual: 7f8b307c000b

Block 438:
  0x00007f8b3082c261  48 c7 00 00 00 00 00 mov    $0x0000000000000000 -> (%rax)[8byte] 
  0x00007f8b3082c268  c7 40 08 00 00 00 00 mov    $0x00000000 -> 0x08(%rax)[4byte] 
  0x00007f8b3082c26f  c6 40 0c 00          mov    $0x00 -> 0x0c(%rax)[1byte] 
  0x00007f8b3082c273  48 83 c4 30          add    $0x0000000000000030 %rsp -> %rsp 
  0x00007f8b3082c277  89 d8                mov    %ebx -> %eax 
  0x00007f8b3082c279  5b                   pop    %rsp (%rsp)[8byte] -> %rbx %rsp 
  0x00007f8b3082c27a  c3                   ret    %rsp (%rsp)[8byte] -> %rsp 
Actual: 7f8b3082864c

Block 439:
  0x00007f8b3082864c  85 c0                test   %eax %eax 
  0x00007f8b3082864e  0f 94 c0             setz   -> %al 
  0x00007f8b30828651  48 83 c4 48          add    $0x0000000000000048 %rsp -> %rsp 
  0x00007f8b30828655  0f b6 c0             movzx  %al -> %eax 
  0x00007f8b30828658  c3                   ret    %rsp (%rsp)[8byte] -> %rsp 
Actual: 55ccfba9245b

Block 440:
  0x000055ccfba9245b  48 8d 3d e1 49 01 00 lea    <rel> 0x000055ccfbaa6e43 -> %rdi 
  0x000055ccfba92462  85 c0                test   %eax %eax 
  0x000055ccfba92464  c6 44 24 5f 00       mov    $0x00 -> 0x5f(%rsp)[1byte] 
  0x000055ccfba92469  0f 95 44 24 5e       setnz  -> 0x5e(%rsp)[1byte] 
  0x000055ccfba9246e  c6 44 24 5c 00       mov    $0x00 -> 0x5c(%rsp)[1byte] 
  0x000055ccfba92473  45 31 ed             xor    %r13d %r13d -> %r13d 
  0x000055ccfba92476  c6 44 24 5d 00       mov    $0x00 -> 0x5d(%rsp)[1byte] 
  0x000055ccfba9247b  48 c7 44 24 68 00 00 mov    $0x0000000000000000 -> 0x68(%rsp)[8byte] 
                      00 00
  0x000055ccfba92484  45 31 ff             xor    %r15d %r15d -> %r15d 
  0x000055ccfba92487  48 c7 44 24 70 00 00 mov    $0x0000000000000000 -> 0x70(%rsp)[8byte] 
                      00 00
  0x000055ccfba92490  45 31 f6             xor    %r14d %r14d -> %r14d 
  0x000055ccfba92493  e8 10 fa ff ff       call   $0x000055ccfba91ea8 %rsp -> %rsp 0xfffffff8(%rsp)[8byte] 
  0x000055ccfba91ea8  ff 25 7a bc 21 00    jmp    <rel> 0x000055ccfbcadb28[8byte] 
Actual: 7f8b3076c970

Block 441:
  0x00007f8b3076c970  41 57                push   %r15 %rsp -> %rsp 0xfffffff8(%rsp)[8byte] 
  0x00007f8b3076c972  41 56                push   %r14 %rsp -> %rsp 0xfffffff8(%rsp)[8byte] 
  0x00007f8b3076c974  49 89 ff             mov    %rdi -> %r15 
  0x00007f8b3076c977  41 55                push   %r13 %rsp -> %rsp 0xfffffff8(%rsp)[8byte] 
  0x00007f8b3076c979  41 54                push   %r12 %rsp -> %rsp 0xfffffff8(%rsp)[8byte] 
  0x00007f8b3076c97b  55                   push   %rbp %rsp -> %rsp 0xfffffff8(%rsp)[8byte] 
  0x00007f8b3076c97c  53                   push   %rbx %rsp -> %rsp 0xfffffff8(%rsp)[8byte] 
  0x00007f8b3076c97d  48 83 ec 08          sub    $0x0000000000000008 %rsp -> %rsp 
  0x00007f8b3076c981  e8 2a f8 04 00       call   $0x00007f8b307bc1b0 %rsp -> %rsp 0xfffffff8(%rsp)[8byte] 
  0x00007f8b307bc1b0  66 0f ef c0          pxor   %xmm0 %xmm0 -> %xmm0 
  0x00007f8b307bc1b4  66 0f ef c9          pxor   %xmm1 %xmm1 -> %xmm1 
  0x00007f8b307bc1b8  66 0f ef d2          pxor   %xmm2 %xmm2 -> %xmm2 
  0x00007f8b307bc1bc  66 0f ef db          pxor   %xmm3 %xmm3 -> %xmm3 
  0x00007f8b307bc1c0  48 89 f8             mov    %rdi -> %rax 
  0x00007f8b307bc1c3  48 89 f9             mov    %rdi -> %rcx 
  0x00007f8b307bc1c6  48 81 e1 ff 0f 00 00 and    $0x0000000000000fff %rcx -> %rcx 
  0x00007f8b307bc1cd  48 81 f9 cf 0f 00 00 cmp    %rcx $0x0000000000000fcf 
  0x00007f8b307bc1d4  77 6a                jnbe   $0x00007f8b307bc240 
Actual: 7f8b307bc1d6

Block 442:
  0x000055ccfba92498  48 89 04 24          mov    %rax -> (%rsp)[8byte] 
  0x000055ccfba9249c  48 8d 84 24 80 00 00 lea    0x00000080(%rsp) -> %rax 
                      00
  0x000055ccfba924a4  c6 44 24 08 00       mov    $0x00 -> 0x08(%rsp)[1byte] 
  0x000055ccfba924a9  48 89 44 24 18       mov    %rax -> 0x18(%rsp)[8byte] 
  0x000055ccfba924ae  48 8d 0d cb b1 21 00 lea    <rel> 0x000055ccfbcad680 -> %rcx 
  0x000055ccfba924b5  48 8d 15 f6 49 01 00 lea    <rel> 0x000055ccfbaa6eb2 -> %rdx 
  0x000055ccfba924bc  45 31 c0             xor    %r8d %r8d -> %r8d 
  0x000055ccfba924bf  48 89 de             mov    %rbx -> %rsi 
  0x000055ccfba924c2  89 ef                mov    %ebp -> %edi 
  0x000055ccfba924c4  e8 2f fb ff ff       call   $0x000055ccfba91ff8 %rsp -> %rsp 0xfffffff8(%rsp)[8byte] 
  0x000055ccfba91ff8  ff 25 9a bc 21 00    jmp    <rel> 0x000055ccfbcadc98[8byte] 
Actual: 7f8b3081a960

Block 443:
  0x00007f8b3081a960  48 83 ec 10          sub    $0x0000000000000010 %rsp -> %rsp 
  0x00007f8b3081a964  45 31 c9             xor    %r9d %r9d -> %r9d 
  0x00007f8b3081a967  6a 00                push   $0x0000000000000000 %rsp -> %rsp 0xfffffff8(%rsp)[8byte] 
  0x00007f8b3081a969  e8 52 ff ff ff       call   $0x00007f8b3081a8c0 %rsp -> %rsp 0xfffffff8(%rsp)[8byte] 
  0x00007f8b3081a8c0  53                   push   %rbx %rsp -> %rsp 0xfffffff8(%rsp)[8byte] 
  0x00007f8b3081a8c1  48 8b 1d 78 56 2d 00 mov    <rel> 0x00007f8b30aeff40[8byte] -> %rbx 
  0x00007f8b3081a8c8  8b 03                mov    (%rbx)[4byte] -> %eax 
  0x00007f8b3081a8ca  89 05 b0 85 2d 00    mov    %eax -> <rel> 0x00007f8b30af2e80[4byte] 
  0x00007f8b3081a8d0  48 8b 05 e1 56 2d 00 mov    <rel> 0x00007f8b30aeffb8[8byte] -> %rax 
  0x00007f8b3081a8d7  8b 00                mov    (%rax)[4byte] -> %eax 
  0x00007f8b3081a8d9  89 05 a5 85 2d 00    mov    %eax -> <rel> 0x00007f8b30af2e84[4byte] 
  0x00007f8b3081a8df  8b 44 24 10          mov    0x10(%rsp)[4byte] -> %eax 
  0x00007f8b3081a8e3  50                   push   %rax %rsp -> %rsp 0xfffffff8(%rsp)[8byte] 
  0x00007f8b3081a8e4  48 8d 05 95 85 2d 00 lea    <rel> 0x00007f8b30af2e80 -> %rax 
  0x00007f8b3081a8eb  50                   push   %rax %rsp -> %rsp 0xfffffff8(%rsp)[8byte] 
  0x00007f8b3081a8ec  e8 1f ed ff ff       call   $0x00007f8b30819610 %rsp -> %rsp 0xfffffff8(%rsp)[8byte] 
  0x00007f8b30819610  55                   push   %rbp %rsp -> %rsp 0xfffffff8(%rsp)[8byte] 
  0x00007f8b30819611  48 89 e5             mov    %rsp -> %rbp 
  0x00007f8b30819614  41 57                push   %r15 %rsp -> %rsp 0xfffffff8(%rsp)[8byte] 
  0x00007f8b30819616  41 56                push   %r14 %rsp -> %rsp 0xfffffff8(%rsp)[8byte] 
  0x00007f8b30819618  41 55                push   %r13 %rsp -> %rsp 0xfffffff8(%rsp)[8byte] 
  0x00007f8b3081961a  41 54                push   %r12 %rsp -> %rsp 0xfffffff8(%rsp)[8byte] 
  0x00007f8b3081961c  53                   push   %rbx %rsp -> %rsp 0xfffffff8(%rsp)[8byte] 
  0x00007f8b3081961d  48 81 ec a8 00 00 00 sub    $0x00000000000000a8 %rsp -> %rsp 
  0x00007f8b30819624  4c 8b 75 10          mov    0x10(%rbp)[8byte] -> %r14 
  0x00007f8b30819628  85 ff                test   %edi %edi 
  0x00007f8b3081962a  48 89 75 90          mov    %rsi -> 0xffffff90(%rbp)[8byte] 
  0x00007f8b3081962e  48 89 55 a8          mov    %rdx -> 0xffffffa8(%rbp)[8byte] 
  0x00007f8b30819632  48 89 4d 80          mov    %rcx -> 0xffffff80(%rbp)[8byte] 
  0x00007f8b30819636  4c 89 85 70 ff ff ff mov    %r8 -> 0xffffff70(%rbp)[8byte] 
  0x00007f8b3081963d  41 8b 46 04          mov    0x04(%r14)[4byte] -> %eax 
  0x00007f8b30819641  44 89 8d 7c ff ff ff mov    %r9d -> 0xffffff7c(%rbp)[4byte] 
  0x00007f8b30819648  89 45 a4             mov    %eax -> 0xffffffa4(%rbp)[4byte] 
  0x00007f8b3081964b  0f 8e 67 02 00 00    jle    $0x00007f8b308198b8 
Actual: 7f8b30819651

Block 444:
  0x00007f8b30819651  41 8b 06             mov    (%r14)[4byte] -> %eax 
  0x00007f8b30819654  41 89 fd             mov    %edi -> %r13d 
  0x00007f8b30819657  49 c7 46 10 00 00 00 mov    $0x0000000000000000 -> 0x10(%r14)[8byte] 
                      00
  0x00007f8b3081965f  85 c0                test   %eax %eax 
  0x00007f8b30819661  0f 85 69 01 00 00    jnz    $0x00007f8b308197d0 
Actual: 7f8b308197d0

Block 445:
  0x00007f8b308197d0  41 8b 76 18          mov    0x18(%r14)[4byte] -> %esi 
  0x00007f8b308197d4  85 f6                test   %esi %esi 
  0x00007f8b308197d6  0f 84 97 fe ff ff    jz     $0x00007f8b30819673 
Actual: 7f8b30819673

Block 446:
  0x00007f8b30819673  48 8d 3d 83 47 0a 00 lea    <rel> 0x00007f8b308bddfd -> %rdi 
  0x00007f8b3081967a  41 89 46 34          mov    %eax -> 0x34(%r14)[4byte] 
  0x00007f8b3081967e  41 89 46 30          mov    %eax -> 0x30(%r14)[4byte] 
  0x00007f8b30819682  49 c7 46 20 00 00 00 mov    $0x0000000000000000 -> 0x20(%r14)[8byte] 
                      00
  0x00007f8b3081968a  e8 e1 32 f5 ff       call   $0x00007f8b3076c970 %rsp -> %rsp 0xfffffff8(%rsp)[8byte] 
  0x00007f8b3076c970  41 57                push   %r15 %rsp -> %rsp 0xfffffff8(%rsp)[8byte] 
  0x00007f8b3076c972  41 56                push   %r14 %rsp -> %rsp 0xfffffff8(%rsp)[8byte] 
  0x00007f8b3076c974  49 89 ff             mov    %rdi -> %r15 
  0x00007f8b3076c977  41 55                push   %r13 %rsp -> %rsp 0xfffffff8(%rsp)[8byte] 
  0x00007f8b3076c979  41 54                push   %r12 %rsp -> %rsp 0xfffffff8(%rsp)[8byte] 
  0x00007f8b3076c97b  55                   push   %rbp %rsp -> %rsp 0xfffffff8(%rsp)[8byte] 
  0x00007f8b3076c97c  53                   push   %rbx %rsp -> %rsp 0xfffffff8(%rsp)[8byte] 
  0x00007f8b3076c97d  48 83 ec 08          sub    $0x0000000000000008 %rsp -> %rsp 
  0x00007f8b3076c981  e8 2a f8 04 00       call   $0x00007f8b307bc1b0 %rsp -> %rsp 0xfffffff8(%rsp)[8byte] 
  0x00007f8b307bc1b0  66 0f ef c0          pxor   %xmm0 %xmm0 -> %xmm0 
  0x00007f8b307bc1b4  66 0f ef c9          pxor   %xmm1 %xmm1 -> %xmm1 
  0x00007f8b307bc1b8  66 0f ef d2          pxor   %xmm2 %xmm2 -> %xmm2 
  0x00007f8b307bc1bc  66 0f ef db          pxor   %xmm3 %xmm3 -> %xmm3 
  0x00007f8b307bc1c0  48 89 f8             mov    %rdi -> %rax 
  0x00007f8b307bc1c3  48 89 f9             mov    %rdi -> %rcx 
  0x00007f8b307bc1c6  48 81 e1 ff 0f 00 00 and    $0x0000000000000fff %rcx -> %rcx 
  0x00007f8b307bc1cd  48 81 f9 cf 0f 00 00 cmp    %rcx $0x0000000000000fcf 
  0x00007f8b307bc1d4  77 6a                jnbe   $0x00007f8b307bc240 
Actual: 7f8b307bc1d6

Block 447:
  0x00007f8b3081968f  48 85 c0             test   %rax %rax 
  0x00007f8b30819692  48 8b 4d a8          mov    0xffffffa8(%rbp)[8byte] -> %rcx 
  0x00007f8b30819696  0f 95 c0             setnz  -> %al 
  0x00007f8b30819699  0f b6 c0             movzx  %al -> %eax 
  0x00007f8b3081969c  0b 45 18             or     0x18(%rbp)[4byte] %eax -> %eax 
  0x00007f8b3081969f  41 89 46 2c          mov    %eax -> 0x2c(%r14)[4byte] 
  0x00007f8b308196a3  0f b6 11             movzx  (%rcx)[1byte] -> %edx 
  0x00007f8b308196a6  80 fa 2d             cmp    %dl $0x2d 
  0x00007f8b308196a9  0f 84 71 04 00 00    jz     $0x00007f8b30819b20 
Actual: 7f8b308196af

Block 448:
  0x00007f8b308196af  80 fa 2b             cmp    %dl $0x2b 
  0x00007f8b308196b2  0f 84 98 04 00 00    jz     $0x00007f8b30819b50 
Actual: 7f8b308196b8

Block 449:
  0x00007f8b308196b8  85 c0                test   %eax %eax 
  0x00007f8b308196ba  0f 94 c0             setz   -> %al 
  0x00007f8b308196bd  0f b6 c0             movzx  %al -> %eax 
  0x00007f8b308196c0  41 89 46 28          mov    %eax -> 0x28(%r14)[4byte] 
  0x00007f8b308196c4  48 89 c8             mov    %rcx -> %rax 
  0x00007f8b308196c7  41 c7 46 18 01 00 00 mov    $0x00000001 -> 0x18(%r14)[4byte] 
                      00
  0x00007f8b308196cf  0f b6 00             movzx  (%rax)[1byte] -> %eax 
  0x00007f8b308196d2  3c 3a                cmp    %al $0x3a 
  0x00007f8b308196d4  49 8b 5e 20          mov    0x20(%r14)[8byte] -> %rbx 
  0x00007f8b308196d8  b8 00 00 00 00       mov    $0x00000000 -> %eax 
  0x00007f8b308196dd  0f 45 45 a4          cmovnz 0xffffffa4(%rbp)[4byte] %eax -> %eax 
  0x00007f8b308196e1  48 85 db             test   %rbx %rbx 
  0x00007f8b308196e4  89 45 a4             mov    %eax -> 0xffffffa4(%rbp)[4byte] 
  0x00007f8b308196e7  0f 84 4b 01 00 00    jz     $0x00007f8b30819838 
Actual: 7f8b30819838

Block 450:
  0x00007f8b30819838  41 8b 06             mov    (%r14)[4byte] -> %eax 
  0x00007f8b3081983b  41 39 46 34          cmp    0x34(%r14)[4byte] %eax 
  0x00007f8b3081983f  7e 04                jle    $0x00007f8b30819845 
Actual: 7f8b30819845

Block 451:
  0x00007f8b30819845  41 8b 56 30          mov    0x30(%r14)[4byte] -> %edx 
  0x00007f8b30819849  39 d0                cmp    %eax %edx 
  0x00007f8b3081984b  7d 06                jnl    $0x00007f8b30819853 
Actual: 7f8b30819853

Block 452:
  0x00007f8b30819853  41 83 7e 28 01       cmp    0x28(%r14)[4byte] $0x00000001 
  0x00007f8b30819858  0f 84 52 02 00 00    jz     $0x00007f8b30819ab0 
Actual: 7f8b30819ab0

Block 453:
  0x00007f8b30819ab0  41 8b 4e 34          mov    0x34(%r14)[4byte] -> %ecx 
  0x00007f8b30819ab4  39 d1                cmp    %ecx %edx 
  0x00007f8b30819ab6  0f 84 34 05 00 00    jz     $0x00007f8b30819ff0 
Actual: 7f8b30819ff0

Block 454:
  0x00007f8b30819ff0  39 d0                cmp    %eax %edx 
  0x00007f8b30819ff2  0f 84 d7 fa ff ff    jz     $0x00007f8b30819acf 
Actual: 7f8b30819acf

Block 455:
  0x00007f8b30819acf  48 8b 5d 90          mov    0xffffff90(%rbp)[8byte] -> %rbx 
  0x00007f8b30819ad3  48 63 d0             movsxd %eax -> %rdx 
  0x00007f8b30819ad6  41 39 c5             cmp    %r13d %eax 
  0x00007f8b30819ad9  48 8d 14 d3          lea    (%rbx,%rdx,8) -> %rdx 
  0x00007f8b30819add  7f 18                jnle   $0x00007f8b30819af7 
Actual: 7f8b30819af7

Block 456:
  0x00007f8b30819af7  48 8b 0a             mov    (%rdx)[8byte] -> %rcx 
  0x00007f8b30819afa  80 39 2d             cmp    (%rcx)[1byte] $0x2d 
  0x00007f8b30819afd  75 e9                jnz    $0x00007f8b30819ae8 
Actual: 7f8b30819ae8

Block 457:
  0x00007f8b30819ae8  83 c0 01             add    $0x00000001 %eax -> %eax 
  0x00007f8b30819aeb  48 83 c2 08          add    $0x0000000000000008 %rdx -> %rdx 
  0x00007f8b30819aef  41 39 c5             cmp    %r13d %eax 
  0x00007f8b30819af2  41 89 06             mov    %eax -> (%r14)[4byte] 
  0x00007f8b30819af5  74 0e                jz     $0x00007f8b30819b05 
Actual: 7f8b30819af7

Block 458:
  0x00007f8b30819b05  41 39 c5             cmp    %r13d %eax 
  0x00007f8b30819b08  41 89 46 34          mov    %eax -> 0x34(%r14)[4byte] 
  0x00007f8b30819b0c  0f 85 55 fd ff ff    jnz    $0x00007f8b30819867 
Actual: 7f8b30819b12

Block 459:
  0x00007f8b30819b12  45 8b 6e 34          mov    0x34(%r14)[4byte] -> %r13d 
  0x00007f8b30819b16  41 8b 56 30          mov    0x30(%r14)[4byte] -> %edx 
  0x00007f8b30819b1a  e9 91 fd ff ff       jmp    $0x00007f8b308198b0 
  0x00007f8b308198b0  44 39 ea             cmp    %edx %r13d 
  0x00007f8b308198b3  74 03                jz     $0x00007f8b308198b8 
Actual: 7f8b308198b5

Block 460:
  0x00007f8b308198b5  41 89 16             mov    %edx -> (%r14)[4byte] 
  0x00007f8b308198b8  41 bf ff ff ff ff    mov    $0xffffffff -> %r15d 
  0x00007f8b308198be  e9 5c ff ff ff       jmp    $0x00007f8b3081981f 
  0x00007f8b3081981f  48 8d 65 d8          lea    0xffffffd8(%rbp) -> %rsp 
  0x00007f8b30819823  44 89 f8             mov    %r15d -> %eax 
  0x00007f8b30819826  5b                   pop    %rsp (%rsp)[8byte] -> %rbx %rsp 
  0x00007f8b30819827  41 5c                pop    %rsp (%rsp)[8byte] -> %r12 %rsp 
  0x00007f8b30819829  41 5d                pop    %rsp (%rsp)[8byte] -> %r13 %rsp 
  0x00007f8b3081982b  41 5e                pop    %rsp (%rsp)[8byte] -> %r14 %rsp 
  0x00007f8b3081982d  41 5f                pop    %rsp (%rsp)[8byte] -> %r15 %rsp 
  0x00007f8b3081982f  5d                   pop    %rsp (%rsp)[8byte] -> %rbp %rsp 
  0x00007f8b30819830  c3                   ret    %rsp (%rsp)[8byte] -> %rsp 
Actual: 7f8b3081a8f1

Block 461:
  0x00007f8b3081a8f1  8b 15 89 85 2d 00    mov    <rel> 0x00007f8b30af2e80[4byte] -> %edx 
  0x00007f8b3081a8f7  48 8b 0d 92 85 2d 00 mov    <rel> 0x00007f8b30af2e90[8byte] -> %rcx 
  0x00007f8b3081a8fe  89 13                mov    %edx -> (%rbx)[4byte] 
  0x00007f8b3081a900  48 8b 15 69 55 2d 00 mov    <rel> 0x00007f8b30aefe70[8byte] -> %rdx 
  0x00007f8b3081a907  48 89 0a             mov    %rcx -> (%rdx)[8byte] 
  0x00007f8b3081a90a  8b 0d 78 85 2d 00    mov    <rel> 0x00007f8b30af2e88[4byte] -> %ecx 
  0x00007f8b3081a910  48 8b 15 49 56 2d 00 mov    <rel> 0x00007f8b30aeff60[8byte] -> %rdx 
  0x00007f8b3081a917  89 0a                mov    %ecx -> (%rdx)[4byte] 
  0x00007f8b3081a919  5a                   pop    %rsp (%rsp)[8byte] -> %rdx %rsp 
  0x00007f8b3081a91a  59                   pop    %rsp (%rsp)[8byte] -> %rcx %rsp 
  0x00007f8b3081a91b  5b                   pop    %rsp (%rsp)[8byte] -> %rbx %rsp 
  0x00007f8b3081a91c  c3                   ret    %rsp (%rsp)[8byte] -> %rsp 
Actual: 7f8b3081a96e

Block 462:
  0x00007f8b3081a96e  48 83 c4 18          add    $0x0000000000000018 %rsp -> %rsp 
  0x00007f8b3081a972  c3                   ret    %rsp (%rsp)[8byte] -> %rsp 
Actual: 55ccfba924c9

Block 463:
  0x000055ccfba924c9  83 f8 ff             cmp    %eax $0xffffffff 
  0x000055ccfba924cc  0f 84 a8 01 00 00    jz     $0x000055ccfba9267a 
Actual: 55ccfba9267a

Block 464:
  0x000055ccfba9267a  48 8b 05 af b5 21 00 mov    <rel> 0x000055ccfbcadc30[8byte] -> %rax 
  0x000055ccfba92681  48 63 00             movsxd (%rax)[4byte] -> %rax 
  0x000055ccfba92684  29 c5                sub    %eax %ebp -> %ebp 
  0x000055ccfba92686  48 8d 1c c3          lea    (%rbx,%rax,8) -> %rbx 
  0x000055ccfba9268a  31 c0                xor    %eax %eax -> %eax 
  0x000055ccfba9268c  4d 85 ed             test   %r13 %r13 
  0x000055ccfba9268f  0f 94 c0             setz   -> %al 
  0x000055ccfba92692  39 c5                cmp    %ebp %eax 
  0x000055ccfba92694  0f 8e b8 03 00 00    jle    $0x000055ccfba92a52 
Actual: 55ccfba9269a

Block 465:
  0x000055ccfba9269a  80 7c 24 08 00       cmp    0x08(%rsp)[1byte] $0x00 
  0x000055ccfba9269f  0f 85 d9 00 00 00    jnz    $0x000055ccfba9277e 
Actual: 55ccfba926a5

Block 466:
  0x000055ccfba926a5  4d 85 ed             test   %r13 %r13 
  0x000055ccfba926a8  0f 84 54 02 00 00    jz     $0x000055ccfba92902 
Actual: 55ccfba92902

Block 467:
  0x000055ccfba92902  83 fd 01             cmp    %ebp $0x00000001 
  0x000055ccfba92905  0f 84 6d 01 00 00    jz     $0x000055ccfba92a78 
Actual: 55ccfba9290b

Block 468:
  0x000055ccfba9290b  48 63 c5             movsxd %ebp -> %rax 
  0x000055ccfba9290e  48 8d 94 24 80 00 00 lea    0x00000080(%rsp) -> %rdx 
                      00
  0x000055ccfba92916  bf 01 00 00 00       mov    $0x00000001 -> %edi 
  0x000055ccfba9291b  48 8d 44 c3 f8       lea    0xfffffff8(%rbx,%rax,8) -> %rax 
  0x000055ccfba92920  48 89 44 24 08       mov    %rax -> 0x08(%rsp)[8byte] 
  0x000055ccfba92925  48 8b 00             mov    (%rax)[8byte] -> %rax 
  0x000055ccfba92928  48 89 c6             mov    %rax -> %rsi 
  0x000055ccfba9292b  48 89 44 24 10       mov    %rax -> 0x10(%rsp)[8byte] 
  0x000055ccfba92930  e8 43 f8 ff ff       call   $0x000055ccfba92178 %rsp -> %rsp 0xfffffff8(%rsp)[8byte] 
  0x000055ccfba92178  ff 25 aa bc 21 00    jmp    <rel> 0x000055ccfbcade28[8byte] 
Actual: 7f8b308268e0

Block 469:
  0x00007f8b308268e0  83 ff 01             cmp    %edi $0x00000001 
  0x00007f8b308268e3  48 89 f0             mov    %rsi -> %rax 
  0x00007f8b308268e6  77 30                jnbe   $0x00007f8b30826918 
Actual: 7f8b308268e8

Block 470:
  0x00007f8b308268e8  48 89 c7             mov    %rax -> %rdi 
  0x00007f8b308268eb  48 89 d6             mov    %rdx -> %rsi 
  0x00007f8b308268ee  b8 04 00 00 00       mov    $0x00000004 -> %eax 
  0x00007f8b308268f3  0f 05                syscall -> %rcx 
  0x00007f8b308268f5  48 3d 00 f0 ff ff    cmp    %rax $0xfffffffffffff000 
  0x00007f8b308268fb  77 03                jnbe   $0x00007f8b30826900 
Actual: 7f8b30826900

Block 471:
  0x00007f8b30826900  48 8b 15 61 95 2c 00 mov    <rel> 0x00007f8b30aefe68[8byte] -> %rdx 
  0x00007f8b30826907  f7 d8                neg    %eax -> %eax 
  0x00007f8b30826909  64 89 02             mov    %eax -> %fs:(%rdx)[4byte] 
  0x00007f8b3082690c  b8 ff ff ff ff       mov    $0xffffffff -> %eax 
  0x00007f8b30826911  c3                   ret    %rsp (%rsp)[8byte] -> %rsp 
Actual: 55ccfba92935

Block 472:
  0x000055ccfba92935  85 c0                test   %eax %eax 
  0x000055ccfba92937  0f 84 c8 00 00 00    jz     $0x000055ccfba92a05 
Actual: 55ccfba9293d

Block 473:
  0x000055ccfba9293d  e8 9e f5 ff ff       call   $0x000055ccfba91ee0 %rsp -> %rsp 0xfffffff8(%rsp)[8byte] 
  0x000055ccfba91ee0  ff 25 7a bc 21 00    jmp    <rel> 0x000055ccfbcadb60[8byte] 
Actual: 7f8b3113d2e0

Block 474:
  0x00007f8b3113d2e0  48 8b 05 a1 4c 20 00 mov    <rel> 0x00007f8b31341f88[8byte] -> %rax 
  0x00007f8b3113d2e7  64 48 03 04 25 00 00 add    %fs:0x00[8byte] %rax -> %rax 
                      00 00
  0x00007f8b3113d2f0  c3                   ret    %rsp (%rsp)[8byte] -> %rsp 
Actual: 55ccfba92942

Block 475:
  0x000055ccfba92942  44 8b 00             mov    (%rax)[4byte] -> %r8d 
  0x000055ccfba92945  45 85 c0             test   %r8d %r8d 
  0x000055ccfba92948  0f 84 b7 00 00 00    jz     $0x000055ccfba92a05 
Actual: 55ccfba9294e

Block 476:
  0x000055ccfba9294e  41 f7 c0 fd ff ff ff test   %r8d $0xfffffffd 
  0x000055ccfba92955  74 48                jz     $0x000055ccfba9299f 
Actual: 55ccfba9299f

Block 477:
  0x000055ccfba9299f  83 fd 02             cmp    %ebp $0x00000002 
  0x000055ccfba929a2  0f 84 06 fd ff ff    jz     $0x000055ccfba926ae 
Actual: 55ccfba926ae

Block 478:
  0x000055ccfba926ae  45 84 f6             test   %r14l %r14l 
  0x000055ccfba926b1  0f 84 33 01 00 00    jz     $0x000055ccfba927ea 
Actual: 55ccfba927ea

Block 479:
  0x000055ccfba927ea  48 83 3c 24 00       cmp    (%rsp)[8byte] $0x0000000000000000 
  0x000055ccfba927ef  75 07                jnz    $0x000055ccfba927f8 
Actual: 55ccfba927f1

Block 480:
  0x000055ccfba927f1  31 c0                xor    %eax %eax -> %eax 
  0x000055ccfba927f3  e9 02 ff ff ff       jmp    $0x000055ccfba926fa 
  0x000055ccfba926fa  89 44 24 30          mov    %eax -> 0x30(%rsp)[4byte] 
  0x000055ccfba926fe  e8 ed 6f 00 00       call   $0x000055ccfba996f0 %rsp -> %rsp 0xfffffff8(%rsp)[8byte] 
  0x000055ccfba996f0  4c 8d 05 89 fe ff ff lea    <rel> 0x000055ccfba99580 -> %r8 
  0x000055ccfba996f7  48 8d 0d 62 fe ff ff lea    <rel> 0x000055ccfba99560 -> %rcx 
  0x000055ccfba996fe  48 8d 15 4b fe ff ff lea    <rel> 0x000055ccfba99550 -> %rdx 
  0x000055ccfba99705  48 83 ec 08          sub    $0x0000000000000008 %rsp -> %rsp 
  0x000055ccfba99709  31 f6                xor    %esi %esi -> %esi 
  0x000055ccfba9970b  bf 67 00 00 00       mov    $0x00000067 -> %edi 
  0x000055ccfba99710  e8 ab 29 00 00       call   $0x000055ccfba9c0c0 %rsp -> %rsp 0xfffffff8(%rsp)[8byte] 
  0x000055ccfba9c0c0  41 57                push   %r15 %rsp -> %rsp 0xfffffff8(%rsp)[8byte] 
  0x000055ccfba9c0c2  41 56                push   %r14 %rsp -> %rsp 0xfffffff8(%rsp)[8byte] 
  0x000055ccfba9c0c4  48 8d 05 75 f8 ff ff lea    <rel> 0x000055ccfba9b940 -> %rax 
  0x000055ccfba9c0cb  41 55                push   %r13 %rsp -> %rsp 0xfffffff8(%rsp)[8byte] 
  0x000055ccfba9c0cd  41 54                push   %r12 %rsp -> %rsp 0xfffffff8(%rsp)[8byte] 
  0x000055ccfba9c0cf  49 89 d4             mov    %rdx -> %r12 
  0x000055ccfba9c0d2  55                   push   %rbp %rsp -> %rsp 0xfffffff8(%rsp)[8byte] 
  0x000055ccfba9c0d3  53                   push   %rbx %rsp -> %rsp 0xfffffff8(%rsp)[8byte] 
  0x000055ccfba9c0d4  49 89 cd             mov    %rcx -> %r13 
  0x000055ccfba9c0d7  49 89 ff             mov    %rdi -> %r15 
  0x000055ccfba9c0da  bf 50 00 00 00       mov    $0x00000050 -> %edi 
  0x000055ccfba9c0df  48 89 f5             mov    %rsi -> %rbp 
  0x000055ccfba9c0e2  48 83 ec 08          sub    $0x0000000000000008 %rsp -> %rsp 
  0x000055ccfba9c0e6  48 85 d2             test   %rdx %rdx 
  0x000055ccfba9c0e9  4d 89 c6             mov    %r8 -> %r14 
  0x000055ccfba9c0ec  4c 0f 44 e0          cmovz  %rax %r12 -> %r12 
  0x000055ccfba9c0f0  48 8d 05 59 f8 ff ff lea    <rel> 0x000055ccfba9b950 -> %rax 
  0x000055ccfba9c0f7  48 85 c9             test   %rcx %rcx 
  0x000055ccfba9c0fa  4c 0f 44 e8          cmovz  %rax %r13 -> %r13 
  0x000055ccfba9c0fe  e8 95 60 ff ff       call   $0x000055ccfba92198 %rsp -> %rsp 0xfffffff8(%rsp)[8byte] 
  0x000055ccfba92198  ff 25 aa bc 21 00    jmp    <rel> 0x000055ccfbcade48[8byte] 
Actual: 7f8b307b4f00

Block 481:
  0x000055ccfba9c103  48 85 c0             test   %rax %rax 
  0x000055ccfba9c106  48 89 c3             mov    %rax -> %rbx 
  0x000055ccfba9c109  0f 84 95 00 00 00    jz     $0x000055ccfba9c1a4 
Actual: 55ccfba9c10f

Block 482:
  0x000055ccfba9c10f  48 85 ed             test   %rbp %rbp 
  0x000055ccfba9c112  0f 84 a8 00 00 00    jz     $0x000055ccfba9c1c0 
Actual: 55ccfba9c1c0

Block 483:
  0x000055ccfba9c1c0  48 8d 05 89 c6 00 00 lea    <rel> 0x000055ccfbaa8850 -> %rax 
  0x000055ccfba9c1c7  48 8d 7b 28          lea    0x28(%rbx) -> %rdi 
  0x000055ccfba9c1cb  48 89 43 28          mov    %rax -> 0x28(%rbx)[8byte] 
  0x000055ccfba9c1cf  e8 bc f8 ff ff       call   $0x000055ccfba9ba90 %rsp -> %rsp 0xfffffff8(%rsp)[8byte] 
  0x000055ccfba9ba90  48 8b 07             mov    (%rdi)[8byte] -> %rax 
  0x000055ccfba9ba93  48 8d 15 b6 cd 00 00 lea    <rel> 0x000055ccfbaa8850 -> %rdx 
  0x000055ccfba9ba9a  48 39 d0             cmp    %rax %rdx 
  0x000055ccfba9ba9d  74 69                jz     $0x000055ccfba9bb08 
Actual: 55ccfba9bb08

Block 484:
  0x000055ccfba9bb08  b8 01 00 00 00       mov    $0x00000001 -> %eax 
  0x000055ccfba9bb0d  f3 c3                ret    %rsp (%rsp)[8byte] -> %rsp 
Actual: 55ccfba9c1d4

Block 485:
  0x000055ccfba9c1d4  84 c0                test   %al %al 
  0x000055ccfba9c1d6  f3 0f 10 0d 9a c6 00 movss  <rel> 0x000055ccfbaa8878[4byte] -> %xmm1 
                      00
  0x000055ccfba9c1de  75 15                jnz    $0x000055ccfba9c1f5 
Actual: 55ccfba9c1f5

Block 486:
  0x000055ccfba9c1f5  4d 85 ff             test   %r15 %r15 
  0x000055ccfba9c1f8  78 56                js     $0x000055ccfba9c250 
Actual: 55ccfba9c1fa

Block 487:
  0x000055ccfba9c1fa  66 0f ef c0          pxor   %xmm0 %xmm0 -> %xmm0 
  0x000055ccfba9c1fe  f3 49 0f 2a c7       cvtsi2ss %r15 -> %xmm0[4byte] 
  0x000055ccfba9c203  f3 0f 5e c1          divss  %xmm1[4byte] %xmm0[4byte] -> %xmm0[4byte] 
  0x000055ccfba9c207  0f 2e 05 6e c6 00 00 ucomiss %xmm0[4byte] <rel> 0x000055ccfbaa887c[4byte] 
  0x000055ccfba9c20e  73 d0                jnb    $0x000055ccfba9c1e0 
Actual: 55ccfba9c210

Block 488:
  0x000055ccfba9c210  0f 2e 05 69 c6 00 00 ucomiss %xmm0[4byte] <rel> 0x000055ccfbaa8880[4byte] 
  0x000055ccfba9c217  72 27                jb     $0x000055ccfba9c240 
Actual: 55ccfba9c240

Block 489:
  0x000055ccfba9c240  f3 4c 0f 2c f8       cvttss2si %xmm0[4byte] -> %r15 
  0x000055ccfba9c245  e9 ed fe ff ff       jmp    $0x000055ccfba9c137 
  0x000055ccfba9c137  4c 89 ff             mov    %r15 -> %rdi 
  0x000055ccfba9c13a  e8 61 f7 ff ff       call   $0x000055ccfba9b8a0 %rsp -> %rsp 0xfffffff8(%rsp)[8byte] 
  0x000055ccfba9b8a0  48 83 ff 09          cmp    %rdi $0x0000000000000009 
  0x000055ccfba9b8a4  0f 86 7e 00 00 00    jbe    $0x000055ccfba9b928 
Actual: 55ccfba9b8aa

Block 490:
  0x000055ccfba9b8aa  48 83 cf 01          or     $0x0000000000000001 %rdi -> %rdi 
  0x000055ccfba9b8ae  48 83 ff ff          cmp    %rdi $0xffffffffffffffff 
  0x000055ccfba9b8b2  74 70                jz     $0x000055ccfba9b924 
Actual: 55ccfba9b8b4

Block 491:
  0x000055ccfba9b8b4  49 b9 ab aa aa aa aa mov    $0xaaaaaaaaaaaaaaab -> %r9 
                      aa aa aa
  0x000055ccfba9b8be  66 90                nop    
  0x000055ccfba9b8c0  48 83 ff 09          cmp    %rdi $0x0000000000000009 
  0x000055ccfba9b8c4  76 69                jbe    $0x000055ccfba9b92f 
Actual: 55ccfba9b8c6

Block 492:
  0x000055ccfba9b8c6  48 89 f8             mov    %rdi -> %rax 
  0x000055ccfba9b8c9  49 f7 e1             mul    %r9 %rax -> %rdx %rax 
  0x000055ccfba9b8cc  48 d1 ea             shr    $0x0000000000000001 %rdx -> %rdx 
  0x000055ccfba9b8cf  48 8d 04 52          lea    (%rdx,%rdx,2) -> %rax 
  0x000055ccfba9b8d3  48 39 c7             cmp    %rdi %rax 
  0x000055ccfba9b8d6  74 42                jz     $0x000055ccfba9b91a 
Actual: 55ccfba9b91a

Block 493:
  0x000055ccfba9b91a  48 83 c7 02          add    $0x0000000000000002 %rdi -> %rdi 
  0x000055ccfba9b91e  48 83 ff ff          cmp    %rdi $0xffffffffffffffff 
  0x000055ccfba9b922  75 9c                jnz    $0x000055ccfba9b8c0 
Actual: 55ccfba9b8c0

Block 494:
  0x000055ccfba9b8c0  48 83 ff 09          cmp    %rdi $0x0000000000000009 
  0x000055ccfba9b8c4  76 69                jbe    $0x000055ccfba9b92f 
Actual: 55ccfba9b8c6

Block 495:
  0x000055ccfba9b8d8  41 b8 10 00 00 00    mov    $0x00000010 -> %r8d 
  0x000055ccfba9b8de  be 09 00 00 00       mov    $0x00000009 -> %esi 
  0x000055ccfba9b8e3  b9 03 00 00 00       mov    $0x00000003 -> %ecx 
  0x000055ccfba9b8e8  eb 17                jmp    $0x000055ccfba9b901 
  0x000055ccfba9b901  4c 01 c6             add    %r8 %rsi -> %rsi 
  0x000055ccfba9b904  48 83 c1 02          add    $0x0000000000000002 %rcx -> %rcx 
  0x000055ccfba9b908  48 39 fe             cmp    %rsi %rdi 
  0x000055ccfba9b90b  72 e3                jb     $0x000055ccfba9b8f0 
Actual: 55ccfba9b8f0

Block 496:
  0x000055ccfba9b8f0  31 d2                xor    %edx %edx -> %edx 
  0x000055ccfba9b8f2  48 89 f8             mov    %rdi -> %rax 
  0x000055ccfba9b8f5  49 83 c0 08          add    $0x0000000000000008 %r8 -> %r8 
  0x000055ccfba9b8f9  48 f7 f1             div    %rcx %rdx %rax -> %rdx %rax 
  0x000055ccfba9b8fc  48 85 d2             test   %rdx %rdx 
  0x000055ccfba9b8ff  74 19                jz     $0x000055ccfba9b91a 
Actual: 55ccfba9b901

Block 497:
  0x000055ccfba9b901  4c 01 c6             add    %r8 %rsi -> %rsi 
  0x000055ccfba9b904  48 83 c1 02          add    $0x0000000000000002 %rcx -> %rcx 
  0x000055ccfba9b908  48 39 fe             cmp    %rsi %rdi 
  0x000055ccfba9b90b  72 e3                jb     $0x000055ccfba9b8f0 
Actual: 55ccfba9b8f0

Block 498:
  0x000055ccfba9b90d  31 d2                xor    %edx %edx -> %edx 
  0x000055ccfba9b90f  48 89 f8             mov    %rdi -> %rax 
  0x000055ccfba9b912  48 f7 f1             div    %rcx %rdx %rax -> %rdx %rax 
  0x000055ccfba9b915  48 85 d2             test   %rdx %rdx 
  0x000055ccfba9b918  75 0a                jnz    $0x000055ccfba9b924 
Actual: 55ccfba9b924

Block 499:
  0x000055ccfba9b924  48 89 f8             mov    %rdi -> %rax 
  0x000055ccfba9b927  c3                   ret    %rsp (%rsp)[8byte] -> %rsp 
Actual: 55ccfba9c13f

Block 500:
  0x000055ccfba9c13f  ba 08 00 00 00       mov    $0x00000008 -> %edx 
  0x000055ccfba9c144  48 89 c5             mov    %rax -> %rbp 
  0x000055ccfba9c147  48 89 d0             mov    %rdx -> %rax 
  0x000055ccfba9c14a  48 f7 e5             mul    %rbp %rax -> %rdx %rax 
  0x000055ccfba9c14d  0f 80 8d 00 00 00    jo     $0x000055ccfba9c1e0 
Actual: 55ccfba9c153

Block 501:
  0x000055ccfba9c153  48 85 ed             test   %rbp %rbp 
  0x000055ccfba9c156  48 89 6b 10          mov    %rbp -> 0x10(%rbx)[8byte] 
  0x000055ccfba9c15a  0f 84 80 00 00 00    jz     $0x000055ccfba9c1e0 
Actual: 55ccfba9c160

Block 502:
  0x000055ccfba9c160  be 10 00 00 00       mov    $0x00000010 -> %esi 
  0x000055ccfba9c165  48 89 ef             mov    %rbp -> %rdi 
  0x000055ccfba9c168  e8 83 5f ff ff       call   $0x000055ccfba920f0 %rsp -> %rsp 0xfffffff8(%rsp)[8byte] 
  0x000055ccfba920f0  ff 25 9a bc 21 00    jmp    <rel> 0x000055ccfbcadd90[8byte] 
Actual: 7f8b307b5a00

Block 503:
  0x00007f8b307b5a00  48 89 fa             mov    %rdi -> %rdx 
  0x00007f8b307b5a03  41 56                push   %r14 %rsp -> %rsp 0xfffffff8(%rsp)[8byte] 
  0x00007f8b307b5a05  b8 ff ff ff ff       mov    $0xffffffff -> %eax 
  0x00007f8b307b5a0a  41 55                push   %r13 %rsp -> %rsp 0xfffffff8(%rsp)[8byte] 
  0x00007f8b307b5a0c  48 09 f2             or     %rsi %rdx -> %rdx 
  0x00007f8b307b5a0f  41 54                push   %r12 %rsp -> %rsp 0xfffffff8(%rsp)[8byte] 
  0x00007f8b307b5a11  49 89 fc             mov    %rdi -> %r12 
  0x00007f8b307b5a14  55                   push   %rbp %rsp -> %rsp 0xfffffff8(%rsp)[8byte] 
  0x00007f8b307b5a15  53                   push   %rbx %rsp -> %rsp 0xfffffff8(%rsp)[8byte] 
  0x00007f8b307b5a16  4c 0f af e6          imul   %rsi %r12 -> %r12 
  0x00007f8b307b5a1a  48 39 c2             cmp    %rdx %rax 
  0x00007f8b307b5a1d  76 19                jbe    $0x00007f8b307b5a38 
Actual: 7f8b307b5a38

Block 504:
  0x00007f8b307b5a38  48 8b 05 a1 a4 33 00 mov    <rel> 0x00007f8b30aefee0[8byte] -> %rax 
  0x00007f8b307b5a3f  48 8b 00             mov    (%rax)[8byte] -> %rax 
  0x00007f8b307b5a42  48 85 c0             test   %rax %rax 
  0x00007f8b307b5a45  0f 85 d5 01 00 00    jnz    $0x00007f8b307b5c20 
Actual: 7f8b307b5a4b

Block 505:
  0x00007f8b307b5a4b  48 8b 05 0e a3 33 00 mov    <rel> 0x00007f8b30aefd60[8byte] -> %rax 
  0x00007f8b307b5a52  64 48 8b 18          mov    %fs:(%rax)[8byte] -> %rbx 
  0x00007f8b307b5a56  48 85 db             test   %rbx %rbx 
  0x00007f8b307b5a59  74 0c                jz     $0x00007f8b307b5a67 
Actual: 7f8b307b5a5b

Block 506:
  0x00007f8b307b5a5b  8b 43 04             mov    0x04(%rbx)[4byte] -> %eax 
  0x00007f8b307b5a5e  83 e0 04             and    $0x00000004 %eax -> %eax 
  0x00007f8b307b5a61  0f 84 b1 00 00 00    jz     $0x00007f8b307b5b18 
Actual: 7f8b307b5b18

Block 507:
  0x00007f8b307b5b18  be 01 00 00 00       mov    $0x00000001 -> %esi 
  0x00007f8b307b5b1d  83 3d dc fb 33 00 00 cmp    <rel> 0x00007f8b30af5700[4byte] $0x00000000 
  0x00007f8b307b5b24  74 08                jz     $0x00007f8b307b5b2e 
Actual: 7f8b307b5b2e

Block 508:
  0x00007f8b307b5b2e  0f b1 33             cmpxchg %esi (%rbx)[4byte] %eax -> (%rbx)[4byte] %eax 
  0x00007f8b307b5b31  74 16                jz     $0x00007f8b307b5b49 
Actual: 7f8b307b5b49

Block 509:
  0x00007f8b307b5b49  e9 2a ff ff ff       jmp    $0x00007f8b307b5a78 
  0x00007f8b307b5a78  4c 8b 73 58          mov    0x58(%rbx)[8byte] -> %r14 
  0x00007f8b307b5a7c  48 8d 05 7d b0 33 00 lea    <rel> 0x00007f8b30af0b00 -> %rax 
  0x00007f8b307b5a83  4d 8b 6e 08          mov    0x08(%r14)[8byte] -> %r13 
  0x00007f8b307b5a87  49 83 e5 f8          and    $0xfffffffffffffff8 %r13 -> %r13 
  0x00007f8b307b5a8b  48 39 c3             cmp    %rbx %rax 
  0x00007f8b307b5a8e  74 17                jz     $0x00007f8b307b5aa7 
Actual: 7f8b307b5aa7

Block 510:
  0x00007f8b307b5aa7  4c 89 e6             mov    %r12 -> %rsi 
  0x00007f8b307b5aaa  48 89 df             mov    %rbx -> %rdi 
  0x00007f8b307b5aad  e8 6e d5 ff ff       call   $0x00007f8b307b3020 %rsp -> %rsp 0xfffffff8(%rsp)[8byte] 
  0x00007f8b307b3020  48 83 fe bf          cmp    %rsi $0xffffffffffffffbf 
  0x00007f8b307b3024  0f 87 97 08 00 00    jnbe   $0x00007f8b307b38c1 
Actual: 7f8b307b302a

Block 511:
  0x00007f8b307b3150  4c 89 e0             mov    %r12 -> %rax 
  0x00007f8b307b3153  48 c1 e8 06          shr    $0x0000000000000006 %rax -> %rax 
  0x00007f8b307b3157  48 83 f8 30          cmp    %rax $0x0000000000000030 
  0x00007f8b307b315b  0f 87 24 07 00 00    jnbe   $0x00007f8b307b3885 
Actual: 7f8b307b3161

Block 512:
  0x00007f8b307b3161  83 c0 30             add    $0x00000030 %eax -> %eax 
  0x00007f8b307b3164  89 04 24             mov    %eax -> (%rsp)[4byte] 
  0x00007f8b307b3167  f6 45 04 01          test   0x04(%rbp)[1byte] $0x01 
  0x00007f8b307b316b  75 08                jnz    $0x00007f8b307b3175 
Actual: 7f8b307b316d

Block 513:
  0x00007f8b307b316d  48 89 ef             mov    %rbp -> %rdi 
  0x00007f8b307b3170  e8 3b d1 ff ff       call   $0x00007f8b307b02b0 %rsp -> %rsp 0xfffffff8(%rsp)[8byte] 
  0x00007f8b307b02b0  41 57                push   %r15 %rsp -> %rsp 0xfffffff8(%rsp)[8byte] 
  0x00007f8b307b02b2  41 56                push   %r14 %rsp -> %rsp 0xfffffff8(%rsp)[8byte] 
  0x00007f8b307b02b4  41 55                push   %r13 %rsp -> %rsp 0xfffffff8(%rsp)[8byte] 
  0x00007f8b307b02b6  41 54                push   %r12 %rsp -> %rsp 0xfffffff8(%rsp)[8byte] 
  0x00007f8b307b02b8  55                   push   %rbp %rsp -> %rsp 0xfffffff8(%rsp)[8byte] 
  0x00007f8b307b02b9  53                   push   %rbx %rsp -> %rsp 0xfffffff8(%rsp)[8byte] 
  0x00007f8b307b02ba  48 83 ec 78          sub    $0x0000000000000078 %rsp -> %rsp 
  0x00007f8b307b02be  48 83 3d 12 25 34 00 cmp    <rel> 0x00007f8b30af27d8[8byte] $0x0000000000000000 
                      00
  0x00007f8b307b02c6  0f 84 2f 04 00 00    jz     $0x00007f8b307b06fb 
Actual: 7f8b307b02cc

Block 514:
  0x00007f8b307b02cc  49 89 fe             mov    %rdi -> %r14 
  0x00007f8b307b02cf  64 83 3c 25 18 00 00 cmp    %fs:0x18[4byte] $0x00000000 
                      00 00
  0x00007f8b307b02d8  74 01                jz     $0x00007f8b307b02db 
Actual: 7f8b307b02db

Block 515:
  0x00007f8b307b02db  83 4f 04 01          or     $0x00000001 0x04(%rdi)[4byte] -> 0x04(%rdi)[4byte] 
  0x00007f8b307b02df  48 8d 47 50          lea    0x50(%rdi) -> %rax 
  0x00007f8b307b02e3  48 8d 4c 24 50       lea    0x50(%rsp) -> %rcx 
  0x00007f8b307b02e8  4c 8d 7f 08          lea    0x08(%rdi) -> %r15 
  0x00007f8b307b02ec  4c 8d 5f 58          lea    0x58(%rdi) -> %r11 
  0x00007f8b307b02f0  48 89 44 24 10       mov    %rax -> 0x10(%rsp)[8byte] 
  0x00007f8b307b02f5  b8 01 00 00 00       mov    $0x00000001 -> %eax 
  0x00007f8b307b02fa  48 89 4c 24 18       mov    %rcx -> 0x18(%rsp)[8byte] 
  0x00007f8b307b02ff  48 29 c8             sub    %rcx %rax -> %rax 
  0x00007f8b307b0302  4d 89 fa             mov    %r15 -> %r10 
  0x00007f8b307b0305  48 89 44 24 20       mov    %rax -> 0x20(%rsp)[8byte] 
  0x00007f8b307b030a  66 0f 1f 44 00 00    data16 nop    0x00(%rax,%rax,1)[4byte] 
  0x00007f8b307b0310  31 db                xor    %ebx %ebx -> %ebx 
  0x00007f8b307b0312  49 87 1a             xchg   (%r10)[8byte] %rbx -> (%r10)[8byte] %rbx 
  0x00007f8b307b0315  48 8d 44 24 4f       lea    0x4f(%rsp) -> %rax 
  0x00007f8b307b031a  48 85 db             test   %rbx %rbx 
  0x00007f8b307b031d  48 89 44 24 08       mov    %rax -> 0x08(%rsp)[8byte] 
  0x00007f8b307b0322  0f 84 4f 01 00 00    jz     $0x00007f8b307b0477 
Actual: 7f8b307b0477

Block 516:
  0x00007f8b307b0477  4c 3b 54 24 10       cmp    %r10 0x10(%rsp)[8byte] 
  0x00007f8b307b047c  49 8d 42 08          lea    0x08(%r10) -> %rax 
  0x00007f8b307b0480  0f 84 8d 03 00 00    jz     $0x00007f8b307b0813 
Actual: 7f8b307b0486

Block 517:
  0x00007f8b307b0486  49 89 c2             mov    %rax -> %r10 
  0x00007f8b307b0489  e9 82 fe ff ff       jmp    $0x00007f8b307b0310 
  0x00007f8b307b0310  31 db                xor    %ebx %ebx -> %ebx 
  0x00007f8b307b0312  49 87 1a             xchg   (%r10)[8byte] %rbx -> (%r10)[8byte] %rbx 
  0x00007f8b307b0315  48 8d 44 24 4f       lea    0x4f(%rsp) -> %rax 
  0x00007f8b307b031a  48 85 db             test   %rbx %rbx 
  0x00007f8b307b031d  48 89 44 24 08       mov    %rax -> 0x08(%rsp)[8byte] 
  0x00007f8b307b0322  0f 84 4f 01 00 00    jz     $0x00007f8b307b0477 
Actual: 7f8b307b0477

Block 518:
  0x00007f8b307b0813  48 83 c4 78          add    $0x0000000000000078 %rsp -> %rsp 
  0x00007f8b307b0817  5b                   pop    %rsp (%rsp)[8byte] -> %rbx %rsp 
  0x00007f8b307b0818  5d                   pop    %rsp (%rsp)[8byte] -> %rbp %rsp 
  0x00007f8b307b0819  41 5c                pop    %rsp (%rsp)[8byte] -> %r12 %rsp 
  0x00007f8b307b081b  41 5d                pop    %rsp (%rsp)[8byte] -> %r13 %rsp 
  0x00007f8b307b081d  41 5e                pop    %rsp (%rsp)[8byte] -> %r14 %rsp 
  0x00007f8b307b081f  41 5f                pop    %rsp (%rsp)[8byte] -> %r15 %rsp 
  0x00007f8b307b0821  c3                   ret    %rsp (%rsp)[8byte] -> %rsp 
Actual: 7f8b307b3175

Block 519:
  0x00007f8b307b379e  8b 04 24             mov    (%rsp)[4byte] -> %eax 
  0x00007f8b307b37a1  05 ff ff ff 7f       add    $0x7fffffff %eax -> %eax 
  0x00007f8b307b37a6  01 c0                add    %eax %eax -> %eax 
  0x00007f8b307b37a8  48 8d 44 c5 68       lea    0x68(%rbp,%rax,8) -> %rax 
  0x00007f8b307b37ad  48 8b 10             mov    (%rax)[8byte] -> %rdx 
  0x00007f8b307b37b0  48 8d 48 f0          lea    0xfffffff0(%rax) -> %rcx 
  0x00007f8b307b37b4  48 39 ca             cmp    %rdx %rcx 
  0x00007f8b307b37b7  0f 84 40 fe ff ff    jz     $0x00007f8b307b35fd 
Actual: 7f8b307b35fd

Block 520:
  0x00007f8b307b5ab2  48 85 c0             test   %rax %rax 
  0x00007f8b307b5ab5  48 89 c5             mov    %rax -> %rbp 
  0x00007f8b307b5ab8  0f 84 32 01 00 00    jz     $0x00007f8b307b5bf0 
Actual: 7f8b307b5abe

Block 521:
  0x00007f8b307b5abe  83 3d 3b fc 33 00 00 cmp    <rel> 0x00007f8b30af5700[4byte] $0x00000000 
  0x00007f8b307b5ac5  74 07                jz     $0x00007f8b307b5ace 
Actual: 7f8b307b5ace

Block 522:
  0x00007f8b307b5ace  ff 0b                dec    (%rbx)[4byte] -> (%rbx)[4byte] 
  0x00007f8b307b5ad0  74 16                jz     $0x00007f8b307b5ae8 
Actual: 7f8b307b5ae8

Block 523:
  0x00007f8b307b5ae8  48 85 ed             test   %rbp %rbp 
  0x00007f8b307b5aeb  0f 84 cf 01 00 00    jz     $0x00007f8b307b5cc0 
Actual: 7f8b307b5af1

Block 524:
  0x00007f8b307b5af1  48 8b 55 f8          mov    0xfffffff8(%rbp)[8byte] -> %rdx 
  0x00007f8b307b5af5  f6 c2 02             test   %dl $0x02 
  0x00007f8b307b5af8  74 56                jz     $0x00007f8b307b5b50 
Actual: 7f8b307b5b50

Block 525:
  0x00007f8b307b5b50  8b 05 7e cc 33 00    mov    <rel> 0x00007f8b30af27d4[4byte] -> %eax 
  0x00007f8b307b5b56  48 83 e2 f8          and    $0xfffffffffffffff8 %rdx -> %rdx 
  0x00007f8b307b5b5a  85 c0                test   %eax %eax 
  0x00007f8b307b5b5c  75 10                jnz    $0x00007f8b307b5b6e 
Actual: 7f8b307b5b5e

Block 526:
  0x00007f8b307b5b5e  48 8d 45 f0          lea    0xfffffff0(%rbp) -> %rax 
  0x00007f8b307b5b62  49 39 c6             cmp    %r14 %rax 
  0x00007f8b307b5b65  75 07                jnz    $0x00007f8b307b5b6e 
Actual: 7f8b307b5b67

Block 527:
  0x00007f8b307b5b67  4c 39 ea             cmp    %rdx %r13 
  0x00007f8b307b5b6a  49 0f 47 d5          cmovnbe %r13 %rdx -> %rdx 
  0x00007f8b307b5b6e  48 83 ea 08          sub    $0x0000000000000008 %rdx -> %rdx 
  0x00007f8b307b5b72  48 89 d0             mov    %rdx -> %rax 
  0x00007f8b307b5b75  48 c1 e8 03          shr    $0x0000000000000003 %rax -> %rax 
  0x00007f8b307b5b79  48 83 f8 09          cmp    %rax $0x0000000000000009 
  0x00007f8b307b5b7d  0f 87 cd 00 00 00    jnbe   $0x00007f8b307b5c50 
Actual: 7f8b307b5c50

Block 528:
  0x00007f8b307b5c50  31 f6                xor    %esi %esi -> %esi 
  0x00007f8b307b5c52  48 89 ef             mov    %rbp -> %rdi 
  0x00007f8b307b5c55  e8 c6 a1 00 00       call   $0x00007f8b307bfe20 %rsp -> %rsp 0xfffffff8(%rsp)[8byte] 
  0x00007f8b307bfe20  66 0f 6e c6          movd   %esi -> %xmm0 
  0x00007f8b307bfe24  48 89 f8             mov    %rdi -> %rax 
  0x00007f8b307bfe27  66 0f 60 c0          punpcklbw %xmm0 %xmm0 -> %xmm0 
  0x00007f8b307bfe2b  66 0f 61 c0          punpcklwd %xmm0 %xmm0 -> %xmm0 
  0x00007f8b307bfe2f  66 0f 70 c0 00       pshufd %xmm0 $0x00 -> %xmm0 
  0x00007f8b307bfe34  48 83 fa 40          cmp    %rdx $0x0000000000000040 
  0x00007f8b307bfe38  77 36                jnbe   $0x00007f8b307bfe70 
Actual: 7f8b307bfe70

Block 529:
  0x00007f8b307bfe70  48 8d 4f 40          lea    0x40(%rdi) -> %rcx 
  0x00007f8b307bfe74  f3 0f 7f 07          movdqu %xmm0 -> (%rdi)[16byte] 
  0x00007f8b307bfe78  48 83 e1 c0          and    $0xffffffffffffffc0 %rcx -> %rcx 
  0x00007f8b307bfe7c  f3 0f 7f 44 17 f0    movdqu %xmm0 -> 0xfffffff0(%rdi,%rdx,1)[16byte] 
  0x00007f8b307bfe82  f3 0f 7f 47 10       movdqu %xmm0 -> 0x10(%rdi)[16byte] 
  0x00007f8b307bfe87  f3 0f 7f 44 17 e0    movdqu %xmm0 -> 0xffffffe0(%rdi,%rdx,1)[16byte] 
  0x00007f8b307bfe8d  f3 0f 7f 47 20       movdqu %xmm0 -> 0x20(%rdi)[16byte] 
  0x00007f8b307bfe92  f3 0f 7f 44 17 d0    movdqu %xmm0 -> 0xffffffd0(%rdi,%rdx,1)[16byte] 
  0x00007f8b307bfe98  f3 0f 7f 47 30       movdqu %xmm0 -> 0x30(%rdi)[16byte] 
  0x00007f8b307bfe9d  f3 0f 7f 44 17 c0    movdqu %xmm0 -> 0xffffffc0(%rdi,%rdx,1)[16byte] 
  0x00007f8b307bfea3  48 01 fa             add    %rdi %rdx -> %rdx 
  0x00007f8b307bfea6  48 83 e2 c0          and    $0xffffffffffffffc0 %rdx -> %rdx 
  0x00007f8b307bfeaa  48 39 d1             cmp    %rcx %rdx 
  0x00007f8b307bfead  74 a5                jz     $0x00007f8b307bfe54 
Actual: 7f8b307bfeaf

Block 530:
  0x00007f8b307bfeaf  90                   nop    
  0x00007f8b307bfeb0  66 0f 7f 01          movdqa %xmm0 -> (%rcx)[16byte] 
  0x00007f8b307bfeb4  66 0f 7f 41 10       movdqa %xmm0 -> 0x10(%rcx)[16byte] 
  0x00007f8b307bfeb9  66 0f 7f 41 20       movdqa %xmm0 -> 0x20(%rcx)[16byte] 
  0x00007f8b307bfebe  66 0f 7f 41 30       movdqa %xmm0 -> 0x30(%rcx)[16byte] 
  0x00007f8b307bfec3  48 83 c1 40          add    $0x0000000000000040 %rcx -> %rcx 
  0x00007f8b307bfec7  48 39 ca             cmp    %rdx %rcx 
  0x00007f8b307bfeca  75 e4                jnz    $0x00007f8b307bfeb0 
Actual: 7f8b307bfeb0

Block 531:
  0x00007f8b307bfeb0  66 0f 7f 01          movdqa %xmm0 -> (%rcx)[16byte] 
  0x00007f8b307bfeb4  66 0f 7f 41 10       movdqa %xmm0 -> 0x10(%rcx)[16byte] 
  0x00007f8b307bfeb9  66 0f 7f 41 20       movdqa %xmm0 -> 0x20(%rcx)[16byte] 
  0x00007f8b307bfebe  66 0f 7f 41 30       movdqa %xmm0 -> 0x30(%rcx)[16byte] 
  0x00007f8b307bfec3  48 83 c1 40          add    $0x0000000000000040 %rcx -> %rcx 
  0x00007f8b307bfec7  48 39 ca             cmp    %rdx %rcx 
  0x00007f8b307bfeca  75 e4                jnz    $0x00007f8b307bfeb0 
Actual: 7f8b307bfeb0

Block 532:
  0x00007f8b307bfecc  f3 c3                ret    %rsp (%rsp)[8byte] -> %rsp 
Actual: 7f8b307b5c5a

Block 533:
  0x00007f8b307b5c5a  e9 a9 fe ff ff       jmp    $0x00007f8b307b5b08 
  0x00007f8b307b5b08  5b                   pop    %rsp (%rsp)[8byte] -> %rbx %rsp 
  0x00007f8b307b5b09  48 89 e8             mov    %rbp -> %rax 
  0x00007f8b307b5b0c  5d                   pop    %rsp (%rsp)[8byte] -> %rbp %rsp 
  0x00007f8b307b5b0d  41 5c                pop    %rsp (%rsp)[8byte] -> %r12 %rsp 
  0x00007f8b307b5b0f  41 5d                pop    %rsp (%rsp)[8byte] -> %r13 %rsp 
  0x00007f8b307b5b11  41 5e                pop    %rsp (%rsp)[8byte] -> %r14 %rsp 
  0x00007f8b307b5b13  c3                   ret    %rsp (%rsp)[8byte] -> %rsp 
Actual: 55ccfba9c16d

Block 534:
  0x000055ccfba9c16d  48 85 c0             test   %rax %rax 
  0x000055ccfba9c170  48 89 03             mov    %rax -> (%rbx)[8byte] 
  0x000055ccfba9c173  74 6b                jz     $0x000055ccfba9c1e0 
Actual: 55ccfba9c175

Block 535:
  0x000055ccfba9c175  48 c1 e5 04          shl    $0x0000000000000004 %rbp -> %rbp 
  0x000055ccfba9c179  48 c7 43 18 00 00 00 mov    $0x0000000000000000 -> 0x18(%rbx)[8byte] 
                      00
  0x000055ccfba9c181  48 c7 43 20 00 00 00 mov    $0x0000000000000000 -> 0x20(%rbx)[8byte] 
                      00
  0x000055ccfba9c189  48 01 c5             add    %rax %rbp -> %rbp 
  0x000055ccfba9c18c  4c 89 63 30          mov    %r12 -> 0x30(%rbx)[8byte] 
  0x000055ccfba9c190  4c 89 6b 38          mov    %r13 -> 0x38(%rbx)[8byte] 
  0x000055ccfba9c194  48 89 6b 08          mov    %rbp -> 0x08(%rbx)[8byte] 
  0x000055ccfba9c198  4c 89 73 40          mov    %r14 -> 0x40(%rbx)[8byte] 
  0x000055ccfba9c19c  48 c7 43 48 00 00 00 mov    $0x0000000000000000 -> 0x48(%rbx)[8byte] 
                      00
  0x000055ccfba9c1a4  48 83 c4 08          add    $0x0000000000000008 %rsp -> %rsp 
  0x000055ccfba9c1a8  48 89 d8             mov    %rbx -> %rax 
  0x000055ccfba9c1ab  5b                   pop    %rsp (%rsp)[8byte] -> %rbx %rsp 
  0x000055ccfba9c1ac  5d                   pop    %rsp (%rsp)[8byte] -> %rbp %rsp 
  0x000055ccfba9c1ad  41 5c                pop    %rsp (%rsp)[8byte] -> %r12 %rsp 
  0x000055ccfba9c1af  41 5d                pop    %rsp (%rsp)[8byte] -> %r13 %rsp 
  0x000055ccfba9c1b1  41 5e                pop    %rsp (%rsp)[8byte] -> %r14 %rsp 
  0x000055ccfba9c1b3  41 5f                pop    %rsp (%rsp)[8byte] -> %r15 %rsp 
  0x000055ccfba9c1b5  c3                   ret    %rsp (%rsp)[8byte] -> %rsp 
Actual: 55ccfba99715

Block 536:
  0x000055ccfba99715  48 85 c0             test   %rax %rax 
  0x000055ccfba99718  48 89 05 f9 4d 21 00 mov    %rax -> <rel> 0x000055ccfbcae518[8byte] 
  0x000055ccfba9971f  74 05                jz     $0x000055ccfba99726 
Actual: 55ccfba99721

Block 537:
  0x000055ccfba99721  48 83 c4 08          add    $0x0000000000000008 %rsp -> %rsp 
  0x000055ccfba99725  c3                   ret    %rsp (%rsp)[8byte] -> %rsp 
Actual: 55ccfba92703

Block 538:
  0x000055ccfba92703  4d 85 ed             test   %r13 %r13 
  0x000055ccfba92706  0f 84 e1 02 00 00    jz     $0x000055ccfba929ed 
Actual: 55ccfba929ed

Block 539:
  0x000055ccfba929ed  48 8b 73 08          mov    0x08(%rbx)[8byte] -> %rsi 
  0x000055ccfba929f1  48 8b 3b             mov    (%rbx)[8byte] -> %rdi 
  0x000055ccfba929f4  4c 89 e1             mov    %r12 -> %rcx 
  0x000055ccfba929f7  31 d2                xor    %edx %edx -> %edx 
  0x000055ccfba929f9  e8 52 03 00 00       call   $0x000055ccfba92d50 %rsp -> %rsp 0xfffffff8(%rsp)[8byte] 
  0x000055ccfba92d50  41 54                push   %r12 %rsp -> %rsp 0xfffffff8(%rsp)[8byte] 
  0x000055ccfba92d52  55                   push   %rbp %rsp -> %rsp 0xfffffff8(%rsp)[8byte] 
  0x000055ccfba92d53  49 89 cc             mov    %rcx -> %r12 
  0x000055ccfba92d56  53                   push   %rbx %rsp -> %rsp 0xfffffff8(%rsp)[8byte] 
  0x000055ccfba92d57  48 89 f5             mov    %rsi -> %rbp 
  0x000055ccfba92d5a  48 89 fb             mov    %rdi -> %rbx 
  0x000055ccfba92d5d  48 83 ec 10          sub    $0x0000000000000010 %rsp -> %rsp 
  0x000055ccfba92d61  80 3d 78 b3 21 00 00 cmp    <rel> 0x000055ccfbcae0e0[1byte] $0x00 
  0x000055ccfba92d68  75 66                jnz    $0x000055ccfba92dd0 
Actual: 55ccfba92d6a

Block 540:
  0x000055ccfba92d6a  84 d2                test   %dl %dl 
  0x000055ccfba92d6c  75 1a                jnz    $0x000055ccfba92d88 
Actual: 55ccfba92d6e

Block 541:
  0x000055ccfba92d6e  48 83 c4 10          add    $0x0000000000000010 %rsp -> %rsp 
  0x000055ccfba92d72  4c 89 e2             mov    %r12 -> %rdx 
  0x000055ccfba92d75  48 89 ee             mov    %rbp -> %rsi 
  0x000055ccfba92d78  48 89 df             mov    %rbx -> %rdi 
  0x000055ccfba92d7b  5b                   pop    %rsp (%rsp)[8byte] -> %rbx %rsp 
  0x000055ccfba92d7c  5d                   pop    %rsp (%rsp)[8byte] -> %rbp %rsp 
  0x000055ccfba92d7d  41 5c                pop    %rsp (%rsp)[8byte] -> %r12 %rsp 
  0x000055ccfba92d7f  e9 5c fe ff ff       jmp    $0x000055ccfba92be0 
  0x000055ccfba92be0  41 55                push   %r13 %rsp -> %rsp 0xfffffff8(%rsp)[8byte] 
  0x000055ccfba92be2  41 54                push   %r12 %rsp -> %rsp 0xfffffff8(%rsp)[8byte] 
  0x000055ccfba92be4  48 89 d1             mov    %rdx -> %rcx 
  0x000055ccfba92be7  55                   push   %rbp %rsp -> %rsp 0xfffffff8(%rsp)[8byte] 
  0x000055ccfba92be8  53                   push   %rbx %rsp -> %rsp 0xfffffff8(%rsp)[8byte] 
  0x000055ccfba92be9  48 89 d5             mov    %rdx -> %rbp 
  0x000055ccfba92bec  31 d2                xor    %edx %edx -> %edx 
  0x000055ccfba92bee  48 89 fb             mov    %rdi -> %rbx 
  0x000055ccfba92bf1  48 83 ec 58          sub    $0x0000000000000058 %rsp -> %rsp 
  0x000055ccfba92bf5  4c 8d 4c 24 0f       lea    0x0f(%rsp) -> %r9 
  0x000055ccfba92bfa  4c 8d 44 24 0e       lea    0x0e(%rsp) -> %r8 
  0x000055ccfba92bff  64 48 8b 04 25 28 00 mov    %fs:0x28[8byte] -> %rax 
                      00 00
  0x000055ccfba92c08  48 89 44 24 48       mov    %rax -> 0x48(%rsp)[8byte] 
  0x000055ccfba92c0d  31 c0                xor    %eax %eax -> %eax 
  0x000055ccfba92c0f  e8 cc 67 00 00       call   $0x000055ccfba993e0 %rsp -> %rsp 0xfffffff8(%rsp)[8byte] 
  0x000055ccfba993e0  48 83 ec 18          sub    $0x0000000000000018 %rsp -> %rsp 
  0x000055ccfba993e4  64 48 8b 04 25 28 00 mov    %fs:0x28[8byte] -> %rax 
                      00 00
  0x000055ccfba993ed  48 89 44 24 08       mov    %rax -> 0x08(%rsp)[8byte] 
  0x000055ccfba993f2  31 c0                xor    %eax %eax -> %eax 
  0x000055ccfba993f4  48 85 c9             test   %rcx %rcx 
  0x000055ccfba993f7  0f 84 ce 00 00 00    jz     $0x000055ccfba994cb 
Actual: 55ccfba993fd

Block 542:
  0x000055ccfba993fd  83 39 03             cmp    (%rcx)[4byte] $0x00000003 
  0x000055ccfba99400  0f 87 03 01 00 00    jnbe   $0x000055ccfba99509 
Actual: 55ccfba99406

Block 543:
  0x000055ccfba99406  8b 41 0c             mov    0x0c(%rcx)[4byte] -> %eax 
  0x000055ccfba99409  44 8d 50 ff          lea    0xffffffff(%rax) -> %r10d 
  0x000055ccfba9940d  41 83 fa 02          cmp    %r10d $0x00000002 
  0x000055ccfba99411  0f 87 d3 00 00 00    jnbe   $0x000055ccfba994ea 
Actual: 55ccfba99417

Block 544:
  0x000055ccfba99417  44 8b 51 30          mov    0x30(%rcx)[4byte] -> %r10d 
  0x000055ccfba9941b  41 83 fa 02          cmp    %r10d $0x00000002 
  0x000055ccfba9941f  0f 87 87 00 00 00    jnbe   $0x000055ccfba994ac 
Actual: 55ccfba99425

Block 545:
  0x000055ccfba99425  80 79 17 00          cmp    0x17(%rcx)[1byte] $0x00 
  0x000055ccfba99429  74 0a                jz     $0x000055ccfba99435 
Actual: 55ccfba99435

Block 546:
  0x000055ccfba99435  83 f8 02             cmp    %eax $0x00000002 
  0x000055ccfba99438  74 06                jz     $0x000055ccfba99440 
Actual: 55ccfba99440

Block 547:
  0x000055ccfba99440  c6 44 24 07 00       mov    $0x00 -> 0x07(%rsp)[1byte] 
  0x000055ccfba99445  41 51                push   %r9 %rsp -> %rsp 0xfffffff8(%rsp)[8byte] 
  0x000055ccfba99447  0f b6 d2             movzx  %dl -> %edx 
  0x000055ccfba9944a  41 50                push   %r8 %rsp -> %rsp 0xfffffff8(%rsp)[8byte] 
  0x000055ccfba9944c  49 89 c9             mov    %rcx -> %r9 
  0x000055ccfba9944f  45 31 c0             xor    %r8d %r8d -> %r8d 
  0x000055ccfba99452  31 c9                xor    %ecx %ecx -> %ecx 
  0x000055ccfba99454  48 89 35 ad 50 21 00 mov    %rsi -> <rel> 0x000055ccfbcae508[8byte] 
  0x000055ccfba9945b  48 89 3d ae 50 21 00 mov    %rdi -> <rel> 0x000055ccfbcae510[8byte] 
  0x000055ccfba99462  48 8d 44 24 17       lea    0x17(%rsp) -> %rax 
  0x000055ccfba99467  50                   push   %rax %rsp -> %rsp 0xfffffff8(%rsp)[8byte] 
  0x000055ccfba99468  6a 01                push   $0x0000000000000001 %rsp -> %rsp 0xfffffff8(%rsp)[8byte] 
  0x000055ccfba9946a  e8 f1 bf ff ff       call   $0x000055ccfba95460 %rsp -> %rsp 0xfffffff8(%rsp)[8byte] 
  0x000055ccfba95460  55                   push   %rbp %rsp -> %rsp 0xfffffff8(%rsp)[8byte] 
  0x000055ccfba95461  48 89 e5             mov    %rsp -> %rbp 
  0x000055ccfba95464  41 57                push   %r15 %rsp -> %rsp 0xfffffff8(%rsp)[8byte] 
  0x000055ccfba95466  41 56                push   %r14 %rsp -> %rsp 0xfffffff8(%rsp)[8byte] 
  0x000055ccfba95468  41 55                push   %r13 %rsp -> %rsp 0xfffffff8(%rsp)[8byte] 
  0x000055ccfba9546a  41 54                push   %r12 %rsp -> %rsp 0xfffffff8(%rsp)[8byte] 
  0x000055ccfba9546c  41 89 d5             mov    %edx -> %r13d 
  0x000055ccfba9546f  53                   push   %rbx %rsp -> %rsp 0xfffffff8(%rsp)[8byte] 
  0x000055ccfba95470  4d 89 cc             mov    %r9 -> %r12 
  0x000055ccfba95473  48 81 ec a8 03 00 00 sub    $0x00000000000003a8 %rsp -> %rsp 
  0x000055ccfba9547a  8b 45 10             mov    0x10(%rbp)[4byte] -> %eax 
  0x000055ccfba9547d  48 89 b5 f0 fc ff ff mov    %rsi -> 0xfffffcf0(%rbp)[8byte] 
  0x000055ccfba95484  64 48 8b 34 25 28 00 mov    %fs:0x28[8byte] -> %rsi 
                      00 00
  0x000055ccfba9548d  48 89 75 c8          mov    %rsi -> 0xffffffc8(%rbp)[8byte] 
  0x000055ccfba95491  31 f6                xor    %esi %esi -> %esi 
  0x000055ccfba95493  48 89 8d a0 fc ff ff mov    %rcx -> 0xfffffca0(%rbp)[8byte] 
  0x000055ccfba9549a  48 89 bd f8 fc ff ff mov    %rdi -> 0xfffffcf8(%rbp)[8byte] 
  0x000055ccfba954a1  89 85 e4 fc ff ff    mov    %eax -> 0xfffffce4(%rbp)[4byte] 
  0x000055ccfba954a7  48 8b 45 18          mov    0x18(%rbp)[8byte] -> %rax 
  0x000055ccfba954ab  4c 89 85 b0 fc ff ff mov    %r8 -> 0xfffffcb0(%rbp)[8byte] 
  0x000055ccfba954b2  48 89 85 a8 fc ff ff mov    %rax -> 0xfffffca8(%rbp)[8byte] 
  0x000055ccfba954b9  48 8b 45 20          mov    0x20(%rbp)[8byte] -> %rax 
  0x000055ccfba954bd  48 89 85 d8 fc ff ff mov    %rax -> 0xfffffcd8(%rbp)[8byte] 
  0x000055ccfba954c4  48 8b 45 28          mov    0x28(%rbp)[8byte] -> %rax 
  0x000055ccfba954c8  48 85 c0             test   %rax %rax 
  0x000055ccfba954cb  48 89 85 b8 fc ff ff mov    %rax -> 0xfffffcb8(%rbp)[8byte] 
  0x000055ccfba954d2  0f 95 85 e8 fc ff ff setnz  -> 0xfffffce8(%rbp)[1byte] 
  0x000055ccfba954d9  41 80 79 18 00       cmp    0x18(%r9)[1byte] $0x00 
  0x000055ccfba954de  0f b6 8d e8 fc ff ff movzx  0xfffffce8(%rbp)[1byte] -> %ecx 
  0x000055ccfba954e5  74 07                jz     $0x000055ccfba954ee 
Actual: 55ccfba954e7

Block 548:
  0x000055ccfba954e7  84 c9                test   %cl %cl 
  0x000055ccfba954e9  74 03                jz     $0x000055ccfba954ee 
Actual: 55ccfba954eb

Block 549:
  0x000055ccfba954eb  c6 00 00             mov    $0x00 -> (%rax)[1byte] 
  0x000055ccfba954ee  48 8b 85 d8 fc ff ff mov    0xfffffcd8(%rbp)[8byte] -> %rax 
  0x000055ccfba954f5  48 8b b5 f8 fc ff ff mov    0xfffffcf8(%rbp)[8byte] -> %rsi 
  0x000055ccfba954fc  bf 01 00 00 00       mov    $0x00000001 -> %edi 
  0x000055ccfba95501  c6 00 00             mov    $0x00 -> (%rax)[1byte] 
  0x000055ccfba95504  41 83 7c 24 04 02    cmp    0x04(%r12)[4byte] $0x00000002 
  0x000055ccfba9550a  48 8d 85 80 fd ff ff lea    0xfffffd80(%rbp) -> %rax 
  0x000055ccfba95511  48 89 85 d0 fc ff ff mov    %rax -> 0xfffffcd0(%rbp)[8byte] 
  0x000055ccfba95518  48 89 c2             mov    %rax -> %rdx 
  0x000055ccfba9551b  0f 84 3f 04 00 00    jz     $0x000055ccfba95960 
Actual: 55ccfba95960

Block 550:
  0x000055ccfba95960  e8 73 c6 ff ff       call   $0x000055ccfba91fd8 %rsp -> %rsp 0xfffffff8(%rsp)[8byte] 
  0x000055ccfba91fd8  ff 25 9a bc 21 00    jmp    <rel> 0x000055ccfbcadc78[8byte] 
Actual: 7f8b30826980

Block 551:
  0x00007f8b30826980  83 ff 01             cmp    %edi $0x00000001 
  0x00007f8b30826983  48 89 f0             mov    %rsi -> %rax 
  0x00007f8b30826986  77 30                jnbe   $0x00007f8b308269b8 
Actual: 7f8b30826988

Block 552:
  0x00007f8b30826988  48 89 c7             mov    %rax -> %rdi 
  0x00007f8b3082698b  48 89 d6             mov    %rdx -> %rsi 
  0x00007f8b3082698e  b8 06 00 00 00       mov    $0x00000006 -> %eax 
  0x00007f8b30826993  0f 05                syscall -> %rcx 
  0x00007f8b30826995  48 3d 00 f0 ff ff    cmp    %rax $0xfffffffffffff000 
  0x00007f8b3082699b  77 03                jnbe   $0x00007f8b308269a0 
Actual: 7f8b3082699d

Block 553:
  0x00007f8b3082699d  f3 c3                ret    %rsp (%rsp)[8byte] -> %rsp 
Actual: 55ccfba95965

Block 554:
  0x000055ccfba95965  85 c0                test   %eax %eax 
  0x000055ccfba95967  48 8b b5 f8 fc ff ff mov    0xfffffcf8(%rbp)[8byte] -> %rsi 
  0x000055ccfba9596e  41 0f 95 c7          setnz  -> %r15l 
  0x000055ccfba95972  45 84 ff             test   %r15l %r15l 
  0x000055ccfba95975  0f 84 c1 fb ff ff    jz     $0x000055ccfba9553c 
Actual: 55ccfba9553c

Block 555:
  0x000055ccfba9553c  8b 85 98 fd ff ff    mov    0xfffffd98(%rbp)[4byte] -> %eax 
  0x000055ccfba95542  89 c3                mov    %eax -> %ebx 
  0x000055ccfba95544  89 85 e0 fc ff ff    mov    %eax -> 0xfffffce0(%rbp)[4byte] 
  0x000055ccfba9554a  81 e3 00 f0 00 00    and    $0x0000f000 %ebx -> %ebx 
  0x000055ccfba95550  81 fb 00 40 00 00    cmp    %ebx $0x00004000 
  0x000055ccfba95556  0f 84 b4 04 00 00    jz     $0x000055ccfba95a10 
Actual: 55ccfba9555c

Block 556:
  0x000055ccfba9555c  80 bd e4 fc ff ff 00 cmp    0xfffffce4(%rbp)[1byte] $0x00 
  0x000055ccfba95563  74 25                jz     $0x000055ccfba9558a 
Actual: 55ccfba95565

Block 557:
  0x000055ccfba95565  45 8b 04 24          mov    (%r12)[4byte] -> %r8d 
  0x000055ccfba95569  45 85 c0             test   %r8d %r8d 
  0x000055ccfba9556c  0f 84 2e 0b 00 00    jz     $0x000055ccfba960a0 
Actual: 55ccfba960a0

Block 558:
  0x000055ccfba960a0  49 8b 7c 24 40       mov    0x40(%r12)[8byte] -> %rdi 
  0x000055ccfba960a5  48 8b 95 d0 fc ff ff mov    0xfffffcd0(%rbp)[8byte] -> %rdx 
  0x000055ccfba960ac  48 8b b5 f8 fc ff ff mov    0xfffffcf8(%rbp)[8byte] -> %rsi 
  0x000055ccfba960b3  e8 68 53 00 00       call   $0x000055ccfba9b420 %rsp -> %rsp 0xfffffff8(%rsp)[8byte] 
  0x000055ccfba9b420  48 83 ec 28          sub    $0x0000000000000028 %rsp -> %rsp 
  0x000055ccfba9b424  64 48 8b 04 25 28 00 mov    %fs:0x28[8byte] -> %rax 
                      00 00
  0x000055ccfba9b42d  48 89 44 24 18       mov    %rax -> 0x18(%rsp)[8byte] 
  0x000055ccfba9b432  31 c0                xor    %eax %eax -> %eax 
  0x000055ccfba9b434  48 85 ff             test   %rdi %rdi 
  0x000055ccfba9b437  74 23                jz     $0x000055ccfba9b45c 
Actual: 55ccfba9b45c

Block 559:
  0x000055ccfba9b45c  48 8b 4c 24 18       mov    0x18(%rsp)[8byte] -> %rcx 
  0x000055ccfba9b461  64 48 33 0c 25 28 00 xor    %fs:0x28[8byte] %rcx -> %rcx 
                      00 00
  0x000055ccfba9b46a  75 05                jnz    $0x000055ccfba9b471 
Actual: 55ccfba9b46c

Block 560:
  0x000055ccfba9b46c  48 83 c4 28          add    $0x0000000000000028 %rsp -> %rsp 
  0x000055ccfba9b470  c3                   ret    %rsp (%rsp)[8byte] -> %rsp 
Actual: 55ccfba960b8

Block 561:
  0x000055ccfba960b8  84 c0                test   %al %al 
  0x000055ccfba960ba  41 89 c6             mov    %eax -> %r14d 
  0x000055ccfba960bd  0f 84 af f4 ff ff    jz     $0x000055ccfba95572 
Actual: 55ccfba95572

Block 562:
  0x000055ccfba95572  49 8b 7c 24 40       mov    0x40(%r12)[8byte] -> %rdi 
  0x000055ccfba95577  48 8b 95 d0 fc ff ff mov    0xfffffcd0(%rbp)[8byte] -> %rdx 
  0x000055ccfba9557e  48 8b b5 f8 fc ff ff mov    0xfffffcf8(%rbp)[8byte] -> %rsi 
  0x000055ccfba95585  e8 06 5e 00 00       call   $0x000055ccfba9b390 %rsp -> %rsp 0xfffffff8(%rsp)[8byte] 
  0x000055ccfba9b390  48 85 ff             test   %rdi %rdi 
  0x000055ccfba9b393  74 75                jz     $0x000055ccfba9b40a 
Actual: 55ccfba9b40a

Block 563:
  0x000055ccfba9b40a  f3 c3                ret    %rsp (%rsp)[8byte] -> %rsp 
Actual: 55ccfba9558a

Block 564:
  0x000055ccfba9558a  41 8b 54 24 04       mov    0x04(%r12)[4byte] -> %edx 
  0x000055ccfba9558f  b8 01 00 00 00       mov    $0x00000001 -> %eax 
  0x000055ccfba95594  83 fa 04             cmp    %edx $0x00000004 
  0x000055ccfba95597  74 0c                jz     $0x000055ccfba955a5 
Actual: 55ccfba95599

Block 565:
  0x000055ccfba95599  83 fa 03             cmp    %edx $0x00000003 
  0x000055ccfba9559c  0f 94 c0             setz   -> %al 
  0x000055ccfba9559f  22 85 e4 fc ff ff    and    0xfffffce4(%rbp)[1byte] %al -> %al 
  0x000055ccfba955a5  0f b6 c0             movzx  %al -> %eax 
  0x000055ccfba955a8  45 84 ed             test   %r13l %r13l 
  0x000055ccfba955ab  89 85 c0 fc ff ff    mov    %eax -> 0xfffffcc0(%rbp)[4byte] 
  0x000055ccfba955b1  0f 85 cf 01 00 00    jnz    $0x000055ccfba95786 
Actual: 55ccfba955b7

Block 566:
  0x000055ccfba955b7  81 fb 00 80 00 00    cmp    %ebx $0x00008000 
  0x000055ccfba955bd  74 24                jz     $0x000055ccfba955e3 
Actual: 55ccfba955e3

Block 567:
  0x000055ccfba955e3  41 80 7c 24 18 00    cmp    0x18(%r12)[1byte] $0x00 
  0x000055ccfba955e9  0f 85 59 01 00 00    jnz    $0x000055ccfba95748 
Actual: 55ccfba95748

Block 568:
  0x000055ccfba95748  4c 8d b5 10 fe ff ff lea    0xfffffe10(%rbp) -> %r14 
  0x000055ccfba9574f  48 8b b5 f0 fc ff ff mov    0xfffffcf0(%rbp)[8byte] -> %rsi 
  0x000055ccfba95756  bf 01 00 00 00       mov    $0x00000001 -> %edi 
  0x000055ccfba9575b  4c 89 f2             mov    %r14 -> %rdx 
  0x000055ccfba9575e  e8 75 c8 ff ff       call   $0x000055ccfba91fd8 %rsp -> %rsp 0xfffffff8(%rsp)[8byte] 
  0x000055ccfba91fd8  ff 25 9a bc 21 00    jmp    <rel> 0x000055ccfbcadc78[8byte] 
Actual: 7f8b30826980

Block 569:
  0x00007f8b308269a0  48 8b 15 c1 94 2c 00 mov    <rel> 0x00007f8b30aefe68[8byte] -> %rdx 
  0x00007f8b308269a7  f7 d8                neg    %eax -> %eax 
  0x00007f8b308269a9  64 89 02             mov    %eax -> %fs:(%rdx)[4byte] 
  0x00007f8b308269ac  b8 ff ff ff ff       mov    $0xffffffff -> %eax 
  0x00007f8b308269b1  c3                   ret    %rsp (%rsp)[8byte] -> %rsp 
Actual: 55ccfba95763

Block 570:
  0x000055ccfba95763  85 c0                test   %eax %eax 
  0x000055ccfba95765  45 89 e9             mov    %r13d -> %r9d 
  0x000055ccfba95768  41 0f 95 c0          setnz  -> %r8l 
  0x000055ccfba9576c  45 84 c0             test   %r8l %r8l 
  0x000055ccfba9576f  0f 84 da fe ff ff    jz     $0x000055ccfba9564f 
Actual: 55ccfba95775

Block 571:
  0x000055ccfba95775  e8 66 c7 ff ff       call   $0x000055ccfba91ee0 %rsp -> %rsp 0xfffffff8(%rsp)[8byte] 
  0x000055ccfba91ee0  ff 25 7a bc 21 00    jmp    <rel> 0x000055ccfbcadb60[8byte] 
Actual: 7f8b3113d2e0

Block 572:
  0x000055ccfba9577a  83 38 02             cmp    (%rax)[4byte] $0x00000002 
  0x000055ccfba9577d  49 89 c6             mov    %rax -> %r14 
  0x000055ccfba95780  0f 85 02 03 00 00    jnz    $0x000055ccfba95a88 
Actual: 55ccfba95786

Block 573:
  0x000055ccfba95786  45 31 c9             xor    %r9d %r9d -> %r9d 
  0x000055ccfba95789  45 31 c0             xor    %r8d %r8d -> %r8d 
  0x000055ccfba9578c  c6 85 98 fc ff ff 01 mov    $0x01 -> 0xfffffc98(%rbp)[1byte] 
  0x000055ccfba95793  45 31 f6             xor    %r14d %r14d -> %r14d 
  0x000055ccfba95796  80 bd e4 fc ff ff 00 cmp    0xfffffce4(%rbp)[1byte] $0x00 
  0x000055ccfba9579d  0f 84 cd 00 00 00    jz     $0x000055ccfba95870 
Actual: 55ccfba957a3

Block 574:
  0x000055ccfba957a3  49 83 7c 24 38 00    cmp    0x38(%r12)[8byte] $0x0000000000000000 
  0x000055ccfba957a9  0f 84 c1 00 00 00    jz     $0x000055ccfba95870 
Actual: 55ccfba95870

Block 575:
  0x000055ccfba95870  81 fb 00 40 00 00    cmp    %ebx $0x00004000 
  0x000055ccfba95876  41 0f 95 c5          setnz  -> %r13l 
  0x000055ccfba9587a  44 89 e8             mov    %r13d -> %eax 
  0x000055ccfba9587d  41 22 44 24 2d       and    0x2d(%r12)[1byte] %al -> %al 
  0x000055ccfba95882  88 85 c8 fc ff ff    mov    %al -> 0xfffffcc8(%rbp)[1byte] 
  0x000055ccfba95888  74 38                jz     $0x000055ccfba958c2 
Actual: 55ccfba958c2

Block 576:
  0x000055ccfba958c2  81 fb 00 40 00 00    cmp    %ebx $0x00004000 
  0x000055ccfba958c8  41 0f 94 c1          setz   -> %r9l 
  0x000055ccfba958cc  44 89 ca             mov    %r9d -> %edx 
  0x000055ccfba958cf  41 22 54 24 29       and    0x29(%r12)[1byte] %dl -> %dl 
  0x000055ccfba958d4  0f 85 56 01 00 00    jnz    $0x000055ccfba95a30 
Actual: 55ccfba958da

Block 577:
  0x000055ccfba958da  41 0f b6 44 24 18    movzx  0x18(%r12)[1byte] -> %eax 
  0x000055ccfba958e0  84 c0                test   %al %al 
  0x000055ccfba958e2  0f 84 f8 00 00 00    jz     $0x000055ccfba959e0 
Actual: 55ccfba958e8

Block 578:
  0x000055ccfba958e8  48 83 bd 90 fd ff ff cmp    0xfffffd90(%rbp)[8byte] $0x0000000000000001 
                      01
  0x000055ccfba958f0  0f 84 62 09 00 00    jz     $0x000055ccfba96258 
Actual: 55ccfba96258

Block 579:
  0x000055ccfba96258  44 89 ca             mov    %r9d -> %edx 
  0x000055ccfba9625b  e9 40 fa ff ff       jmp    $0x000055ccfba95ca0 
  0x000055ccfba95ca0  48 8b b5 80 fd ff ff mov    0xfffffd80(%rbp)[8byte] -> %rsi 
  0x000055ccfba95ca7  48 8b bd 88 fd ff ff mov    0xfffffd88(%rbp)[8byte] -> %rdi 
  0x000055ccfba95cae  44 88 85 93 fc ff ff mov    %r8l -> 0xfffffc93(%rbp)[1byte] 
  0x000055ccfba95cb5  88 95 94 fc ff ff    mov    %dl -> 0xfffffc94(%rbp)[1byte] 
  0x000055ccfba95cbb  e8 50 39 00 00       call   $0x000055ccfba99610 %rsp -> %rsp 0xfffffff8(%rsp)[8byte] 
  0x000055ccfba99610  48 83 ec 28          sub    $0x0000000000000028 %rsp -> %rsp 
  0x000055ccfba99614  48 89 3c 24          mov    %rdi -> (%rsp)[8byte] 
  0x000055ccfba99618  48 8b 3d f9 4e 21 00 mov    <rel> 0x000055ccfbcae518[8byte] -> %rdi 
  0x000055ccfba9961f  48 89 74 24 08       mov    %rsi -> 0x08(%rsp)[8byte] 
  0x000055ccfba99624  48 89 e6             mov    %rsp -> %rsi 
  0x000055ccfba99627  64 48 8b 04 25 28 00 mov    %fs:0x28[8byte] -> %rax 
                      00 00
  0x000055ccfba99630  48 89 44 24 18       mov    %rax -> 0x18(%rsp)[8byte] 
  0x000055ccfba99635  31 c0                xor    %eax %eax -> %eax 
  0x000055ccfba99637  e8 24 28 00 00       call   $0x000055ccfba9be60 %rsp -> %rsp 0xfffffff8(%rsp)[8byte] 
  0x000055ccfba9be60  41 54                push   %r12 %rsp -> %rsp 0xfffffff8(%rsp)[8byte] 
  0x000055ccfba9be62  55                   push   %rbp %rsp -> %rsp 0xfffffff8(%rsp)[8byte] 
  0x000055ccfba9be63  49 89 fc             mov    %rdi -> %r12 
  0x000055ccfba9be66  53                   push   %rbx %rsp -> %rsp 0xfffffff8(%rsp)[8byte] 
  0x000055ccfba9be67  48 89 f5             mov    %rsi -> %rbp 
  0x000055ccfba9be6a  e8 f1 fa ff ff       call   $0x000055ccfba9b960 %rsp -> %rsp 0xfffffff8(%rsp)[8byte] 
  0x000055ccfba9b960  53                   push   %rbx %rsp -> %rsp 0xfffffff8(%rsp)[8byte] 
  0x000055ccfba9b961  48 89 fb             mov    %rdi -> %rbx 
  0x000055ccfba9b964  48 89 f7             mov    %rsi -> %rdi 
  0x000055ccfba9b967  48 8b 43 30          mov    0x30(%rbx)[8byte] -> %rax 
  0x000055ccfba9b96b  48 8b 73 10          mov    0x10(%rbx)[8byte] -> %rsi 
  0x000055ccfba9b96f  ff d0                call   %rax %rsp -> %rsp 0xfffffff8(%rsp)[8byte] 
Actual: 55ccfba99550

Block 580:
  0x000055ccfba99550  48 8b 07             mov    (%rdi)[8byte] -> %rax 
  0x000055ccfba99553  31 d2                xor    %edx %edx -> %edx 
  0x000055ccfba99555  48 f7 f6             div    %rsi %rdx %rax -> %rdx %rax 
  0x000055ccfba99558  48 89 d0             mov    %rdx -> %rax 
  0x000055ccfba9955b  c3                   ret    %rsp (%rsp)[8byte] -> %rsp 
Actual: 55ccfba9b971

Block 581:
  0x000055ccfba9b971  48 3b 43 10          cmp    %rax 0x10(%rbx)[8byte] 
  0x000055ccfba9b975  73 09                jnb    $0x000055ccfba9b980 
Actual: 55ccfba9b977

Block 582:
  0x000055ccfba9b977  48 c1 e0 04          shl    $0x0000000000000004 %rax -> %rax 
  0x000055ccfba9b97b  48 03 03             add    (%rbx)[8byte] %rax -> %rax 
  0x000055ccfba9b97e  5b                   pop    %rsp (%rsp)[8byte] -> %rbx %rsp 
  0x000055ccfba9b97f  c3                   ret    %rsp (%rsp)[8byte] -> %rsp 
Actual: 55ccfba9be6f

Block 583:
  0x000055ccfba9be6f  48 8b 30             mov    (%rax)[8byte] -> %rsi 
  0x000055ccfba9be72  48 85 f6             test   %rsi %rsi 
  0x000055ccfba9be75  74 28                jz     $0x000055ccfba9be9f 
Actual: 55ccfba9be9f

Block 584:
  0x000055ccfba9be9f  5b                   pop    %rsp (%rsp)[8byte] -> %rbx %rsp 
  0x000055ccfba9bea0  31 c0                xor    %eax %eax -> %eax 
  0x000055ccfba9bea2  5d                   pop    %rsp (%rsp)[8byte] -> %rbp %rsp 
  0x000055ccfba9bea3  41 5c                pop    %rsp (%rsp)[8byte] -> %r12 %rsp 
  0x000055ccfba9bea5  c3                   ret    %rsp (%rsp)[8byte] -> %rsp 
Actual: 55ccfba9963c

Block 585:
  0x000055ccfba9963c  48 85 c0             test   %rax %rax 
  0x000055ccfba9963f  74 1f                jz     $0x000055ccfba99660 
Actual: 55ccfba99660

Block 586:
  0x000055ccfba99660  31 c0                xor    %eax %eax -> %eax 
  0x000055ccfba99662  eb e1                jmp    $0x000055ccfba99645 
  0x000055ccfba99645  48 8b 54 24 18       mov    0x18(%rsp)[8byte] -> %rdx 
  0x000055ccfba9964a  64 48 33 14 25 28 00 xor    %fs:0x28[8byte] %rdx -> %rdx 
                      00 00
  0x000055ccfba99653  75 0f                jnz    $0x000055ccfba99664 
Actual: 55ccfba99655

Block 587:
  0x000055ccfba99655  48 83 c4 28          add    $0x0000000000000028 %rsp -> %rsp 
  0x000055ccfba99659  c3                   ret    %rsp (%rsp)[8byte] -> %rsp 
Actual: 55ccfba95cc0

Block 588:
  0x000055ccfba95cc0  0f b6 95 94 fc ff ff movzx  0xfffffc94(%rbp)[1byte] -> %edx 
  0x000055ccfba95cc7  44 0f b6 85 93 fc ff movzx  0xfffffc93(%rbp)[1byte] -> %r8d 
                      ff
  0x000055ccfba95ccf  48 89 85 c8 fc ff ff mov    %rax -> 0xfffffcc8(%rbp)[8byte] 
  0x000055ccfba95cd6  41 89 d1             mov    %edx -> %r9d 
  0x000055ccfba95cd9  48 83 bd c8 fc ff ff cmp    0xfffffcc8(%rbp)[8byte] $0x0000000000000000 
                      00
  0x000055ccfba95ce1  0f 84 19 0b 00 00    jz     $0x000055ccfba96800 
Actual: 55ccfba96800

Block 589:
  0x000055ccfba96800  41 0f b6 44 24 18    movzx  0x18(%r12)[1byte] -> %eax 
  0x000055ccfba96806  e9 37 f1 ff ff       jmp    $0x000055ccfba95942 
  0x000055ccfba95942  84 c0                test   %al %al 
  0x000055ccfba95944  0f 85 41 0c 00 00    jnz    $0x000055ccfba9658b 
Actual: 55ccfba9658b

Block 590:
  0x000055ccfba9658b  48 8b b5 f0 fc ff ff mov    0xfffffcf0(%rbp)[8byte] -> %rsi 
  0x000055ccfba96592  48 8b bd f8 fc ff ff mov    0xfffffcf8(%rbp)[8byte] -> %rdi 
  0x000055ccfba96599  44 88 8d e8 fc ff ff mov    %r9l -> 0xfffffce8(%rbp)[1byte] 
  0x000055ccfba965a0  44 88 85 98 fc ff ff mov    %r8l -> 0xfffffc98(%rbp)[1byte] 
  0x000055ccfba965a7  e8 cc bc ff ff       call   $0x000055ccfba92278 %rsp -> %rsp 0xfffffff8(%rsp)[8byte] 
  0x000055ccfba92278  ff 25 b2 bc 21 00    jmp    <rel> 0x000055ccfbcadf30[8byte] 
Actual: 7f8b3079ce70

Block 591:
  0x00007f8b3079ce70  b8 52 00 00 00       mov    $0x00000052 -> %eax 
  0x00007f8b3079ce75  0f 05                syscall -> %rcx 
  0x00007f8b3079ce77  48 3d 01 f0 ff ff    cmp    %rax $0xfffffffffffff001 
  0x00007f8b3079ce7d  73 01                jnb    $0x00007f8b3079ce80 
Actual: 7f8b3079ce7f

Block 592:
  0x00007f8b3079ce7f  c3                   ret    %rsp (%rsp)[8byte] -> %rsp 
Actual: 55ccfba965ac

Block 593:
  0x000055ccfba965ac  85 c0                test   %eax %eax 
  0x000055ccfba965ae  44 0f b6 8d e8 fc ff movzx  0xfffffce8(%rbp)[1byte] -> %r9d 
                      ff
  0x000055ccfba965b6  0f 85 cc 03 00 00    jnz    $0x000055ccfba96988 
Actual: 55ccfba965bc

Block 594:
  0x000055ccfba965bc  41 80 7c 24 2d 00    cmp    0x2d(%r12)[1byte] $0x00 
  0x000055ccfba965c2  74 09                jz     $0x000055ccfba965cd 
Actual: 55ccfba965cd

Block 595:
  0x000055ccfba965cd  41 80 7c 24 20 00    cmp    0x20(%r12)[1byte] $0x00 
  0x000055ccfba965d3  0f 85 7f 0c 00 00    jnz    $0x000055ccfba97258 
Actual: 55ccfba965d9

Block 596:
  0x000055ccfba965d9  48 8b 85 b8 fc ff ff mov    0xfffffcb8(%rbp)[8byte] -> %rax 
  0x000055ccfba965e0  48 85 c0             test   %rax %rax 
  0x000055ccfba965e3  74 03                jz     $0x000055ccfba965e8 
Actual: 55ccfba965e5

Block 597:
  0x000055ccfba965e5  c6 00 01             mov    $0x01 -> (%rax)[1byte] 
  0x000055ccfba965e8  80 bd e4 fc ff ff 00 cmp    0xfffffce4(%rbp)[1byte] $0x00 
  0x000055ccfba965ef  0f 84 4b f8 ff ff    jz     $0x000055ccfba95e40 
Actual: 55ccfba965f5

Block 598:
  0x000055ccfba965f5  49 8b 7c 24 38       mov    0x38(%r12)[8byte] -> %rdi 
  0x000055ccfba965fa  48 8b 95 d0 fc ff ff mov    0xfffffcd0(%rbp)[8byte] -> %rdx 
  0x000055ccfba96601  48 8b b5 f0 fc ff ff mov    0xfffffcf0(%rbp)[8byte] -> %rsi 
  0x000055ccfba96608  e8 83 4d 00 00       call   $0x000055ccfba9b390 %rsp -> %rsp 0xfffffff8(%rsp)[8byte] 
  0x000055ccfba9b390  48 85 ff             test   %rdi %rdi 
  0x000055ccfba9b393  74 75                jz     $0x000055ccfba9b40a 
Actual: 55ccfba9b40a

Block 599:
  0x000055ccfba9660d  44 0f b6 bd e4 fc ff movzx  0xfffffce4(%rbp)[1byte] -> %r15d 
                      ff
  0x000055ccfba96615  e9 9d f3 ff ff       jmp    $0x000055ccfba959b7 
  0x000055ccfba959b7  48 8b 5d c8          mov    0xffffffc8(%rbp)[8byte] -> %rbx 
  0x000055ccfba959bb  64 48 33 1c 25 28 00 xor    %fs:0x28[8byte] %rbx -> %rbx 
                      00 00
  0x000055ccfba959c4  44 89 f8             mov    %r15d -> %eax 
  0x000055ccfba959c7  0f 85 66 26 00 00    jnz    $0x000055ccfba98033 
Actual: 55ccfba959cd

Block 600:
  0x000055ccfba959cd  48 8d 65 d8          lea    0xffffffd8(%rbp) -> %rsp 
  0x000055ccfba959d1  5b                   pop    %rsp (%rsp)[8byte] -> %rbx %rsp 
  0x000055ccfba959d2  41 5c                pop    %rsp (%rsp)[8byte] -> %r12 %rsp 
  0x000055ccfba959d4  41 5d                pop    %rsp (%rsp)[8byte] -> %r13 %rsp 
  0x000055ccfba959d6  41 5e                pop    %rsp (%rsp)[8byte] -> %r14 %rsp 
  0x000055ccfba959d8  41 5f                pop    %rsp (%rsp)[8byte] -> %r15 %rsp 
  0x000055ccfba959da  5d                   pop    %rsp (%rsp)[8byte] -> %rbp %rsp 
  0x000055ccfba959db  c3                   ret    %rsp (%rsp)[8byte] -> %rsp 
Actual: 55ccfba9946f

Block 601:
  0x000055ccfba9946f  48 83 c4 20          add    $0x0000000000000020 %rsp -> %rsp 
  0x000055ccfba99473  48 8b 74 24 08       mov    0x08(%rsp)[8byte] -> %rsi 
  0x000055ccfba99478  64 48 33 34 25 28 00 xor    %fs:0x28[8byte] %rsi -> %rsi 
                      00 00
  0x000055ccfba99481  75 24                jnz    $0x000055ccfba994a7 
Actual: 55ccfba99483

Block 602:
  0x000055ccfba99483  48 83 c4 18          add    $0x0000000000000018 %rsp -> %rsp 
  0x000055ccfba99487  c3                   ret    %rsp (%rsp)[8byte] -> %rsp 
Actual: 55ccfba92c14

Block 603:
  0x000055ccfba92c14  84 c0                test   %al %al 
  0x000055ccfba92c16  74 09                jz     $0x000055ccfba92c21 
Actual: 55ccfba92c18

Block 604:
  0x000055ccfba92c18  80 7c 24 0e 00       cmp    0x0e(%rsp)[1byte] $0x00 
  0x000055ccfba92c1d  74 21                jz     $0x000055ccfba92c40 
Actual: 55ccfba92c40

Block 605:
  0x000055ccfba92c40  0f b6 54 24 0f       movzx  0x0f(%rsp)[1byte] -> %edx 
  0x000055ccfba92c45  84 d2                test   %dl %dl 
  0x000055ccfba92c47  0f 85 83 00 00 00    jnz    $0x000055ccfba92cd0 
Actual: 55ccfba92cd0

Block 606:
  0x000055ccfba92cd0  89 d0                mov    %edx -> %eax 
  0x000055ccfba92cd2  e9 4a ff ff ff       jmp    $0x000055ccfba92c21 
  0x000055ccfba92c21  48 8b 4c 24 48       mov    0x48(%rsp)[8byte] -> %rcx 
  0x000055ccfba92c26  64 48 33 0c 25 28 00 xor    %fs:0x28[8byte] %rcx -> %rcx 
                      00 00
  0x000055ccfba92c2f  0f 85 f3 00 00 00    jnz    $0x000055ccfba92d28 
Actual: 55ccfba92c35

Block 607:
  0x000055ccfba92c35  48 83 c4 58          add    $0x0000000000000058 %rsp -> %rsp 
  0x000055ccfba92c39  5b                   pop    %rsp (%rsp)[8byte] -> %rbx %rsp 
  0x000055ccfba92c3a  5d                   pop    %rsp (%rsp)[8byte] -> %rbp %rsp 
  0x000055ccfba92c3b  41 5c                pop    %rsp (%rsp)[8byte] -> %r12 %rsp 
  0x000055ccfba92c3d  41 5d                pop    %rsp (%rsp)[8byte] -> %r13 %rsp 
  0x000055ccfba92c3f  c3                   ret    %rsp (%rsp)[8byte] -> %rsp 
Actual: 55ccfba929fe

Block 608:
  0x000055ccfba929fe  89 c5                mov    %eax -> %ebp 
  0x000055ccfba92a00  e9 49 fd ff ff       jmp    $0x000055ccfba9274e 
  0x000055ccfba9274e  83 f5 01             xor    $0x00000001 %ebp -> %ebp 
  0x000055ccfba92751  48 8b 8c 24 18 01 00 mov    0x00000118(%rsp)[8byte] -> %rcx 
                      00
  0x000055ccfba92759  64 48 33 0c 25 28 00 xor    %fs:0x28[8byte] %rcx -> %rcx 
                      00 00
  0x000055ccfba92762  40 0f b6 c5          movzx  %bpl -> %eax 
  0x000055ccfba92766  0f 85 bb 02 00 00    jnz    $0x000055ccfba92a27 
Actual: 55ccfba9276c

Block 609:
  0x000055ccfba9276c  48 81 c4 28 01 00 00 add    $0x0000000000000128 %rsp -> %rsp 
  0x000055ccfba92773  5b                   pop    %rsp (%rsp)[8byte] -> %rbx %rsp 
  0x000055ccfba92774  5d                   pop    %rsp (%rsp)[8byte] -> %rbp %rsp 
  0x000055ccfba92775  41 5c                pop    %rsp (%rsp)[8byte] -> %r12 %rsp 
  0x000055ccfba92777  41 5d                pop    %rsp (%rsp)[8byte] -> %r13 %rsp 
  0x000055ccfba92779  41 5e                pop    %rsp (%rsp)[8byte] -> %r14 %rsp 
  0x000055ccfba9277b  41 5f                pop    %rsp (%rsp)[8byte] -> %r15 %rsp 
  0x000055ccfba9277d  c3                   ret    %rsp (%rsp)[8byte] -> %rsp 
Actual: 7f8b30754731

Block 610:
  0x00007f8b30754731  89 c7                mov    %eax -> %edi 
  0x00007f8b30754733  e8 e8 8a 01 00       call   $0x00007f8b3076d220 %rsp -> %rsp 0xfffffff8(%rsp)[8byte] 
  0x00007f8b3076d220  48 8d 35 b1 33 38 00 lea    <rel> 0x00007f8b30af05d8 -> %rsi 
  0x00007f8b3076d227  48 83 ec 08          sub    $0x0000000000000008 %rsp -> %rsp 
  0x00007f8b3076d22b  ba 01 00 00 00       mov    $0x00000001 -> %edx 
  0x00007f8b3076d230  e8 cb fe ff ff       call   $0x00007f8b3076d100 %rsp -> %rsp 0xfffffff8(%rsp)[8byte] 
  0x00007f8b3076d100  41 55                push   %r13 %rsp -> %rsp 0xfffffff8(%rsp)[8byte] 
  0x00007f8b3076d102  41 54                push   %r12 %rsp -> %rsp 0xfffffff8(%rsp)[8byte] 
  0x00007f8b3076d104  41 89 d4             mov    %edx -> %r12d 
  0x00007f8b3076d107  55                   push   %rbp %rsp -> %rsp 0xfffffff8(%rsp)[8byte] 
  0x00007f8b3076d108  53                   push   %rbx %rsp -> %rsp 0xfffffff8(%rsp)[8byte] 
  0x00007f8b3076d109  48 89 f5             mov    %rsi -> %rbp 
  0x00007f8b3076d10c  89 fb                mov    %edi -> %ebx 
  0x00007f8b3076d10e  48 83 ec 08          sub    $0x0000000000000008 %rsp -> %rsp 
  0x00007f8b3076d112  e8 79 06 00 00       call   $0x00007f8b3076d790 %rsp -> %rsp 0xfffffff8(%rsp)[8byte] 
  0x00007f8b3076d790  55                   push   %rbp %rsp -> %rsp 0xfffffff8(%rsp)[8byte] 
  0x00007f8b3076d791  53                   push   %rbx %rsp -> %rsp 0xfffffff8(%rsp)[8byte] 
  0x00007f8b3076d792  48 83 ec 08          sub    $0x0000000000000008 %rsp -> %rsp 
  0x00007f8b3076d796  48 8b 2d b3 25 38 00 mov    <rel> 0x00007f8b30aefd50[8byte] -> %rbp 
  0x00007f8b3076d79d  64 48 8b 5d 00       mov    %fs:0x00(%rbp)[8byte] -> %rbx 
  0x00007f8b3076d7a2  48 85 db             test   %rbx %rbx 
  0x00007f8b3076d7a5  74 47                jz     $0x00007f8b3076d7ee 
Actual: 7f8b3076d7ee

Block 611:
  0x00007f8b3076d7ee  48 83 c4 08          add    $0x0000000000000008 %rsp -> %rsp 
  0x00007f8b3076d7f2  5b                   pop    %rsp (%rsp)[8byte] -> %rbx %rsp 
  0x00007f8b3076d7f3  5d                   pop    %rsp (%rsp)[8byte] -> %rbp %rsp 
  0x00007f8b3076d7f4  c3                   ret    %rsp (%rsp)[8byte] -> %rsp 
Actual: 7f8b3076d117

Block 612:
  0x00007f8b3076d117  4c 8b 6d 00          mov    0x00(%rbp)[8byte] -> %r13 
  0x00007f8b3076d11b  4d 85 ed             test   %r13 %r13 
  0x00007f8b3076d11e  74 50                jz     $0x00007f8b3076d170 
Actual: 7f8b3076d120

Block 613:
  0x00007f8b3076d120  49 8b 45 08          mov    0x08(%r13)[8byte] -> %rax 
  0x00007f8b3076d124  48 89 c2             mov    %rax -> %rdx 
  0x00007f8b3076d127  48 c1 e2 05          shl    $0x0000000000000005 %rdx -> %rdx 
  0x00007f8b3076d12b  48 85 c0             test   %rax %rax 
  0x00007f8b3076d12e  49 8d 4c 15 f0       lea    0xfffffff0(%r13,%rdx,1) -> %rcx 
  0x00007f8b3076d133  74 2a                jz     $0x00007f8b3076d15f 
Actual: 7f8b3076d135

Block 614:
  0x00007f8b3076d135  48 83 e8 01          sub    $0x0000000000000001 %rax -> %rax 
  0x00007f8b3076d139  49 89 45 08          mov    %rax -> 0x08(%r13)[8byte] 
  0x00007f8b3076d13d  48 8b 11             mov    (%rcx)[8byte] -> %rdx 
  0x00007f8b3076d140  48 83 fa 03          cmp    %rdx $0x0000000000000003 
  0x00007f8b3076d144  0f 84 a6 00 00 00    jz     $0x00007f8b3076d1f0 
Actual: 7f8b3076d14a

Block 615:
  0x00007f8b3076d14a  48 83 fa 04          cmp    %rdx $0x0000000000000004 
  0x00007f8b3076d14e  74 78                jz     $0x00007f8b3076d1c8 
Actual: 7f8b3076d1c8

Block 616:
  0x00007f8b3076d1c8  48 c1 e0 05          shl    $0x0000000000000005 %rax -> %rax 
  0x00007f8b3076d1cc  89 de                mov    %ebx -> %esi 
  0x00007f8b3076d1ce  4c 01 e8             add    %r13 %rax -> %rax 
  0x00007f8b3076d1d1  48 8b 50 18          mov    0x18(%rax)[8byte] -> %rdx 
  0x00007f8b3076d1d5  48 8b 78 20          mov    0x20(%rax)[8byte] -> %rdi 
  0x00007f8b3076d1d9  48 c1 ca 11          ror    $0x0000000000000011 %rdx -> %rdx 
  0x00007f8b3076d1dd  64 48 33 14 25 30 00 xor    %fs:0x30[8byte] %rdx -> %rdx 
                      00 00
  0x00007f8b3076d1e6  ff d2                call   %rdx %rsp -> %rsp 0xfffffff8(%rsp)[8byte] 
Actual: 55ccfba9ae70

Block 617:
  0x000055ccfba9ae70  41 54                push   %r12 %rsp -> %rsp 0xfffffff8(%rsp)[8byte] 
  0x000055ccfba9ae72  55                   push   %rbp %rsp -> %rsp 0xfffffff8(%rsp)[8byte] 
  0x000055ccfba9ae73  45 31 e4             xor    %r12d %r12d -> %r12d 
  0x000055ccfba9ae76  48 8b 2d 63 2d 21 00 mov    <rel> 0x000055ccfbcadbe0[8byte] -> %rbp 
  0x000055ccfba9ae7d  53                   push   %rbx %rsp -> %rsp 0xfffffff8(%rsp)[8byte] 
  0x000055ccfba9ae7e  48 8b 5d 00          mov    0x00(%rbp)[8byte] -> %rbx 
  0x000055ccfba9ae82  48 89 df             mov    %rbx -> %rdi 
  0x000055ccfba9ae85  e8 b6 5d 00 00       call   $0x000055ccfbaa0c40 %rsp -> %rsp 0xfffffff8(%rsp)[8byte] 
  0x000055ccfbaa0c40  31 c0                xor    %eax %eax -> %eax 
  0x000055ccfbaa0c42  48 8b 4f 20          mov    0x20(%rdi)[8byte] -> %rcx 
  0x000055ccfbaa0c46  48 39 4f 28          cmp    0x28(%rdi)[8byte] %rcx 
  0x000055ccfbaa0c4a  77 20                jnbe   $0x000055ccfbaa0c6c 
Actual: 55ccfbaa0c4c

Block 618:
  0x000055ccfbaa0c4c  48 8b 47 10          mov    0x10(%rdi)[8byte] -> %rax 
  0x000055ccfbaa0c50  48 2b 47 08          sub    0x08(%rdi)[8byte] %rax -> %rax 
  0x000055ccfbaa0c54  48 89 c2             mov    %rax -> %rdx 
  0x000055ccfbaa0c57  31 c0                xor    %eax %eax -> %eax 
  0x000055ccfbaa0c59  f7 07 00 01 00 00    test   (%rdi)[4byte] $0x00000100 
  0x000055ccfbaa0c5f  74 08                jz     $0x000055ccfbaa0c69 
Actual: 55ccfbaa0c69

Block 619:
  0x000055ccfbaa0c69  48 01 d0             add    %rdx %rax -> %rax 
  0x000055ccfbaa0c6c  f3 c3                ret    %rsp (%rsp)[8byte] -> %rsp 
Actual: 55ccfba9ae8a

Block 620:
  0x000055ccfba9ae8a  48 85 c0             test   %rax %rax 
  0x000055ccfba9ae8d  75 21                jnz    $0x000055ccfba9aeb0 
Actual: 55ccfba9ae8f

Block 621:
  0x000055ccfba9ae8f  48 89 df             mov    %rbx -> %rdi 
  0x000055ccfba9ae92  e8 09 90 00 00       call   $0x000055ccfbaa3ea0 %rsp -> %rsp 0xfffffff8(%rsp)[8byte] 
  0x000055ccfbaa3ea0  41 54                push   %r12 %rsp -> %rsp 0xfffffff8(%rsp)[8byte] 
  0x000055ccfbaa3ea2  55                   push   %rbp %rsp -> %rsp 0xfffffff8(%rsp)[8byte] 
  0x000055ccfbaa3ea3  48 89 fd             mov    %rdi -> %rbp 
  0x000055ccfbaa3ea6  53                   push   %rbx %rsp -> %rsp 0xfffffff8(%rsp)[8byte] 
  0x000055ccfbaa3ea7  e8 6c e0 fe ff       call   $0x000055ccfba91f18 %rsp -> %rsp 0xfffffff8(%rsp)[8byte] 
  0x000055ccfba91f18  ff 25 8a bc 21 00    jmp    <rel> 0x000055ccfbcadba8[8byte] 
Actual: 7f8b307a92e0

Block 622:
  0x00007f8b307a92e0  8b 87 c0 00 00 00    mov    0x000000c0(%rdi)[4byte] -> %eax 
  0x00007f8b307a92e6  85 c0                test   %eax %eax 
  0x00007f8b307a92e8  7e 16                jle    $0x00007f8b307a9300 
Actual: 7f8b307a9300

Block 623:
  0x00007f8b307a9300  48 8b 47 28          mov    0x28(%rdi)[8byte] -> %rax 
  0x00007f8b307a9304  48 2b 47 20          sub    0x20(%rdi)[8byte] %rax -> %rax 
  0x00007f8b307a9308  c3                   ret    %rsp (%rsp)[8byte] -> %rsp 
Actual: 55ccfbaa3eac

Block 624:
  0x000055ccfbaa3eac  8b 5d 00             mov    0x00(%rbp)[4byte] -> %ebx 
  0x000055ccfbaa3eaf  48 89 ef             mov    %rbp -> %rdi 
  0x000055ccfbaa3eb2  49 89 c4             mov    %rax -> %r12 
  0x000055ccfbaa3eb5  e8 36 0b 00 00       call   $0x000055ccfbaa49f0 %rsp -> %rsp 0xfffffff8(%rsp)[8byte] 
  0x000055ccfbaa49f0  41 54                push   %r12 %rsp -> %rsp 0xfffffff8(%rsp)[8byte] 
  0x000055ccfbaa49f2  55                   push   %rbp %rsp -> %rsp 0xfffffff8(%rsp)[8byte] 
  0x000055ccfbaa49f3  53                   push   %rbx %rsp -> %rsp 0xfffffff8(%rsp)[8byte] 
  0x000055ccfbaa49f4  48 89 fb             mov    %rdi -> %rbx 
  0x000055ccfbaa49f7  e8 74 d7 fe ff       call   $0x000055ccfba92170 %rsp -> %rsp 0xfffffff8(%rsp)[8byte] 
  0x000055ccfba92170  ff 25 aa bc 21 00    jmp    <rel> 0x000055ccfbcade20[8byte] 
Actual: 7f8b307a79d0

Block 625:
  0x00007f8b307a79d0  f7 07 00 20 00 00    test   (%rdi)[4byte] $0x00002000 
  0x00007f8b307a79d6  74 10                jz     $0x00007f8b307a79e8 
Actual: 7f8b307a79d8

Block 626:
  0x00007f8b307a79d8  8b 47 70             mov    0x70(%rdi)[4byte] -> %eax 
  0x00007f8b307a79db  85 c0                test   %eax %eax 
  0x00007f8b307a79dd  78 09                js     $0x00007f8b307a79e8 
Actual: 7f8b307a79df

Block 627:
  0x00007f8b307a79df  f3 c3                ret    %rsp (%rsp)[8byte] -> %rsp 
Actual: 55ccfbaa49fc

Block 628:
  0x000055ccfbaa49fc  85 c0                test   %eax %eax 
  0x000055ccfbaa49fe  48 89 df             mov    %rbx -> %rdi 
  0x000055ccfbaa4a01  78 54                js     $0x000055ccfbaa4a57 
Actual: 55ccfbaa4a03

Block 629:
  0x000055ccfbaa4a03  e8 d0 d7 fe ff       call   $0x000055ccfba921d8 %rsp -> %rsp 0xfffffff8(%rsp)[8byte] 
  0x000055ccfba921d8  ff 25 aa bc 21 00    jmp    <rel> 0x000055ccfbcade88[8byte] 
Actual: 7f8b307a9200

Block 630:
  0x00007f8b307a9200  8b 17                mov    (%rdi)[4byte] -> %edx 
  0x00007f8b307a9202  89 d0                mov    %edx -> %eax 
  0x00007f8b307a9204  83 e0 08             and    $0x00000008 %eax -> %eax 
  0x00007f8b307a9207  75 17                jnz    $0x00007f8b307a9220 
Actual: 7f8b307a9220

Block 631:
  0x00007f8b307a9220  b8 01 00 00 00       mov    $0x00000001 -> %eax 
  0x00007f8b307a9225  f3 c3                ret    %rsp (%rsp)[8byte] -> %rsp 
Actual: 55ccfbaa4a08

Block 632:
  0x000055ccfbaa4a08  85 c0                test   %eax %eax 
  0x000055ccfbaa4a0a  75 2c                jnz    $0x000055ccfbaa4a38 
Actual: 55ccfbaa4a38

Block 633:
  0x000055ccfbaa4a38  48 89 df             mov    %rbx -> %rdi 
  0x000055ccfbaa4a3b  e8 30 d7 fe ff       call   $0x000055ccfba92170 %rsp -> %rsp 0xfffffff8(%rsp)[8byte] 
  0x000055ccfba92170  ff 25 aa bc 21 00    jmp    <rel> 0x000055ccfbcade20[8byte] 
Actual: 7f8b307a79d0

Block 634:
  0x000055ccfbaa4a40  31 f6                xor    %esi %esi -> %esi 
  0x000055ccfbaa4a42  ba 01 00 00 00       mov    $0x00000001 -> %edx 
  0x000055ccfbaa4a47  89 c7                mov    %eax -> %edi 
  0x000055ccfbaa4a49  e8 f2 d5 fe ff       call   $0x000055ccfba92040 %rsp -> %rsp 0xfffffff8(%rsp)[8byte] 
  0x000055ccfba92040  ff 25 9a bc 21 00    jmp    <rel> 0x000055ccfbcadce0[8byte] 
Actual: 7f8b3113b3f0

Block 635:
  0x00007f8b3113b3f0  b8 08 00 00 00       mov    $0x00000008 -> %eax 
  0x00007f8b3113b3f5  0f 05                syscall -> %rcx 
  0x00007f8b3113b3f7  48 3d 01 f0 ff ff    cmp    %rax $0xfffffffffffff001 
  0x00007f8b3113b3fd  73 01                jnb    $0x00007f8b3113b400 
Actual: 7f8b3113b400

Block 636:
  0x00007f8b3113b400  48 8b 0d 81 6b 20 00 mov    <rel> 0x00007f8b31341f88[8byte] -> %rcx 
  0x00007f8b3113b407  f7 d8                neg    %eax -> %eax 
  0x00007f8b3113b409  64 89 01             mov    %eax -> %fs:(%rcx)[4byte] 
  0x00007f8b3113b40c  48 83 c8 ff          or     $0xffffffffffffffff %rax -> %rax 
  0x00007f8b3113b410  c3                   ret    %rsp (%rsp)[8byte] -> %rsp 
Actual: 55ccfbaa4a4e

Block 637:
  0x000055ccfbaa4a4e  48 83 f8 ff          cmp    %rax $0xffffffffffffffff 
  0x000055ccfbaa4a52  75 b8                jnz    $0x000055ccfbaa4a0c 
Actual: 55ccfbaa4a54

Block 638:
  0x000055ccfbaa4a54  48 89 df             mov    %rbx -> %rdi 
  0x000055ccfbaa4a57  5b                   pop    %rsp (%rsp)[8byte] -> %rbx %rsp 
  0x000055ccfbaa4a58  5d                   pop    %rsp (%rsp)[8byte] -> %rbp %rsp 
  0x000055ccfbaa4a59  41 5c                pop    %rsp (%rsp)[8byte] -> %r12 %rsp 
  0x000055ccfbaa4a5b  e9 30 d5 fe ff       jmp    $0x000055ccfba91f90 
  0x000055ccfba91f90  ff 25 92 bc 21 00    jmp    <rel> 0x000055ccfbcadc28[8byte] 
Actual: 7f8b3079f360

Block 639:
  0x00007f8b3079f360  41 54                push   %r12 %rsp -> %rsp 0xfffffff8(%rsp)[8byte] 
  0x00007f8b3079f362  55                   push   %rbp %rsp -> %rsp 0xfffffff8(%rsp)[8byte] 
  0x00007f8b3079f363  53                   push   %rbx %rsp -> %rsp 0xfffffff8(%rsp)[8byte] 
  0x00007f8b3079f364  8b 07                mov    (%rdi)[4byte] -> %eax 
  0x00007f8b3079f366  48 89 fb             mov    %rdi -> %rbx 
  0x00007f8b3079f369  f6 c4 20             test   %ah $0x20 
  0x00007f8b3079f36c  0f 85 0e 01 00 00    jnz    $0x00007f8b3079f480 
Actual: 7f8b3079f480

Block 640:
  0x00007f8b3079f480  e8 bb d3 00 00       call   $0x00007f8b307ac840 %rsp -> %rsp 0xfffffff8(%rsp)[8byte] 
  0x00007f8b307ac840  f6 07 80             test   (%rdi)[1byte] $0x80 
  0x00007f8b307ac843  0f 84 db 01 00 00    jz     $0x00007f8b307aca24 
Actual: 7f8b307ac849

Block 641:
  0x00007f8b307ac849  55                   push   %rbp %rsp -> %rsp 0xfffffff8(%rsp)[8byte] 
  0x00007f8b307ac84a  53                   push   %rbx %rsp -> %rsp 0xfffffff8(%rsp)[8byte] 
  0x00007f8b307ac84b  48 89 fb             mov    %rdi -> %rbx 
  0x00007f8b307ac84e  48 83 ec 28          sub    $0x0000000000000028 %rsp -> %rsp 
  0x00007f8b307ac852  8b 2d 98 8e 34 00    mov    <rel> 0x00007f8b30af56f0[4byte] -> %ebp 
  0x00007f8b307ac858  85 ed                test   %ebp %ebp 
  0x00007f8b307ac85a  0f 85 30 02 00 00    jnz    $0x00007f8b307aca90 
Actual: 7f8b307aca90

Block 642:
  0x00007f8b307aca90  48 8b 05 19 8c 34 00 mov    <rel> 0x00007f8b30af56b0[8byte] -> %rax 
  0x00007f8b307aca97  48 89 e7             mov    %rsp -> %rdi 
  0x00007f8b307aca9a  31 d2                xor    %edx %edx -> %edx 
  0x00007f8b307aca9c  48 c1 c8 11          ror    $0x0000000000000011 %rax -> %rax 
  0x00007f8b307acaa0  64 48 33 04 25 30 00 xor    %fs:0x30[8byte] %rax -> %rax 
                      00 00
  0x00007f8b307acaa9  48 8d 35 f0 fc ff ff lea    <rel> 0x00007f8b307ac7a0 -> %rsi 
  0x00007f8b307acab0  ff d0                call   %rax %rsp -> %rsp 0xfffffff8(%rsp)[8byte] 
Actual: 7f8b3113a670

Block 643:
  0x00007f8b3113a670  48 89 37             mov    %rsi -> (%rdi)[8byte] 
  0x00007f8b3113a673  48 89 57 08          mov    %rdx -> 0x08(%rdi)[8byte] 
  0x00007f8b3113a677  64 48 8b 04 25 f8 02 mov    %fs:0x000002f8[8byte] -> %rax 
                      00 00
  0x00007f8b3113a680  48 89 47 18          mov    %rax -> 0x18(%rdi)[8byte] 
  0x00007f8b3113a684  64 8b 14 25 08 03 00 mov    %fs:0x00000308[4byte] -> %edx 
                      00
  0x00007f8b3113a68c  89 d0                mov    %edx -> %eax 
  0x00007f8b3113a68e  83 e0 02             and    $0x00000002 %eax -> %eax 
  0x00007f8b3113a691  75 25                jnz    $0x00007f8b3113a6b8 
Actual: 7f8b3113a693

Block 644:
  0x00007f8b3113a693  85 c0                test   %eax %eax 
  0x00007f8b3113a695  0f 95 c0             setnz  -> %al 
  0x00007f8b3113a698  0f b6 c0             movzx  %al -> %eax 
  0x00007f8b3113a69b  89 47 10             mov    %eax -> 0x10(%rdi)[4byte] 
  0x00007f8b3113a69e  64 48 89 3c 25 f8 02 mov    %rdi -> %fs:0x000002f8[8byte] 
                      00 00
  0x00007f8b3113a6a7  c3                   ret    %rsp (%rsp)[8byte] -> %rsp 
Actual: 7f8b307acab2

Block 645:
  0x00007f8b307acab2  e9 bd fd ff ff       jmp    $0x00007f8b307ac874 
  0x00007f8b307ac874  64 48 8b 14 25 10 00 mov    %fs:0x10[8byte] -> %rdx 
                      00 00
  0x00007f8b307ac87d  48 3b 15 c4 5e 34 00 cmp    %rdx <rel> 0x00007f8b30af2748[8byte] 
  0x00007f8b307ac884  74 46                jz     $0x00007f8b307ac8cc 
Actual: 7f8b307ac886

Block 646:
  0x00007f8b307ac886  be 01 00 00 00       mov    $0x00000001 -> %esi 
  0x00007f8b307ac88b  31 c0                xor    %eax %eax -> %eax 
  0x00007f8b307ac88d  83 3d 6c 8e 34 00 00 cmp    <rel> 0x00007f8b30af5700[4byte] $0x00000000 
  0x00007f8b307ac894  74 0c                jz     $0x00007f8b307ac8a2 
Actual: 7f8b307ac8a2

Block 647:
  0x00007f8b307ac8a2  0f b1 35 97 5e 34 00 cmpxchg %esi <rel> 0x00007f8b30af2740[4byte] %eax -> <rel> 0x00007f8b30af2740[4byte] %eax 
  0x00007f8b307ac8a9  74 1a                jz     $0x00007f8b307ac8c5 
Actual: 7f8b307ac8c5

Block 648:
  0x00007f8b307ac8c5  48 89 15 7c 5e 34 00 mov    %rdx -> <rel> 0x00007f8b30af2748[8byte] 
  0x00007f8b307ac8cc  8b 33                mov    (%rbx)[4byte] -> %esi 
  0x00007f8b307ac8ce  8b 15 70 5e 34 00    mov    <rel> 0x00007f8b30af2744[4byte] -> %edx 
  0x00007f8b307ac8d4  48 89 1d 55 5e 34 00 mov    %rbx -> <rel> 0x00007f8b30af2730[8byte] 
  0x00007f8b307ac8db  89 f0                mov    %esi -> %eax 
  0x00007f8b307ac8dd  83 c2 01             add    $0x00000001 %edx -> %edx 
  0x00007f8b307ac8e0  25 00 80 00 00       and    $0x00008000 %eax -> %eax 
  0x00007f8b307ac8e5  89 15 59 5e 34 00    mov    %edx -> <rel> 0x00007f8b30af2744[4byte] 
  0x00007f8b307ac8eb  0f 85 7f 01 00 00    jnz    $0x00007f8b307aca70 
Actual: 7f8b307ac8f1

Block 649:
  0x00007f8b307ac8f1  48 8b 93 88 00 00 00 mov    0x00000088(%rbx)[8byte] -> %rdx 
  0x00007f8b307ac8f8  64 4c 8b 04 25 10 00 mov    %fs:0x10[8byte] -> %r8 
                      00 00
  0x00007f8b307ac901  4c 3b 42 08          cmp    %r8 0x08(%rdx)[8byte] 
  0x00007f8b307ac905  74 45                jz     $0x00007f8b307ac94c 
Actual: 7f8b307ac907

Block 650:
  0x00007f8b307ac907  be 01 00 00 00       mov    $0x00000001 -> %esi 
  0x00007f8b307ac90c  83 3d ed 8d 34 00 00 cmp    <rel> 0x00007f8b30af5700[4byte] $0x00000000 
  0x00007f8b307ac913  74 08                jz     $0x00007f8b307ac91d 
Actual: 7f8b307ac91d

Block 651:
  0x00007f8b307ac91d  0f b1 32             cmpxchg %esi (%rdx)[4byte] %eax -> (%rdx)[4byte] %eax 
  0x00007f8b307ac920  74 16                jz     $0x00007f8b307ac938 
Actual: 7f8b307ac938

Block 652:
  0x00007f8b307ac938  8b 33                mov    (%rbx)[4byte] -> %esi 
  0x00007f8b307ac93a  48 8b 93 88 00 00 00 mov    0x00000088(%rbx)[8byte] -> %rdx 
  0x00007f8b307ac941  89 f0                mov    %esi -> %eax 
  0x00007f8b307ac943  4c 89 42 08          mov    %r8 -> 0x08(%rdx)[8byte] 
  0x00007f8b307ac947  25 00 80 00 00       and    $0x00008000 %eax -> %eax 
  0x00007f8b307ac94c  48 8b 3d ad 4b 34 00 mov    <rel> 0x00007f8b30af1500[8byte] -> %rdi 
  0x00007f8b307ac953  83 42 04 01          add    $0x00000001 0x04(%rdx)[4byte] -> 0x04(%rdx)[4byte] 
  0x00007f8b307ac957  48 85 ff             test   %rdi %rdi 
  0x00007f8b307ac95a  74 39                jz     $0x00007f8b307ac995 
Actual: 7f8b307ac95c

Block 653:
  0x00007f8b307ac95c  48 39 fb             cmp    %rbx %rdi 
  0x00007f8b307ac95f  0f 84 9b 01 00 00    jz     $0x00007f8b307acb00 
Actual: 7f8b307ac965

Block 654:
  0x00007f8b307ac965  48 8b 4f 68          mov    0x68(%rdi)[8byte] -> %rcx 
  0x00007f8b307ac969  48 85 c9             test   %rcx %rcx 
  0x00007f8b307ac96c  74 27                jz     $0x00007f8b307ac995 
Actual: 7f8b307ac96e

Block 655:
  0x00007f8b307ac96e  48 39 cb             cmp    %rbx %rcx 
  0x00007f8b307ac971  75 19                jnz    $0x00007f8b307ac98c 
Actual: 7f8b307ac98c

Block 656:
  0x00007f8b307ac98c  48 8b 51 68          mov    0x68(%rcx)[8byte] -> %rdx 
  0x00007f8b307ac990  48 85 d2             test   %rdx %rdx 
  0x00007f8b307ac993  75 eb                jnz    $0x00007f8b307ac980 
Actual: 7f8b307ac980

Block 657:
  0x00007f8b307ac980  48 39 d3             cmp    %rbx %rdx 
  0x00007f8b307ac983  0f 84 37 01 00 00    jz     $0x00007f8b307acac0 
Actual: 7f8b307acac0

Block 658:
  0x00007f8b307acac0  48 83 c1 68          add    $0x0000000000000068 %rcx -> %rcx 
  0x00007f8b307acac4  48 8b 53 68          mov    0x68(%rbx)[8byte] -> %rdx 
  0x00007f8b307acac8  83 05 69 5c 34 00 01 add    $0x00000001 <rel> 0x00007f8b30af2738[4byte] -> <rel> 0x00007f8b30af2738[4byte] 
  0x00007f8b307acacf  48 89 11             mov    %rdx -> (%rcx)[8byte] 
  0x00007f8b307acad2  e9 be fe ff ff       jmp    $0x00007f8b307ac995 
  0x00007f8b307ac995  40 80 e6 7f          and    $0x7f %sil -> %sil 
  0x00007f8b307ac999  85 c0                test   %eax %eax 
  0x00007f8b307ac99b  89 33                mov    %esi -> (%rbx)[4byte] 
  0x00007f8b307ac99d  0f 85 bf 00 00 00    jnz    $0x00007f8b307aca62 
Actual: 7f8b307ac9a3

Block 659:
  0x00007f8b307ac9a3  48 8b b3 88 00 00 00 mov    0x00000088(%rbx)[8byte] -> %rsi 
  0x00007f8b307ac9aa  8b 46 04             mov    0x04(%rsi)[4byte] -> %eax 
  0x00007f8b307ac9ad  83 e8 01             sub    $0x00000001 %eax -> %eax 
  0x00007f8b307ac9b0  85 c0                test   %eax %eax 
  0x00007f8b307ac9b2  89 46 04             mov    %eax -> 0x04(%rsi)[4byte] 
  0x00007f8b307ac9b5  8b 15 89 5d 34 00    mov    <rel> 0x00007f8b30af2744[4byte] -> %edx 
  0x00007f8b307ac9bb  74 73                jz     $0x00007f8b307aca30 
Actual: 7f8b307aca30

Block 660:
  0x00007f8b307aca30  48 c7 46 08 00 00 00 mov    $0x0000000000000000 -> 0x08(%rsi)[8byte] 
                      00
  0x00007f8b307aca38  83 3d c1 8c 34 00 00 cmp    <rel> 0x00007f8b30af5700[4byte] $0x00000000 
  0x00007f8b307aca3f  74 07                jz     $0x00007f8b307aca48 
Actual: 7f8b307aca48

Block 661:
  0x00007f8b307aca48  ff 0e                dec    (%rsi)[4byte] -> (%rsi)[4byte] 
  0x00007f8b307aca4a  74 16                jz     $0x00007f8b307aca62 
Actual: 7f8b307aca62

Block 662:
  0x00007f8b307aca62  8b 15 dc 5c 34 00    mov    <rel> 0x00007f8b30af2744[4byte] -> %edx 
  0x00007f8b307aca68  e9 50 ff ff ff       jmp    $0x00007f8b307ac9bd 
  0x00007f8b307ac9bd  83 ea 01             sub    $0x00000001 %edx -> %edx 
  0x00007f8b307ac9c0  48 c7 05 65 5d 34 00 mov    $0x0000000000000000 -> <rel> 0x00007f8b30af2730[8byte] 
                      00 00 00 00
  0x00007f8b307ac9cb  85 d2                test   %edx %edx 
  0x00007f8b307ac9cd  89 15 71 5d 34 00    mov    %edx -> <rel> 0x00007f8b30af2744[4byte] 
  0x00007f8b307ac9d3  75 41                jnz    $0x00007f8b307aca16 
Actual: 7f8b307ac9d5

Block 663:
  0x00007f8b307ac9d5  48 c7 05 68 5d 34 00 mov    $0x0000000000000000 -> <rel> 0x00007f8b30af2748[8byte] 
                      00 00 00 00
  0x00007f8b307ac9e0  83 3d 19 8d 34 00 00 cmp    <rel> 0x00007f8b30af5700[4byte] $0x00000000 
  0x00007f8b307ac9e7  74 0b                jz     $0x00007f8b307ac9f4 
Actual: 7f8b307ac9f4

Block 664:
  0x00007f8b307ac9f4  ff 0d 46 5d 34 00    dec    <rel> 0x00007f8b30af2740[4byte] -> <rel> 0x00007f8b30af2740[4byte] 
  0x00007f8b307ac9fa  74 1a                jz     $0x00007f8b307aca16 
Actual: 7f8b307aca16

Block 665:
  0x00007f8b307aca16  85 ed                test   %ebp %ebp 
  0x00007f8b307aca18  0f 85 c2 00 00 00    jnz    $0x00007f8b307acae0 
Actual: 7f8b307acae0

Block 666:
  0x00007f8b307acae0  48 8b 05 d1 8b 34 00 mov    <rel> 0x00007f8b30af56b8[8byte] -> %rax 
  0x00007f8b307acae7  48 89 e7             mov    %rsp -> %rdi 
  0x00007f8b307acaea  31 f6                xor    %esi %esi -> %esi 
  0x00007f8b307acaec  48 c1 c8 11          ror    $0x0000000000000011 %rax -> %rax 
  0x00007f8b307acaf0  64 48 33 04 25 30 00 xor    %fs:0x30[8byte] %rax -> %rax 
                      00 00
  0x00007f8b307acaf9  ff d0                call   %rax %rsp -> %rsp 0xfffffff8(%rsp)[8byte] 
Actual: 7f8b3113a6e0

Block 667:
  0x00007f8b3113a6e0  48 8b 47 18          mov    0x18(%rdi)[8byte] -> %rax 
  0x00007f8b3113a6e4  64 48 89 04 25 f8 02 mov    %rax -> %fs:0x000002f8[8byte] 
                      00 00
  0x00007f8b3113a6ed  8b 47 10             mov    0x10(%rdi)[4byte] -> %eax 
  0x00007f8b3113a6f0  85 c0                test   %eax %eax 
  0x00007f8b3113a6f2  75 1c                jnz    $0x00007f8b3113a710 
Actual: 7f8b3113a6f4

Block 668:
  0x00007f8b3113a6f4  85 f6                test   %esi %esi 
  0x00007f8b3113a6f6  75 08                jnz    $0x00007f8b3113a700 
Actual: 7f8b3113a6f8

Block 669:
  0x00007f8b3113a6f8  f3 c3                ret    %rsp (%rsp)[8byte] -> %rsp 
Actual: 7f8b307acafb

Block 670:
  0x00007f8b307acafb  e9 1e ff ff ff       jmp    $0x00007f8b307aca1e 
  0x00007f8b307aca1e  48 83 c4 28          add    $0x0000000000000028 %rsp -> %rsp 
  0x00007f8b307aca22  5b                   pop    %rsp (%rsp)[8byte] -> %rbx %rsp 
  0x00007f8b307aca23  5d                   pop    %rsp (%rsp)[8byte] -> %rbp %rsp 
  0x00007f8b307aca24  f3 c3                ret    %rsp (%rsp)[8byte] -> %rsp 
Actual: 7f8b3079f485

Block 671:
  0x00007f8b3079f485  8b 03                mov    (%rbx)[4byte] -> %eax 
  0x00007f8b3079f487  f6 c4 80             test   %ah $0x80 
  0x00007f8b3079f48a  75 5a                jnz    $0x00007f8b3079f4e6 
Actual: 7f8b3079f48c

Block 672:
  0x00007f8b3079f48c  48 8b 93 88 00 00 00 mov    0x00000088(%rbx)[8byte] -> %rdx 
  0x00007f8b3079f493  64 4c 8b 04 25 10 00 mov    %fs:0x10[8byte] -> %r8 
                      00 00
  0x00007f8b3079f49c  4c 3b 42 08          cmp    %r8 0x08(%rdx)[8byte] 
  0x00007f8b3079f4a0  74 40                jz     $0x00007f8b3079f4e2 
Actual: 7f8b3079f4a2

Block 673:
  0x00007f8b3079f4a2  be 01 00 00 00       mov    $0x00000001 -> %esi 
  0x00007f8b3079f4a7  31 c0                xor    %eax %eax -> %eax 
  0x00007f8b3079f4a9  83 3d 50 62 35 00 00 cmp    <rel> 0x00007f8b30af5700[4byte] $0x00000000 
  0x00007f8b3079f4b0  74 08                jz     $0x00007f8b3079f4ba 
Actual: 7f8b3079f4ba

Block 674:
  0x00007f8b3079f4ba  0f b1 32             cmpxchg %esi (%rdx)[4byte] %eax -> (%rdx)[4byte] %eax 
  0x00007f8b3079f4bd  74 16                jz     $0x00007f8b3079f4d5 
Actual: 7f8b3079f4d5

Block 675:
  0x00007f8b3079f4d5  48 8b 93 88 00 00 00 mov    0x00000088(%rbx)[8byte] -> %rdx 
  0x00007f8b3079f4dc  8b 03                mov    (%rbx)[4byte] -> %eax 
  0x00007f8b3079f4de  4c 89 42 08          mov    %r8 -> 0x08(%rdx)[8byte] 
  0x00007f8b3079f4e2  83 42 04 01          add    $0x00000001 0x04(%rdx)[4byte] -> 0x04(%rdx)[4byte] 
  0x00007f8b3079f4e6  89 c2                mov    %eax -> %edx 
  0x00007f8b3079f4e8  81 e2 00 80 00 00    and    $0x00008000 %edx -> %edx 
  0x00007f8b3079f4ee  f6 c4 20             test   %ah $0x20 
  0x00007f8b3079f4f1  0f 84 89 fe ff ff    jz     $0x00007f8b3079f380 
Actual: 7f8b3079f4f7

Block 676:
  0x00007f8b3079f4f7  48 89 df             mov    %rbx -> %rdi 
  0x00007f8b3079f4fa  e8 51 c2 00 00       call   $0x00007f8b307ab750 %rsp -> %rsp 0xfffffff8(%rsp)[8byte] 
  0x00007f8b307ab750  41 54                push   %r12 %rsp -> %rsp 0xfffffff8(%rsp)[8byte] 
  0x00007f8b307ab752  55                   push   %rbp %rsp -> %rsp 0xfffffff8(%rsp)[8byte] 
  0x00007f8b307ab753  53                   push   %rbx %rsp -> %rsp 0xfffffff8(%rsp)[8byte] 
  0x00007f8b307ab754  8b 6f 70             mov    0x70(%rdi)[4byte] -> %ebp 
  0x00007f8b307ab757  83 fd ff             cmp    %ebp $0xffffffff 
  0x00007f8b307ab75a  0f 84 f4 00 00 00    jz     $0x00007f8b307ab854 
Actual: 7f8b307ab760

Block 677:
  0x00007f8b307ab760  8b 07                mov    (%rdi)[4byte] -> %eax 
  0x00007f8b307ab762  45 31 e4             xor    %r12d %r12d -> %r12d 
  0x00007f8b307ab765  48 89 fb             mov    %rdi -> %rbx 
  0x00007f8b307ab768  25 08 08 00 00       and    $0x00000808 %eax -> %eax 
  0x00007f8b307ab76d  3d 00 08 00 00       cmp    %eax $0x00000800 
  0x00007f8b307ab772  0f 84 08 01 00 00    jz     $0x00007f8b307ab880 
Actual: 7f8b307ab778

Block 678:
  0x00007f8b307ab778  48 89 df             mov    %rbx -> %rdi 
  0x00007f8b307ab77b  31 ed                xor    %ebp %ebp -> %ebp 
  0x00007f8b307ab77d  e8 2e 30 00 00       call   $0x00007f8b307ae7b0 %rsp -> %rsp 0xfffffff8(%rsp)[8byte] 
  0x00007f8b307ae7b0  53                   push   %rbx %rsp -> %rsp 0xfffffff8(%rsp)[8byte] 
  0x00007f8b307ae7b1  48 83 7f 60 00       cmp    0x60(%rdi)[8byte] $0x0000000000000000 
  0x00007f8b307ae7b6  48 89 fb             mov    %rdi -> %rbx 
  0x00007f8b307ae7b9  74 08                jz     $0x00007f8b307ae7c3 
Actual: 7f8b307ae7c3

Block 679:
  0x00007f8b307ae7c3  48 8b 7b 48          mov    0x48(%rbx)[8byte] -> %rdi 
  0x00007f8b307ae7c7  48 85 ff             test   %rdi %rdi 
  0x00007f8b307ae7ca  74 25                jz     $0x00007f8b307ae7f1 
Actual: 7f8b307ae7f1

Block 680:
  0x00007f8b307ae7f1  5b                   pop    %rsp (%rsp)[8byte] -> %rbx %rsp 
  0x00007f8b307ae7f2  c3                   ret    %rsp (%rsp)[8byte] -> %rsp 
Actual: 7f8b307ab782

Block 681:
  0x00007f8b307ab782  f6 43 74 20          test   0x74(%rbx)[1byte] $0x20 
  0x00007f8b307ab786  0f 84 d4 00 00 00    jz     $0x00007f8b307ab860 
Actual: 7f8b307ab860

Block 682:
  0x00007f8b307ab860  48 8b 83 d8 00 00 00 mov    0x000000d8(%rbx)[8byte] -> %rax 
  0x00007f8b307ab867  48 89 df             mov    %rbx -> %rdi 
  0x00007f8b307ab86a  ff 90 88 00 00 00    call   0x00000088(%rax)[8byte] %rsp -> %rsp 0xfffffff8(%rsp)[8byte] 
Actual: 7f8b307aa240

Block 683:
  0x00007f8b307aa240  48 63 7f 70          movsxd 0x70(%rdi)[4byte] -> %rdi 
  0x00007f8b307aa244  b8 03 00 00 00       mov    $0x00000003 -> %eax 
  0x00007f8b307aa249  0f 05                syscall -> %rcx 
Actual: 7f8b307aa24b

Block 684:
  0x00007f8b307aa24b  48 3d 00 f0 ff ff    cmp    %rax $0xfffffffffffff000 
  0x00007f8b307aa251  76 11                jbe    $0x00007f8b307aa264 
Actual: 7f8b307aa264

Block 685:
  0x00007f8b307aa264  f3 c3                ret    %rsp (%rsp)[8byte] -> %rsp 
Actual: 7f8b307ab870

Block 686:
  0x00007f8b307ab870  89 c5                mov    %eax -> %ebp 
  0x00007f8b307ab872  e9 15 ff ff ff       jmp    $0x00007f8b307ab78c 
  0x00007f8b307ab78c  8b 83 c0 00 00 00    mov    0x000000c0(%rbx)[4byte] -> %eax 
  0x00007f8b307ab792  85 c0                test   %eax %eax 
  0x00007f8b307ab794  7e 5a                jle    $0x00007f8b307ab7f0 
Actual: 7f8b307ab7f0

Block 687:
  0x00007f8b307ab7f0  31 c9                xor    %ecx %ecx -> %ecx 
  0x00007f8b307ab7f2  31 d2                xor    %edx %edx -> %edx 
  0x00007f8b307ab7f4  31 f6                xor    %esi %esi -> %esi 
  0x00007f8b307ab7f6  48 89 df             mov    %rbx -> %rdi 
  0x00007f8b307ab7f9  e8 82 1b 00 00       call   $0x00007f8b307ad380 %rsp -> %rsp 0xfffffff8(%rsp)[8byte] 
  0x00007f8b307ad380  53                   push   %rbx %rsp -> %rsp 0xfffffff8(%rsp)[8byte] 
  0x00007f8b307ad381  48 89 fb             mov    %rdi -> %rbx 
  0x00007f8b307ad384  48 83 ec 20          sub    $0x0000000000000020 %rsp -> %rsp 
  0x00007f8b307ad388  48 8b 7f 38          mov    0x38(%rdi)[8byte] -> %rdi 
  0x00007f8b307ad38c  8b 03                mov    (%rbx)[4byte] -> %eax 
  0x00007f8b307ad38e  48 85 ff             test   %rdi %rdi 
  0x00007f8b307ad391  74 04                jz     $0x00007f8b307ad397 
Actual: 7f8b307ad397

Block 688:
  0x00007f8b307ad397  48 89 53 40          mov    %rdx -> 0x40(%rbx)[8byte] 
  0x00007f8b307ad39b  89 c2                mov    %eax -> %edx 
  0x00007f8b307ad39d  83 c8 01             or     $0x00000001 %eax -> %eax 
  0x00007f8b307ad3a0  83 e2 fe             and    $0xfffffffe %edx -> %edx 
  0x00007f8b307ad3a3  85 c9                test   %ecx %ecx 
  0x00007f8b307ad3a5  48 89 73 38          mov    %rsi -> 0x38(%rbx)[8byte] 
  0x00007f8b307ad3a9  0f 45 c2             cmovnz %edx %eax -> %eax 
  0x00007f8b307ad3ac  89 03                mov    %eax -> (%rbx)[4byte] 
  0x00007f8b307ad3ae  48 83 c4 20          add    $0x0000000000000020 %rsp -> %rsp 
  0x00007f8b307ad3b2  5b                   pop    %rsp (%rsp)[8byte] -> %rbx %rsp 
  0x00007f8b307ad3b3  c3                   ret    %rsp (%rsp)[8byte] -> %rsp 
Actual: 7f8b307ab7fe

Block 689:
  0x00007f8b307ab7fe  48 c7 43 18 00 00 00 mov    $0x0000000000000000 -> 0x18(%rbx)[8byte] 
                      00
  0x00007f8b307ab806  48 c7 43 08 00 00 00 mov    $0x0000000000000000 -> 0x08(%rbx)[8byte] 
                      00
  0x00007f8b307ab80e  48 89 df             mov    %rbx -> %rdi 
  0x00007f8b307ab811  48 c7 43 10 00 00 00 mov    $0x0000000000000000 -> 0x10(%rbx)[8byte] 
                      00
  0x00007f8b307ab819  48 c7 43 28 00 00 00 mov    $0x0000000000000000 -> 0x28(%rbx)[8byte] 
                      00
  0x00007f8b307ab821  48 c7 43 20 00 00 00 mov    $0x0000000000000000 -> 0x20(%rbx)[8byte] 
                      00
  0x00007f8b307ab829  48 c7 43 30 00 00 00 mov    $0x0000000000000000 -> 0x30(%rbx)[8byte] 
                      00
  0x00007f8b307ab831  e8 0a 10 00 00       call   $0x00007f8b307ac840 %rsp -> %rsp 0xfffffff8(%rsp)[8byte] 
  0x00007f8b307ac840  f6 07 80             test   (%rdi)[1byte] $0x80 
  0x00007f8b307ac843  0f 84 db 01 00 00    jz     $0x00007f8b307aca24 
Actual: 7f8b307aca24

Block 690:
  0x00007f8b307aca24  f3 c3                ret    %rsp (%rsp)[8byte] -> %rsp 
Actual: 7f8b307ab836

Block 691:
  0x00007f8b307ab836  85 ed                test   %ebp %ebp 
  0x00007f8b307ab838  c7 03 0c 24 ad fb    mov    $0xfbad240c -> (%rbx)[4byte] 
  0x00007f8b307ab83e  c7 43 70 ff ff ff ff mov    $0xffffffff -> 0x70(%rbx)[4byte] 
  0x00007f8b307ab845  48 c7 83 90 00 00 00 mov    $0xffffffffffffffff -> 0x00000090(%rbx)[8byte] 
                      ff ff ff ff
  0x00007f8b307ab850  41 0f 44 ec          cmovz  %r12d %ebp -> %ebp 
  0x00007f8b307ab854  89 e8                mov    %ebp -> %eax 
  0x00007f8b307ab856  5b                   pop    %rsp (%rsp)[8byte] -> %rbx %rsp 
  0x00007f8b307ab857  5d                   pop    %rsp (%rsp)[8byte] -> %rbp %rsp 
  0x00007f8b307ab858  41 5c                pop    %rsp (%rsp)[8byte] -> %r12 %rsp 
  0x00007f8b307ab85a  c3                   ret    %rsp (%rsp)[8byte] -> %rsp 
Actual: 7f8b3079f4ff

Block 692:
  0x00007f8b3079f4ff  8b 13                mov    (%rbx)[4byte] -> %edx 
  0x00007f8b3079f501  89 c5                mov    %eax -> %ebp 
  0x00007f8b3079f503  81 e2 00 80 00 00    and    $0x00008000 %edx -> %edx 
  0x00007f8b3079f509  e9 7a fe ff ff       jmp    $0x00007f8b3079f388 
  0x00007f8b3079f388  85 d2                test   %edx %edx 
  0x00007f8b3079f38a  75 11                jnz    $0x00007f8b3079f39d 
Actual: 7f8b3079f38c

Block 693:
  0x00007f8b3079f38c  48 8b 93 88 00 00 00 mov    0x00000088(%rbx)[8byte] -> %rdx 
  0x00007f8b3079f393  83 6a 04 01          sub    $0x00000001 0x04(%rdx)[4byte] -> 0x04(%rdx)[4byte] 
  0x00007f8b3079f397  0f 84 73 01 00 00    jz     $0x00007f8b3079f510 
Actual: 7f8b3079f510

Block 694:
  0x00007f8b3079f510  48 c7 42 08 00 00 00 mov    $0x0000000000000000 -> 0x08(%rdx)[8byte] 
                      00
  0x00007f8b3079f518  83 3d e1 61 35 00 00 cmp    <rel> 0x00007f8b30af5700[4byte] $0x00000000 
  0x00007f8b3079f51f  74 07                jz     $0x00007f8b3079f528 
Actual: 7f8b3079f528

Block 695:
  0x00007f8b3079f528  ff 0a                dec    (%rdx)[4byte] -> (%rdx)[4byte] 
  0x00007f8b3079f52a  74 16                jz     $0x00007f8b3079f542 
Actual: 7f8b3079f542

Block 696:
  0x00007f8b3079f542  e9 56 fe ff ff       jmp    $0x00007f8b3079f39d 
  0x00007f8b3079f39d  48 8b 83 d8 00 00 00 mov    0x000000d8(%rbx)[8byte] -> %rax 
  0x00007f8b3079f3a4  31 f6                xor    %esi %esi -> %esi 
  0x00007f8b3079f3a6  48 89 df             mov    %rbx -> %rdi 
  0x00007f8b3079f3a9  ff 50 10             call   0x10(%rax)[8byte] %rsp -> %rsp 0xfffffff8(%rsp)[8byte] 
Actual: 7f8b307ab8d0

Block 697:
  0x00007f8b307ab8d0  53                   push   %rbx %rsp -> %rsp 0xfffffff8(%rsp)[8byte] 
  0x00007f8b307ab8d1  83 7f 70 ff          cmp    0x70(%rdi)[4byte] $0xffffffff 
  0x00007f8b307ab8d5  48 89 fb             mov    %rdi -> %rbx 
  0x00007f8b307ab8d8  74 2a                jz     $0x00007f8b307ab904 
Actual: 7f8b307ab904

Block 698:
  0x00007f8b307ab904  48 89 df             mov    %rbx -> %rdi 
  0x00007f8b307ab907  31 f6                xor    %esi %esi -> %esi 
  0x00007f8b307ab909  5b                   pop    %rsp (%rsp)[8byte] -> %rbx %rsp 
  0x00007f8b307ab90a  e9 91 21 00 00       jmp    $0x00007f8b307adaa0 
  0x00007f8b307adaa0  55                   push   %rbp %rsp -> %rsp 0xfffffff8(%rsp)[8byte] 
  0x00007f8b307adaa1  53                   push   %rbx %rsp -> %rsp 0xfffffff8(%rsp)[8byte] 
  0x00007f8b307adaa2  48 89 fb             mov    %rdi -> %rbx 
  0x00007f8b307adaa5  48 83 ec 28          sub    $0x0000000000000028 %rsp -> %rsp 
  0x00007f8b307adaa9  48 8b 7f 38          mov    0x38(%rdi)[8byte] -> %rdi 
  0x00007f8b307adaad  48 85 ff             test   %rdi %rdi 
  0x00007f8b307adab0  74 09                jz     $0x00007f8b307adabb 
Actual: 7f8b307adabb

Block 699:
  0x00007f8b307adabb  48 8b 43 60          mov    0x60(%rbx)[8byte] -> %rax 
  0x00007f8b307adabf  48 85 c0             test   %rax %rax 
  0x00007f8b307adac2  74 14                jz     $0x00007f8b307adad8 
Actual: 7f8b307adad8

Block 700:
  0x00007f8b307adad8  48 8b 7b 48          mov    0x48(%rbx)[8byte] -> %rdi 
  0x00007f8b307adadc  48 85 ff             test   %rdi %rdi 
  0x00007f8b307adadf  74 0d                jz     $0x00007f8b307adaee 
Actual: 7f8b307adaee

Block 701:
  0x00007f8b307adaee  f6 03 80             test   (%rbx)[1byte] $0x80 
  0x00007f8b307adaf1  75 0d                jnz    $0x00007f8b307adb00 
Actual: 7f8b307adaf3

Block 702:
  0x00007f8b307adaf3  48 83 c4 28          add    $0x0000000000000028 %rsp -> %rsp 
  0x00007f8b307adaf7  5b                   pop    %rsp (%rsp)[8byte] -> %rbx %rsp 
  0x00007f8b307adaf8  5d                   pop    %rsp (%rsp)[8byte] -> %rbp %rsp 
  0x00007f8b307adaf9  c3                   ret    %rsp (%rsp)[8byte] -> %rsp 
Actual: 7f8b3079f3ac

Block 703:
  0x00007f8b3079f3ac  8b 83 c0 00 00 00    mov    0x000000c0(%rbx)[4byte] -> %eax 
  0x00007f8b3079f3b2  85 c0                test   %eax %eax 
  0x00007f8b3079f3b4  0f 8e 96 01 00 00    jle    $0x00007f8b3079f550 
Actual: 7f8b3079f550

Block 704:
  0x00007f8b3079f550  48 83 7b 48 00       cmp    0x48(%rbx)[8byte] $0x0000000000000000 
  0x00007f8b3079f555  0f 84 f2 fe ff ff    jz     $0x00007f8b3079f44d 
Actual: 7f8b3079f44d

Block 705:
  0x00007f8b3079f44d  48 3b 1d 9c 22 35 00 cmp    %rbx <rel> 0x00007f8b30af16f0[8byte] 
  0x00007f8b3079f454  74 1a                jz     $0x00007f8b3079f470 
Actual: 7f8b3079f470

Block 706:
  0x00007f8b3079f470  89 e8                mov    %ebp -> %eax 
  0x00007f8b3079f472  5b                   pop    %rsp (%rsp)[8byte] -> %rbx %rsp 
  0x00007f8b3079f473  5d                   pop    %rsp (%rsp)[8byte] -> %rbp %rsp 
  0x00007f8b3079f474  41 5c                pop    %rsp (%rsp)[8byte] -> %r12 %rsp 
  0x00007f8b3079f476  c3                   ret    %rsp (%rsp)[8byte] -> %rsp 
Actual: 55ccfbaa3eba

Block 707:
  0x000055ccfbaa3eba  83 e3 20             and    $0x00000020 %ebx -> %ebx 
  0x000055ccfbaa3ebd  85 db                test   %ebx %ebx 
  0x000055ccfbaa3ebf  75 17                jnz    $0x000055ccfbaa3ed8 
Actual: 55ccfbaa3ec1

Block 708:
  0x000055ccfbaa3ec1  85 c0                test   %eax %eax 
  0x000055ccfbaa3ec3  74 0a                jz     $0x000055ccfbaa3ecf 
Actual: 55ccfbaa3ecf

Block 709:
  0x000055ccfbaa3ecf  5b                   pop    %rsp (%rsp)[8byte] -> %rbx %rsp 
  0x000055ccfbaa3ed0  5d                   pop    %rsp (%rsp)[8byte] -> %rbp %rsp 
  0x000055ccfbaa3ed1  41 5c                pop    %rsp (%rsp)[8byte] -> %r12 %rsp 
  0x000055ccfbaa3ed3  c3                   ret    %rsp (%rsp)[8byte] -> %rsp 
Actual: 55ccfba9ae97

Block 710:
  0x000055ccfba9ae97  85 c0                test   %eax %eax 
  0x000055ccfba9ae99  75 2e                jnz    $0x000055ccfba9aec9 
Actual: 55ccfba9ae9b

Block 711:
  0x000055ccfba9ae9b  45 84 e4             test   %r12l %r12l 
  0x000055ccfba9ae9e  75 29                jnz    $0x000055ccfba9aec9 
Actual: 55ccfba9aea0

Block 712:
  0x000055ccfba9aea0  5b                   pop    %rsp (%rsp)[8byte] -> %rbx %rsp 
  0x000055ccfba9aea1  5d                   pop    %rsp (%rsp)[8byte] -> %rbp %rsp 
  0x000055ccfba9aea2  41 5c                pop    %rsp (%rsp)[8byte] -> %r12 %rsp 
  0x000055ccfba9aea4  e9 d7 00 00 00       jmp    $0x000055ccfba9af80 
  0x000055ccfba9af80  55                   push   %rbp %rsp -> %rsp 0xfffffff8(%rsp)[8byte] 
  0x000055ccfba9af81  53                   push   %rbx %rsp -> %rsp 0xfffffff8(%rsp)[8byte] 
  0x000055ccfba9af82  48 83 ec 08          sub    $0x0000000000000008 %rsp -> %rsp 
  0x000055ccfba9af86  48 8b 05 03 2c 21 00 mov    <rel> 0x000055ccfbcadb90[8byte] -> %rax 
  0x000055ccfba9af8d  48 8b 38             mov    (%rax)[8byte] -> %rdi 
  0x000055ccfba9af90  e8 0b 8f 00 00       call   $0x000055ccfbaa3ea0 %rsp -> %rsp 0xfffffff8(%rsp)[8byte] 
  0x000055ccfbaa3ea0  41 54                push   %r12 %rsp -> %rsp 0xfffffff8(%rsp)[8byte] 
  0x000055ccfbaa3ea2  55                   push   %rbp %rsp -> %rsp 0xfffffff8(%rsp)[8byte] 
  0x000055ccfbaa3ea3  48 89 fd             mov    %rdi -> %rbp 
  0x000055ccfbaa3ea6  53                   push   %rbx %rsp -> %rsp 0xfffffff8(%rsp)[8byte] 
  0x000055ccfbaa3ea7  e8 6c e0 fe ff       call   $0x000055ccfba91f18 %rsp -> %rsp 0xfffffff8(%rsp)[8byte] 
  0x000055ccfba91f18  ff 25 8a bc 21 00    jmp    <rel> 0x000055ccfbcadba8[8byte] 
Actual: 7f8b307a92e0

Block 713:
  0x00007f8b307a9209  81 e2 04 08 00 00    and    $0x00000804 %edx -> %edx 
  0x00007f8b307a920f  75 14                jnz    $0x00007f8b307a9225 
Actual: 7f8b307a9225

Block 714:
  0x00007f8b307a9225  f3 c3                ret    %rsp (%rsp)[8byte] -> %rsp 
Actual: 55ccfbaa4a08

Block 715:
  0x000055ccfbaa4a0c  48 89 df             mov    %rbx -> %rdi 
  0x000055ccfbaa4a0f  e8 ec c1 ff ff       call   $0x000055ccfbaa0c00 %rsp -> %rsp 0xfffffff8(%rsp)[8byte] 
  0x000055ccfbaa0c00  48 85 ff             test   %rdi %rdi 
  0x000055ccfbaa0c03  53                   push   %rbx %rsp -> %rsp 0xfffffff8(%rsp)[8byte] 
  0x000055ccfbaa0c04  48 89 fb             mov    %rdi -> %rbx 
  0x000055ccfbaa0c07  74 11                jz     $0x000055ccfbaa0c1a 
Actual: 55ccfbaa0c09

Block 716:
  0x000055ccfbaa0c09  e8 ca 15 ff ff       call   $0x000055ccfba921d8 %rsp -> %rsp 0xfffffff8(%rsp)[8byte] 
  0x000055ccfba921d8  ff 25 aa bc 21 00    jmp    <rel> 0x000055ccfbcade88[8byte] 
Actual: 7f8b307a9200

Block 717:
  0x000055ccfbaa0c0e  85 c0                test   %eax %eax 
  0x000055ccfbaa0c10  74 08                jz     $0x000055ccfbaa0c1a 
Actual: 55ccfbaa0c1a

Block 718:
  0x000055ccfbaa0c1a  48 89 df             mov    %rbx -> %rdi 
  0x000055ccfbaa0c1d  5b                   pop    %rsp (%rsp)[8byte] -> %rbx %rsp 
  0x000055ccfbaa0c1e  e9 7d 15 ff ff       jmp    $0x000055ccfba921a0 
  0x000055ccfba921a0  ff 25 aa bc 21 00    jmp    <rel> 0x000055ccfbcade50[8byte] 
Actual: 7f8b3079f8a0

Block 719:
  0x00007f8b3079f8a0  48 85 ff             test   %rdi %rdi 
  0x00007f8b3079f8a3  0f 84 c7 00 00 00    jz     $0x00007f8b3079f970 
Actual: 7f8b3079f8a9

Block 720:
  0x00007f8b3079f8a9  53                   push   %rbx %rsp -> %rsp 0xfffffff8(%rsp)[8byte] 
  0x00007f8b3079f8aa  8b 07                mov    (%rdi)[4byte] -> %eax 
  0x00007f8b3079f8ac  48 89 fb             mov    %rdi -> %rbx 
  0x00007f8b3079f8af  25 00 80 00 00       and    $0x00008000 %eax -> %eax 
  0x00007f8b3079f8b4  75 59                jnz    $0x00007f8b3079f90f 
Actual: 7f8b3079f8b6

Block 721:
  0x00007f8b3079f8b6  4c 8b 87 88 00 00 00 mov    0x00000088(%rdi)[8byte] -> %r8 
  0x00007f8b3079f8bd  64 4c 8b 0c 25 10 00 mov    %fs:0x10[8byte] -> %r9 
                      00 00
  0x00007f8b3079f8c6  4d 3b 48 08          cmp    %r9 0x08(%r8)[8byte] 
  0x00007f8b3079f8ca  74 3e                jz     $0x00007f8b3079f90a 
Actual: 7f8b3079f8cc

Block 722:
  0x00007f8b3079f8cc  be 01 00 00 00       mov    $0x00000001 -> %esi 
  0x00007f8b3079f8d1  83 3d 28 5e 35 00 00 cmp    <rel> 0x00007f8b30af5700[4byte] $0x00000000 
  0x00007f8b3079f8d8  74 09                jz     $0x00007f8b3079f8e3 
Actual: 7f8b3079f8e3

Block 723:
  0x00007f8b3079f8e3  41 0f b1 30          cmpxchg %esi (%r8)[4byte] %eax -> (%r8)[4byte] %eax 
  0x00007f8b3079f8e7  74 16                jz     $0x00007f8b3079f8ff 
Actual: 7f8b3079f8ff

Block 724:
  0x00007f8b3079f8ff  4c 8b 83 88 00 00 00 mov    0x00000088(%rbx)[8byte] -> %r8 
  0x00007f8b3079f906  4d 89 48 08          mov    %r9 -> 0x08(%r8)[8byte] 
  0x00007f8b3079f90a  41 83 40 04 01       add    $0x00000001 0x04(%r8)[4byte] -> 0x04(%r8)[4byte] 
  0x00007f8b3079f90f  48 8b 83 d8 00 00 00 mov    0x000000d8(%rbx)[8byte] -> %rax 
  0x00007f8b3079f916  48 89 df             mov    %rbx -> %rdi 
  0x00007f8b3079f919  ff 50 60             call   0x60(%rax)[8byte] %rsp -> %rsp 0xfffffff8(%rsp)[8byte] 
Actual: 7f8b307aa270

Block 725:
  0x00007f8b307aa270  53                   push   %rbx %rsp -> %rsp 0xfffffff8(%rsp)[8byte] 
  0x00007f8b307aa271  48 8b 57 28          mov    0x28(%rdi)[8byte] -> %rdx 
  0x00007f8b307aa275  48 89 fb             mov    %rdi -> %rbx 
  0x00007f8b307aa278  48 8b 77 20          mov    0x20(%rdi)[8byte] -> %rsi 
  0x00007f8b307aa27c  48 39 f2             cmp    %rdx %rsi 
  0x00007f8b307aa27f  76 2e                jbe    $0x00007f8b307aa2af 
Actual: 7f8b307aa2af

Block 726:
  0x00007f8b307aa2af  48 8b 73 08          mov    0x08(%rbx)[8byte] -> %rsi 
  0x00007f8b307aa2b3  48 2b 73 10          sub    0x10(%rbx)[8byte] %rsi -> %rsi 
  0x00007f8b307aa2b7  75 17                jnz    $0x00007f8b307aa2d0 
Actual: 7f8b307aa2b9

Block 727:
  0x00007f8b307aa2b9  48 c7 83 90 00 00 00 mov    $0xffffffffffffffff -> 0x00000090(%rbx)[8byte] 
                      ff ff ff ff
  0x00007f8b307aa2c4  31 c0                xor    %eax %eax -> %eax 
  0x00007f8b307aa2c6  5b                   pop    %rsp (%rsp)[8byte] -> %rbx %rsp 
  0x00007f8b307aa2c7  c3                   ret    %rsp (%rsp)[8byte] -> %rsp 
Actual: 7f8b3079f91c

Block 728:
  0x00007f8b3079f91c  31 d2                xor    %edx %edx -> %edx 
  0x00007f8b3079f91e  85 c0                test   %eax %eax 
  0x00007f8b3079f920  0f 95 c2             setnz  -> %dl 
  0x00007f8b3079f923  f7 da                neg    %edx -> %edx 
  0x00007f8b3079f925  f7 03 00 80 00 00    test   (%rbx)[4byte] $0x00008000 
  0x00007f8b3079f92b  75 3f                jnz    $0x00007f8b3079f96c 
Actual: 7f8b3079f92d

Block 729:
  0x00007f8b3079f92d  48 8b b3 88 00 00 00 mov    0x00000088(%rbx)[8byte] -> %rsi 
  0x00007f8b3079f934  83 6e 04 01          sub    $0x00000001 0x04(%rsi)[4byte] -> 0x04(%rsi)[4byte] 
  0x00007f8b3079f938  75 32                jnz    $0x00007f8b3079f96c 
Actual: 7f8b3079f93a

Block 730:
  0x00007f8b3079f93a  48 c7 46 08 00 00 00 mov    $0x0000000000000000 -> 0x08(%rsi)[8byte] 
                      00
  0x00007f8b3079f942  83 3d b7 5d 35 00 00 cmp    <rel> 0x00007f8b30af5700[4byte] $0x00000000 
  0x00007f8b3079f949  74 07                jz     $0x00007f8b3079f952 
Actual: 7f8b3079f952

Block 731:
  0x00007f8b3079f952  ff 0e                dec    (%rsi)[4byte] -> (%rsi)[4byte] 
  0x00007f8b3079f954  74 16                jz     $0x00007f8b3079f96c 
Actual: 7f8b3079f96c

Block 732:
  0x00007f8b3079f96c  89 d0                mov    %edx -> %eax 
  0x00007f8b3079f96e  5b                   pop    %rsp (%rsp)[8byte] -> %rbx %rsp 
  0x00007f8b3079f96f  c3                   ret    %rsp (%rsp)[8byte] -> %rsp 
Actual: 55ccfbaa4a14

Block 733:
  0x000055ccfbaa4a14  85 c0                test   %eax %eax 
  0x000055ccfbaa4a16  74 3c                jz     $0x000055ccfbaa4a54 
Actual: 55ccfbaa4a54

Block 734:
  0x00007f8b307ac973  e9 9f 01 00 00       jmp    $0x00007f8b307acb17 
  0x00007f8b307acb17  48 8d 4f 68          lea    0x68(%rdi) -> %rcx 
  0x00007f8b307acb1b  eb a7                jmp    $0x00007f8b307acac4 
  0x00007f8b307acac4  48 8b 53 68          mov    0x68(%rbx)[8byte] -> %rdx 
  0x00007f8b307acac8  83 05 69 5c 34 00 01 add    $0x00000001 <rel> 0x00007f8b30af2738[4byte] -> <rel> 0x00007f8b30af2738[4byte] 
  0x00007f8b307acacf  48 89 11             mov    %rdx -> (%rcx)[8byte] 
  0x00007f8b307acad2  e9 be fe ff ff       jmp    $0x00007f8b307ac995 
  0x00007f8b307ac995  40 80 e6 7f          and    $0x7f %sil -> %sil 
  0x00007f8b307ac999  85 c0                test   %eax %eax 
  0x00007f8b307ac99b  89 33                mov    %esi -> (%rbx)[4byte] 
  0x00007f8b307ac99d  0f 85 bf 00 00 00    jnz    $0x00007f8b307aca62 
Actual: 7f8b307ac9a3

Block 735:
  0x00007f8b3079f456  48 3b 1d 8b 22 35 00 cmp    %rbx <rel> 0x00007f8b30af16e8[8byte] 
  0x00007f8b3079f45d  74 11                jz     $0x00007f8b3079f470 
Actual: 7f8b3079f470

Block 736:
  0x000055ccfba9af95  85 c0                test   %eax %eax 
  0x000055ccfba9af97  74 13                jz     $0x000055ccfba9afac 
Actual: 55ccfba9afac

Block 737:
  0x000055ccfba9afac  48 8b 05 35 30 21 00 mov    <rel> 0x000055ccfbcadfe8[8byte] -> %rax 
  0x000055ccfba9afb3  48 8b 38             mov    (%rax)[8byte] -> %rdi 
  0x000055ccfba9afb6  e8 e5 8e 00 00       call   $0x000055ccfbaa3ea0 %rsp -> %rsp 0xfffffff8(%rsp)[8byte] 
  0x000055ccfbaa3ea0  41 54                push   %r12 %rsp -> %rsp 0xfffffff8(%rsp)[8byte] 
  0x000055ccfbaa3ea2  55                   push   %rbp %rsp -> %rsp 0xfffffff8(%rsp)[8byte] 
  0x000055ccfbaa3ea3  48 89 fd             mov    %rdi -> %rbp 
  0x000055ccfbaa3ea6  53                   push   %rbx %rsp -> %rsp 0xfffffff8(%rsp)[8byte] 
  0x000055ccfbaa3ea7  e8 6c e0 fe ff       call   $0x000055ccfba91f18 %rsp -> %rsp 0xfffffff8(%rsp)[8byte] 
  0x000055ccfba91f18  ff 25 8a bc 21 00    jmp    <rel> 0x000055ccfbcadba8[8byte] 
Actual: 7f8b307a92e0

Block 738:
  0x00007f8b307acb00  48 8b 53 68          mov    0x68(%rbx)[8byte] -> %rdx 
  0x00007f8b307acb04  83 05 2d 5c 34 00 01 add    $0x00000001 <rel> 0x00007f8b30af2738[4byte] -> <rel> 0x00007f8b30af2738[4byte] 
  0x00007f8b307acb0b  48 89 15 ee 49 34 00 mov    %rdx -> <rel> 0x00007f8b30af1500[8byte] 
  0x00007f8b307acb12  e9 7e fe ff ff       jmp    $0x00007f8b307ac995 
  0x00007f8b307ac995  40 80 e6 7f          and    $0x7f %sil -> %sil 
  0x00007f8b307ac999  85 c0                test   %eax %eax 
  0x00007f8b307ac99b  89 33                mov    %esi -> (%rbx)[4byte] 
  0x00007f8b307ac99d  0f 85 bf 00 00 00    jnz    $0x00007f8b307aca62 
Actual: 7f8b307ac9a3

Block 739:
  0x00007f8b3079f45f  48 3b 1d 7a 22 35 00 cmp    %rbx <rel> 0x00007f8b30af16e0[8byte] 
  0x00007f8b3079f466  74 08                jz     $0x00007f8b3079f470 
Actual: 7f8b3079f470

Block 740:
  0x000055ccfba9afbb  85 c0                test   %eax %eax 
  0x000055ccfba9afbd  75 4e                jnz    $0x000055ccfba9b00d 
Actual: 55ccfba9afbf

Block 741:
  0x000055ccfba9afbf  48 83 c4 08          add    $0x0000000000000008 %rsp -> %rsp 
  0x000055ccfba9afc3  5b                   pop    %rsp (%rsp)[8byte] -> %rbx %rsp 
  0x000055ccfba9afc4  5d                   pop    %rsp (%rsp)[8byte] -> %rbp %rsp 
  0x000055ccfba9afc5  c3                   ret    %rsp (%rsp)[8byte] -> %rsp 
Actual: 7f8b3076d1e8

Block 742:
  0x00007f8b3076d1e8  e9 33 ff ff ff       jmp    $0x00007f8b3076d120 
  0x00007f8b3076d120  49 8b 45 08          mov    0x08(%r13)[8byte] -> %rax 
  0x00007f8b3076d124  48 89 c2             mov    %rax -> %rdx 
  0x00007f8b3076d127  48 c1 e2 05          shl    $0x0000000000000005 %rdx -> %rdx 
  0x00007f8b3076d12b  48 85 c0             test   %rax %rax 
  0x00007f8b3076d12e  49 8d 4c 15 f0       lea    0xfffffff0(%r13,%rdx,1) -> %rcx 
  0x00007f8b3076d133  74 2a                jz     $0x00007f8b3076d15f 
Actual: 7f8b3076d135

Block 743:
  0x00007f8b31b791c0  55                   push   %rbp %rsp -> %rsp 0xfffffff8(%rsp)[8byte] 
  0x00007f8b31b791c1  48 89 e5             mov    %rsp -> %rbp 
  0x00007f8b31b791c4  41 57                push   %r15 %rsp -> %rsp 0xfffffff8(%rsp)[8byte] 
  0x00007f8b31b791c6  41 56                push   %r14 %rsp -> %rsp 0xfffffff8(%rsp)[8byte] 
  0x00007f8b31b791c8  41 55                push   %r13 %rsp -> %rsp 0xfffffff8(%rsp)[8byte] 
  0x00007f8b31b791ca  41 54                push   %r12 %rsp -> %rsp 0xfffffff8(%rsp)[8byte] 
  0x00007f8b31b791cc  53                   push   %rbx %rsp -> %rsp 0xfffffff8(%rsp)[8byte] 
  0x00007f8b31b791cd  48 83 ec 78          sub    $0x0000000000000078 %rsp -> %rsp 
  0x00007f8b31b791d1  48 8b 05 28 47 21 00 mov    <rel> 0x00007f8b31d8d900[8byte] -> %rax 
  0x00007f8b31b791d8  48 83 e8 01          sub    $0x0000000000000001 %rax -> %rax 
  0x00007f8b31b791dc  48 89 45 c8          mov    %rax -> 0xffffffc8(%rbp)[8byte] 
  0x00007f8b31b791e0  0f 88 77 04 00 00    js     $0x00007f8b31b7965d 
Actual: 7f8b31b791e6

Block 744:
  0x00007f8b31b791e6  c7 45 a4 00 00 00 00 mov    $0x00000000 -> 0xffffffa4(%rbp)[4byte] 
  0x00007f8b31b791ed  48 8d 04 c0          lea    (%rax,%rax,8) -> %rax 
  0x00007f8b31b791f1  48 8d 0d 08 3e 21 00 lea    <rel> 0x00007f8b31d8d000 -> %rcx 
  0x00007f8b31b791f8  48 c1 e0 04          shl    $0x0000000000000004 %rax -> %rax 
  0x00007f8b31b791fc  4c 8d 3c 01          lea    (%rcx,%rax,1) -> %r15 
  0x00007f8b31b79200  eb 2d                jmp    $0x00007f8b31b7922f 
  0x00007f8b31b7922f  48 8d 3d d2 46 21 00 lea    <rel> 0x00007f8b31d8d908 -> %rdi 
  0x00007f8b31b79236  ff 15 cc 4c 21 00    call   <rel> 0x00007f8b31d8df08[8byte] %rsp -> %rsp 0xfffffff8(%rsp)[8byte] 
Actual: 7f8b311349a0

Block 745:
  0x00007f8b311349a0  8b 57 10             mov    0x10(%rdi)[4byte] -> %edx 
  0x00007f8b311349a3  49 89 f8             mov    %rdi -> %r8 
  0x00007f8b311349a6  89 d1                mov    %edx -> %ecx 
  0x00007f8b311349a8  81 e1 7f 01 00 00    and    $0x0000017f %ecx -> %ecx 
  0x00007f8b311349ae  90                   nop    
  0x00007f8b311349af  89 d0                mov    %edx -> %eax 
  0x00007f8b311349b1  83 e0 7c             and    $0x0000007c %eax -> %eax 
  0x00007f8b311349b4  75 7a                jnz    $0x00007f8b31134a30 
Actual: 7f8b311349b6

Block 746:
  0x00007f8b311349b6  85 c9                test   %ecx %ecx 
  0x00007f8b311349b8  75 7e                jnz    $0x00007f8b31134a38 
Actual: 7f8b31134a38

Block 747:
  0x00007f8b31134a38  81 f9 00 01 00 00    cmp    %ecx $0x00000100 
  0x00007f8b31134a3e  74 8f                jz     $0x00007f8b311349cf 
Actual: 7f8b31134a40

Block 748:
  0x00007f8b31134a40  89 d7                mov    %edx -> %edi 
  0x00007f8b31134a42  83 e7 7f             and    $0x0000007f %edi -> %edi 
  0x00007f8b31134a45  83 ff 01             cmp    %edi $0x00000001 
  0x00007f8b31134a48  75 54                jnz    $0x00007f8b31134a9e 
Actual: 7f8b31134a4a

Block 749:
  0x00007f8b31134a4a  64 8b 0c 25 d0 02 00 mov    %fs:0x000002d0[4byte] -> %ecx 
                      00
  0x00007f8b31134a52  41 3b 48 08          cmp    %ecx 0x08(%r8)[4byte] 
  0x00007f8b31134a56  74 2f                jz     $0x00007f8b31134a87 
Actual: 7f8b31134a58

Block 750:
  0x00007f8b31134a58  81 e2 80 00 00 00    and    $0x00000080 %edx -> %edx 
  0x00007f8b31134a5e  89 d6                mov    %edx -> %esi 
  0x00007f8b31134a60  f0 41 0f b1 38       lock cmpxchg %edi (%r8)[4byte] %eax -> (%r8)[4byte] %eax 
  0x00007f8b31134a65  74 16                jz     $0x00007f8b31134a7d 
Actual: 7f8b31134a7d

Block 751:
  0x00007f8b31134a7d  41 c7 40 04 01 00 00 mov    $0x00000001 -> 0x04(%r8)[4byte] 
                      00
  0x00007f8b31134a85  eb 8d                jmp    $0x00007f8b31134a14 
  0x00007f8b31134a14  64 8b 04 25 d0 02 00 mov    %fs:0x000002d0[4byte] -> %eax 
                      00
  0x00007f8b31134a1c  41 89 40 08          mov    %eax -> 0x08(%r8)[4byte] 
  0x00007f8b31134a20  41 83 40 0c 01       add    $0x00000001 0x0c(%r8)[4byte] -> 0x0c(%r8)[4byte] 
  0x00007f8b31134a25  90                   nop    
  0x00007f8b31134a26  31 c0                xor    %eax %eax -> %eax 
  0x00007f8b31134a28  c3                   ret    %rsp (%rsp)[8byte] -> %rsp 
Actual: 7f8b31b7923c

Block 752:
  0x00007f8b31b7923c  41 8b 4f 08          mov    0x08(%r15)[4byte] -> %ecx 
  0x00007f8b31b79240  85 c9                test   %ecx %ecx 
  0x00007f8b31b79242  74 c4                jz     $0x00007f8b31b79208 
Actual: 7f8b31b79244

Block 753:
  0x00007f8b31b79244  49 8b 07             mov    (%r15)[8byte] -> %rax 
  0x00007f8b31b79247  0f b6 90 15 03 00 00 movzx  0x00000315(%rax)[1byte] -> %edx 
  0x00007f8b31b7924e  c0 ea 03             shr    $0x03 %dl -> %dl 
  0x00007f8b31b79251  89 d6                mov    %edx -> %esi 
  0x00007f8b31b79253  83 e6 01             and    $0x00000001 %esi -> %esi 
  0x00007f8b31b79256  3b 75 a4             cmp    %esi 0xffffffa4(%rbp)[4byte] 
  0x00007f8b31b79259  89 75 b0             mov    %esi -> 0xffffffb0(%rbp)[4byte] 
  0x00007f8b31b7925c  75 aa                jnz    $0x00007f8b31b79208 
Actual: 7f8b31b7925e

Block 754:
  0x00007f8b31b7925e  48 8d 14 cd 16 00 00 lea    0x16(,%rcx,8) -> %rdx 
                      00
  0x00007f8b31b79266  48 89 65 98          mov    %rsp -> 0xffffff98(%rbp)[8byte] 
  0x00007f8b31b7926a  48 c1 ea 04          shr    $0x0000000000000004 %rdx -> %rdx 
  0x00007f8b31b7926e  48 c1 e2 04          shl    $0x0000000000000004 %rdx -> %rdx 
  0x00007f8b31b79272  48 29 d4             sub    %rdx %rsp -> %rsp 
  0x00007f8b31b79275  31 d2                xor    %edx %edx -> %edx 
  0x00007f8b31b79277  48 89 65 b8          mov    %rsp -> 0xffffffb8(%rbp)[8byte] 
  0x00007f8b31b7927b  eb 0c                jmp    $0x00007f8b31b79289 
  0x00007f8b31b79289  48 39 40 28          cmp    0x28(%rax)[8byte] %rax 
  0x00007f8b31b7928d  75 f1                jnz    $0x00007f8b31b79280 
Actual: 7f8b31b7928f

Block 755:
  0x00007f8b31b7928f  48 8b 75 b8          mov    0xffffffb8(%rbp)[8byte] -> %rsi 
  0x00007f8b31b79293  89 d1                mov    %edx -> %ecx 
  0x00007f8b31b79295  89 90 dc 03 00 00    mov    %edx -> 0x000003dc(%rax)[4byte] 
  0x00007f8b31b7929b  83 80 10 03 00 00 01 add    $0x00000001 0x00000310(%rax)[4byte] -> 0x00000310(%rax)[4byte] 
  0x00007f8b31b792a2  83 c2 01             add    $0x00000001 %edx -> %edx 
  0x00007f8b31b792a5  48 89 04 ce          mov    %rax -> (%rsi,%rcx,8)[8byte] 
  0x00007f8b31b792a9  48 8b 40 18          mov    0x18(%rax)[8byte] -> %rax 
  0x00007f8b31b792ad  48 85 c0             test   %rax %rax 
  0x00007f8b31b792b0  75 d7                jnz    $0x00007f8b31b79289 
Actual: 7f8b31b79289

Block 756:
  0x00007f8b31b79289  48 39 40 28          cmp    0x28(%rax)[8byte] %rax 
  0x00007f8b31b7928d  75 f1                jnz    $0x00007f8b31b79280 
Actual: 7f8b31b7928f

Block 757:
  0x00007f8b31b792b2  66 0f 1f 44 00 00    data16 nop    0x00(%rax,%rax,1)[4byte] 
  0x00007f8b31b792b8  89 d0                mov    %edx -> %eax 
  0x00007f8b31b792ba  48 89 a5 70 ff ff ff mov    %rsp -> 0xffffff70(%rbp)[8byte] 
  0x00007f8b31b792c1  48 83 f8 01          cmp    %rax $0x0000000000000001 
  0x00007f8b31b792c5  89 45 b4             mov    %eax -> 0xffffffb4(%rbp)[4byte] 
  0x00007f8b31b792c8  48 89 45 c0          mov    %rax -> 0xffffffc0(%rbp)[8byte] 
  0x00007f8b31b792cc  0f 84 d6 02 00 00    jz     $0x00007f8b31b795a8 
Actual: 7f8b31b792d2

Block 758:
  0x00007f8b31b792d2  31 c9                xor    %ecx %ecx -> %ecx 
  0x00007f8b31b792d4  48 8d 14 00          lea    (%rax,%rax,1) -> %rdx 
  0x00007f8b31b792d8  48 83 7d c8 00       cmp    0xffffffc8(%rbp)[8byte] $0x0000000000000000 
  0x00007f8b31b792dd  48 8d 42 10          lea    0x10(%rdx) -> %rax 
  0x00007f8b31b792e1  0f 94 c1             setz   -> %cl 
  0x00007f8b31b792e4  48 c1 e8 04          shr    $0x0000000000000004 %rax -> %rax 
  0x00007f8b31b792e8  31 f6                xor    %esi %esi -> %esi 
  0x00007f8b31b792ea  48 c1 e0 04          shl    $0x0000000000000004 %rax -> %rax 
  0x00007f8b31b792ee  89 cb                mov    %ecx -> %ebx 
  0x00007f8b31b792f0  48 29 c4             sub    %rax %rsp -> %rsp 
  0x00007f8b31b792f3  89 5d a8             mov    %ebx -> 0xffffffa8(%rbp)[4byte] 
  0x00007f8b31b792f6  89 db                mov    %ebx -> %ebx 
  0x00007f8b31b792f8  48 89 e7             mov    %rsp -> %rdi 
  0x00007f8b31b792fb  49 89 e5             mov    %rsp -> %r13 
  0x00007f8b31b792fe  44 8d 73 01          lea    0x01(%rbx) -> %r14d 
  0x00007f8b31b79302  e8 79 cb 00 00       call   $0x00007f8b31b85e80 %rsp -> %rsp 0xfffffff8(%rsp)[8byte] 
  0x00007f8b31b85e80  66 0f 6e c6          movd   %esi -> %xmm0 
  0x00007f8b31b85e84  48 89 f8             mov    %rdi -> %rax 
  0x00007f8b31b85e87  66 0f 60 c0          punpcklbw %xmm0 %xmm0 -> %xmm0 
  0x00007f8b31b85e8b  66 0f 61 c0          punpcklwd %xmm0 %xmm0 -> %xmm0 
  0x00007f8b31b85e8f  66 0f 70 c0 00       pshufd %xmm0 $0x00 -> %xmm0 
  0x00007f8b31b85e94  48 83 fa 40          cmp    %rdx $0x0000000000000040 
  0x00007f8b31b85e98  77 36                jnbe   $0x00007f8b31b85ed0 
Actual: 7f8b31b85e9a

Block 759:
  0x00007f8b31b85e9a  48 83 fa 10          cmp    %rdx $0x0000000000000010 
  0x00007f8b31b85e9e  0f 86 8a 00 00 00    jbe    $0x00007f8b31b85f2e 
Actual: 7f8b31b85ea4

Block 760:
  0x00007f8b31b85ea4  48 83 fa 20          cmp    %rdx $0x0000000000000020 
  0x00007f8b31b85ea8  f3 0f 7f 07          movdqu %xmm0 -> (%rdi)[16byte] 
  0x00007f8b31b85eac  f3 0f 7f 44 17 f0    movdqu %xmm0 -> 0xfffffff0(%rdi,%rdx,1)[16byte] 
  0x00007f8b31b85eb2  77 0c                jnbe   $0x00007f8b31b85ec0 
Actual: 7f8b31b85eb4

Block 761:
  0x00007f8b31b85eb4  f3 c3                ret    %rsp (%rsp)[8byte] -> %rsp 
Actual: 7f8b31b79307

Block 762:
  0x00007f8b31b79307  eb 35                jmp    $0x00007f8b31b7933e 
  0x00007f8b31b7933e  4d 8d 4c 5d 00       lea    0x00(%r13,%rbx,2) -> %r9 
  0x00007f8b31b79343  41 0f b7 01          movzx  (%r9)[2byte] -> %eax 
  0x00007f8b31b79347  8d 48 01             lea    0x01(%rax) -> %ecx 
  0x00007f8b31b7934a  48 8b 45 b8          mov    0xffffffb8(%rbp)[8byte] -> %rax 
  0x00007f8b31b7934e  66 41 89 09          data16 mov    %cx -> (%r9)[2byte] 
  0x00007f8b31b79352  48 8d 3c d8          lea    (%rax,%rbx,8) -> %rdi 
  0x00007f8b31b79356  4c 8b 27             mov    (%rdi)[8byte] -> %r12 
  0x00007f8b31b79359  4d 3b 64 24 28       cmp    %r12 0x28(%r12)[8byte] 
  0x00007f8b31b7935e  75 b0                jnz    $0x00007f8b31b79310 
Actual: 7f8b31b79360

Block 763:
  0x00007f8b31b79360  41 83 bc 24 dc 03 00 cmp    0x000003dc(%r12)[4byte] $0xffffffff 
                      00 ff
  0x00007f8b31b79369  74 a5                jz     $0x00007f8b31b79310 
Actual: 7f8b31b7936b

Block 764:
  0x00007f8b31b7936b  8b 45 b4             mov    0xffffffb4(%rbp)[4byte] -> %eax 
  0x00007f8b31b7936e  44 8d 50 ff          lea    0xffffffff(%rax) -> %r10d 
  0x00007f8b31b79372  44 39 55 a8          cmp    0xffffffa8(%rbp)[4byte] %r10d 
  0x00007f8b31b79376  73 98                jnb    $0x00007f8b31b79310 
Actual: 7f8b31b79378

Block 765:
  0x00007f8b31b79378  48 8b 45 b8          mov    0xffffffb8(%rbp)[8byte] -> %rax 
  0x00007f8b31b7937c  44 89 d2             mov    %r10d -> %edx 
  0x00007f8b31b7937f  4c 8d 1c d0          lea    (%rax,%rdx,8) -> %r11 
  0x00007f8b31b79383  49 8b 03             mov    (%r11)[8byte] -> %rax 
  0x00007f8b31b79386  48 8b b0 b8 03 00 00 mov    0x000003b8(%rax)[8byte] -> %rsi 
  0x00007f8b31b7938d  48 85 f6             test   %rsi %rsi 
  0x00007f8b31b79390  0f 84 ea 01 00 00    jz     $0x00007f8b31b79580 
Actual: 7f8b31b79396

Block 766:
  0x00007f8b31b79396  66 2e 0f 1f 84 00 00 data16 nop    %cs:0x00000000(%rax,%rax,1)[4byte] 
                      00 00 00
  0x00007f8b31b793a0  4c 8b 06             mov    (%rsi)[8byte] -> %r8 
  0x00007f8b31b793a3  4d 85 c0             test   %r8 %r8 
  0x00007f8b31b793a6  0f 84 d4 01 00 00    jz     $0x00007f8b31b79580 
Actual: 7f8b31b793ac

Block 767:
  0x00007f8b31b793ac  48 83 c6 08          add    $0x0000000000000008 %rsi -> %rsi 
  0x00007f8b31b793b0  4d 39 c4             cmp    %r12 %r8 
  0x00007f8b31b793b3  75 eb                jnz    $0x00007f8b31b793a0 
Actual: 7f8b31b793a0

Block 768:
  0x00007f8b31b793a0  4c 8b 06             mov    (%rsi)[8byte] -> %r8 
  0x00007f8b31b793a3  4d 85 c0             test   %r8 %r8 
  0x00007f8b31b793a6  0f 84 d4 01 00 00    jz     $0x00007f8b31b79580 
Actual: 7f8b31b793ac

Block 769:
  0x00007f8b31b79580  48 8b b0 c0 03 00 00 mov    0x000003c0(%rax)[8byte] -> %rsi 
  0x00007f8b31b79587  48 85 f6             test   %rsi %rsi 
  0x00007f8b31b7958a  0f 85 e5 00 00 00    jnz    $0x00007f8b31b79675 
Actual: 7f8b31b79590

Block 770:
  0x00007f8b31b79590  41 83 ea 01          sub    $0x00000001 %r10d -> %r10d 
  0x00007f8b31b79594  44 39 55 a8          cmp    0xffffffa8(%rbp)[4byte] %r10d 
  0x00007f8b31b79598  0f 82 da fd ff ff    jb     $0x00007f8b31b79378 
Actual: 7f8b31b79378

Block 771:
  0x00007f8b31b7959e  e9 6d fd ff ff       jmp    $0x00007f8b31b79310 
  0x00007f8b31b79310  44 89 f3             mov    %r14d -> %ebx 
  0x00007f8b31b79313  48 39 5d c0          cmp    0xffffffc0(%rbp)[8byte] %rbx 
  0x00007f8b31b79317  44 89 75 a8          mov    %r14d -> 0xffffffa8(%rbp)[4byte] 
  0x00007f8b31b7931b  49 89 d8             mov    %rbx -> %r8 
  0x00007f8b31b7931e  0f 84 0c 01 00 00    jz     $0x00007f8b31b79430 
Actual: 7f8b31b79324

Block 772:
  0x00007f8b31b79324  48 8b 55 c0          mov    0xffffffc0(%rbp)[8byte] -> %rdx 
  0x00007f8b31b79328  4b 8d 7c 45 00       lea    0x00(%r13,%r8,2) -> %rdi 
  0x00007f8b31b7932d  31 f6                xor    %esi %esi -> %esi 
  0x00007f8b31b7932f  41 83 c6 01          add    $0x00000001 %r14d -> %r14d 
  0x00007f8b31b79333  4c 29 c2             sub    %r8 %rdx -> %rdx 
  0x00007f8b31b79336  48 01 d2             add    %rdx %rdx -> %rdx 
  0x00007f8b31b79339  e8 42 cb 00 00       call   $0x00007f8b31b85e80 %rsp -> %rsp 0xfffffff8(%rsp)[8byte] 
  0x00007f8b31b85e80  66 0f 6e c6          movd   %esi -> %xmm0 
  0x00007f8b31b85e84  48 89 f8             mov    %rdi -> %rax 
  0x00007f8b31b85e87  66 0f 60 c0          punpcklbw %xmm0 %xmm0 -> %xmm0 
  0x00007f8b31b85e8b  66 0f 61 c0          punpcklwd %xmm0 %xmm0 -> %xmm0 
  0x00007f8b31b85e8f  66 0f 70 c0 00       pshufd %xmm0 $0x00 -> %xmm0 
  0x00007f8b31b85e94  48 83 fa 40          cmp    %rdx $0x0000000000000040 
  0x00007f8b31b85e98  77 36                jnbe   $0x00007f8b31b85ed0 
Actual: 7f8b31b85e9a

Block 773:
  0x00007f8b31b7933e  4d 8d 4c 5d 00       lea    0x00(%r13,%rbx,2) -> %r9 
  0x00007f8b31b79343  41 0f b7 01          movzx  (%r9)[2byte] -> %eax 
  0x00007f8b31b79347  8d 48 01             lea    0x01(%rax) -> %ecx 
  0x00007f8b31b7934a  48 8b 45 b8          mov    0xffffffb8(%rbp)[8byte] -> %rax 
  0x00007f8b31b7934e  66 41 89 09          data16 mov    %cx -> (%r9)[2byte] 
  0x00007f8b31b79352  48 8d 3c d8          lea    (%rax,%rbx,8) -> %rdi 
  0x00007f8b31b79356  4c 8b 27             mov    (%rdi)[8byte] -> %r12 
  0x00007f8b31b79359  4d 3b 64 24 28       cmp    %r12 0x28(%r12)[8byte] 
  0x00007f8b31b7935e  75 b0                jnz    $0x00007f8b31b79310 
Actual: 7f8b31b79360

Block 774:
  0x00007f8b31b793b5  44 2b 55 a8          sub    0xffffffa8(%rbp)[4byte] %r10d -> %r10d 
  0x00007f8b31b793b9  48 8b 45 b8          mov    0xffffffb8(%rbp)[8byte] -> %rax 
  0x00007f8b31b793bd  45 89 f0             mov    %r14d -> %r8d 
  0x00007f8b31b793c0  48 89 95 68 ff ff ff mov    %rdx -> 0xffffff68(%rbp)[8byte] 
  0x00007f8b31b793c7  4c 89 8d 78 ff ff ff mov    %r9 -> 0xffffff78(%rbp)[8byte] 
  0x00007f8b31b793ce  4c 89 5d 80          mov    %r11 -> 0xffffff80(%rbp)[8byte] 
  0x00007f8b31b793d2  89 4d a0             mov    %ecx -> 0xffffffa0(%rbp)[4byte] 
  0x00007f8b31b793d5  4a 8d 34 c0          lea    (%rax,%r8,8) -> %rsi 
  0x00007f8b31b793d9  4c 89 45 90          mov    %r8 -> 0xffffff90(%rbp)[8byte] 
  0x00007f8b31b793dd  4a 8d 14 d5 00 00 00 lea    0x00(,%r10,8) -> %rdx 
                      00
  0x00007f8b31b793e5  4c 89 55 88          mov    %r10 -> 0xffffff88(%rbp)[8byte] 
  0x00007f8b31b793e9  e8 82 c7 00 00       call   $0x00007f8b31b85b70 %rsp -> %rsp 0xfffffff8(%rsp)[8byte] 
  0x00007f8b31b85b70  41 55                push   %r13 %rsp -> %rsp 0xfffffff8(%rsp)[8byte] 
  0x00007f8b31b85b72  48 89 f8             mov    %rdi -> %rax 
  0x00007f8b31b85b75  41 54                push   %r12 %rsp -> %rsp 0xfffffff8(%rsp)[8byte] 
  0x00007f8b31b85b77  55                   push   %rbp %rsp -> %rsp 0xfffffff8(%rsp)[8byte] 
  0x00007f8b31b85b78  53                   push   %rbx %rsp -> %rsp 0xfffffff8(%rsp)[8byte] 
  0x00007f8b31b85b79  48 29 f0             sub    %rsi %rax -> %rax 
  0x00007f8b31b85b7c  49 89 fc             mov    %rdi -> %r12 
  0x00007f8b31b85b7f  48 83 ec 08          sub    $0x0000000000000008 %rsp -> %rsp 
  0x00007f8b31b85b83  48 39 d0             cmp    %rax %rdx 
  0x00007f8b31b85b86  0f 82 54 01 00 00    jb     $0x00007f8b31b85ce0 
Actual: 7f8b31b85b8c

Block 775:
  0x00007f8b31b85b8c  48 83 fa 0f          cmp    %rdx $0x000000000000000f 
  0x00007f8b31b85b90  48 89 fd             mov    %rdi -> %rbp 
  0x00007f8b31b85b93  48 89 f3             mov    %rsi -> %rbx 
  0x00007f8b31b85b96  76 5d                jbe    $0x00007f8b31b85bf5 
Actual: 7f8b31b85b98

Block 776:
  0x00007f8b31b85b98  48 89 f9             mov    %rdi -> %rcx 
  0x00007f8b31b85b9b  48 f7 d9             neg    %rcx -> %rcx 
  0x00007f8b31b85b9e  83 e1 07             and    $0x00000007 %ecx -> %ecx 
  0x00007f8b31b85ba1  48 29 ca             sub    %rcx %rdx -> %rdx 
  0x00007f8b31b85ba4  48 85 c9             test   %rcx %rcx 
  0x00007f8b31b85ba7  49 89 d5             mov    %rdx -> %r13 
  0x00007f8b31b85baa  74 1b                jz     $0x00007f8b31b85bc7 
Actual: 7f8b31b85bc7

Block 777:
  0x00007f8b31b85bc7  4c 89 ea             mov    %r13 -> %rdx 
  0x00007f8b31b85bca  48 89 de             mov    %rbx -> %rsi 
  0x00007f8b31b85bcd  48 89 ef             mov    %rbp -> %rdi 
  0x00007f8b31b85bd0  48 c1 ea 03          shr    $0x0000000000000003 %rdx -> %rdx 
  0x00007f8b31b85bd4  f6 c3 07             test   %bl $0x07 
  0x00007f8b31b85bd7  0f 84 83 02 00 00    jz     $0x00007f8b31b85e60 
Actual: 7f8b31b85e60

Block 778:
  0x00007f8b31b85e60  e8 9b 04 00 00       call   $0x00007f8b31b86300 %rsp -> %rsp 0xfffffff8(%rsp)[8byte] 
  0x00007f8b31b86300  48 8d 0d 69 14 00 00 lea    <rel> 0x00007f8b31b87770 -> %rcx 
  0x00007f8b31b86307  48 89 d0             mov    %rdx -> %rax 
  0x00007f8b31b8630a  83 e0 07             and    $0x00000007 %eax -> %eax 
  0x00007f8b31b8630d  48 63 04 81          movsxd (%rcx,%rax,4)[4byte] -> %rax 
  0x00007f8b31b86311  48 01 c8             add    %rcx %rax -> %rax 
  0x00007f8b31b86314  ff e0                jmp    %rax 
Actual: 7f8b31b86398

Block 779:
  0x00007f8b31b86398  48 85 d2             test   %rdx %rdx 
  0x00007f8b31b8639b  0f 84 9a 00 00 00    jz     $0x00007f8b31b8643b 
Actual: 7f8b31b863a1

Block 780:
  0x00007f8b31b863a1  48 8b 06             mov    (%rsi)[8byte] -> %rax 
  0x00007f8b31b863a4  48 83 ef 08          sub    $0x0000000000000008 %rdi -> %rdi 
  0x00007f8b31b863a8  eb ce                jmp    $0x00007f8b31b86378 
  0x00007f8b31b86378  48 8b 4e 08          mov    0x08(%rsi)[8byte] -> %rcx 
  0x00007f8b31b8637c  48 89 47 08          mov    %rax -> 0x08(%rdi)[8byte] 
  0x00007f8b31b86380  48 8b 46 10          mov    0x10(%rsi)[8byte] -> %rax 
  0x00007f8b31b86384  48 89 4f 10          mov    %rcx -> 0x10(%rdi)[8byte] 
  0x00007f8b31b86388  48 8b 4e 18          mov    0x18(%rsi)[8byte] -> %rcx 
  0x00007f8b31b8638c  48 89 47 18          mov    %rax -> 0x18(%rdi)[8byte] 
  0x00007f8b31b86390  eb ae                jmp    $0x00007f8b31b86340 
  0x00007f8b31b86340  48 8b 46 20          mov    0x20(%rsi)[8byte] -> %rax 
  0x00007f8b31b86344  48 89 4f 20          mov    %rcx -> 0x20(%rdi)[8byte] 
  0x00007f8b31b86348  48 8b 4e 28          mov    0x28(%rsi)[8byte] -> %rcx 
  0x00007f8b31b8634c  48 89 47 28          mov    %rax -> 0x28(%rdi)[8byte] 
  0x00007f8b31b86350  48 8b 46 30          mov    0x30(%rsi)[8byte] -> %rax 
  0x00007f8b31b86354  48 89 4f 30          mov    %rcx -> 0x30(%rdi)[8byte] 
  0x00007f8b31b86358  48 8b 4e 38          mov    0x38(%rsi)[8byte] -> %rcx 
  0x00007f8b31b8635c  48 83 c7 40          add    $0x0000000000000040 %rdi -> %rdi 
  0x00007f8b31b86360  48 89 47 f8          mov    %rax -> 0xfffffff8(%rdi)[8byte] 
  0x00007f8b31b86364  48 83 ea 08          sub    $0x0000000000000008 %rdx -> %rdx 
  0x00007f8b31b86368  0f 84 ca 00 00 00    jz     $0x00007f8b31b86438 
Actual: 7f8b31b86438

Block 781:
  0x00007f8b31b86438  48 89 0f             mov    %rcx -> (%rdi)[8byte] 
  0x00007f8b31b8643b  f3 c3                ret    %rsp (%rsp)[8byte] -> %rsp 
Actual: 7f8b31b85e65

Block 782:
  0x00007f8b31b85e65  e9 78 fd ff ff       jmp    $0x00007f8b31b85be2 
  0x00007f8b31b85be2  4c 89 e8             mov    %r13 -> %rax 
  0x00007f8b31b85be5  4c 89 ea             mov    %r13 -> %rdx 
  0x00007f8b31b85be8  48 83 e0 f8          and    $0xfffffffffffffff8 %rax -> %rax 
  0x00007f8b31b85bec  83 e2 07             and    $0x00000007 %edx -> %edx 
  0x00007f8b31b85bef  48 01 c3             add    %rax %rbx -> %rbx 
  0x00007f8b31b85bf2  48 01 c5             add    %rax %rbp -> %rbp 
  0x00007f8b31b85bf5  48 85 d2             test   %rdx %rdx 
  0x00007f8b31b85bf8  0f 84 cc 00 00 00    jz     $0x00007f8b31b85cca 
Actual: 7f8b31b85cca

Block 783:
  0x00007f8b31b85cca  48 83 c4 08          add    $0x0000000000000008 %rsp -> %rsp 
  0x00007f8b31b85cce  4c 89 e0             mov    %r12 -> %rax 
  0x00007f8b31b85cd1  5b                   pop    %rsp (%rsp)[8byte] -> %rbx %rsp 
  0x00007f8b31b85cd2  5d                   pop    %rsp (%rsp)[8byte] -> %rbp %rsp 
  0x00007f8b31b85cd3  41 5c                pop    %rsp (%rsp)[8byte] -> %r12 %rsp 
  0x00007f8b31b85cd5  41 5d                pop    %rsp (%rsp)[8byte] -> %r13 %rsp 
  0x00007f8b31b85cd7  c3                   ret    %rsp (%rsp)[8byte] -> %rsp 
Actual: 7f8b31b793ee

Block 784:
  0x00007f8b31b793ee  4c 8b 45 90          mov    0xffffff90(%rbp)[8byte] -> %r8 
  0x00007f8b31b793f2  48 8b 45 c0          mov    0xffffffc0(%rbp)[8byte] -> %rax 
  0x00007f8b31b793f6  4c 8b 5d 80          mov    0xffffff80(%rbp)[8byte] -> %r11 
  0x00007f8b31b793fa  4c 8b 55 88          mov    0xffffff88(%rbp)[8byte] -> %r10 
  0x00007f8b31b793fe  8b 4d a0             mov    0xffffffa0(%rbp)[4byte] -> %ecx 
  0x00007f8b31b79401  4c 8b 8d 78 ff ff ff mov    0xffffff78(%rbp)[8byte] -> %r9 
  0x00007f8b31b79408  43 0f b7 54 45 00    movzx  0x00(%r13,%r8,2)[2byte] -> %edx 
  0x00007f8b31b7940e  48 29 d8             sub    %rbx %rax -> %rax 
  0x00007f8b31b79411  4d 89 23             mov    %r12 -> (%r11)[8byte] 
  0x00007f8b31b79414  48 39 c2             cmp    %rdx %rax 
  0x00007f8b31b79417  0f 86 9d 01 00 00    jbe    $0x00007f8b31b795ba 
Actual: 7f8b31b795ba

Block 785:
  0x00007f8b31b795ba  4b 8d 14 12          lea    (%r10,%r10,1) -> %rdx 
  0x00007f8b31b795be  4b 8d 74 45 00       lea    0x00(%r13,%r8,2) -> %rsi 
  0x00007f8b31b795c3  4c 89 cf             mov    %r9 -> %rdi 
  0x00007f8b31b795c6  89 4d 90             mov    %ecx -> 0xffffff90(%rbp)[4byte] 
  0x00007f8b31b795c9  e8 a2 c5 00 00       call   $0x00007f8b31b85b70 %rsp -> %rsp 0xfffffff8(%rsp)[8byte] 
  0x00007f8b31b85b70  41 55                push   %r13 %rsp -> %rsp 0xfffffff8(%rsp)[8byte] 
  0x00007f8b31b85b72  48 89 f8             mov    %rdi -> %rax 
  0x00007f8b31b85b75  41 54                push   %r12 %rsp -> %rsp 0xfffffff8(%rsp)[8byte] 
  0x00007f8b31b85b77  55                   push   %rbp %rsp -> %rsp 0xfffffff8(%rsp)[8byte] 
  0x00007f8b31b85b78  53                   push   %rbx %rsp -> %rsp 0xfffffff8(%rsp)[8byte] 
  0x00007f8b31b85b79  48 29 f0             sub    %rsi %rax -> %rax 
  0x00007f8b31b85b7c  49 89 fc             mov    %rdi -> %r12 
  0x00007f8b31b85b7f  48 83 ec 08          sub    $0x0000000000000008 %rsp -> %rsp 
  0x00007f8b31b85b83  48 39 d0             cmp    %rax %rdx 
  0x00007f8b31b85b86  0f 82 54 01 00 00    jb     $0x00007f8b31b85ce0 
Actual: 7f8b31b85b8c

Block 786:
  0x00007f8b31b85bdd  e8 5e 08 00 00       call   $0x00007f8b31b86440 %rsp -> %rsp 0xfffffff8(%rsp)[8byte] 
  0x00007f8b31b86440  89 f0                mov    %esi -> %eax 
  0x00007f8b31b86442  48 89 d1             mov    %rdx -> %rcx 
  0x00007f8b31b86445  41 bb 40 00 00 00    mov    $0x00000040 -> %r11d 
  0x00007f8b31b8644b  83 e0 07             and    $0x00000007 %eax -> %eax 
  0x00007f8b31b8644e  83 e1 03             and    $0x00000003 %ecx -> %ecx 
  0x00007f8b31b86451  48 83 e6 f8          and    $0xfffffffffffffff8 %rsi -> %rsi 
  0x00007f8b31b86455  c1 e0 03             shl    $0x00000003 %eax -> %eax 
  0x00007f8b31b86458  53                   push   %rbx %rsp -> %rsp 0xfffffff8(%rsp)[8byte] 
  0x00007f8b31b86459  41 29 c3             sub    %eax %r11d -> %r11d 
  0x00007f8b31b8645c  48 83 f9 02          cmp    %rcx $0x0000000000000002 
  0x00007f8b31b86460  0f 84 e2 00 00 00    jz     $0x00007f8b31b86548 
Actual: 7f8b31b86548

Block 787:
  0x00007f8b31b86548  4c 8b 0e             mov    (%rsi)[8byte] -> %r9 
  0x00007f8b31b8654b  4c 8b 46 08          mov    0x08(%rsi)[8byte] -> %r8 
  0x00007f8b31b8654f  48 83 c2 02          add    $0x0000000000000002 %rdx -> %rdx 
  0x00007f8b31b86553  48 83 ee 08          sub    $0x0000000000000008 %rsi -> %rsi 
  0x00007f8b31b86557  48 83 ef 18          sub    $0x0000000000000018 %rdi -> %rdi 
  0x00007f8b31b8655b  eb 8b                jmp    $0x00007f8b31b864e8 
  0x00007f8b31b864e8  89 c1                mov    %eax -> %ecx 
  0x00007f8b31b864ea  4c 89 c3             mov    %r8 -> %rbx 
  0x00007f8b31b864ed  4c 8b 56 18          mov    0x18(%rsi)[8byte] -> %r10 
  0x00007f8b31b864f1  49 d3 e9             shr    %cl %r9 -> %r9 
  0x00007f8b31b864f4  44 89 d9             mov    %r11d -> %ecx 
  0x00007f8b31b864f7  48 83 c7 20          add    $0x0000000000000020 %rdi -> %rdi 
  0x00007f8b31b864fb  48 d3 e3             shl    %cl %rbx -> %rbx 
  0x00007f8b31b864fe  49 09 d9             or     %rbx %r9 -> %r9 
  0x00007f8b31b86501  4c 89 4f f8          mov    %r9 -> 0xfffffff8(%rdi)[8byte] 
  0x00007f8b31b86505  48 83 ea 04          sub    $0x0000000000000004 %rdx -> %rdx 
  0x00007f8b31b86509  74 9d                jz     $0x00007f8b31b864a8 
Actual: 7f8b31b864a8

Block 788:
  0x00007f8b31b864a8  89 c1                mov    %eax -> %ecx 
  0x00007f8b31b864aa  49 d3 e8             shr    %cl %r8 -> %r8 
  0x00007f8b31b864ad  44 89 d9             mov    %r11d -> %ecx 
  0x00007f8b31b864b0  49 d3 e2             shl    %cl %r10 -> %r10 
  0x00007f8b31b864b3  4d 09 d0             or     %r10 %r8 -> %r8 
  0x00007f8b31b864b6  4c 89 07             mov    %r8 -> (%rdi)[8byte] 
  0x00007f8b31b864b9  5b                   pop    %rsp (%rsp)[8byte] -> %rbx %rsp 
  0x00007f8b31b864ba  c3                   ret    %rsp (%rsp)[8byte] -> %rsp 
Actual: 7f8b31b85be2

Block 789:
  0x00007f8b31b85be2  4c 89 e8             mov    %r13 -> %rax 
  0x00007f8b31b85be5  4c 89 ea             mov    %r13 -> %rdx 
  0x00007f8b31b85be8  48 83 e0 f8          and    $0xfffffffffffffff8 %rax -> %rax 
  0x00007f8b31b85bec  83 e2 07             and    $0x00000007 %edx -> %edx 
  0x00007f8b31b85bef  48 01 c3             add    %rax %rbx -> %rbx 
  0x00007f8b31b85bf2  48 01 c5             add    %rax %rbp -> %rbp 
  0x00007f8b31b85bf5  48 85 d2             test   %rdx %rdx 
  0x00007f8b31b85bf8  0f 84 cc 00 00 00    jz     $0x00007f8b31b85cca 
Actual: 7f8b31b85cca

Block 790:
  0x00007f8b31b795ce  48 8b 85 68 ff ff ff mov    0xffffff68(%rbp)[8byte] -> %rax 
  0x00007f8b31b795d5  8b 4d 90             mov    0xffffff90(%rbp)[4byte] -> %ecx 
  0x00007f8b31b795d8  66 41 89 4c 45 00    data16 mov    %cx -> 0x00(%r13,%rax,2)[2byte] 
  0x00007f8b31b795de  e9 5b fd ff ff       jmp    $0x00007f8b31b7933e 
  0x00007f8b31b7933e  4d 8d 4c 5d 00       lea    0x00(%r13,%rbx,2) -> %r9 
  0x00007f8b31b79343  41 0f b7 01          movzx  (%r9)[2byte] -> %eax 
  0x00007f8b31b79347  8d 48 01             lea    0x01(%rax) -> %ecx 
  0x00007f8b31b7934a  48 8b 45 b8          mov    0xffffffb8(%rbp)[8byte] -> %rax 
  0x00007f8b31b7934e  66 41 89 09          data16 mov    %cx -> (%r9)[2byte] 
  0x00007f8b31b79352  48 8d 3c d8          lea    (%rax,%rbx,8) -> %rdi 
  0x00007f8b31b79356  4c 8b 27             mov    (%rdi)[8byte] -> %r12 
  0x00007f8b31b79359  4d 3b 64 24 28       cmp    %r12 0x28(%r12)[8byte] 
  0x00007f8b31b7935e  75 b0                jnz    $0x00007f8b31b79310 
Actual: 7f8b31b79360

Block 791:
  0x00007f8b31b85f2e  66 48 0f 7e c1       movd   %xmm0[4byte] -> %rcx 
  0x00007f8b31b85f33  f6 c2 18             test   %dl $0x18 
  0x00007f8b31b85f36  75 22                jnz    $0x00007f8b31b85f5a 
Actual: 7f8b31b85f5a

Block 792:
  0x00007f8b31b85f5a  48 89 0f             mov    %rcx -> (%rdi)[8byte] 
  0x00007f8b31b85f5d  48 89 4c 17 f8       mov    %rcx -> 0xfffffff8(%rdi,%rdx,1)[8byte] 
  0x00007f8b31b85f62  c3                   ret    %rsp (%rsp)[8byte] -> %rsp 
Actual: 7f8b31b7933e

Block 793:
  0x00007f8b31b86408  48 8b 0e             mov    (%rsi)[8byte] -> %rcx 
  0x00007f8b31b8640b  48 83 c2 03          add    $0x0000000000000003 %rdx -> %rdx 
  0x00007f8b31b8640f  48 83 ee 18          sub    $0x0000000000000018 %rsi -> %rsi 
  0x00007f8b31b86413  48 83 ef 20          sub    $0x0000000000000020 %rdi -> %rdi 
  0x00007f8b31b86417  e9 24 ff ff ff       jmp    $0x00007f8b31b86340 
  0x00007f8b31b86340  48 8b 46 20          mov    0x20(%rsi)[8byte] -> %rax 
  0x00007f8b31b86344  48 89 4f 20          mov    %rcx -> 0x20(%rdi)[8byte] 
  0x00007f8b31b86348  48 8b 4e 28          mov    0x28(%rsi)[8byte] -> %rcx 
  0x00007f8b31b8634c  48 89 47 28          mov    %rax -> 0x28(%rdi)[8byte] 
  0x00007f8b31b86350  48 8b 46 30          mov    0x30(%rsi)[8byte] -> %rax 
  0x00007f8b31b86354  48 89 4f 30          mov    %rcx -> 0x30(%rdi)[8byte] 
  0x00007f8b31b86358  48 8b 4e 38          mov    0x38(%rsi)[8byte] -> %rcx 
  0x00007f8b31b8635c  48 83 c7 40          add    $0x0000000000000040 %rdi -> %rdi 
  0x00007f8b31b86360  48 89 47 f8          mov    %rax -> 0xfffffff8(%rdi)[8byte] 
  0x00007f8b31b86364  48 83 ea 08          sub    $0x0000000000000008 %rdx -> %rdx 
  0x00007f8b31b86368  0f 84 ca 00 00 00    jz     $0x00007f8b31b86438 
Actual: 7f8b31b86438

Block 794:
  0x00007f8b31b85bf5  48 85 d2             test   %rdx %rdx 
  0x00007f8b31b85bf8  0f 84 cc 00 00 00    jz     $0x00007f8b31b85cca 
Actual: 7f8b31b85bfe

Block 795:
  0x00007f8b31b85bfe  0f b6 03             movzx  (%rbx)[1byte] -> %eax 
  0x00007f8b31b85c01  48 83 fa 01          cmp    %rdx $0x0000000000000001 
  0x00007f8b31b85c05  88 45 00             mov    %al -> 0x00(%rbp)[1byte] 
  0x00007f8b31b85c08  0f 84 bc 00 00 00    jz     $0x00007f8b31b85cca 
Actual: 7f8b31b85c0e

Block 796:
  0x00007f8b31b85c0e  0f b6 43 01          movzx  0x01(%rbx)[1byte] -> %eax 
  0x00007f8b31b85c12  48 83 fa 02          cmp    %rdx $0x0000000000000002 
  0x00007f8b31b85c16  88 45 01             mov    %al -> 0x01(%rbp)[1byte] 
  0x00007f8b31b85c19  0f 84 ab 00 00 00    jz     $0x00007f8b31b85cca 
Actual: 7f8b31b85c1f

Block 797:
  0x00007f8b31b85c1f  0f b6 43 02          movzx  0x02(%rbx)[1byte] -> %eax 
  0x00007f8b31b85c23  48 83 fa 03          cmp    %rdx $0x0000000000000003 
  0x00007f8b31b85c27  88 45 02             mov    %al -> 0x02(%rbp)[1byte] 
  0x00007f8b31b85c2a  0f 84 9a 00 00 00    jz     $0x00007f8b31b85cca 
Actual: 7f8b31b85c30

Block 798:
  0x00007f8b31b85c30  0f b6 43 03          movzx  0x03(%rbx)[1byte] -> %eax 
  0x00007f8b31b85c34  48 83 fa 04          cmp    %rdx $0x0000000000000004 
  0x00007f8b31b85c38  88 45 03             mov    %al -> 0x03(%rbp)[1byte] 
  0x00007f8b31b85c3b  0f 84 89 00 00 00    jz     $0x00007f8b31b85cca 
Actual: 7f8b31b85c41

Block 799:
  0x00007f8b31b85c41  0f b6 43 04          movzx  0x04(%rbx)[1byte] -> %eax 
  0x00007f8b31b85c45  48 83 fa 05          cmp    %rdx $0x0000000000000005 
  0x00007f8b31b85c49  88 45 04             mov    %al -> 0x04(%rbp)[1byte] 
  0x00007f8b31b85c4c  74 7c                jz     $0x00007f8b31b85cca 
Actual: 7f8b31b85c4e

Block 800:
  0x00007f8b31b85c4e  0f b6 43 05          movzx  0x05(%rbx)[1byte] -> %eax 
  0x00007f8b31b85c52  48 83 fa 06          cmp    %rdx $0x0000000000000006 
  0x00007f8b31b85c56  88 45 05             mov    %al -> 0x05(%rbp)[1byte] 
  0x00007f8b31b85c59  74 6f                jz     $0x00007f8b31b85cca 
Actual: 7f8b31b85c5b

Block 801:
  0x00007f8b31b85c5b  0f b6 43 06          movzx  0x06(%rbx)[1byte] -> %eax 
  0x00007f8b31b85c5f  48 83 fa 07          cmp    %rdx $0x0000000000000007 
  0x00007f8b31b85c63  88 45 06             mov    %al -> 0x06(%rbp)[1byte] 
  0x00007f8b31b85c66  74 62                jz     $0x00007f8b31b85cca 
Actual: 7f8b31b85c68

Block 802:
  0x00007f8b31b85c68  0f b6 43 07          movzx  0x07(%rbx)[1byte] -> %eax 
  0x00007f8b31b85c6c  48 83 fa 08          cmp    %rdx $0x0000000000000008 
  0x00007f8b31b85c70  88 45 07             mov    %al -> 0x07(%rbp)[1byte] 
  0x00007f8b31b85c73  74 55                jz     $0x00007f8b31b85cca 
Actual: 7f8b31b85c75

Block 803:
  0x00007f8b31b85c75  0f b6 43 08          movzx  0x08(%rbx)[1byte] -> %eax 
  0x00007f8b31b85c79  48 83 fa 09          cmp    %rdx $0x0000000000000009 
  0x00007f8b31b85c7d  88 45 08             mov    %al -> 0x08(%rbp)[1byte] 
  0x00007f8b31b85c80  74 48                jz     $0x00007f8b31b85cca 
Actual: 7f8b31b85c82

Block 804:
  0x00007f8b31b85c82  0f b6 43 09          movzx  0x09(%rbx)[1byte] -> %eax 
  0x00007f8b31b85c86  48 83 fa 0a          cmp    %rdx $0x000000000000000a 
  0x00007f8b31b85c8a  88 45 09             mov    %al -> 0x09(%rbp)[1byte] 
  0x00007f8b31b85c8d  74 3b                jz     $0x00007f8b31b85cca 
Actual: 7f8b31b85cca

Block 805:
  0x00007f8b31b863d8  48 8b 0e             mov    (%rsi)[8byte] -> %rcx 
  0x00007f8b31b863db  48 83 c2 05          add    $0x0000000000000005 %rdx -> %rdx 
  0x00007f8b31b863df  48 83 ee 28          sub    $0x0000000000000028 %rsi -> %rsi 
  0x00007f8b31b863e3  48 83 ef 30          sub    $0x0000000000000030 %rdi -> %rdi 
  0x00007f8b31b863e7  e9 64 ff ff ff       jmp    $0x00007f8b31b86350 
  0x00007f8b31b86350  48 8b 46 30          mov    0x30(%rsi)[8byte] -> %rax 
  0x00007f8b31b86354  48 89 4f 30          mov    %rcx -> 0x30(%rdi)[8byte] 
  0x00007f8b31b86358  48 8b 4e 38          mov    0x38(%rsi)[8byte] -> %rcx 
  0x00007f8b31b8635c  48 83 c7 40          add    $0x0000000000000040 %rdi -> %rdi 
  0x00007f8b31b86360  48 89 47 f8          mov    %rax -> 0xfffffff8(%rdi)[8byte] 
  0x00007f8b31b86364  48 83 ea 08          sub    $0x0000000000000008 %rdx -> %rdx 
  0x00007f8b31b86368  0f 84 ca 00 00 00    jz     $0x00007f8b31b86438 
Actual: 7f8b31b86438

Block 806:
  0x00007f8b31b85f38  f6 c2 04             test   %dl $0x04 
  0x00007f8b31b85f3b  75 16                jnz    $0x00007f8b31b85f53 
Actual: 7f8b31b85f53

Block 807:
  0x00007f8b31b85f53  89 0f                mov    %ecx -> (%rdi)[4byte] 
  0x00007f8b31b85f55  89 4c 17 fc          mov    %ecx -> 0xfffffffc(%rdi,%rdx,1)[4byte] 
  0x00007f8b31b85f59  c3                   ret    %rsp (%rsp)[8byte] -> %rsp 
Actual: 7f8b31b7933e

Block 808:
  0x00007f8b31b85f3d  f6 c2 01             test   %dl $0x01 
  0x00007f8b31b85f40  74 02                jz     $0x00007f8b31b85f44 
Actual: 7f8b31b85f44

Block 809:
  0x00007f8b31b85f44  f6 c2 02             test   %dl $0x02 
  0x00007f8b31b85f47  0f 84 67 ff ff ff    jz     $0x00007f8b31b85eb4 
Actual: 7f8b31b85f4d

Block 810:
  0x00007f8b31b85f4d  66 89 4c 10 fe       data16 mov    %cx -> 0xfffffffe(%rax,%rdx,1)[2byte] 
  0x00007f8b31b85f52  c3                   ret    %rsp (%rsp)[8byte] -> %rsp 
Actual: 7f8b31b7933e

Block 811:
  0x00007f8b31b79310  44 89 f3             mov    %r14d -> %ebx 
  0x00007f8b31b79313  48 39 5d c0          cmp    0xffffffc0(%rbp)[8byte] %rbx 
  0x00007f8b31b79317  44 89 75 a8          mov    %r14d -> 0xffffffa8(%rbp)[4byte] 
  0x00007f8b31b7931b  49 89 d8             mov    %rbx -> %r8 
  0x00007f8b31b7931e  0f 84 0c 01 00 00    jz     $0x00007f8b31b79430 
Actual: 7f8b31b79430

Block 812:
  0x00007f8b31b79430  48 8d 3d d1 44 21 00 lea    <rel> 0x00007f8b31d8d908 -> %rdi 
  0x00007f8b31b79437  48 8b a5 70 ff ff ff mov    0xffffff70(%rbp)[8byte] -> %rsp 
  0x00007f8b31b7943e  ff 15 cc 4a 21 00    call   <rel> 0x00007f8b31d8df10[8byte] %rsp -> %rsp 0xfffffff8(%rsp)[8byte] 
Actual: 7f8b31135ee0

Block 813:
  0x00007f8b31135ee0  8b 77 10             mov    0x10(%rdi)[4byte] -> %esi 
  0x00007f8b31135ee3  48 89 fa             mov    %rdi -> %rdx 
  0x00007f8b31135ee6  89 f0                mov    %esi -> %eax 
  0x00007f8b31135ee8  41 89 f0             mov    %esi -> %r8d 
  0x00007f8b31135eeb  25 7f 01 00 00       and    $0x0000017f %eax -> %eax 
  0x00007f8b31135ef0  41 83 e0 7c          and    $0x0000007c %r8d -> %r8d 
  0x00007f8b31135ef4  75 3a                jnz    $0x00007f8b31135f30 
Actual: 7f8b31135ef6

Block 814:
  0x00007f8b31135ef6  85 c0                test   %eax %eax 
  0x00007f8b31135ef8  75 46                jnz    $0x00007f8b31135f40 
Actual: 7f8b31135f40

Block 815:
  0x00007f8b31135f40  3d 00 01 00 00       cmp    %eax $0x00000100 
  0x00007f8b31135f45  75 0b                jnz    $0x00007f8b31135f52 
Actual: 7f8b31135f52

Block 816:
  0x00007f8b31135f52  89 f0                mov    %esi -> %eax 
  0x00007f8b31135f54  83 e0 7f             and    $0x0000007f %eax -> %eax 
  0x00007f8b31135f57  83 f8 01             cmp    %eax $0x00000001 
  0x00007f8b31135f5a  75 1d                jnz    $0x00007f8b31135f79 
Actual: 7f8b31135f5c

Block 817:
  0x00007f8b31135f5c  64 8b 04 25 d0 02 00 mov    %fs:0x000002d0[4byte] -> %eax 
                      00
  0x00007f8b31135f64  39 47 08             cmp    0x08(%rdi)[4byte] %eax 
  0x00007f8b31135f67  74 08                jz     $0x00007f8b31135f71 
Actual: 7f8b31135f71

Block 818:
  0x00007f8b31135f71  83 6f 04 01          sub    $0x00000001 0x04(%rdi)[4byte] -> 0x04(%rdi)[4byte] 
  0x00007f8b31135f75  74 83                jz     $0x00007f8b31135efa 
Actual: 7f8b31135efa

Block 819:
  0x00007f8b31135efa  c7 42 08 00 00 00 00 mov    $0x00000000 -> 0x08(%rdx)[4byte] 
  0x00007f8b31135f01  83 6a 0c 01          sub    $0x00000001 0x0c(%rdx)[4byte] -> 0x0c(%rdx)[4byte] 
  0x00007f8b31135f05  81 e6 80 00 00 00    and    $0x00000080 %esi -> %esi 
  0x00007f8b31135f0b  f0 ff 0a             lock dec    (%rdx)[4byte] -> (%rdx)[4byte] 
  0x00007f8b31135f0e  74 16                jz     $0x00007f8b31135f26 
Actual: 7f8b31135f26

Block 820:
  0x00007f8b31135f26  90                   nop    
  0x00007f8b31135f27  44 89 c0             mov    %r8d -> %eax 
  0x00007f8b31135f2a  c3                   ret    %rsp (%rsp)[8byte] -> %rsp 
Actual: 7f8b31b79444

Block 821:
  0x00007f8b31b79444  8b 75 b4             mov    0xffffffb4(%rbp)[4byte] -> %esi 
  0x00007f8b31b79447  85 f6                test   %esi %esi 
  0x00007f8b31b79449  0f 84 c7 00 00 00    jz     $0x00007f8b31b79516 
Actual: 7f8b31b7944f

Block 822:
  0x00007f8b31b7944f  4c 89 7d a8          mov    %r15 -> 0xffffffa8(%rbp)[8byte] 
  0x00007f8b31b79453  4c 8b 7d b8          mov    0xffffffb8(%rbp)[8byte] -> %r15 
  0x00007f8b31b79457  45 31 ed             xor    %r13d %r13d -> %r13d 
  0x00007f8b31b7945a  66 0f 1f 44 00 00    data16 nop    0x00(%rax,%rax,1)[4byte] 
  0x00007f8b31b79460  4b 8b 1c ef          mov    (%r15,%r13,8)[8byte] -> %rbx 
  0x00007f8b31b79464  0f b6 83 14 03 00 00 movzx  0x00000314(%rbx)[1byte] -> %eax 
  0x00007f8b31b7946b  a8 08                test   %al $0x08 
  0x00007f8b31b7946d  0f 84 8a 00 00 00    jz     $0x00007f8b31b794fd 
Actual: 7f8b31b79473

Block 823:
  0x00007f8b31b79473  83 e0 f7             and    $0xfffffff7 %eax -> %eax 
  0x00007f8b31b79476  88 83 14 03 00 00    mov    %al -> 0x00000314(%rbx)[1byte] 
  0x00007f8b31b7947c  48 8b 83 10 01 00 00 mov    0x00000110(%rbx)[8byte] -> %rax 
  0x00007f8b31b79483  48 85 c0             test   %rax %rax 
  0x00007f8b31b79486  0f 84 94 00 00 00    jz     $0x00007f8b31b79520 
Actual: 7f8b31b7948c

Block 824:
  0x00007f8b31b7948c  f6 05 ed 37 21 00 02 test   <rel> 0x00007f8b31d8cc80[1byte] $0x02 
  0x00007f8b31b79493  0f 85 9f 00 00 00    jnz    $0x00007f8b31b79538 
Actual: 7f8b31b79499

Block 825:
  0x00007f8b31b79499  4c 8b 60 08          mov    0x08(%rax)[8byte] -> %r12 
  0x00007f8b31b7949d  48 8b 83 20 01 00 00 mov    0x00000120(%rbx)[8byte] -> %rax 
  0x00007f8b31b794a4  4c 03 23             add    (%rbx)[8byte] %r12 -> %r12 
  0x00007f8b31b794a7  48 8b 50 08          mov    0x08(%rax)[8byte] -> %rdx 
  0x00007f8b31b794ab  48 c1 ea 03          shr    $0x0000000000000003 %rdx -> %rdx 
  0x00007f8b31b794af  85 d2                test   %edx %edx 
  0x00007f8b31b794b1  44 8d 72 ff          lea    0xffffffff(%rdx) -> %r14d 
  0x00007f8b31b794b5  75 0c                jnz    $0x00007f8b31b794c3 
Actual: 7f8b31b794c3

Block 826:
  0x00007f8b31b794c3  44 89 f2             mov    %r14d -> %edx 
  0x00007f8b31b794c6  41 ff 14 d4          call   (%r12,%rdx,8)[8byte] %rsp -> %rsp 0xfffffff8(%rsp)[8byte] 
Actual: 55ccfba92b70

Block 827:
  0x000055ccfba92b70  80 3d 49 b5 21 00 00 cmp    <rel> 0x000055ccfbcae0c0[1byte] $0x00 
  0x000055ccfba92b77  75 27                jnz    $0x000055ccfba92ba0 
Actual: 55ccfba92b79

Block 828:
  0x000055ccfba92b79  48 83 3d 3f b4 21 00 cmp    <rel> 0x000055ccfbcadfc0[8byte] $0x0000000000000000 
                      00
  0x000055ccfba92b81  55                   push   %rbp %rsp -> %rsp 0xfffffff8(%rsp)[8byte] 
  0x000055ccfba92b82  48 89 e5             mov    %rsp -> %rbp 
  0x000055ccfba92b85  74 0c                jz     $0x000055ccfba92b93 
Actual: 55ccfba92b87

Block 829:
  0x000055ccfba92b87  48 8d 3d d2 aa 21 00 lea    <rel> 0x000055ccfbcad660 -> %rdi 
  0x000055ccfba92b8e  e8 65 f7 ff ff       call   $0x000055ccfba922f8 %rsp -> %rsp 0xfffffff8(%rsp)[8byte] 
  0x000055ccfba922f8  ff 25 c2 bc 21 00    jmp    <rel> 0x000055ccfbcadfc0[8byte] 
Actual: 7f8b3076d4a0

Block 830:
  0x00007f8b3076d4a0  41 57                push   %r15 %rsp -> %rsp 0xfffffff8(%rsp)[8byte] 
  0x00007f8b3076d4a2  41 56                push   %r14 %rsp -> %rsp 0xfffffff8(%rsp)[8byte] 
  0x00007f8b3076d4a4  41 55                push   %r13 %rsp -> %rsp 0xfffffff8(%rsp)[8byte] 
  0x00007f8b3076d4a6  41 54                push   %r12 %rsp -> %rsp 0xfffffff8(%rsp)[8byte] 
  0x00007f8b3076d4a8  45 31 ed             xor    %r13d %r13d -> %r13d 
  0x00007f8b3076d4ab  55                   push   %rbp %rsp -> %rsp 0xfffffff8(%rsp)[8byte] 
  0x00007f8b3076d4ac  53                   push   %rbx %rsp -> %rsp 0xfffffff8(%rsp)[8byte] 
  0x00007f8b3076d4ad  48 89 fd             mov    %rdi -> %rbp 
  0x00007f8b3076d4b0  48 83 ec 08          sub    $0x0000000000000008 %rsp -> %rsp 
  0x00007f8b3076d4b4  4c 8b 35 1d 31 38 00 mov    <rel> 0x00007f8b30af05d8[8byte] -> %r14 
  0x00007f8b3076d4bb  4d 85 f6             test   %r14 %r14 
  0x00007f8b3076d4be  0f 84 98 00 00 00    jz     $0x00007f8b3076d55c 
Actual: 7f8b3076d4c4

Block 831:
  0x00007f8b3076d4c4  0f 1f 40 00          nop    0x00(%rax)[4byte] 
  0x00007f8b3076d4c8  49 8b 46 08          mov    0x08(%r14)[8byte] -> %rax 
  0x00007f8b3076d4cc  4d 8d 66 10          lea    0x10(%r14) -> %r12 
  0x00007f8b3076d4d0  48 c1 e0 05          shl    $0x0000000000000005 %rax -> %rax 
  0x00007f8b3076d4d4  49 8d 5c 06 f0       lea    0xfffffff0(%r14,%rax,1) -> %rbx 
  0x00007f8b3076d4d9  4c 39 e3             cmp    %rbx %r12 
  0x00007f8b3076d4dc  72 72                jb     $0x00007f8b3076d550 
Actual: 7f8b3076d550

Block 832:
  0x00007f8b3076d550  4d 8b 36             mov    (%r14)[8byte] -> %r14 
  0x00007f8b3076d553  4d 85 f6             test   %r14 %r14 
  0x00007f8b3076d556  0f 85 6c ff ff ff    jnz    $0x00007f8b3076d4c8 
Actual: 7f8b3076d55c

Block 833:
  0x00007f8b3076d55c  48 8b 0d 7d 30 38 00 mov    <rel> 0x00007f8b30af05e0[8byte] -> %rcx 
  0x00007f8b3076d563  48 85 c9             test   %rcx %rcx 
  0x00007f8b3076d566  74 4f                jz     $0x00007f8b3076d5b7 
Actual: 7f8b3076d568

Block 834:
  0x00007f8b3076d568  0f 1f 84 00 00 00 00 nop    0x00000000(%rax,%rax,1)[4byte] 
                      00
  0x00007f8b3076d570  48 8b 41 08          mov    0x08(%rcx)[8byte] -> %rax 
  0x00007f8b3076d574  48 8d 51 10          lea    0x10(%rcx) -> %rdx 
  0x00007f8b3076d578  48 c1 e0 05          shl    $0x0000000000000005 %rax -> %rax 
  0x00007f8b3076d57c  48 8d 44 01 f0       lea    0xfffffff0(%rcx,%rax,1) -> %rax 
  0x00007f8b3076d581  48 39 d0             cmp    %rax %rdx 
  0x00007f8b3076d584  72 29                jb     $0x00007f8b3076d5af 
Actual: 7f8b3076d5af

Block 835:
  0x00007f8b3076d5af  48 8b 09             mov    (%rcx)[8byte] -> %rcx 
  0x00007f8b3076d5b2  48 85 c9             test   %rcx %rcx 
  0x00007f8b3076d5b5  75 b9                jnz    $0x00007f8b3076d570 
Actual: 7f8b3076d5b7

Block 836:
  0x00007f8b3076d5b7  48 85 ed             test   %rbp %rbp 
  0x00007f8b3076d5ba  0f 84 a9 00 00 00    jz     $0x00007f8b3076d669 
Actual: 7f8b3076d5c0

Block 837:
  0x00007f8b3076d5c0  48 83 c4 08          add    $0x0000000000000008 %rsp -> %rsp 
  0x00007f8b3076d5c4  48 89 ef             mov    %rbp -> %rdi 
  0x00007f8b3076d5c7  5b                   pop    %rsp (%rsp)[8byte] -> %rbx %rsp 
  0x00007f8b3076d5c8  5d                   pop    %rsp (%rsp)[8byte] -> %rbp %rsp 
  0x00007f8b3076d5c9  41 5c                pop    %rsp (%rsp)[8byte] -> %r12 %rsp 
  0x00007f8b3076d5cb  41 5d                pop    %rsp (%rsp)[8byte] -> %r13 %rsp 
  0x00007f8b3076d5cd  41 5e                pop    %rsp (%rsp)[8byte] -> %r14 %rsp 
  0x00007f8b3076d5cf  41 5f                pop    %rsp (%rsp)[8byte] -> %r15 %rsp 
  0x00007f8b3076d5d1  e9 9a 79 0d 00       jmp    $0x00007f8b30844f70 
  0x00007f8b30844f70  4c 8b 0d 91 07 2b 00 mov    <rel> 0x00007f8b30af5708[8byte] -> %r9 
  0x00007f8b30844f77  4d 85 c9             test   %r9 %r9 
  0x00007f8b30844f7a  0f 84 76 01 00 00    jz     $0x00007f8b308450f6 
Actual: 7f8b30844f80

Block 838:
  0x00007f8b30844f80  49 3b 79 20          cmp    %rdi 0x20(%r9)[8byte] 
  0x00007f8b30844f84  49 89 fa             mov    %rdi -> %r10 
  0x00007f8b30844f87  75 10                jnz    $0x00007f8b30844f99 
Actual: 7f8b30844f99

Block 839:
  0x00007f8b30844f99  49 8b 11             mov    (%r9)[8byte] -> %rdx 
  0x00007f8b30844f9c  48 85 d2             test   %rdx %rdx 
  0x00007f8b30844f9f  75 ef                jnz    $0x00007f8b30844f90 
Actual: 7f8b30844fa1

Block 840:
  0x00007f8b30844fa1  f3 c3                ret    %rsp (%rsp)[8byte] -> %rsp 
Actual: 55ccfba92b93

Block 841:
  0x000055ccfba92b93  e8 48 ff ff ff       call   $0x000055ccfba92ae0 %rsp -> %rsp 0xfffffff8(%rsp)[8byte] 
  0x000055ccfba92ae0  48 8d 3d c1 b5 21 00 lea    <rel> 0x000055ccfbcae0a8 -> %rdi 
  0x000055ccfba92ae7  48 8d 05 c1 b5 21 00 lea    <rel> 0x000055ccfbcae0af -> %rax 
  0x000055ccfba92aee  55                   push   %rbp %rsp -> %rsp 0xfffffff8(%rsp)[8byte] 
  0x000055ccfba92aef  48 29 f8             sub    %rdi %rax -> %rax 
  0x000055ccfba92af2  48 89 e5             mov    %rsp -> %rbp 
  0x000055ccfba92af5  48 83 f8 0e          cmp    %rax $0x000000000000000e 
  0x000055ccfba92af9  76 15                jbe    $0x000055ccfba92b10 
Actual: 55ccfba92b10

Block 842:
  0x000055ccfba92b10  5d                   pop    %rsp (%rsp)[8byte] -> %rbp %rsp 
  0x000055ccfba92b11  c3                   ret    %rsp (%rsp)[8byte] -> %rsp 
Actual: 55ccfba92b98

Block 843:
  0x000055ccfba92b98  5d                   pop    %rsp (%rsp)[8byte] -> %rbp %rsp 
  0x000055ccfba92b99  c6 05 20 b5 21 00 01 mov    $0x01 -> <rel> 0x000055ccfbcae0c0[1byte] 
  0x000055ccfba92ba0  f3 c3                ret    %rsp (%rsp)[8byte] -> %rsp 
Actual: 7f8b31b794ca

Block 844:
  0x00007f8b31b794ca  45 85 f6             test   %r14d %r14d 
  0x00007f8b31b794cd  41 8d 56 ff          lea    0xffffffff(%r14) -> %edx 
  0x00007f8b31b794d1  75 ed                jnz    $0x00007f8b31b794c0 
Actual: 7f8b31b794d3

Block 845:
  0x00007f8b31b794d3  48 8b 83 a8 00 00 00 mov    0x000000a8(%rbx)[8byte] -> %rax 
  0x00007f8b31b794da  48 85 c0             test   %rax %rax 
  0x00007f8b31b794dd  74 09                jz     $0x00007f8b31b794e8 
Actual: 7f8b31b794df

Block 846:
  0x00007f8b31b794df  48 8b 40 08          mov    0x08(%rax)[8byte] -> %rax 
  0x00007f8b31b794e3  48 03 03             add    (%rbx)[8byte] %rax -> %rax 
  0x00007f8b31b794e6  ff d0                call   %rax %rsp -> %rsp 0xfffffff8(%rsp)[8byte] 
Actual: 55ccfbaa6d6c

Block 847:
  0x000055ccfbaa6d6c  48 83 ec 08          sub    $0x0000000000000008 %rsp -> %rsp 
  0x000055ccfbaa6d70  48 83 c4 08          add    $0x0000000000000008 %rsp -> %rsp 
  0x000055ccfbaa6d74  c3                   ret    %rsp (%rsp)[8byte] -> %rsp 
Actual: 7f8b31b794e8

Block 848:
  0x00007f8b31b794e8  8b 4d b0             mov    0xffffffb0(%rbp)[4byte] -> %ecx 
  0x00007f8b31b794eb  85 c9                test   %ecx %ecx 
  0x00007f8b31b794ed  75 0e                jnz    $0x00007f8b31b794fd 
Actual: 7f8b31b794ef

Block 849:
  0x00007f8b31b794ef  8b 05 f3 38 21 00    mov    <rel> 0x00007f8b31d8cde8[4byte] -> %eax 
  0x00007f8b31b794f5  85 c0                test   %eax %eax 
  0x00007f8b31b794f7  0f 85 e6 00 00 00    jnz    $0x00007f8b31b795e3 
Actual: 7f8b31b794fd

Block 850:
  0x00007f8b31b794fd  83 ab 10 03 00 00 01 sub    $0x00000001 0x00000310(%rbx)[4byte] -> 0x00000310(%rbx)[4byte] 
  0x00007f8b31b79504  49 83 c5 01          add    $0x0000000000000001 %r13 -> %r13 
  0x00007f8b31b79508  44 39 6d b4          cmp    0xffffffb4(%rbp)[4byte] %r13d 
  0x00007f8b31b7950c  0f 87 4e ff ff ff    jnbe   $0x00007f8b31b79460 
Actual: 7f8b31b79460

Block 851:
  0x00007f8b31b79460  4b 8b 1c ef          mov    (%r15,%r13,8)[8byte] -> %rbx 
  0x00007f8b31b79464  0f b6 83 14 03 00 00 movzx  0x00000314(%rbx)[1byte] -> %eax 
  0x00007f8b31b7946b  a8 08                test   %al $0x08 
  0x00007f8b31b7946d  0f 84 8a 00 00 00    jz     $0x00007f8b31b794fd 
Actual: 7f8b31b794fd

Block 852:
  0x00007f8b31b79520  48 8b 83 a8 00 00 00 mov    0x000000a8(%rbx)[8byte] -> %rax 
  0x00007f8b31b79527  48 85 c0             test   %rax %rax 
  0x00007f8b31b7952a  74 bc                jz     $0x00007f8b31b794e8 
Actual: 7f8b31b7952c

Block 853:
  0x00007f8b31b7952c  f6 05 4d 37 21 00 02 test   <rel> 0x00007f8b31d8cc80[1byte] $0x02 
  0x00007f8b31b79533  74 aa                jz     $0x00007f8b31b794df 
Actual: 7f8b31b794df

Block 854:
  0x00007f8b31959970  55                   push   %rbp %rsp -> %rsp 0xfffffff8(%rsp)[8byte] 
  0x00007f8b31959971  48 89 e5             mov    %rsp -> %rbp 
  0x00007f8b31959974  b8 00 00 00 00       mov    $0x00000000 -> %eax 
  0x00007f8b31959979  5d                   pop    %rsp (%rsp)[8byte] -> %rbp %rsp 
  0x00007f8b3195997a  c3                   ret    %rsp (%rsp)[8byte] -> %rsp 
Actual: 7f8b31b794e8

Block 855:
  0x00007f8b30f0a450  80 3d c9 fe 21 00 00 cmp    <rel> 0x00007f8b3112a320[1byte] $0x00 
  0x00007f8b30f0a457  74 27                jz     $0x00007f8b30f0a480 
Actual: 7f8b30f0a480

Block 856:
  0x00007f8b30f0a480  f3 c3                ret    %rsp (%rsp)[8byte] -> %rsp 
Actual: 7f8b31b794ca

Block 857:
  0x00007f8b31b794c0  41 89 d6             mov    %edx -> %r14d 
  0x00007f8b31b794c3  44 89 f2             mov    %r14d -> %edx 
  0x00007f8b31b794c6  41 ff 14 d4          call   (%r12,%rdx,8)[8byte] %rsp -> %rsp 0xfffffff8(%rsp)[8byte] 
Actual: 7f8b30f0a3e0

Block 858:
  0x00007f8b30f0a3e0  55                   push   %rbp %rsp -> %rsp 0xfffffff8(%rsp)[8byte] 
  0x00007f8b30f0a3e1  53                   push   %rbx %rsp -> %rsp 0xfffffff8(%rsp)[8byte] 
  0x00007f8b30f0a3e2  48 8d 2d 27 ff 21 00 lea    <rel> 0x00007f8b3112a310 -> %rbp 
  0x00007f8b30f0a3e9  48 8d 1d 30 fe 21 00 lea    <rel> 0x00007f8b3112a220 -> %rbx 
  0x00007f8b30f0a3f0  48 83 ec 08          sub    $0x0000000000000008 %rsp -> %rsp 
  0x00007f8b30f0a3f4  48 8b 3d 05 fe 21 00 mov    <rel> 0x00007f8b3112a200[8byte] -> %rdi 
  0x00007f8b30f0a3fb  e8 d8 f9 ff ff       call   $0x00007f8b30f09dd8 %rsp -> %rsp 0xfffffff8(%rsp)[8byte] 
  0x00007f8b30f09dd8  ff 25 0a dc 21 00    jmp    <rel> 0x00007f8b311279e8[8byte] 
Actual: 7f8b307b5260

Block 859:
  0x00007f8b30f0a400  48 c7 05 f5 fd 21 00 mov    $0x0000000000000000 -> <rel> 0x00007f8b3112a200[8byte] 
                      00 00 00 00
  0x00007f8b30f0a40b  0f 1f 44 00 00       nop    0x00(%rax,%rax,1)[4byte] 
  0x00007f8b30f0a410  48 8b 3b             mov    (%rbx)[8byte] -> %rdi 
  0x00007f8b30f0a413  48 83 c3 08          add    $0x0000000000000008 %rbx -> %rbx 
  0x00007f8b30f0a417  e8 bc f9 ff ff       call   $0x00007f8b30f09dd8 %rsp -> %rsp 0xfffffff8(%rsp)[8byte] 
  0x00007f8b30f09dd8  ff 25 0a dc 21 00    jmp    <rel> 0x00007f8b311279e8[8byte] 
Actual: 7f8b307b5260

Block 860:
  0x00007f8b30f0a41c  48 c7 43 f8 00 00 00 mov    $0x0000000000000000 -> 0xfffffff8(%rbx)[8byte] 
                      00
  0x00007f8b30f0a424  48 39 eb             cmp    %rbx %rbp 
  0x00007f8b30f0a427  75 e7                jnz    $0x00007f8b30f0a410 
Actual: 7f8b30f0a410

Block 861:
  0x00007f8b30f0a410  48 8b 3b             mov    (%rbx)[8byte] -> %rdi 
  0x00007f8b30f0a413  48 83 c3 08          add    $0x0000000000000008 %rbx -> %rbx 
  0x00007f8b30f0a417  e8 bc f9 ff ff       call   $0x00007f8b30f09dd8 %rsp -> %rsp 0xfffffff8(%rsp)[8byte] 
  0x00007f8b30f09dd8  ff 25 0a dc 21 00    jmp    <rel> 0x00007f8b311279e8[8byte] 
Actual: 7f8b307b5260

Block 862:
  0x00007f8b30f0a429  48 8b 3d d8 fd 21 00 mov    <rel> 0x00007f8b3112a208[8byte] -> %rdi 
  0x00007f8b30f0a430  e8 a3 f9 ff ff       call   $0x00007f8b30f09dd8 %rsp -> %rsp 0xfffffff8(%rsp)[8byte] 
  0x00007f8b30f09dd8  ff 25 0a dc 21 00    jmp    <rel> 0x00007f8b311279e8[8byte] 
Actual: 7f8b307b5260

Block 863:
  0x00007f8b30f0a435  48 c7 05 c8 fd 21 00 mov    $0x0000000000000000 -> <rel> 0x00007f8b3112a208[8byte] 
                      00 00 00 00
  0x00007f8b30f0a440  48 83 c4 08          add    $0x0000000000000008 %rsp -> %rsp 
  0x00007f8b30f0a444  5b                   pop    %rsp (%rsp)[8byte] -> %rbx %rsp 
  0x00007f8b30f0a445  5d                   pop    %rsp (%rsp)[8byte] -> %rbp %rsp 
  0x00007f8b30f0a446  c3                   ret    %rsp (%rsp)[8byte] -> %rsp 
Actual: 7f8b31b794ca

Block 864:
  0x00007f8b30f0a3c0  8b 05 12 dd 21 00    mov    <rel> 0x00007f8b311280d8[4byte] -> %eax 
  0x00007f8b30f0a3c6  85 c0                test   %eax %eax 
  0x00007f8b30f0a3c8  74 15                jz     $0x00007f8b30f0a3df 
Actual: 7f8b30f0a3df

Block 865:
  0x00007f8b30f0a3df  c3                   ret    %rsp (%rsp)[8byte] -> %rsp 
Actual: 7f8b31b794ca

Block 866:
  0x00007f8b30f0a3a0  53                   push   %rbx %rsp -> %rsp 0xfffffff8(%rsp)[8byte] 
  0x00007f8b30f0a3a1  48 8b 1d 98 d6 21 00 mov    <rel> 0x00007f8b31127a40[8byte] -> %rbx 
  0x00007f8b30f0a3a8  48 8b 3b             mov    (%rbx)[8byte] -> %rdi 
  0x00007f8b30f0a3ab  e8 28 fa ff ff       call   $0x00007f8b30f09dd8 %rsp -> %rsp 0xfffffff8(%rsp)[8byte] 
  0x00007f8b30f09dd8  ff 25 0a dc 21 00    jmp    <rel> 0x00007f8b311279e8[8byte] 
Actual: 7f8b307b5260

Block 867:
  0x00007f8b30f0a3b0  48 c7 03 00 00 00 00 mov    $0x0000000000000000 -> (%rbx)[8byte] 
  0x00007f8b30f0a3b7  5b                   pop    %rsp (%rsp)[8byte] -> %rbx %rsp 
  0x00007f8b30f0a3b8  c3                   ret    %rsp (%rsp)[8byte] -> %rsp 
Actual: 7f8b31b794ca

Block 868:
  0x00007f8b30f0a380  8b 05 02 dd 21 00    mov    <rel> 0x00007f8b31128088[4byte] -> %eax 
  0x00007f8b30f0a386  85 c0                test   %eax %eax 
  0x00007f8b30f0a388  74 15                jz     $0x00007f8b30f0a39f 
Actual: 7f8b30f0a39f

Block 869:
  0x00007f8b30f0a39f  c3                   ret    %rsp (%rsp)[8byte] -> %rsp 
Actual: 7f8b31b794ca

Block 870:
  0x00007f8b30f0a770  80 3d e9 d8 21 00 00 cmp    <rel> 0x00007f8b31128060[1byte] $0x00 
  0x00007f8b30f0a777  75 27                jnz    $0x00007f8b30f0a7a0 
Actual: 7f8b30f0a779

Block 871:
  0x00007f8b30f0a779  48 83 3d 37 d8 21 00 cmp    <rel> 0x00007f8b31127fb8[8byte] $0x0000000000000000 
                      00
  0x00007f8b30f0a781  55                   push   %rbp %rsp -> %rsp 0xfffffff8(%rsp)[8byte] 
  0x00007f8b30f0a782  48 89 e5             mov    %rsp -> %rbp 
  0x00007f8b30f0a785  74 0c                jz     $0x00007f8b30f0a793 
Actual: 7f8b30f0a787

Block 872:
  0x00007f8b30f0a787  48 8d 3d d2 cf 21 00 lea    <rel> 0x00007f8b31127760 -> %rdi 
  0x00007f8b30f0a78e  e8 bd fb ff ff       call   $0x00007f8b30f0a350 %rsp -> %rsp 0xfffffff8(%rsp)[8byte] 
  0x00007f8b30f0a350  ff 25 62 dc 21 00    jmp    <rel> 0x00007f8b31127fb8[8byte] 
Actual: 7f8b3076d4a0

Block 873:
  0x00007f8b30f0a793  e8 48 ff ff ff       call   $0x00007f8b30f0a6e0 %rsp -> %rsp 0xfffffff8(%rsp)[8byte] 
  0x00007f8b30f0a6e0  48 8d 3d 71 d9 21 00 lea    <rel> 0x00007f8b31128058 -> %rdi 
  0x00007f8b30f0a6e7  48 8d 05 71 d9 21 00 lea    <rel> 0x00007f8b3112805f -> %rax 
  0x00007f8b30f0a6ee  55                   push   %rbp %rsp -> %rsp 0xfffffff8(%rsp)[8byte] 
  0x00007f8b30f0a6ef  48 29 f8             sub    %rdi %rax -> %rax 
  0x00007f8b30f0a6f2  48 89 e5             mov    %rsp -> %rbp 
  0x00007f8b30f0a6f5  48 83 f8 0e          cmp    %rax $0x000000000000000e 
  0x00007f8b30f0a6f9  76 15                jbe    $0x00007f8b30f0a710 
Actual: 7f8b30f0a710

Block 874:
  0x00007f8b30f0a710  5d                   pop    %rsp (%rsp)[8byte] -> %rbp %rsp 
  0x00007f8b30f0a711  c3                   ret    %rsp (%rsp)[8byte] -> %rsp 
Actual: 7f8b30f0a798

Block 875:
  0x00007f8b30f0a798  5d                   pop    %rsp (%rsp)[8byte] -> %rbp %rsp 
  0x00007f8b30f0a799  c6 05 c0 d8 21 00 01 mov    $0x01 -> <rel> 0x00007f8b31128060[1byte] 
  0x00007f8b30f0a7a0  f3 c3                ret    %rsp (%rsp)[8byte] -> %rsp 
Actual: 7f8b31b794ca

Block 876:
  0x00007f8b30f204bc  48 83 ec 08          sub    $0x0000000000000008 %rsp -> %rsp 
  0x00007f8b30f204c0  48 83 c4 08          add    $0x0000000000000008 %rsp -> %rsp 
  0x00007f8b30f204c4  c3                   ret    %rsp (%rsp)[8byte] -> %rsp 
Actual: 7f8b31b794e8

Block 877:
  0x00007f8b30cfcdf0  80 3d 59 62 20 00 00 cmp    <rel> 0x00007f8b30f03050[1byte] $0x00 
  0x00007f8b30cfcdf7  75 27                jnz    $0x00007f8b30cfce20 
Actual: 7f8b30cfcdf9

Block 878:
  0x00007f8b30cfcdf9  48 83 3d ef 61 20 00 cmp    <rel> 0x00007f8b30f02ff0[8byte] $0x0000000000000000 
                      00
  0x00007f8b30cfce01  55                   push   %rbp %rsp -> %rsp 0xfffffff8(%rsp)[8byte] 
  0x00007f8b30cfce02  48 89 e5             mov    %rsp -> %rbp 
  0x00007f8b30cfce05  74 0c                jz     $0x00007f8b30cfce13 
Actual: 7f8b30cfce07

Block 879:
  0x00007f8b30cfce07  48 8d 3d c2 5d 20 00 lea    <rel> 0x00007f8b30f02bd0 -> %rdi 
  0x00007f8b30cfce0e  e8 35 ff ff ff       call   $0x00007f8b30cfcd48 %rsp -> %rsp 0xfffffff8(%rsp)[8byte] 
  0x00007f8b30cfcd48  ff 25 a2 62 20 00    jmp    <rel> 0x00007f8b30f02ff0[8byte] 
Actual: 7f8b3076d4a0

Block 880:
  0x00007f8b30cfce13  e8 48 ff ff ff       call   $0x00007f8b30cfcd60 %rsp -> %rsp 0xfffffff8(%rsp)[8byte] 
  0x00007f8b30cfcd60  48 8d 3d e9 62 20 00 lea    <rel> 0x00007f8b30f03050 -> %rdi 
  0x00007f8b30cfcd67  48 8d 05 e9 62 20 00 lea    <rel> 0x00007f8b30f03057 -> %rax 
  0x00007f8b30cfcd6e  55                   push   %rbp %rsp -> %rsp 0xfffffff8(%rsp)[8byte] 
  0x00007f8b30cfcd6f  48 29 f8             sub    %rdi %rax -> %rax 
  0x00007f8b30cfcd72  48 89 e5             mov    %rsp -> %rbp 
  0x00007f8b30cfcd75  48 83 f8 0e          cmp    %rax $0x000000000000000e 
  0x00007f8b30cfcd79  76 15                jbe    $0x00007f8b30cfcd90 
Actual: 7f8b30cfcd90

Block 881:
  0x00007f8b30cfcd90  5d                   pop    %rsp (%rsp)[8byte] -> %rbp %rsp 
  0x00007f8b30cfcd91  c3                   ret    %rsp (%rsp)[8byte] -> %rsp 
Actual: 7f8b30cfce18

Block 882:
  0x00007f8b30cfce18  5d                   pop    %rsp (%rsp)[8byte] -> %rbp %rsp 
  0x00007f8b30cfce19  c6 05 30 62 20 00 01 mov    $0x01 -> <rel> 0x00007f8b30f03050[1byte] 
  0x00007f8b30cfce20  f3 c3                ret    %rsp (%rsp)[8byte] -> %rsp 
Actual: 7f8b31b794ca

Block 883:
  0x00007f8b30d00d64  48 83 ec 08          sub    $0x0000000000000008 %rsp -> %rsp 
  0x00007f8b30d00d68  48 83 c4 08          add    $0x0000000000000008 %rsp -> %rsp 
  0x00007f8b30d00d6c  c3                   ret    %rsp (%rsp)[8byte] -> %rsp 
Actual: 7f8b31b794e8

Block 884:
  0x00007f8b30af72f0  80 3d 09 2d 20 00 00 cmp    <rel> 0x00007f8b30cfa000[1byte] $0x00 
  0x00007f8b30af72f7  75 27                jnz    $0x00007f8b30af7320 
Actual: 7f8b30af72f9

Block 885:
  0x00007f8b30af72f9  48 83 3d ef 2c 20 00 cmp    <rel> 0x00007f8b30cf9ff0[8byte] $0x0000000000000000 
                      00
  0x00007f8b30af7301  55                   push   %rbp %rsp -> %rsp 0xfffffff8(%rsp)[8byte] 
  0x00007f8b30af7302  48 89 e5             mov    %rsp -> %rbp 
  0x00007f8b30af7305  74 0c                jz     $0x00007f8b30af7313 
Actual: 7f8b30af7307

Block 886:
  0x00007f8b30af7307  48 8d 3d 8a 29 20 00 lea    <rel> 0x00007f8b30cf9c98 -> %rdi 
  0x00007f8b30af730e  e8 35 ff ff ff       call   $0x00007f8b30af7248 %rsp -> %rsp 0xfffffff8(%rsp)[8byte] 
  0x00007f8b30af7248  ff 25 a2 2d 20 00    jmp    <rel> 0x00007f8b30cf9ff0[8byte] 
Actual: 7f8b3076d4a0

Block 887:
  0x00007f8b30af7313  e8 48 ff ff ff       call   $0x00007f8b30af7260 %rsp -> %rsp 0xfffffff8(%rsp)[8byte] 
  0x00007f8b30af7260  48 8d 3d 99 2d 20 00 lea    <rel> 0x00007f8b30cfa000 -> %rdi 
  0x00007f8b30af7267  48 8d 05 99 2d 20 00 lea    <rel> 0x00007f8b30cfa007 -> %rax 
  0x00007f8b30af726e  55                   push   %rbp %rsp -> %rsp 0xfffffff8(%rsp)[8byte] 
  0x00007f8b30af726f  48 29 f8             sub    %rdi %rax -> %rax 
  0x00007f8b30af7272  48 89 e5             mov    %rsp -> %rbp 
  0x00007f8b30af7275  48 83 f8 0e          cmp    %rax $0x000000000000000e 
  0x00007f8b30af7279  76 15                jbe    $0x00007f8b30af7290 
Actual: 7f8b30af7290

Block 888:
  0x00007f8b30af7290  5d                   pop    %rsp (%rsp)[8byte] -> %rbp %rsp 
  0x00007f8b30af7291  c3                   ret    %rsp (%rsp)[8byte] -> %rsp 
Actual: 7f8b30af7318

Block 889:
  0x00007f8b30af7318  5d                   pop    %rsp (%rsp)[8byte] -> %rbp %rsp 
  0x00007f8b30af7319  c6 05 e0 2c 20 00 01 mov    $0x01 -> <rel> 0x00007f8b30cfa000[1byte] 
  0x00007f8b30af7320  f3 c3                ret    %rsp (%rsp)[8byte] -> %rsp 
Actual: 7f8b31b794ca

Block 890:
  0x00007f8b30af936c  48 83 ec 08          sub    $0x0000000000000008 %rsp -> %rsp 
  0x00007f8b30af9370  48 83 c4 08          add    $0x0000000000000008 %rsp -> %rsp 
  0x00007f8b30af9374  c3                   ret    %rsp (%rsp)[8byte] -> %rsp 
Actual: 7f8b31b794e8

Block 891:
  0x00007f8b30530da0  48 8d 3d 19 23 20 00 lea    <rel> 0x00007f8b307330c0 -> %rdi 
  0x00007f8b30530da7  e9 24 04 00 00       jmp    $0x00007f8b305311d0 
  0x00007f8b305311d0  48 8b 77 18          mov    0x18(%rdi)[8byte] -> %rsi 
  0x00007f8b305311d4  48 85 f6             test   %rsi %rsi 
  0x00007f8b305311d7  74 1d                jz     $0x00007f8b305311f6 
Actual: 7f8b305311f6

Block 892:
  0x00007f8b305311f6  f3 c3                ret    %rsp (%rsp)[8byte] -> %rsp 
Actual: 7f8b31b794ca

Block 893:
  0x00007f8b30530e40  80 3d 39 22 20 00 00 cmp    <rel> 0x00007f8b30733080[1byte] $0x00 
  0x00007f8b30530e47  75 27                jnz    $0x00007f8b30530e70 
Actual: 7f8b30530e49

Block 894:
  0x00007f8b30530e49  48 83 3d a7 21 20 00 cmp    <rel> 0x00007f8b30732ff8[8byte] $0x0000000000000000 
                      00
  0x00007f8b30530e51  55                   push   %rbp %rsp -> %rsp 0xfffffff8(%rsp)[8byte] 
  0x00007f8b30530e52  48 89 e5             mov    %rsp -> %rbp 
  0x00007f8b30530e55  74 0c                jz     $0x00007f8b30530e63 
Actual: 7f8b30530e57

Block 895:
  0x00007f8b30530e57  48 8d 3d 22 1f 20 00 lea    <rel> 0x00007f8b30732d80 -> %rdi 
  0x00007f8b30530e5e  e8 35 ff ff ff       call   $0x00007f8b30530d98 %rsp -> %rsp 0xfffffff8(%rsp)[8byte] 
  0x00007f8b30530d98  ff 25 5a 22 20 00    jmp    <rel> 0x00007f8b30732ff8[8byte] 
Actual: 7f8b3076d4a0

Block 896:
  0x00007f8b30530e63  e8 48 ff ff ff       call   $0x00007f8b30530db0 %rsp -> %rsp 0xfffffff8(%rsp)[8byte] 
  0x00007f8b30530db0  48 8d 3d b1 22 20 00 lea    <rel> 0x00007f8b30733068 -> %rdi 
  0x00007f8b30530db7  48 8d 05 b1 22 20 00 lea    <rel> 0x00007f8b3073306f -> %rax 
  0x00007f8b30530dbe  55                   push   %rbp %rsp -> %rsp 0xfffffff8(%rsp)[8byte] 
  0x00007f8b30530dbf  48 29 f8             sub    %rdi %rax -> %rax 
  0x00007f8b30530dc2  48 89 e5             mov    %rsp -> %rbp 
  0x00007f8b30530dc5  48 83 f8 0e          cmp    %rax $0x000000000000000e 
  0x00007f8b30530dc9  76 15                jbe    $0x00007f8b30530de0 
Actual: 7f8b30530de0

Block 897:
  0x00007f8b30530de0  5d                   pop    %rsp (%rsp)[8byte] -> %rbp %rsp 
  0x00007f8b30530de1  c3                   ret    %rsp (%rsp)[8byte] -> %rsp 
Actual: 7f8b30530e68

Block 898:
  0x00007f8b30530e68  5d                   pop    %rsp (%rsp)[8byte] -> %rbp %rsp 
  0x00007f8b30530e69  c6 05 10 22 20 00 01 mov    $0x01 -> <rel> 0x00007f8b30733080[1byte] 
  0x00007f8b30530e70  f3 c3                ret    %rsp (%rsp)[8byte] -> %rsp 
Actual: 7f8b31b794ca

Block 899:
  0x00007f8b305319b0  48 83 ec 08          sub    $0x0000000000000008 %rsp -> %rsp 
  0x00007f8b305319b4  48 83 c4 08          add    $0x0000000000000008 %rsp -> %rsp 
  0x00007f8b305319b8  c3                   ret    %rsp (%rsp)[8byte] -> %rsp 
Actual: 7f8b31b794e8

Block 900:
  0x00007f8b3022b640  80 3d 95 3a 30 00 00 cmp    <rel> 0x00007f8b3052f0dc[1byte] $0x00 
  0x00007f8b3022b647  75 27                jnz    $0x00007f8b3022b670 
Actual: 7f8b3022b649

Block 901:
  0x00007f8b3022b649  48 83 3d 9f 39 30 00 cmp    <rel> 0x00007f8b3052eff0[8byte] $0x0000000000000000 
                      00
  0x00007f8b3022b651  55                   push   %rbp %rsp -> %rsp 0xfffffff8(%rsp)[8byte] 
  0x00007f8b3022b652  48 89 e5             mov    %rsp -> %rbp 
  0x00007f8b3022b655  74 0c                jz     $0x00007f8b3022b663 
Actual: 7f8b3022b657

Block 902:
  0x00007f8b3022b657  48 8d 3d 22 37 30 00 lea    <rel> 0x00007f8b3052ed80 -> %rdi 
  0x00007f8b3022b65e  e8 45 ff ff ff       call   $0x00007f8b3022b5a8 %rsp -> %rsp 0xfffffff8(%rsp)[8byte] 
  0x00007f8b3022b5a8  ff 25 42 3a 30 00    jmp    <rel> 0x00007f8b3052eff0[8byte] 
Actual: 7f8b3076d4a0

Block 903:
  0x00007f8b3022b663  e8 48 ff ff ff       call   $0x00007f8b3022b5b0 %rsp -> %rsp 0xfffffff8(%rsp)[8byte] 
  0x00007f8b3022b5b0  48 8d 3d 29 3b 30 00 lea    <rel> 0x00007f8b3052f0e0 -> %rdi 
  0x00007f8b3022b5b7  48 8d 05 29 3b 30 00 lea    <rel> 0x00007f8b3052f0e7 -> %rax 
  0x00007f8b3022b5be  55                   push   %rbp %rsp -> %rsp 0xfffffff8(%rsp)[8byte] 
  0x00007f8b3022b5bf  48 29 f8             sub    %rdi %rax -> %rax 
  0x00007f8b3022b5c2  48 89 e5             mov    %rsp -> %rbp 
  0x00007f8b3022b5c5  48 83 f8 0e          cmp    %rax $0x000000000000000e 
  0x00007f8b3022b5c9  76 15                jbe    $0x00007f8b3022b5e0 
Actual: 7f8b3022b5e0

Block 904:
  0x00007f8b3022b5e0  5d                   pop    %rsp (%rsp)[8byte] -> %rbp %rsp 
  0x00007f8b3022b5e1  c3                   ret    %rsp (%rsp)[8byte] -> %rsp 
Actual: 7f8b3022b668

Block 905:
  0x00007f8b3022b668  5d                   pop    %rsp (%rsp)[8byte] -> %rbp %rsp 
  0x00007f8b3022b669  c6 05 6c 3a 30 00 01 mov    $0x01 -> <rel> 0x00007f8b3052f0dc[1byte] 
  0x00007f8b3022b670  f3 c3                ret    %rsp (%rsp)[8byte] -> %rsp 
Actual: 7f8b31b794ca

Block 906:
  0x00007f8b3029d59c  48 83 ec 08          sub    $0x0000000000000008 %rsp -> %rsp 
  0x00007f8b3029d5a0  48 83 c4 08          add    $0x0000000000000008 %rsp -> %rsp 
  0x00007f8b3029d5a4  c3                   ret    %rsp (%rsp)[8byte] -> %rsp 
Actual: 7f8b31b794e8

Block 907:
  0x00007f8b2ffb48a0  80 3d 99 07 27 00 00 cmp    <rel> 0x00007f8b30225040[1byte] $0x00 
  0x00007f8b2ffb48a7  75 27                jnz    $0x00007f8b2ffb48d0 
Actual: 7f8b2ffb48a9

Block 908:
  0x00007f8b2ffb48a9  48 83 3d 17 07 27 00 cmp    <rel> 0x00007f8b30224fc8[8byte] $0x0000000000000000 
                      00
  0x00007f8b2ffb48b1  55                   push   %rbp %rsp -> %rsp 0xfffffff8(%rsp)[8byte] 
  0x00007f8b2ffb48b2  48 89 e5             mov    %rsp -> %rbp 
  0x00007f8b2ffb48b5  74 0c                jz     $0x00007f8b2ffb48c3 
Actual: 7f8b2ffb48b7

Block 909:
  0x00007f8b2ffb48b7  48 8d 3d e2 02 27 00 lea    <rel> 0x00007f8b30224ba0 -> %rdi 
  0x00007f8b2ffb48be  e8 dd fc ff ff       call   $0x00007f8b2ffb45a0 %rsp -> %rsp 0xfffffff8(%rsp)[8byte] 
  0x00007f8b2ffb45a0  ff 25 22 0a 27 00    jmp    <rel> 0x00007f8b30224fc8[8byte] 
Actual: 7f8b3076d4a0

Block 910:
  0x00007f8b2ffb48c3  e8 48 ff ff ff       call   $0x00007f8b2ffb4810 %rsp -> %rsp 0xfffffff8(%rsp)[8byte] 
  0x00007f8b2ffb4810  48 8d 3d 11 08 27 00 lea    <rel> 0x00007f8b30225028 -> %rdi 
  0x00007f8b2ffb4817  48 8d 05 11 08 27 00 lea    <rel> 0x00007f8b3022502f -> %rax 
  0x00007f8b2ffb481e  55                   push   %rbp %rsp -> %rsp 0xfffffff8(%rsp)[8byte] 
  0x00007f8b2ffb481f  48 29 f8             sub    %rdi %rax -> %rax 
  0x00007f8b2ffb4822  48 89 e5             mov    %rsp -> %rbp 
  0x00007f8b2ffb4825  48 83 f8 0e          cmp    %rax $0x000000000000000e 
  0x00007f8b2ffb4829  76 15                jbe    $0x00007f8b2ffb4840 
Actual: 7f8b2ffb4840

Block 911:
  0x00007f8b2ffb4840  5d                   pop    %rsp (%rsp)[8byte] -> %rbp %rsp 
  0x00007f8b2ffb4841  c3                   ret    %rsp (%rsp)[8byte] -> %rsp 
Actual: 7f8b2ffb48c8

Block 912:
  0x00007f8b2ffb48c8  5d                   pop    %rsp (%rsp)[8byte] -> %rbp %rsp 
  0x00007f8b2ffb48c9  c6 05 70 07 27 00 01 mov    $0x01 -> <rel> 0x00007f8b30225040[1byte] 
  0x00007f8b2ffb48d0  f3 c3                ret    %rsp (%rsp)[8byte] -> %rsp 
Actual: 7f8b31b794ca

Block 913:
  0x00007f8b30006624  48 83 ec 08          sub    $0x0000000000000008 %rsp -> %rsp 
  0x00007f8b30006628  48 83 c4 08          add    $0x0000000000000008 %rsp -> %rsp 
  0x00007f8b3000662c  c3                   ret    %rsp (%rsp)[8byte] -> %rsp 
Actual: 7f8b31b794e8

Block 914:
  0x00007f8b31130a70  80 3d 29 18 21 00 00 cmp    <rel> 0x00007f8b313422a0[1byte] $0x00 
  0x00007f8b31130a77  75 27                jnz    $0x00007f8b31130aa0 
Actual: 7f8b31130a79

Block 915:
  0x00007f8b31130a79  48 83 3d 67 15 21 00 cmp    <rel> 0x00007f8b31341fe8[8byte] $0x0000000000000000 
                      00
  0x00007f8b31130a81  55                   push   %rbp %rsp -> %rsp 0xfffffff8(%rsp)[8byte] 
  0x00007f8b31130a82  48 89 e5             mov    %rsp -> %rbp 
  0x00007f8b31130a85  74 0c                jz     $0x00007f8b31130a93 
Actual: 7f8b31130a87

Block 916:
  0x00007f8b31130a87  48 8d 3d f2 10 21 00 lea    <rel> 0x00007f8b31341b80 -> %rdi 
  0x00007f8b31130a8e  e8 3d ff ff ff       call   $0x00007f8b311309d0 %rsp -> %rsp 0xfffffff8(%rsp)[8byte] 
  0x00007f8b311309d0  ff 25 12 16 21 00    jmp    <rel> 0x00007f8b31341fe8[8byte] 
Actual: 7f8b3076d4a0

Block 917:
  0x00007f8b31130a93  e8 48 ff ff ff       call   $0x00007f8b311309e0 %rsp -> %rsp 0xfffffff8(%rsp)[8byte] 
  0x00007f8b311309e0  48 8d 3d b9 18 21 00 lea    <rel> 0x00007f8b313422a0 -> %rdi 
  0x00007f8b311309e7  48 8d 05 b9 18 21 00 lea    <rel> 0x00007f8b313422a7 -> %rax 
  0x00007f8b311309ee  55                   push   %rbp %rsp -> %rsp 0xfffffff8(%rsp)[8byte] 
  0x00007f8b311309ef  48 29 f8             sub    %rdi %rax -> %rax 
  0x00007f8b311309f2  48 89 e5             mov    %rsp -> %rbp 
  0x00007f8b311309f5  48 83 f8 0e          cmp    %rax $0x000000000000000e 
  0x00007f8b311309f9  76 15                jbe    $0x00007f8b31130a10 
Actual: 7f8b31130a10

Block 918:
  0x00007f8b31130a10  5d                   pop    %rsp (%rsp)[8byte] -> %rbp %rsp 
  0x00007f8b31130a11  c3                   ret    %rsp (%rsp)[8byte] -> %rsp 
Actual: 7f8b31130a98

Block 919:
  0x00007f8b31130a98  5d                   pop    %rsp (%rsp)[8byte] -> %rbp %rsp 
  0x00007f8b31130a99  c6 05 00 18 21 00 01 mov    $0x01 -> <rel> 0x00007f8b313422a0[1byte] 
  0x00007f8b31130aa0  f3 c3                ret    %rsp (%rsp)[8byte] -> %rsp 
Actual: 7f8b31b794ca

Block 920:
  0x00007f8b3113d374  48 83 ec 08          sub    $0x0000000000000008 %rsp -> %rsp 
  0x00007f8b3113d378  48 83 c4 08          add    $0x0000000000000008 %rsp -> %rsp 
  0x00007f8b3113d37c  c3                   ret    %rsp (%rsp)[8byte] -> %rsp 
Actual: 7f8b31b794e8

Block 921:
  0x00007f8b31b79512  4c 8b 7d a8          mov    0xffffffa8(%rbp)[8byte] -> %r15 
  0x00007f8b31b79516  48 8b 65 98          mov    0xffffff98(%rbp)[8byte] -> %rsp 
  0x00007f8b31b7951a  e9 f6 fc ff ff       jmp    $0x00007f8b31b79215 
  0x00007f8b31b79215  48 83 6d c8 01       sub    $0x0000000000000001 0xffffffc8(%rbp)[8byte] -> 0xffffffc8(%rbp)[8byte] 
  0x00007f8b31b7921a  49 81 ef 90 00 00 00 sub    $0x0000000000000090 %r15 -> %r15 
  0x00007f8b31b79221  48 8b 45 c8          mov    0xffffffc8(%rbp)[8byte] -> %rax 
  0x00007f8b31b79225  48 83 f8 ff          cmp    %rax $0xffffffffffffffff 
  0x00007f8b31b79229  0f 84 01 04 00 00    jz     $0x00007f8b31b79630 
Actual: 7f8b31b79630

Block 922:
  0x00007f8b31b79630  8b 55 a4             mov    0xffffffa4(%rbp)[4byte] -> %edx 
  0x00007f8b31b79633  85 d2                test   %edx %edx 
  0x00007f8b31b79635  75 26                jnz    $0x00007f8b31b7965d 
Actual: 7f8b31b79637

Block 923:
  0x00007f8b31b79637  8b 05 ab 37 21 00    mov    <rel> 0x00007f8b31d8cde8[4byte] -> %eax 
  0x00007f8b31b7963d  85 c0                test   %eax %eax 
  0x00007f8b31b7963f  74 1c                jz     $0x00007f8b31b7965d 
Actual: 7f8b31b7965d

Block 924:
  0x00007f8b31b7965d  f6 05 1c 36 21 00 80 test   <rel> 0x00007f8b31d8cc80[1byte] $0x80 
  0x00007f8b31b79664  75 6d                jnz    $0x00007f8b31b796d3 
Actual: 7f8b31b79666

Block 925:
  0x00007f8b31b79666  48 8d 65 d8          lea    0xffffffd8(%rbp) -> %rsp 
  0x00007f8b31b7966a  5b                   pop    %rsp (%rsp)[8byte] -> %rbx %rsp 
  0x00007f8b31b7966b  41 5c                pop    %rsp (%rsp)[8byte] -> %r12 %rsp 
  0x00007f8b31b7966d  41 5d                pop    %rsp (%rsp)[8byte] -> %r13 %rsp 
  0x00007f8b31b7966f  41 5e                pop    %rsp (%rsp)[8byte] -> %r14 %rsp 
  0x00007f8b31b79671  41 5f                pop    %rsp (%rsp)[8byte] -> %r15 %rsp 
  0x00007f8b31b79673  5d                   pop    %rsp (%rsp)[8byte] -> %rbp %rsp 
  0x00007f8b31b79674  c3                   ret    %rsp (%rsp)[8byte] -> %rsp 
Actual: 7f8b3076d1e8

Block 926:
  0x00007f8b3076d15f  49 8b 45 00          mov    0x00(%r13)[8byte] -> %rax 
  0x00007f8b3076d163  48 85 c0             test   %rax %rax 
  0x00007f8b3076d166  48 89 45 00          mov    %rax -> 0x00(%rbp)[8byte] 
  0x00007f8b3076d16a  0f 85 9d 00 00 00    jnz    $0x00007f8b3076d20d 
Actual: 7f8b3076d170

Block 927:
  0x00007f8b3076d170  45 84 e4             test   %r12l %r12l 
  0x00007f8b3076d173  74 1f                jz     $0x00007f8b3076d194 
Actual: 7f8b3076d175

Block 928:
  0x00007f8b3076d175  48 8d 2d dc f6 37 00 lea    <rel> 0x00007f8b30aec858 -> %rbp 
  0x00007f8b3076d17c  4c 8d 25 dd f6 37 00 lea    <rel> 0x00007f8b30aec860 -> %r12 
  0x00007f8b3076d183  4c 39 e5             cmp    %rbp %r12 
  0x00007f8b3076d186  73 0c                jnb    $0x00007f8b3076d194 
Actual: 7f8b3076d188

Block 929:
  0x00007f8b3076d188  ff 55 00             call   0x00(%rbp)[8byte] %rsp -> %rsp 0xfffffff8(%rsp)[8byte] 
Actual: 7f8b307ae1a0

Block 930:
  0x00007f8b307ae1a0  41 55                push   %r13 %rsp -> %rsp 0xfffffff8(%rsp)[8byte] 
  0x00007f8b307ae1a2  41 54                push   %r12 %rsp -> %rsp 0xfffffff8(%rsp)[8byte] 
  0x00007f8b307ae1a4  31 ff                xor    %edi %edi -> %edi 
  0x00007f8b307ae1a6  55                   push   %rbp %rsp -> %rsp 0xfffffff8(%rsp)[8byte] 
  0x00007f8b307ae1a7  53                   push   %rbx %rsp -> %rsp 0xfffffff8(%rsp)[8byte] 
  0x00007f8b307ae1a8  64 4c 8b 24 25 10 00 mov    %fs:0x10[8byte] -> %r12 
                      00 00
  0x00007f8b307ae1b1  48 83 ec 08          sub    $0x0000000000000008 %rsp -> %rsp 
  0x00007f8b307ae1b5  e8 e6 fc ff ff       call   $0x00007f8b307adea0 %rsp -> %rsp 0xfffffff8(%rsp)[8byte] 
  0x00007f8b307adea0  41 57                push   %r15 %rsp -> %rsp 0xfffffff8(%rsp)[8byte] 
  0x00007f8b307adea2  41 56                push   %r14 %rsp -> %rsp 0xfffffff8(%rsp)[8byte] 
  0x00007f8b307adea4  41 89 fe             mov    %edi -> %r14d 
  0x00007f8b307adea7  41 55                push   %r13 %rsp -> %rsp 0xfffffff8(%rsp)[8byte] 
  0x00007f8b307adea9  41 54                push   %r12 %rsp -> %rsp 0xfffffff8(%rsp)[8byte] 
  0x00007f8b307adeab  55                   push   %rbp %rsp -> %rsp 0xfffffff8(%rsp)[8byte] 
  0x00007f8b307adeac  53                   push   %rbx %rsp -> %rsp 0xfffffff8(%rsp)[8byte] 
  0x00007f8b307adead  48 83 ec 28          sub    $0x0000000000000028 %rsp -> %rsp 
  0x00007f8b307adeb1  85 ff                test   %edi %edi 
  0x00007f8b307adeb3  0f 84 2f 02 00 00    jz     $0x00007f8b307ae0e8 
Actual: 7f8b307ae0e8

Block 931:
  0x00007f8b307ae0e8  48 8b 1d 11 34 34 00 mov    <rel> 0x00007f8b30af1500[8byte] -> %rbx 
  0x00007f8b307ae0ef  45 31 ed             xor    %r13d %r13d -> %r13d 
  0x00007f8b307ae0f2  44 8b 3d 3f 46 34 00 mov    <rel> 0x00007f8b30af2738[4byte] -> %r15d 
  0x00007f8b307ae0f9  48 85 db             test   %rbx %rbx 
  0x00007f8b307ae0fc  0f 85 59 fe ff ff    jnz    $0x00007f8b307adf5b 
Actual: 7f8b307ae102

Block 932:
  0x00007f8b307ae102  31 ed                xor    %ebp %ebp -> %ebp 
  0x00007f8b307ae104  eb cc                jmp    $0x00007f8b307ae0d2 
  0x00007f8b307ae0d2  48 83 c4 28          add    $0x0000000000000028 %rsp -> %rsp 
  0x00007f8b307ae0d6  89 e8                mov    %ebp -> %eax 
  0x00007f8b307ae0d8  5b                   pop    %rsp (%rsp)[8byte] -> %rbx %rsp 
  0x00007f8b307ae0d9  5d                   pop    %rsp (%rsp)[8byte] -> %rbp %rsp 
  0x00007f8b307ae0da  41 5c                pop    %rsp (%rsp)[8byte] -> %r12 %rsp 
  0x00007f8b307ae0dc  41 5d                pop    %rsp (%rsp)[8byte] -> %r13 %rsp 
  0x00007f8b307ae0de  41 5e                pop    %rsp (%rsp)[8byte] -> %r14 %rsp 
  0x00007f8b307ae0e0  41 5f                pop    %rsp (%rsp)[8byte] -> %r15 %rsp 
  0x00007f8b307ae0e2  c3                   ret    %rsp (%rsp)[8byte] -> %rsp 
Actual: 7f8b307ae1ba

Block 933:
  0x00007f8b307ae1ba  48 8b 1d 3f 33 34 00 mov    <rel> 0x00007f8b30af1500[8byte] -> %rbx 
  0x00007f8b307ae1c1  41 89 c5             mov    %eax -> %r13d 
  0x00007f8b307ae1c4  48 85 db             test   %rbx %rbx 
  0x00007f8b307ae1c7  0f 85 96 00 00 00    jnz    $0x00007f8b307ae263 
Actual: 7f8b307ae1cd

Block 934:
  0x00007f8b307ae1cd  e9 f6 00 00 00       jmp    $0x00007f8b307ae2c8 
  0x00007f8b307ae2c8  48 83 c4 08          add    $0x0000000000000008 %rsp -> %rsp 
  0x00007f8b307ae2cc  44 89 e8             mov    %r13d -> %eax 
  0x00007f8b307ae2cf  5b                   pop    %rsp (%rsp)[8byte] -> %rbx %rsp 
  0x00007f8b307ae2d0  5d                   pop    %rsp (%rsp)[8byte] -> %rbp %rsp 
  0x00007f8b307ae2d1  41 5c                pop    %rsp (%rsp)[8byte] -> %r12 %rsp 
  0x00007f8b307ae2d3  41 5d                pop    %rsp (%rsp)[8byte] -> %r13 %rsp 
  0x00007f8b307ae2d5  c3                   ret    %rsp (%rsp)[8byte] -> %rsp 
Actual: 7f8b3076d18b

Block 935:
  0x00007f8b3076d18b  48 83 c5 08          add    $0x0000000000000008 %rbp -> %rbp 
  0x00007f8b3076d18f  4c 39 e5             cmp    %rbp %r12 
  0x00007f8b3076d192  72 f4                jb     $0x00007f8b3076d188 
Actual: 7f8b3076d194

Block 936:
  0x00007f8b3076d194  89 df                mov    %ebx -> %edi 
  0x00007f8b3076d196  e8 35 fa 08 00       call   $0x00007f8b307fcbd0 %rsp -> %rsp 0xfffffff8(%rsp)[8byte] 
  0x00007f8b307fcbd0  48 63 d7             movsxd %edi -> %rdx 
  0x00007f8b307fcbd3  4c 8b 0d 8e 32 2f 00 mov    <rel> 0x00007f8b30aefe68[8byte] -> %r9 
  0x00007f8b307fcbda  41 b8 e7 00 00 00    mov    $0x000000e7 -> %r8d 
  0x00007f8b307fcbe0  be 3c 00 00 00       mov    $0x0000003c -> %esi 
  0x00007f8b307fcbe5  eb 19                jmp    $0x00007f8b307fcc00 
  0x00007f8b307fcc00  48 89 d7             mov    %rdx -> %rdi 
  0x00007f8b307fcc03  44 89 c0             mov    %r8d -> %eax 
  0x00007f8b307fcc06  0f 05                syscall -> %rcx 
