Block 2: 
0x00007f61cc97fd6a 48 8b 93 08 01 00 00 mov 0x00000108(%rbx)[8byte] -> %rdx  
0x00007f61cc97fd71 48 85 d2 test %rdx %rdx  
0x00007f61cc97fd74 74 3d jz $0x00007f61cc97fdb3  
Actual: 7f61cc97fdb3 
Block 4: 
0x00007f61cc97febb eb d3 jmp $0x00007f61cc97fe90  
0x00007f61cc97fe90 83 eb 01 sub $0x00000001 %ebx -> %ebx  
0x00007f61cc97fe93 83 fb ff cmp %ebx $0xffffffff  
0x00007f61cc97fe96 74 28 jz $0x00007f61cc97fec0  
Actual: 7f61cc97fe98 
Block 5: 
0x00007f61cc97fe98 49 8b 96 b8 03 00 00 mov 0x000003b8(%r14)[8byte] -> %rdx  
0x00007f61cc97fe9f 89 d8 mov %ebx -> %eax  
0x00007f61cc97fea1 48 8b 3c c2 mov (%rdx,%rax,8)[8byte] -> %rdi  
0x00007f61cc97fea5 f6 87 14 03 00 00 08 test 0x00000314(%rdi)[1byte] $0x08  
0x00007f61cc97feac 75 e2 jnz $0x00007f61cc97fe90  
Actual: 7f61cc97feae 
Block 6: 
0x00007f61cc97feae 4c 89 e9 mov %r13 -> %rcx  
0x00007f61cc97feb1 4c 89 e2 mov %r12 -> %rdx  
0x00007f61cc97feb4 89 ee mov %ebp -> %esi  
0x00007f61cc97feb6 e8 55 fe ff ff call $0x00007f61cc97fd10 %rsp -> %rsp 0xfffffff8(%rsp)[8byte]  
0x00007f61cc97fd10 0f b6 87 14 03 00 00 movzx 0x00000314(%rdi)[1byte] -> %eax  
0x00007f61cc97fd17 4c 8b 47 08 mov 0x08(%rdi)[8byte] -> %r8  
0x00007f61cc97fd1b 83 c8 08 or $0x00000008 %eax -> %eax  
0x00007f61cc97fd1e 88 87 14 03 00 00 mov %al -> 0x00000314(%rdi)[1byte]  
0x00007f61cc97fd24 45 0f b6 08 movzx (%r8)[1byte] -> %r9d  
0x00007f61cc97fd28 45 84 c9 test %r9l %r9l  
0x00007f61cc97fd2b 0f 84 d7 00 00 00 jz $0x00007f61cc97fe08  
Actual: 7f61cc97fe08 
Block 7: 
0x00007f61cc97fe08 a8 03 test %al $0x03  
0x00007f61cc97fe0a 0f 85 21 ff ff ff jnz $0x00007f61cc97fd31  
Actual: 7f61cc97fe10 
Block 13: 
0x00007f61cc987260 53 push %rbx %rsp -> %rsp 0xfffffff8(%rsp)[8byte]  
0x00007f61cc987261 48 89 e3 mov %rsp -> %rbx  
0x00007f61cc987264 48 83 e4 f0 and $0xfffffffffffffff0 %rsp -> %rsp  
0x00007f61cc987268 48 81 ec 00 01 00 00 sub $0x0000000000000100 %rsp -> %rsp  
0x00007f61cc98726f 48 89 84 24 c0 00 00 mov %rax -> 0x000000c0(%rsp)[8byte]  
0x00007f61cc987277 48 89 8c 24 c8 00 00 mov %rcx -> 0x000000c8(%rsp)[8byte]  
0x00007f61cc98727f 48 89 94 24 d0 00 00 mov %rdx -> 0x000000d0(%rsp)[8byte]  
0x00007f61cc987287 48 89 b4 24 d8 00 00 mov %rsi -> 0x000000d8(%rsp)[8byte]  
0x00007f61cc98728f 48 89 bc 24 e0 00 00 mov %rdi -> 0x000000e0(%rsp)[8byte]  
0x00007f61cc987297 4c 89 84 24 e8 00 00 mov %r8 -> 0x000000e8(%rsp)[8byte]  
0x00007f61cc98729f 4c 89 8c 24 f0 00 00 mov %r9 -> 0x000000f0(%rsp)[8byte]  
0x00007f61cc9872a7 0f 29 04 24 movaps %xmm0 -> (%rsp)[16byte]  
0x00007f61cc9872ab 0f 29 4c 24 10 movaps %xmm1 -> 0x10(%rsp)[16byte]  
0x00007f61cc9872b0 0f 29 54 24 20 movaps %xmm2 -> 0x20(%rsp)[16byte]  
0x00007f61cc9872b5 0f 29 5c 24 30 movaps %xmm3 -> 0x30(%rsp)[16byte]  
0x00007f61cc9872ba 0f 29 64 24 40 movaps %xmm4 -> 0x40(%rsp)[16byte]  
0x00007f61cc9872bf 0f 29 6c 24 50 movaps %xmm5 -> 0x50(%rsp)[16byte]  
0x00007f61cc9872c4 0f 29 74 24 60 movaps %xmm6 -> 0x60(%rsp)[16byte]  
0x00007f61cc9872c9 0f 29 7c 24 70 movaps %xmm7 -> 0x70(%rsp)[16byte]  
0x00007f61cc9872ce 66 0f 1b 84 24 80 00 data16 nop 0x00000080(%rsp)[4byte]  
00 00 
0x00007f61cc9872d7 66 0f 1b 8c 24 90 00 data16 nop 0x00000090(%rsp)[4byte]  
00 00 
0x00007f61cc9872e0 66 0f 1b 94 24 a0 00 data16 nop 0x000000a0(%rsp)[4byte]  
00 00 
0x00007f61cc9872e9 66 0f 1b 9c 24 b0 00 data16 nop 0x000000b0(%rsp)[4byte]  
00 00 
0x00007f61cc9872f2 48 8b 73 10 mov 0x10(%rbx)[8byte] -> %rsi  
0x00007f61cc9872f6 48 8b 7b 08 mov 0x08(%rbx)[8byte] -> %rdi  
0x00007f61cc9872fa e8 21 7e ff ff call $0x00007f61cc97f120 %rsp -> %rsp 0xfffffff8(%rsp)[8byte]  
0x00007f61cc97f120 53 push %rbx %rsp -> %rsp 0xfffffff8(%rsp)[8byte]  
0x00007f61cc97f121 49 89 fa mov %rdi -> %r10  
0x00007f61cc97f124 89 f6 mov %esi -> %esi  
0x00007f61cc97f126 48 8d 14 76 lea (%rsi,%rsi,2) -> %rdx  
0x00007f61cc97f12a 48 83 ec 10 sub $0x0000000000000010 %rsp -> %rsp  
0x00007f61cc97f12e 48 8b 47 68 mov 0x68(%rdi)[8byte] -> %rax  
0x00007f61cc97f132 48 8b 78 08 mov 0x08(%rax)[8byte] -> %rdi  
0x00007f61cc97f136 49 8b 82 f8 00 00 00 mov 0x000000f8(%r10)[8byte] -> %rax  
0x00007f61cc97f13d 48 8b 40 08 mov 0x08(%rax)[8byte] -> %rax  
0x00007f61cc97f141 48 8d 0c d0 lea (%rax,%rdx,8) -> %rcx  
0x00007f61cc97f145 49 8b 42 70 mov 0x70(%r10)[8byte] -> %rax  
0x00007f61cc97f149 8b 51 0c mov 0x0c(%rcx)[4byte] -> %edx  
0x00007f61cc97f14c 48 8b 40 08 mov 0x08(%rax)[8byte] -> %rax  
0x00007f61cc97f150 48 8d 34 52 lea (%rdx,%rdx,2) -> %rsi  
0x00007f61cc97f154 48 8d 34 f0 lea (%rax,%rsi,8) -> %rsi  
0x00007f61cc97f158 49 8b 02 mov (%r10)[8byte] -> %rax  
0x00007f61cc97f15b 48 89 74 24 08 mov %rsi -> 0x08(%rsp)[8byte]  
0x00007f61cc97f160 48 89 c3 mov %rax -> %rbx  
0x00007f61cc97f163 48 03 19 add (%rcx)[8byte] %rbx -> %rbx  
0x00007f61cc97f166 f6 46 05 03 test 0x05(%rsi)[1byte] $0x03  
0x00007f61cc97f16a 0f 85 96 00 00 00 jnz $0x00007f61cc97f206  
Actual: 7f61cc97f170 
Block 14: 
0x00007f61cc97f170 49 8b 82 c8 01 00 00 mov 0x000001c8(%r10)[8byte] -> %rax  
0x00007f61cc97f177 48 85 c0 test %rax %rax  
0x00007f61cc97f17a 0f 84 b0 00 00 00 jz $0x00007f61cc97f230  
Actual: 7f61cc97f180 
Block 15: 
0x00007f61cc97f180 48 8b 40 08 mov 0x08(%rax)[8byte] -> %rax  
0x00007f61cc97f184 0f b7 04 50 movzx (%rax,%rdx,2)[2byte] -> %eax  
0x00007f61cc97f188 25 ff 7f 00 00 and $0x00007fff %eax -> %eax  
0x00007f61cc97f18d 48 8d 14 40 lea (%rax,%rax,2) -> %rdx  
0x00007f61cc97f191 49 8b 82 e0 02 00 00 mov 0x000002e0(%r10)[8byte] -> %rax  
0x00007f61cc97f198 4c 8d 04 d0 lea (%rax,%rdx,8) -> %r8  
0x00007f61cc97f19c b8 00 00 00 00 mov $0x00000000 -> %eax  
0x00007f61cc97f1a1 45 8b 48 08 mov 0x08(%r8)[4byte] -> %r9d  
0x00007f61cc97f1a5 45 85 c9 test %r9d %r9d  
0x00007f61cc97f1a8 4c 0f 44 c0 cmovz %rax %r8 -> %r8  
0x00007f61cc97f1ac 64 8b 14 25 18 00 00 mov %fs:0x18[4byte] -> %edx  
0x00007f61cc97f1b4 85 d2 test %edx %edx  
0x00007f61cc97f1b6 b8 01 00 00 00 mov $0x00000001 -> %eax  
0x00007f61cc97f1bb 0f 85 8f 00 00 00 jnz $0x00007f61cc97f250  
Actual: 7f61cc97f1c1 
Block 16: 
0x00007f61cc97f1c1 8b 36 mov (%rsi)[4byte] -> %esi  
0x00007f61cc97f1c3 49 8b 8a 80 03 00 00 mov 0x00000380(%r10)[8byte] -> %rcx  
0x00007f61cc97f1ca 48 8d 54 24 08 lea 0x08(%rsp) -> %rdx  
0x00007f61cc97f1cf 6a 00 push $0x0000000000000000 %rsp -> %rsp 0xfffffff8(%rsp)[8byte]  
0x00007f61cc97f1d1 50 push %rax %rsp -> %rsp 0xfffffff8(%rsp)[8byte]  
0x00007f61cc97f1d2 41 b9 01 00 00 00 mov $0x00000001 -> %r9d  
0x00007f61cc97f1d8 48 01 f7 add %rsi %rdi -> %rdi  
0x00007f61cc97f1db 4c 89 d6 mov %r10 -> %rsi  
0x00007f61cc97f1de e8 1d b0 ff ff call $0x00007f61cc97a200 %rsp -> %rsp 0xfffffff8(%rsp)[8byte]  
0x00007f61cc97a200 55 push %rbp %rsp -> %rsp 0xfffffff8(%rsp)[8byte]  
0x00007f61cc97a201 48 89 e5 mov %rsp -> %rbp  
0x00007f61cc97a204 41 57 push %r15 %rsp -> %rsp 0xfffffff8(%rsp)[8byte]  
0x00007f61cc97a206 41 56 push %r14 %rsp -> %rsp 0xfffffff8(%rsp)[8byte]  
0x00007f61cc97a208 41 55 push %r13 %rsp -> %rsp 0xfffffff8(%rsp)[8byte]  
0x00007f61cc97a20a 41 54 push %r12 %rsp -> %rsp 0xfffffff8(%rsp)[8byte]  
0x00007f61cc97a20c 49 89 d4 mov %rdx -> %r12  
0x00007f61cc97a20f 53 push %rbx %rsp -> %rsp 0xfffffff8(%rsp)[8byte]  
0x00007f61cc97a210 49 89 f6 mov %rsi -> %r14  
0x00007f61cc97a213 48 81 ec c8 00 00 00 sub $0x00000000000000c8 %rsp -> %rsp  
0x00007f61cc97a21a 0f b6 17 movzx (%rdi)[1byte] -> %edx  
0x00007f61cc97a21d 48 89 bd 50 ff ff ff mov %rdi -> 0xffffff50(%rbp)[8byte]  
0x00007f61cc97a224 48 89 8d 28 ff ff ff mov %rcx -> 0xffffff28(%rbp)[8byte]  
0x00007f61cc97a22b 4c 89 85 38 ff ff ff mov %r8 -> 0xffffff38(%rbp)[8byte]  
0x00007f61cc97a232 44 89 8d 44 ff ff ff mov %r9d -> 0xffffff44(%rbp)[4byte]  
0x00007f61cc97a239 4c 8b 7d 18 mov 0x18(%rbp)[8byte] -> %r15  
0x00007f61cc97a23d 84 d2 test %dl %dl  
0x00007f61cc97a23f 0f 84 ee 02 00 00 jz $0x00007f61cc97a533  
Actual: 7f61cc97a245 
Block 17: 
0x00007f61cc97a245 48 89 f9 mov %rdi -> %rcx  
0x00007f61cc97a248 b8 05 15 00 00 mov $0x00001505 -> %eax  
0x00007f61cc97a24d 0f 1f 00 nop (%rax)[4byte]  
0x00007f61cc97a250 48 89 c6 mov %rax -> %rsi  
0x00007f61cc97a253 48 83 c1 01 add $0x0000000000000001 %rcx -> %rcx  
0x00007f61cc97a257 48 c1 e6 05 shl $0x0000000000000005 %rsi -> %rsi  
0x00007f61cc97a25b 48 01 f0 add %rsi %rax -> %rax  
0x00007f61cc97a25e 48 01 d0 add %rdx %rax -> %rax  
0x00007f61cc97a261 0f b6 11 movzx (%rcx)[1byte] -> %edx  
0x00007f61cc97a264 84 d2 test %dl %dl  
0x00007f61cc97a266 75 e8 jnz $0x00007f61cc97a250  
Actual: 7f61cc97a250 
Block 18: 
0x00007f61cc97a250 48 89 c6 mov %rax -> %rsi  
0x00007f61cc97a253 48 83 c1 01 add $0x0000000000000001 %rcx -> %rcx  
0x00007f61cc97a257 48 c1 e6 05 shl $0x0000000000000005 %rsi -> %rsi  
0x00007f61cc97a25b 48 01 f0 add %rsi %rax -> %rax  
0x00007f61cc97a25e 48 01 d0 add %rdx %rax -> %rax  
0x00007f61cc97a261 0f b6 11 movzx (%rcx)[1byte] -> %edx  
0x00007f61cc97a264 84 d2 test %dl %dl  
0x00007f61cc97a266 75 e8 jnz $0x00007f61cc97a250  
Actual: 7f61cc97a250 
Block 19: 
0x00007f61cc97a268 89 c3 mov %eax -> %ebx  
0x00007f61cc97a26a b8 ff ff ff ff mov $0xffffffff -> %eax  
0x00007f61cc97a26f 66 0f ef c0 pxor %xmm0 %xmm0 -> %xmm0  
0x00007f61cc97a273 48 89 85 60 ff ff ff mov %rax -> 0xffffff60(%rbp)[8byte]  
0x00007f61cc97a27a 48 8b 85 28 ff ff ff mov 0xffffff28(%rbp)[8byte] -> %rax  
0x00007f61cc97a281 48 83 05 ef a6 21 00 add $0x0000000000000001 <rel> 0x00007f61ccb94978[8byte] -> <rel> 0x00007f61ccb94978[8byte]  
0x00007f61cc97a289 4d 85 ff test %r15 %r15  
0x00007f61cc97a28c 4c 8b 08 mov (%rax)[8byte] -> %r9  
0x00007f61cc97a28f 0f 29 85 70 ff ff ff movaps %xmm0 -> 0xffffff70(%rbp)[16byte]  
0x00007f61cc97a296 0f 85 42 02 00 00 jnz $0x00007f61cc97a4de  
Actual: 7f61cc97a29c 
Block 20: 
0x00007f61cc97a29c 4d 85 c9 test %r9 %r9  
0x00007f61cc97a29f 48 c7 85 20 ff ff ff mov $0x0000000000000000 -> 0xffffff20(%rbp)[8byte]  
00 00 00 00 
0x00007f61cc97a2aa 0f 84 56 02 00 00 jz $0x00007f61cc97a506  
Actual: 7f61cc97a2b0 
Block 21: 
0x00007f61cc97a2b0 48 8d 8d 70 ff ff ff lea 0xffffff70(%rbp) -> %rcx  
0x00007f61cc97a2b7 4c 8b ad 28 ff ff ff mov 0xffffff28(%rbp)[8byte] -> %r13  
0x00007f61cc97a2be 48 89 9d 58 ff ff ff mov %rbx -> 0xffffff58(%rbp)[8byte]  
0x00007f61cc97a2c5 48 8b 85 20 ff ff ff mov 0xffffff20(%rbp)[8byte] -> %rax  
0x00007f61cc97a2cc 48 89 8d 30 ff ff ff mov %rcx -> 0xffffff30(%rbp)[8byte]  
0x00007f61cc97a2d3 48 8d 8d 60 ff ff ff lea 0xffffff60(%rbp) -> %rcx  
0x00007f61cc97a2da 4c 89 eb mov %r13 -> %rbx  
0x00007f61cc97a2dd 44 8b 6d 10 mov 0x10(%rbp)[4byte] -> %r13d  
0x00007f61cc97a2e1 48 89 8d 48 ff ff ff mov %rcx -> 0xffffff48(%rbp)[8byte]  
0x00007f61cc97a2e8 eb 1f jmp $0x00007f61cc97a309  
0x00007f61cc97a309 8b bd 44 ff ff ff mov 0xffffff44(%rbp)[4byte] -> %edi  
0x00007f61cc97a30f 41 56 push %r14 %rsp -> %rsp 0xfffffff8(%rsp)[8byte]  
0x00007f61cc97a311 4c 8b 85 30 ff ff ff mov 0xffffff30(%rbp)[8byte] -> %r8  
0x00007f61cc97a318 49 8b 0c 24 mov (%r12)[8byte] -> %rcx  
0x00007f61cc97a31c 48 8b 95 48 ff ff ff mov 0xffffff48(%rbp)[8byte] -> %rdx  
0x00007f61cc97a323 48 8b b5 58 ff ff ff mov 0xffffff58(%rbp)[8byte] -> %rsi  
0x00007f61cc97a32a 57 push %rdi %rsp -> %rsp 0xfffffff8(%rsp)[8byte]  
0x00007f61cc97a32b 48 8b bd 50 ff ff ff mov 0xffffff50(%rbp)[8byte] -> %rdi  
0x00007f61cc97a332 41 57 push %r15 %rsp -> %rsp 0xfffffff8(%rsp)[8byte]  
0x00007f61cc97a334 41 55 push %r13 %rsp -> %rsp 0xfffffff8(%rsp)[8byte]  
0x00007f61cc97a336 ff b5 38 ff ff ff push 0xffffff38(%rbp)[8byte] %rsp -> %rsp 0xfffffff8(%rsp)[8byte]  
0x00007f61cc97a33c 50 push %rax %rsp -> %rsp 0xfffffff8(%rsp)[8byte]  
0x00007f61cc97a33d e8 8e f3 ff ff call $0x00007f61cc9796d0 %rsp -> %rsp 0xfffffff8(%rsp)[8byte]  
0x00007f61cc9796d0 41 57 push %r15 %rsp -> %rsp 0xfffffff8(%rsp)[8byte]  
0x00007f61cc9796d2 41 56 push %r14 %rsp -> %rsp 0xfffffff8(%rsp)[8byte]  
0x00007f61cc9796d4 41 55 push %r13 %rsp -> %rsp 0xfffffff8(%rsp)[8byte]  
0x00007f61cc9796d6 41 54 push %r12 %rsp -> %rsp 0xfffffff8(%rsp)[8byte]  
0x00007f61cc9796d8 55 push %rbp %rsp -> %rsp 0xfffffff8(%rsp)[8byte]  
0x00007f61cc9796d9 53 push %rbx %rsp -> %rsp 0xfffffff8(%rsp)[8byte]  
0x00007f61cc9796da 48 81 ec 98 00 00 00 sub $0x0000000000000098 %rsp -> %rsp  
0x00007f61cc9796e1 41 8b 41 08 mov 0x08(%r9)[4byte] -> %eax  
0x00007f61cc9796e5 48 89 7c 24 08 mov %rdi -> 0x08(%rsp)[8byte]  
0x00007f61cc9796ea 48 89 54 24 58 mov %rdx -> 0x58(%rsp)[8byte]  
0x00007f61cc9796ef 48 89 4c 24 20 mov %rcx -> 0x20(%rsp)[8byte]  
0x00007f61cc9796f4 4c 89 44 24 48 mov %r8 -> 0x48(%rsp)[8byte]  
0x00007f61cc9796f9 48 8b ac 24 d0 00 00 mov 0x000000d0(%rsp)[8byte] -> %rbp  
0x00007f61cc979701 49 89 c2 mov %rax -> %r10  
0x00007f61cc979704 48 89 f0 mov %rsi -> %rax  
0x00007f61cc979707 44 8b bc 24 f0 00 00 mov 0x000000f0(%rsp)[4byte] -> %r15d  
0x00007f61cc97970f 4d 8b 29 mov (%r9)[8byte] -> %r13  
0x00007f61cc979712 48 c1 e8 06 shr $0x0000000000000006 %rax -> %rax  
0x00007f61cc979716 4c 8b b4 24 e8 00 00 mov 0x000000e8(%rsp)[8byte] -> %r14  
0x00007f61cc97971e 48 89 74 24 30 mov %rsi -> 0x30(%rsp)[8byte]  
0x00007f61cc979723 48 89 44 24 38 mov %rax -> 0x38(%rsp)[8byte]  
0x00007f61cc979728 48 8d 84 24 84 00 00 lea 0x00000084(%rsp) -> %rax  
0x00007f61cc979730 4d 89 d4 mov %r10 -> %r12  
0x00007f61cc979733 41 83 e7 02 and $0x00000002 %r15d -> %r15d  
0x00007f61cc979737 48 89 44 24 50 mov %rax -> 0x50(%rsp)[8byte]  
0x00007f61cc97973c 48 8d 84 24 88 00 00 lea 0x00000088(%rsp) -> %rax  
0x00007f61cc979744 48 89 44 24 28 mov %rax -> 0x28(%rsp)[8byte]  
0x00007f61cc979749 89 f0 mov %esi -> %eax  
0x00007f61cc97974b 83 e0 3f and $0x0000003f %eax -> %eax  
0x00007f61cc97974e 89 44 24 40 mov %eax -> 0x40(%rsp)[4byte]  
0x00007f61cc979752 66 0f 1f 44 00 00 data16 nop 0x00(%rax,%rax,1)[4byte]  
0x00007f61cc979758 49 8b 44 ed 00 mov 0x00(%r13,%rbp,8)[8byte] -> %rax  
0x00007f61cc97975d 48 8b 58 28 mov 0x28(%rax)[8byte] -> %rbx  
0x00007f61cc979761 4c 39 f3 cmp %rbx %r14  
0x00007f61cc979764 0f 84 ee 00 00 00 jz $0x00007f61cc979858  
Actual: 7f61cc97976a 
Block 22: 
0x00007f61cc97976a 45 85 ff test %r15d %r15d  
0x00007f61cc97976d 74 0d jz $0x00007f61cc97977c  
Actual: 7f61cc97977c 
Block 23: 
0x00007f61cc97977c f6 83 15 03 00 00 20 test 0x00000315(%rbx)[1byte] $0x20  
0x00007f61cc979783 0f 85 cf 00 00 00 jnz $0x00007f61cc979858  
Actual: 7f61cc979789 
Block 24: 
0x00007f61cc979789 f6 05 f0 a4 21 00 08 test <rel> 0x00007f61ccb93c80[1byte] $0x08  
0x00007f61cc979790 0f 85 ea 00 00 00 jnz $0x00007f61cc979880  
Actual: 7f61cc979796 
Block 25: 
0x00007f61cc979796 8b 93 ec 02 00 00 mov 0x000002ec(%rbx)[4byte] -> %edx  
0x00007f61cc97979c 85 d2 test %edx %edx  
0x00007f61cc97979e 0f 84 b4 00 00 00 jz $0x00007f61cc979858  
Actual: 7f61cc9797a4 
Block 26: 
0x00007f61cc9797a4 48 8b 43 70 mov 0x70(%rbx)[8byte] -> %rax  
0x00007f61cc9797a8 c7 84 24 84 00 00 00 mov $0x00000000 -> 0x00000084(%rsp)[4byte]  
00 00 00 00 
0x00007f61cc9797b3 48 c7 84 24 88 00 00 mov $0x0000000000000000 -> 0x00000088(%rsp)[8byte]  
00 00 00 00 00 
0x00007f61cc9797bf 48 8b 40 08 mov 0x08(%rax)[8byte] -> %rax  
0x00007f61cc9797c3 48 89 44 24 18 mov %rax -> 0x18(%rsp)[8byte]  
0x00007f61cc9797c8 48 8b 43 68 mov 0x68(%rbx)[8byte] -> %rax  
0x00007f61cc9797cc 48 8b 40 08 mov 0x08(%rax)[8byte] -> %rax  
0x00007f61cc9797d0 48 89 44 24 10 mov %rax -> 0x10(%rsp)[8byte]  
0x00007f61cc9797d5 48 8b 83 f8 02 00 00 mov 0x000002f8(%rbx)[8byte] -> %rax  
0x00007f61cc9797dc 48 85 c0 test %rax %rax  
0x00007f61cc9797df 0f 84 e3 00 00 00 jz $0x00007f61cc9798c8  
Actual: 7f61cc9797e5 
Block 27: 
0x00007f61cc9797e5 8b 4c 24 38 mov 0x38(%rsp)[4byte] -> %ecx  
0x00007f61cc9797e9 23 8b f0 02 00 00 and 0x000002f0(%rbx)[4byte] %ecx -> %ecx  
0x00007f61cc9797ef 48 8b 74 24 30 mov 0x30(%rsp)[8byte] -> %rsi  
0x00007f61cc9797f4 48 8b 04 c8 mov (%rax,%rcx,8)[8byte] -> %rax  
0x00007f61cc9797f8 8b 8b f4 02 00 00 mov 0x000002f4(%rbx)[4byte] -> %ecx  
0x00007f61cc9797fe 48 d3 ee shr %cl %rsi -> %rsi  
0x00007f61cc979801 48 89 f1 mov %rsi -> %rcx  
0x00007f61cc979804 48 89 c6 mov %rax -> %rsi  
0x00007f61cc979807 48 d3 ee shr %cl %rsi -> %rsi  
0x00007f61cc97980a 0f b6 4c 24 40 movzx 0x40(%rsp)[1byte] -> %ecx  
0x00007f61cc97980f 48 d3 e8 shr %cl %rax -> %rax  
0x00007f61cc979812 48 21 f0 and %rsi %rax -> %rax  
0x00007f61cc979815 a8 01 test %al $0x01  
0x00007f61cc979817 0f 85 cb 05 00 00 jnz $0x00007f61cc979de8  
Actual: 7f61cc97981d 
Block 28: 
0x00007f61cc97981d b8 01 00 00 00 mov $0x00000001 -> %eax  
0x00007f61cc979822 48 83 bc 24 d8 00 00 cmp 0x000000d8(%rsp)[8byte] $0x0000000000000000  
00 00 
0x00007f61cc97982b 74 2b jz $0x00007f61cc979858  
Actual: 7f61cc97982d 
Block 29: 
0x00007f61cc97982d 84 c0 test %al %al  
0x00007f61cc97982f 74 27 jz $0x00007f61cc979858  
Actual: 7f61cc979831 
Block 30: 
0x00007f61cc979831 48 8b 84 24 d8 00 00 mov 0x000000d8(%rsp)[8byte] -> %rax  
0x00007f61cc979839 48 8b 78 10 mov 0x10(%rax)[8byte] -> %rdi  
0x00007f61cc97983d 48 85 ff test %rdi %rdi  
0x00007f61cc979840 74 16 jz $0x00007f61cc979858  
Actual: 7f61cc979842 
Block 32: 
0x00007f61cc98ac20 48 83 e6 f0 and $0xfffffffffffffff0 %rsi -> %rsi  
0x00007f61cc98ac24 48 83 e7 f0 and $0xfffffffffffffff0 %rdi -> %rdi  
0x00007f61cc98ac28 ba ff ff 00 00 mov $0x0000ffff -> %edx  
0x00007f61cc98ac2d 45 31 c0 xor %r8d %r8d -> %r8d  
0x00007f61cc98ac30 83 e1 0f and $0x0000000f %ecx -> %ecx  
0x00007f61cc98ac33 83 e0 0f and $0x0000000f %eax -> %eax  
0x00007f61cc98ac36 39 c1 cmp %ecx %eax  
0x00007f61cc98ac38 74 26 jz $0x00007f61cc98ac60  
Actual: 7f61cc98ac3a 
Block 35: 
0x00007f61cc98be80 66 0f ef c0 pxor %xmm0 %xmm0 -> %xmm0  
0x00007f61cc98be84 66 0f 6f 17 movdqa (%rdi)[16byte] -> %xmm2  
0x00007f61cc98be88 66 0f 6f 0e movdqa (%rsi)[16byte] -> %xmm1  
0x00007f61cc98be8c 66 0f 74 c1 pcmpeqb %xmm1 %xmm0 -> %xmm0  
0x00007f61cc98be90 66 0f 73 fa 01 pslldq $0x01 %xmm2 -> %xmm2  
0x00007f61cc98be95 66 0f 74 d1 pcmpeqb %xmm1 %xmm2 -> %xmm2  
0x00007f61cc98be99 66 0f f8 d0 psubb %xmm0 %xmm2 -> %xmm2  
0x00007f61cc98be9d 66 44 0f d7 ca pmovmskb %xmm2 -> %r9d  
0x00007f61cc98bea2 d3 ea shr %cl %edx -> %edx  
0x00007f61cc98bea4 41 d3 e9 shr %cl %r9d -> %r9d  
0x00007f61cc98bea7 44 29 ca sub %r9d %edx -> %edx  
0x00007f61cc98beaa 0f 85 15 01 00 00 jnz $0x00007f61cc98bfc5  
Actual: 7f61cc98bfc5 
Block 36: 
0x00007f61cc98bfc5 48 8d 3c 07 lea (%rdi,%rax,1) -> %rdi  
0x00007f61cc98bfc9 48 8d 34 0e lea (%rsi,%rcx,1) -> %rsi  
0x00007f61cc98bfcd 45 85 c0 test %r8d %r8d  
0x00007f61cc98bfd0 74 0e jz $0x00007f61cc98bfe0  
Actual: 7f61cc98bfd2 
Block 38: 
0x00007f61cc981035 85 c0 test %eax %eax  
0x00007f61cc981037 ba 01 00 00 00 mov $0x00000001 -> %edx  
0x00007f61cc98103c 74 2f jz $0x00007f61cc98106d  
Actual: 7f61cc98103e 
Block 39: 
0x00007f61cc98103e 48 8b 5b 38 mov 0x38(%rbx)[8byte] -> %rbx  
0x00007f61cc981042 48 85 db test %rbx %rbx  
0x00007f61cc981045 75 12 jnz $0x00007f61cc981059  
Actual: 7f61cc981059 
Block 41: 
0x00007f61cc981064 85 c0 test %eax %eax  
0x00007f61cc981066 75 e8 jnz $0x00007f61cc981050  
Actual: 7f61cc981050 
Block 42: 
0x00007f61cc981050 48 8b 5b 08 mov 0x08(%rbx)[8byte] -> %rbx  
0x00007f61cc981054 48 85 db test %rbx %rbx  
0x00007f61cc981057 74 27 jz $0x00007f61cc981080  
Actual: 7f61cc981080 
Block 44: 
0x00007f61cc97984a 85 c0 test %eax %eax  
0x00007f61cc97984c 0f 85 23 08 00 00 jnz $0x00007f61cc97a075  
Actual: 7f61cc979852 
Block 46: 
0x00007f61cc979758 49 8b 44 ed 00 mov 0x00(%r13,%rbp,8)[8byte] -> %rax  
0x00007f61cc97975d 48 8b 58 28 mov 0x28(%rax)[8byte] -> %rbx  
0x00007f61cc979761 4c 39 f3 cmp %rbx %r14  
0x00007f61cc979764 0f 84 ee 00 00 00 jz $0x00007f61cc979858  
Actual: 7f61cc97976a 
Block 48: 
0x00007f61cc98abe6 66 0f 12 0f movlpd (%rdi)[8byte] -> %xmm1[8byte]  
0x00007f61cc98abea 66 0f 12 16 movlpd (%rsi)[8byte] -> %xmm2[8byte]  
0x00007f61cc98abee 66 0f 16 4f 08 movhpd 0x08(%rdi)[8byte] -> %xmm1[8byte]  
0x00007f61cc98abf3 66 0f 16 56 08 movhpd 0x08(%rsi)[8byte] -> %xmm2[8byte]  
0x00007f61cc98abf8 66 0f ef c0 pxor %xmm0 %xmm0 -> %xmm0  
0x00007f61cc98abfc 66 0f 74 c1 pcmpeqb %xmm1 %xmm0 -> %xmm0  
0x00007f61cc98ac00 66 0f 74 ca pcmpeqb %xmm2 %xmm1 -> %xmm1  
0x00007f61cc98ac04 66 0f f8 c8 psubb %xmm0 %xmm1 -> %xmm1  
0x00007f61cc98ac08 66 0f d7 d1 pmovmskb %xmm1 -> %edx  
0x00007f61cc98ac0c 81 ea ff ff 00 00 sub $0x0000ffff %edx -> %edx  
0x00007f61cc98ac12 0f 85 c8 13 00 00 jnz $0x00007f61cc98bfe0  
Actual: 7f61cc98bfe0 
Block 50: 
0x00007f61cc979de8 48 8b 44 24 30 mov 0x30(%rsp)[8byte] -> %rax  
0x00007f61cc979ded 89 d1 mov %edx -> %ecx  
0x00007f61cc979def 31 d2 xor %edx %edx -> %edx  
0x00007f61cc979df1 48 f7 f1 div %rcx %rdx %rax -> %rdx %rax  
0x00007f61cc979df4 48 8b 83 00 03 00 00 mov 0x00000300(%rbx)[8byte] -> %rax  
0x00007f61cc979dfb 8b 04 90 mov (%rax,%rdx,4)[4byte] -> %eax  
0x00007f61cc979dfe 85 c0 test %eax %eax  
0x00007f61cc979e00 0f 84 17 fa ff ff jz $0x00007f61cc97981d  
Actual: 7f61cc979e06 
Block 51: 
0x00007f61cc979e06 48 8b 93 08 03 00 00 mov 0x00000308(%rbx)[8byte] -> %rdx  
0x00007f61cc979e0d 48 8d b3 30 03 00 00 lea 0x00000330(%rbx) -> %rsi  
0x00007f61cc979e14 48 8d bb e0 02 00 00 lea 0x000002e0(%rbx) -> %rdi  
0x00007f61cc979e1b 44 89 7c 24 68 mov %r15d -> 0x68(%rsp)[4byte]  
0x00007f61cc979e20 48 89 ac 24 d0 00 00 mov %rbp -> 0x000000d0(%rsp)[8byte]  
0x00007f61cc979e28 4c 89 b4 24 e8 00 00 mov %r14 -> 0x000000e8(%rsp)[8byte]  
0x00007f61cc979e30 4c 89 64 24 70 mov %r12 -> 0x70(%rsp)[8byte]  
0x00007f61cc979e35 49 89 fe mov %rdi -> %r14  
0x00007f61cc979e38 4c 8d 1c 82 lea (%rdx,%rax,4) -> %r11  
0x00007f61cc979e3c 4c 89 6c 24 60 mov %r13 -> 0x60(%rsp)[8byte]  
0x00007f61cc979e41 4c 8b 7c 24 30 mov 0x30(%rsp)[8byte] -> %r15  
0x00007f61cc979e46 49 89 f4 mov %rsi -> %r12  
0x00007f61cc979e49 4c 89 dd mov %r11 -> %rbp  
0x00007f61cc979e4c eb 0f jmp $0x00007f61cc979e5d  
0x00007f61cc979e5d 8b 45 00 mov 0x00(%rbp)[4byte] -> %eax  
0x00007f61cc979e60 48 89 c2 mov %rax -> %rdx  
0x00007f61cc979e63 4c 31 f8 xor %r15 %rax -> %rax  
0x00007f61cc979e66 48 d1 e8 shr $0x0000000000000001 %rax -> %rax  
0x00007f61cc979e69 75 e5 jnz $0x00007f61cc979e50  
Actual: 7f61cc979e6b 
Block 52: 
0x00007f61cc979e6b 48 89 e8 mov %rbp -> %rax  
0x00007f61cc979e6e 48 2b 83 08 03 00 00 sub 0x00000308(%rbx)[8byte] %rax -> %rax  
0x00007f61cc979e75 ff 74 24 50 push 0x50(%rsp)[8byte] %rsp -> %rsp 0xfffffff8(%rsp)[8byte]  
0x00007f61cc979e79 ff 74 24 30 push 0x30(%rsp)[8byte] %rsp -> %rsp 0xfffffff8(%rsp)[8byte]  
0x00007f61cc979e7d 41 54 push %r12 %rsp -> %rsp 0xfffffff8(%rsp)[8byte]  
0x00007f61cc979e7f 41 56 push %r14 %rsp -> %rsp 0xfffffff8(%rsp)[8byte]  
0x00007f61cc979e81 ff 74 24 30 push 0x30(%rsp)[8byte] %rsp -> %rsp 0xfffffff8(%rsp)[8byte]  
0x00007f61cc979e85 48 c1 f8 02 sar $0x0000000000000002 %rax -> %rax  
0x00007f61cc979e89 50 push %rax %rsp -> %rsp 0xfffffff8(%rsp)[8byte]  
0x00007f61cc979e8a 89 c2 mov %eax -> %edx  
0x00007f61cc979e8c 41 89 c5 mov %eax -> %r13d  
0x00007f61cc979e8f 48 8b 44 24 48 mov 0x48(%rsp)[8byte] -> %rax  
0x00007f61cc979e94 48 8d 14 52 lea (%rdx,%rdx,2) -> %rdx  
0x00007f61cc979e98 44 8b 84 24 20 01 00 mov 0x00000120(%rsp)[4byte] -> %r8d  
0x00007f61cc979ea0 8b 8c 24 10 01 00 00 mov 0x00000110(%rsp)[4byte] -> %ecx  
0x00007f61cc979ea7 48 8b 74 24 50 mov 0x50(%rsp)[8byte] -> %rsi  
0x00007f61cc979eac 48 8b 7c 24 38 mov 0x38(%rsp)[8byte] -> %rdi  
0x00007f61cc979eb1 4c 8d 0c d0 lea (%rax,%rdx,8) -> %r9  
0x00007f61cc979eb5 48 8b 94 24 08 01 00 mov 0x00000108(%rsp)[8byte] -> %rdx  
0x00007f61cc979ebd e8 be f6 ff ff call $0x00007f61cc979580 %rsp -> %rsp 0xfffffff8(%rsp)[8byte]  
0x00007f61cc979580 41 0f b6 41 04 movzx 0x04(%r9)[1byte] -> %eax  
0x00007f61cc979585 83 e0 0f and $0x0000000f %eax -> %eax  
0x00007f61cc979588 49 83 79 08 00 cmp 0x08(%r9)[8byte] $0x0000000000000000  
0x00007f61cc97958d 75 08 jnz $0x00007f61cc979597  
Actual: 7f61cc979597 
Block 53: 
0x00007f61cc979597 45 31 d2 xor %r10d %r10d -> %r10d  
0x00007f61cc97959a 66 41 83 79 06 00 data16 cmp 0x06(%r9)[2byte] $0x0000  
0x00007f61cc9795a0 41 0f 94 c2 setz -> %r10l  
0x00007f61cc9795a4 45 85 c2 test %r10d %r8d  
0x00007f61cc9795a7 0f 85 1b 01 00 00 jnz $0x00007f61cc9796c8  
Actual: 7f61cc9795ad 
Block 55: 
0x00007f61cc9795bd 41 55 push %r13 %rsp -> %rsp 0xfffffff8(%rsp)[8byte]  
0x00007f61cc9795bf 41 54 push %r12 %rsp -> %rsp 0xfffffff8(%rsp)[8byte]  
0x00007f61cc9795c1 48 89 f0 mov %rsi -> %rax  
0x00007f61cc9795c4 55 push %rbp %rsp -> %rsp 0xfffffff8(%rsp)[8byte]  
0x00007f61cc9795c5 53 push %rbx %rsp -> %rsp 0xfffffff8(%rsp)[8byte]  
0x00007f61cc9795c6 41 89 cc mov %ecx -> %r12d  
0x00007f61cc9795c9 4c 89 cb mov %r9 -> %rbx  
0x00007f61cc9795cc 48 89 d5 mov %rdx -> %rbp  
0x00007f61cc9795cf 48 89 fe mov %rdi -> %rsi  
0x00007f61cc9795d2 48 83 ec 08 sub $0x0000000000000008 %rsp -> %rsp  
0x00007f61cc9795d6 49 39 c1 cmp %r9 %rax  
0x00007f61cc9795d9 74 18 jz $0x00007f61cc9795f3  
Actual: 7f61cc9795db 
Block 57: 
0x00007f61cc98ac18 48 83 c6 10 add $0x0000000000000010 %rsi -> %rsi  
0x00007f61cc98ac1c 48 83 c7 10 add $0x0000000000000010 %rdi -> %rdi  
0x00007f61cc98ac20 48 83 e6 f0 and $0xfffffffffffffff0 %rsi -> %rsi  
0x00007f61cc98ac24 48 83 e7 f0 and $0xfffffffffffffff0 %rdi -> %rdi  
0x00007f61cc98ac28 ba ff ff 00 00 mov $0x0000ffff -> %edx  
0x00007f61cc98ac2d 45 31 c0 xor %r8d %r8d -> %r8d  
0x00007f61cc98ac30 83 e1 0f and $0x0000000f %ecx -> %ecx  
0x00007f61cc98ac33 83 e0 0f and $0x0000000f %eax -> %eax  
0x00007f61cc98ac36 39 c1 cmp %ecx %eax  
0x00007f61cc98ac38 74 26 jz $0x00007f61cc98ac60  
Actual: 7f61cc98ac3a 
Block 58: 
0x00007f61cc9795eb 85 c0 test %eax %eax  
0x00007f61cc9795ed 0f 85 a2 00 00 00 jnz $0x00007f61cc979695  
Actual: 7f61cc9795f3 
Block 59: 
0x00007f61cc9795f3 48 8b 44 24 48 mov 0x48(%rsp)[8byte] -> %rax  
0x00007f61cc9795f8 48 85 ed test %rbp %rbp  
0x00007f61cc9795fb 48 8b 00 mov (%rax)[8byte] -> %rax  
0x00007f61cc9795fe 74 50 jz $0x00007f61cc979650  
Actual: 7f61cc979600 
Block 60: 
0x00007f61cc979600 48 85 c0 test %rax %rax  
0x00007f61cc979603 74 3d jz $0x00007f61cc979642  
Actual: 7f61cc979605 
Block 61: 
0x00007f61cc979605 8b 54 24 30 mov 0x30(%rsp)[4byte] -> %edx  
0x00007f61cc979609 44 0f b7 2c 50 movzx (%rax,%rdx,2)[2byte] -> %r13d  
0x00007f61cc97960e 4c 89 e8 mov %r13 -> %rax  
0x00007f61cc979611 25 ff 7f 00 00 and $0x00007fff %eax -> %eax  
0x00007f61cc979616 48 8d 14 40 lea (%rax,%rax,2) -> %rdx  
0x00007f61cc97961a 48 8b 44 24 40 mov 0x40(%rsp)[8byte] -> %rax  
0x00007f61cc97961f 48 8b 00 mov (%rax)[8byte] -> %rax  
0x00007f61cc979622 48 8d 04 d0 lea (%rax,%rdx,8) -> %rax  
0x00007f61cc979626 44 8b 60 08 mov 0x08(%rax)[4byte] -> %r12d  
0x00007f61cc97962a 44 3b 65 08 cmp %r12d 0x08(%rbp)[4byte]  
0x00007f61cc97962e 74 78 jz $0x00007f61cc9796a8  
Actual: 7f61cc9796a8 
Block 63: 
0x00007f61cc98bd40 66 0f ef c0 pxor %xmm0 %xmm0 -> %xmm0  
0x00007f61cc98bd44 66 0f 6f 17 movdqa (%rdi)[16byte] -> %xmm2  
0x00007f61cc98bd48 66 0f 6f 0e movdqa (%rsi)[16byte] -> %xmm1  
0x00007f61cc98bd4c 66 0f 74 c1 pcmpeqb %xmm1 %xmm0 -> %xmm0  
0x00007f61cc98bd50 66 0f 73 fa 02 pslldq $0x02 %xmm2 -> %xmm2  
0x00007f61cc98bd55 66 0f 74 d1 pcmpeqb %xmm1 %xmm2 -> %xmm2  
0x00007f61cc98bd59 66 0f f8 d0 psubb %xmm0 %xmm2 -> %xmm2  
0x00007f61cc98bd5d 66 44 0f d7 ca pmovmskb %xmm2 -> %r9d  
0x00007f61cc98bd62 d3 ea shr %cl %edx -> %edx  
0x00007f61cc98bd64 41 d3 e9 shr %cl %r9d -> %r9d  
0x00007f61cc98bd67 44 29 ca sub %r9d %edx -> %edx  
0x00007f61cc98bd6a 0f 85 55 02 00 00 jnz $0x00007f61cc98bfc5  
Actual: 7f61cc98bd70 
Block 65: 
0x00007f61cc98bdaa 66 0f 6f 0c 0e movdqa (%rsi,%rcx,1)[16byte] -> %xmm1  
0x00007f61cc98bdaf 66 0f 6f 14 0f movdqa (%rdi,%rcx,1)[16byte] -> %xmm2  
0x00007f61cc98bdb4 66 0f 6f e2 movdqa %xmm2 -> %xmm4  
0x00007f61cc98bdb8 66 0f 73 db 0e psrldq $0x0e %xmm3 -> %xmm3  
0x00007f61cc98bdbd 66 0f 73 fa 02 pslldq $0x02 %xmm2 -> %xmm2  
0x00007f61cc98bdc2 66 0f eb d3 por %xmm3 %xmm2 -> %xmm2  
0x00007f61cc98bdc6 66 0f 74 c1 pcmpeqb %xmm1 %xmm0 -> %xmm0  
0x00007f61cc98bdca 66 0f 74 ca pcmpeqb %xmm2 %xmm1 -> %xmm1  
0x00007f61cc98bdce 66 0f f8 c8 psubb %xmm0 %xmm1 -> %xmm1  
0x00007f61cc98bdd2 66 0f d7 d1 pmovmskb %xmm1 -> %edx  
0x00007f61cc98bdd6 81 ea ff ff 00 00 sub $0x0000ffff %edx -> %edx  
0x00007f61cc98bddc 0f 85 de 01 00 00 jnz $0x00007f61cc98bfc0  
Actual: 7f61cc98bfc0 
Block 66: 
0x00007f61cc98bfc0 49 8d 44 09 f0 lea 0xfffffff0(%r9,%rcx,1) -> %rax  
0x00007f61cc98bfc5 48 8d 3c 07 lea (%rdi,%rax,1) -> %rdi  
0x00007f61cc98bfc9 48 8d 34 0e lea (%rsi,%rcx,1) -> %rsi  
0x00007f61cc98bfcd 45 85 c0 test %r8d %r8d  
0x00007f61cc98bfd0 74 0e jz $0x00007f61cc98bfe0  
Actual: 7f61cc98bfd2 
Block 67: 
0x00007f61cc9796b4 89 c2 mov %eax -> %edx  
0x00007f61cc9796b6 48 89 d8 mov %rbx -> %rax  
0x00007f61cc9796b9 85 d2 test %edx %edx  
0x00007f61cc9796bb 74 88 jz $0x00007f61cc979645  
Actual: 7f61cc979645 
Block 69: 
0x00007f61cc979ec2 48 83 c4 30 add $0x0000000000000030 %rsp -> %rsp  
0x00007f61cc979ec6 48 85 c0 test %rax %rax  
0x00007f61cc979ec9 0f 85 c1 02 00 00 jnz $0x00007f61cc97a190  
Actual: 7f61cc97a190 
Block 70: 
0x00007f61cc97a190 45 89 ea mov %r13d -> %r10d  
0x00007f61cc97a193 49 89 c0 mov %rax -> %r8  
0x00007f61cc97a196 44 8b 7c 24 68 mov 0x68(%rsp)[4byte] -> %r15d  
0x00007f61cc97a19b 4c 8b 6c 24 60 mov 0x60(%rsp)[8byte] -> %r13  
0x00007f61cc97a1a0 48 8b ac 24 d0 00 00 mov 0x000000d0(%rsp)[8byte] -> %rbp  
0x00007f61cc97a1a8 4c 8b b4 24 e8 00 00 mov 0x000000e8(%rsp)[8byte] -> %r14  
0x00007f61cc97a1b0 4c 8b 64 24 70 mov 0x70(%rsp)[8byte] -> %r12  
0x00007f61cc97a1b5 e9 16 f8 ff ff jmp $0x00007f61cc9799d0  
0x00007f61cc9799d0 48 83 bc 24 f8 00 00 cmp 0x000000f8(%rsp)[8byte] $0x0000000000000000  
00 00 
0x00007f61cc9799d9 0f 84 e1 02 00 00 jz $0x00007f61cc979cc0  
Actual: 7f61cc9799df 
Block 71: 
0x00007f61cc9799df 41 0f b6 40 04 movzx 0x04(%r8)[1byte] -> %eax  
0x00007f61cc9799e4 c0 e8 04 shr $0x04 %al -> %al  
0x00007f61cc9799e7 3c 02 cmp %al $0x02  
0x00007f61cc9799e9 74 15 jz $0x00007f61cc979a00  
Actual: 7f61cc9799eb 
Block 72: 
0x00007f61cc9799eb 3c 0a cmp %al $0x0a  
0x00007f61cc9799ed 74 39 jz $0x00007f61cc979a28  
Actual: 7f61cc9799ef 
Block 73: 
0x00007f61cc9799ef 3c 01 cmp %al $0x01  
0x00007f61cc9799f1 74 1b jz $0x00007f61cc979a0e  
Actual: 7f61cc979a0e 
Block 76: 
0x00007f61cc97a34b 48 83 bd 70 ff ff ff cmp 0xffffff70(%rbp)[8byte] $0x0000000000000000  
0x00007f61cc97a353 48 8b 9d 58 ff ff ff mov 0xffffff58(%rbp)[8byte] -> %rbx  
0x00007f61cc97a35a 0f 84 a6 01 00 00 jz $0x00007f61cc97a506  
Actual: 7f61cc97a360 
Block 77: 
0x00007f61cc97a360 49 8b 0c 24 mov (%r12)[8byte] -> %rcx  
0x00007f61cc97a364 48 85 c9 test %rcx %rcx  
0x00007f61cc97a367 74 0b jz $0x00007f61cc97a374  
Actual: 7f61cc97a369 
Block 78: 
0x00007f61cc97a369 0f b6 41 05 movzx 0x05(%rcx)[1byte] -> %eax  
0x00007f61cc97a36d 83 e0 03 and $0x00000003 %eax -> %eax  
0x00007f61cc97a370 3c 03 cmp %al $0x03  
0x00007f61cc97a372 74 5c jz $0x00007f61cc97a3d0  
Actual: 7f61cc97a374 
Block 79: 
0x00007f61cc97a374 4c 8b ad 78 ff ff ff mov 0xffffff78(%rbp)[8byte] -> %r13  
0x00007f61cc97a37b 31 db xor %ebx %ebx -> %ebx  
0x00007f61cc97a37d 41 0f b6 85 14 03 00 movzx 0x00000314(%r13)[1byte] -> %eax  
0x00007f61cc97a385 83 e0 03 and $0x00000003 %eax -> %eax  
0x00007f61cc97a388 3c 02 cmp %al $0x02  
0x00007f61cc97a38a 0f 84 92 03 00 00 jz $0x00007f61cc97a722  
Actual: 7f61cc97a390 
Block 80: 
0x00007f61cc97a390 41 8b bd cc 03 00 00 mov 0x000003cc(%r13)[4byte] -> %edi  
0x00007f61cc97a397 85 ff test %edi %edi  
0x00007f61cc97a399 0f 84 f5 03 00 00 jz $0x00007f61cc97a794  
Actual: 7f61cc97a39f 
Block 81: 
0x00007f61cc97a39f 8b 05 db 98 21 00 mov <rel> 0x00007f61ccb93c80[4byte] -> %eax  
0x00007f61cc97a3a5 a9 04 08 00 00 test %eax $0x00000804  
0x00007f61cc97a3aa 0f 85 8d 01 00 00 jnz $0x00007f61cc97a53d  
Actual: 7f61cc97a3b0 
Block 83: 
0x00007f61cc97f1e3 49 89 c0 mov %rax -> %r8  
0x00007f61cc97f1e6 64 8b 04 25 18 00 00 mov %fs:0x18[4byte] -> %eax  
0x00007f61cc97f1ee 85 c0 test %eax %eax  
0x00007f61cc97f1f0 59 pop %rsp (%rsp)[8byte] -> %rcx %rsp  
0x00007f61cc97f1f1 5e pop %rsp (%rsp)[8byte] -> %rsi %rsp  
0x00007f61cc97f1f2 75 7c jnz $0x00007f61cc97f270  
Actual: 7f61cc97f1f4 
Block 84: 
0x00007f61cc97f1f4 48 8b 74 24 08 mov 0x08(%rsp)[8byte] -> %rsi  
0x00007f61cc97f1f9 48 85 f6 test %rsi %rsi  
0x00007f61cc97f1fc 74 42 jz $0x00007f61cc97f240  
Actual: 7f61cc97f1fe 
Block 85: 
0x00007f61cc97f1fe 4d 85 c0 test %r8 %r8  
0x00007f61cc97f201 74 45 jz $0x00007f61cc97f248  
Actual: 7f61cc97f203 
Block 86: 
0x00007f61cc97f203 49 8b 00 mov (%r8)[8byte] -> %rax  
0x00007f61cc97f206 0f b6 56 04 movzx 0x04(%rsi)[1byte] -> %edx  
0x00007f61cc97f20a 48 03 46 08 add 0x08(%rsi)[8byte] %rax -> %rax  
0x00007f61cc97f20e 83 e2 0f and $0x0000000f %edx -> %edx  
0x00007f61cc97f211 80 fa 0a cmp %dl $0x0a  
0x00007f61cc97f214 0f 84 96 00 00 00 jz $0x00007f61cc97f2b0  
Actual: 7f61cc97f21a 
Block 87: 
0x00007f61cc97f21a 8b 15 a8 4a 21 00 mov <rel> 0x00007f61ccb93cc8[4byte] -> %edx  
0x00007f61cc97f220 85 d2 test %edx %edx  
0x00007f61cc97f222 75 03 jnz $0x00007f61cc97f227  
Actual: 7f61cc97f224 
Block 90: 
0x00007f61cc1a2640 41 56 push %r14 %rsp -> %rsp 0xfffffff8(%rsp)[8byte]  
0x00007f61cc1a2642 41 55 push %r13 %rsp -> %rsp 0xfffffff8(%rsp)[8byte]  
0x00007f61cc1a2644 41 54 push %r12 %rsp -> %rsp 0xfffffff8(%rsp)[8byte]  
0x00007f61cc1a2646 55 push %rbp %rsp -> %rsp 0xfffffff8(%rsp)[8byte]  
0x00007f61cc1a2647 48 89 cd mov %rcx -> %rbp  
0x00007f61cc1a264a 53 push %rbx %rsp -> %rsp 0xfffffff8(%rsp)[8byte]  
0x00007f61cc1a264b 48 81 ec 90 00 00 00 sub $0x0000000000000090 %rsp -> %rsp  
0x00007f61cc1a2652 48 8b 05 47 b7 39 00 mov <rel> 0x00007f61cc53dda0[8byte] -> %rax  
0x00007f61cc1a2659 48 89 7c 24 18 mov %rdi -> 0x18(%rsp)[8byte]  
0x00007f61cc1a265e 89 74 24 14 mov %esi -> 0x14(%rsp)[4byte]  
0x00007f61cc1a2662 48 89 54 24 08 mov %rdx -> 0x08(%rsp)[8byte]  
0x00007f61cc1a2667 48 85 c0 test %rax %rax  
0x00007f61cc1a266a 0f 84 c8 00 00 00 jz $0x00007f61cc1a2738  
Actual: 7f61cc1a2670 
Block 91: 
0x00007f61cc1a2670 8b 00 mov (%rax)[4byte] -> %eax  
0x00007f61cc1a2672 85 c0 test %eax %eax  
0x00007f61cc1a2674 0f 94 c0 setz -> %al  
0x00007f61cc1a2677 48 8d 15 e2 b9 39 00 lea <rel> 0x00007f61cc53e060 -> %rdx  
0x00007f61cc1a267e 0f b6 c0 movzx %al -> %eax  
0x00007f61cc1a2681 4d 85 c9 test %r9 %r9  
0x00007f61cc1a2684 89 02 mov %eax -> (%rdx)[4byte]  
0x00007f61cc1a2686 74 0c jz $0x00007f61cc1a2694  
Actual: 7f61cc1a2688 
Block 92: 
0x00007f61cc1a2688 31 d2 xor %edx %edx -> %edx  
0x00007f61cc1a268a 31 f6 xor %esi %esi -> %esi  
0x00007f61cc1a268c 4c 89 cf mov %r9 -> %rdi  
0x00007f61cc1a268f e8 bc 8d 01 00 call $0x00007f61cc1bb450 %rsp -> %rsp 0xfffffff8(%rsp)[8byte]  
0x00007f61cc1bb450 41 54 push %r12 %rsp -> %rsp 0xfffffff8(%rsp)[8byte]  
0x00007f61cc1bb452 55 push %rbp %rsp -> %rsp 0xfffffff8(%rsp)[8byte]  
0x00007f61cc1bb453 49 89 f4 mov %rsi -> %r12  
0x00007f61cc1bb456 53 push %rbx %rsp -> %rsp 0xfffffff8(%rsp)[8byte]  
0x00007f61cc1bb457 48 89 fb mov %rdi -> %rbx  
0x00007f61cc1bb45a 48 8d 3d 77 31 38 00 lea <rel> 0x00007f61cc53e5d8 -> %rdi  
0x00007f61cc1bb461 48 89 d5 mov %rdx -> %rbp  
0x00007f61cc1bb464 e8 27 fe ff ff call $0x00007f61cc1bb290 %rsp -> %rsp 0xfffffff8(%rsp)[8byte]  
0x00007f61cc1bb290 55 push %rbp %rsp -> %rsp 0xfffffff8(%rsp)[8byte]  
0x00007f61cc1bb291 53 push %rbx %rsp -> %rsp 0xfffffff8(%rsp)[8byte]  
0x00007f61cc1bb292 49 89 f8 mov %rdi -> %r8  
0x00007f61cc1bb295 be 01 00 00 00 mov $0x00000001 -> %esi  
0x00007f61cc1bb29a 31 c0 xor %eax %eax -> %eax  
0x00007f61cc1bb29c 48 83 ec 08 sub $0x0000000000000008 %rsp -> %rsp  
0x00007f61cc1bb2a0 83 3d 59 84 38 00 00 cmp <rel> 0x00007f61cc543700[4byte] $0x00000000  
0x00007f61cc1bb2a7 74 0c jz $0x00007f61cc1bb2b5  
Actual: 7f61cc1bb2b5 
Block 93: 
0x00007f61cc1bb2b5 0f b1 35 74 4d 38 00 cmpxchg %esi <rel> 0x00007f61cc540030[4byte] %eax -> <rel> 0x00007f61cc540030[4byte] %eax  
0x00007f61cc1bb2bc 74 1a jz $0x00007f61cc1bb2d8  
Actual: 7f61cc1bb2d8 
Block 94: 
0x00007f61cc1bb2d8 49 8b 18 mov (%r8)[8byte] -> %rbx  
0x00007f61cc1bb2db 31 ff xor %edi %edi -> %edi  
0x00007f61cc1bb2dd 48 85 db test %rbx %rbx  
0x00007f61cc1bb2e0 48 89 d8 mov %rbx -> %rax  
0x00007f61cc1bb2e3 0f 84 ee 00 00 00 jz $0x00007f61cc1bb3d7  
Actual: 7f61cc1bb2e9 
Block 95: 
0x00007f61cc1bb2e9 0f 1f 80 00 00 00 00 nop 0x00000000(%rax)[4byte]  
0x00007f61cc1bb2f0 48 8b 48 08 mov 0x08(%rax)[8byte] -> %rcx  
0x00007f61cc1bb2f4 48 85 c9 test %rcx %rcx  
0x00007f61cc1bb2f7 74 3e jz $0x00007f61cc1bb337  
Actual: 7f61cc1bb337 
Block 96: 
0x00007f61cc1bb337 48 8b 10 mov (%rax)[8byte] -> %rdx  
0x00007f61cc1bb33a 48 c7 40 08 00 00 00 mov $0x0000000000000000 -> 0x08(%rax)[8byte]  
0x00007f61cc1bb342 48 89 c7 mov %rax -> %rdi  
0x00007f61cc1bb345 48 85 d2 test %rdx %rdx  
0x00007f61cc1bb348 74 7f jz $0x00007f61cc1bb3c9  
Actual: 7f61cc1bb3c9 
Block 97: 
0x00007f61cc1bb3c9 48 8d 70 10 lea 0x10(%rax) -> %rsi  
0x00007f61cc1bb3cd 48 c7 40 08 01 00 00 mov $0x0000000000000001 -> 0x08(%rax)[8byte]  
0x00007f61cc1bb3d5 eb 9b jmp $0x00007f61cc1bb372  
0x00007f61cc1bb372 48 c7 06 01 00 00 00 mov $0x0000000000000001 -> (%rsi)[8byte]  
0x00007f61cc1bb379 48 83 05 7f 80 38 00 add $0x0000000000000001 <rel> 0x00007f61cc543400[8byte] -> <rel> 0x00007f61cc543400[8byte]  
0x00007f61cc1bb381 83 3d 78 83 38 00 00 cmp <rel> 0x00007f61cc543700[4byte] $0x00000000  
0x00007f61cc1bb388 74 0b jz $0x00007f61cc1bb395  
Actual: 7f61cc1bb395 
Block 98: 
0x00007f61cc1bb395 ff 0d 95 4c 38 00 dec <rel> 0x00007f61cc540030[4byte] -> <rel> 0x00007f61cc540030[4byte]  
0x00007f61cc1bb39b 74 1a jz $0x00007f61cc1bb3b7  
Actual: 7f61cc1bb3b7 
Block 100: 
0x00007f61cc1bb469 48 85 c0 test %rax %rax  
0x00007f61cc1bb46c 74 2a jz $0x00007f61cc1bb498  
Actual: 7f61cc1bb46e 
Block 102: 
0x00007f61cc1a2694 48 8b 15 c5 b7 39 00 mov <rel> 0x00007f61cc53de60[8byte] -> %rdx  
0x00007f61cc1a269b 8b 1a mov (%rdx)[4byte] -> %ebx  
0x00007f61cc1a269d 83 e3 02 and $0x00000002 %ebx -> %ebx  
0x00007f61cc1a26a0 0f 85 d1 00 00 00 jnz $0x00007f61cc1a2777  
Actual: 7f61cc1a26a6 
Block 103: 
0x00007f61cc1a26a6 48 85 ed test %rbp %rbp  
0x00007f61cc1a26a9 74 15 jz $0x00007f61cc1a26c0  
Actual: 7f61cc1a26ab 
Block 105: 
0x000000000040bbb0 41 57 push %r15 %rsp -> %rsp 0xfffffff8(%rsp)[8byte]  
0x000000000040bbb2 41 56 push %r14 %rsp -> %rsp 0xfffffff8(%rsp)[8byte]  
0x000000000040bbb4 41 89 ff mov %edi -> %r15d  
0x000000000040bbb7 41 55 push %r13 %rsp -> %rsp 0xfffffff8(%rsp)[8byte]  
0x000000000040bbb9 41 54 push %r12 %rsp -> %rsp 0xfffffff8(%rsp)[8byte]  
0x000000000040bbbb 4c 8d 25 4e 32 20 00 lea <rel> 0x000000000060ee10 -> %r12  
0x000000000040bbc2 55 push %rbp %rsp -> %rsp 0xfffffff8(%rsp)[8byte]  
0x000000000040bbc3 48 8d 2d 4e 32 20 00 lea <rel> 0x000000000060ee18 -> %rbp  
0x000000000040bbca 53 push %rbx %rsp -> %rsp 0xfffffff8(%rsp)[8byte]  
0x000000000040bbcb 49 89 f6 mov %rsi -> %r14  
0x000000000040bbce 49 89 d5 mov %rdx -> %r13  
0x000000000040bbd1 4c 29 e5 sub %r12 %rbp -> %rbp  
0x000000000040bbd4 48 83 ec 08 sub $0x0000000000000008 %rsp -> %rsp  
0x000000000040bbd8 48 c1 fd 03 sar $0x0000000000000003 %rbp -> %rbp  
0x000000000040bbdc e8 67 4c ff ff call $0x0000000000400848 %rsp -> %rsp 0xfffffff8(%rsp)[8byte]  
0x0000000000400848 48 83 ec 08 sub $0x0000000000000008 %rsp -> %rsp  
0x000000000040084c 48 8b 05 a5 e7 20 00 mov <rel> 0x000000000060eff8[8byte] -> %rax  
0x0000000000400853 48 85 c0 test %rax %rax  
0x0000000000400856 74 05 jz $0x000000000040085d  
Actual: 40085d 
Block 107: 
0x000000000040bbe1 48 85 ed test %rbp %rbp  
0x000000000040bbe4 74 20 jz $0x000000000040bc06  
Actual: 40bbe6 
Block 109: 
0x0000000000400b00 bf 20 ee 60 00 mov $0x0060ee20 -> %edi  
0x0000000000400b05 48 83 3f 00 cmp (%rdi)[8byte] $0x0000000000000000  
0x0000000000400b09 75 05 jnz $0x0000000000400b10  
Actual: 400b0b 
Block 110: 
0x0000000000400b0b eb 93 jmp $0x0000000000400aa0  
0x0000000000400aa0 be e0 fc 60 00 mov $0x0060fce0 -> %esi  
0x0000000000400aa5 55 push %rbp %rsp -> %rsp 0xfffffff8(%rsp)[8byte]  
0x0000000000400aa6 48 81 ee e0 fc 60 00 sub $0x000000000060fce0 %rsi -> %rsi  
0x0000000000400aad 48 c1 fe 03 sar $0x0000000000000003 %rsi -> %rsi  
0x0000000000400ab1 48 89 e5 mov %rsp -> %rbp  
0x0000000000400ab4 48 89 f0 mov %rsi -> %rax  
0x0000000000400ab7 48 c1 e8 3f shr $0x000000000000003f %rax -> %rax  
0x0000000000400abb 48 01 c6 add %rax %rsi -> %rsi  
0x0000000000400abe 48 d1 fe sar $0x0000000000000001 %rsi -> %rsi  
0x0000000000400ac1 74 15 jz $0x0000000000400ad8  
Actual: 400ad8 
Block 112: 
0x000000000040bbfd 48 83 c3 01 add $0x0000000000000001 %rbx -> %rbx  
0x000000000040bc01 48 39 dd cmp %rbp %rbx  
0x000000000040bc04 75 ea jnz $0x000000000040bbf0  
Actual: 40bc06 
Block 114: 
0x00007f61cc1a26c0 48 8b 05 99 b7 39 00 mov <rel> 0x00007f61cc53de60[8byte] -> %rax  
0x00007f61cc1a26c7 44 8b b0 68 01 00 00 mov 0x00000168(%rax)[4byte] -> %r14d  
0x00007f61cc1a26ce 45 85 f6 test %r14d %r14d  
0x00007f61cc1a26d1 0f 85 f4 00 00 00 jnz $0x00007f61cc1a27cb  
Actual: 7f61cc1a26d7 
Block 115: 
0x00007f61cc1a26d7 85 db test %ebx %ebx  
0x00007f61cc1a26d9 0f 85 c9 00 00 00 jnz $0x00007f61cc1a27a8  
Actual: 7f61cc1a26df 
Block 116: 
0x00007f61cc1a26df 48 8d 7c 24 20 lea 0x20(%rsp) -> %rdi  
0x00007f61cc1a26e4 e8 47 3e 01 00 call $0x00007f61cc1b6530 %rsp -> %rsp 0xfffffff8(%rsp)[8byte]  
0x00007f61cc1b6530 31 f6 xor %esi %esi -> %esi  
0x00007f61cc1b6532 e9 59 ff ff ff jmp $0x00007f61cc1b6490  
0x00007f61cc1b6490 48 89 1f mov %rbx -> (%rdi)[8byte]  
0x00007f61cc1b6493 48 89 e8 mov %rbp -> %rax  
0x00007f61cc1b6496 64 48 33 04 25 30 00 xor %fs:0x30[8byte] %rax -> %rax  
00 00 
0x00007f61cc1b649f 48 c1 c0 11 rol $0x0000000000000011 %rax -> %rax  
0x00007f61cc1b64a3 48 89 47 08 mov %rax -> 0x08(%rdi)[8byte]  
0x00007f61cc1b64a7 4c 89 67 10 mov %r12 -> 0x10(%rdi)[8byte]  
0x00007f61cc1b64ab 4c 89 6f 18 mov %r13 -> 0x18(%rdi)[8byte]  
0x00007f61cc1b64af 4c 89 77 20 mov %r14 -> 0x20(%rdi)[8byte]  
0x00007f61cc1b64b3 4c 89 7f 28 mov %r15 -> 0x28(%rdi)[8byte]  
0x00007f61cc1b64b7 48 8d 54 24 08 lea 0x08(%rsp) -> %rdx  
0x00007f61cc1b64bc 64 48 33 14 25 30 00 xor %fs:0x30[8byte] %rdx -> %rdx  
00 00 
0x00007f61cc1b64c5 48 c1 c2 11 rol $0x0000000000000011 %rdx -> %rdx  
0x00007f61cc1b64c9 48 89 57 30 mov %rdx -> 0x30(%rdi)[8byte]  
0x00007f61cc1b64cd 48 8b 04 24 mov (%rsp)[8byte] -> %rax  
0x00007f61cc1b64d1 90 nop  
0x00007f61cc1b64d2 64 48 33 04 25 30 00 xor %fs:0x30[8byte] %rax -> %rax  
00 00 
0x00007f61cc1b64db 48 c1 c0 11 rol $0x0000000000000011 %rax -> %rax  
0x00007f61cc1b64df 48 89 47 38 mov %rax -> 0x38(%rdi)[8byte]  
0x00007f61cc1b64e3 e9 08 00 00 00 jmp $0x00007f61cc1b64f0  
0x00007f61cc1b64f0 85 f6 test %esi %esi  
0x00007f61cc1b64f2 53 push %rbx %rsp -> %rsp 0xfffffff8(%rsp)[8byte]  
0x00007f61cc1b64f3 48 89 fb mov %rdi -> %rbx  
0x00007f61cc1b64f6 74 15 jz $0x00007f61cc1b650d  
Actual: 7f61cc1b650d 
Block 118: 
0x00007f61cc1a26e9 85 c0 test %eax %eax  
0x00007f61cc1a26eb 75 52 jnz $0x00007f61cc1a273f  
Actual: 7f61cc1a26ed 
Block 122: 
0x00007f61cc979e50 48 83 c5 04 add $0x0000000000000004 %rbp -> %rbp  
0x00007f61cc979e54 83 e2 01 and $0x00000001 %edx -> %edx  
0x00007f61cc979e57 0f 85 93 00 00 00 jnz $0x00007f61cc979ef0  
Actual: 7f61cc979e5d 
Block 123: 
0x00007f61cc979e5d 8b 45 00 mov 0x00(%rbp)[4byte] -> %eax  
0x00007f61cc979e60 48 89 c2 mov %rax -> %rdx  
0x00007f61cc979e63 4c 31 f8 xor %r15 %rax -> %rax  
0x00007f61cc979e66 48 d1 e8 shr $0x0000000000000001 %rax -> %rax  
0x00007f61cc979e69 75 e5 jnz $0x00007f61cc979e50  
Actual: 7f61cc979e6b 
Block 124: 
0x00007f61cc979a00 8b 05 c6 a2 21 00 mov <rel> 0x00007f61ccb93ccc[4byte] -> %eax  
0x00007f61cc979a06 85 c0 test %eax %eax  
0x00007f61cc979a08 0f 85 3a 06 00 00 jnz $0x00007f61cc97a048  
Actual: 7f61cc979a0e 
Block 126: 
0x00007f61cc239f30 48 83 ec 28 sub $0x0000000000000028 %rsp -> %rsp  
0x00007f61cc239f34 48 8d 05 cd 07 0d 00 lea <rel> 0x00007f61cc30a708 -> %rax  
0x00007f61cc239f3b 48 8d 3d 63 1c 0d 00 lea <rel> 0x00007f61cc30bba5 -> %rdi  
0x00007f61cc239f42 48 89 e6 mov %rsp -> %rsi  
0x00007f61cc239f45 c7 44 24 0c 01 00 00 mov $0x00000001 -> 0x0c(%rsp)[4byte]  
0x00007f61cc239f4d c7 44 24 08 f6 75 ae mov $0x03ae75f6 -> 0x08(%rsp)[4byte]  
0x00007f61cc239f55 48 89 04 24 mov %rax -> (%rsp)[8byte]  
0x00007f61cc239f59 48 c7 44 24 10 00 00 mov $0x0000000000000000 -> 0x10(%rsp)[8byte]  
00 00 
0x00007f61cc239f62 e8 c9 80 08 00 call $0x00007f61cc2c2030 %rsp -> %rsp 0xfffffff8(%rsp)[8byte]  
0x00007f61cc2c2030 4c 8b 15 29 be 27 00 mov <rel> 0x00007f61cc53de60[8byte] -> %r10  
0x00007f61cc2c2037 49 8b 82 00 01 00 00 mov 0x00000100(%r10)[8byte] -> %rax  
0x00007f61cc2c203e 48 85 c0 test %rax %rax  
0x00007f61cc2c2041 0f 84 81 00 00 00 jz $0x00007f61cc2c20c8  
Actual: 7f61cc2c2047 
Block 128: 
0x00007f61cc97a200 55 push %rbp %rsp -> %rsp 0xfffffff8(%rsp)[8byte]  
0x00007f61cc97a201 48 89 e5 mov %rsp -> %rbp  
0x00007f61cc97a204 41 57 push %r15 %rsp -> %rsp 0xfffffff8(%rsp)[8byte]  
0x00007f61cc97a206 41 56 push %r14 %rsp -> %rsp 0xfffffff8(%rsp)[8byte]  
0x00007f61cc97a208 41 55 push %r13 %rsp -> %rsp 0xfffffff8(%rsp)[8byte]  
0x00007f61cc97a20a 41 54 push %r12 %rsp -> %rsp 0xfffffff8(%rsp)[8byte]  
0x00007f61cc97a20c 49 89 d4 mov %rdx -> %r12  
0x00007f61cc97a20f 53 push %rbx %rsp -> %rsp 0xfffffff8(%rsp)[8byte]  
0x00007f61cc97a210 49 89 f6 mov %rsi -> %r14  
0x00007f61cc97a213 48 81 ec c8 00 00 00 sub $0x00000000000000c8 %rsp -> %rsp  
0x00007f61cc97a21a 0f b6 17 movzx (%rdi)[1byte] -> %edx  
0x00007f61cc97a21d 48 89 bd 50 ff ff ff mov %rdi -> 0xffffff50(%rbp)[8byte]  
0x00007f61cc97a224 48 89 8d 28 ff ff ff mov %rcx -> 0xffffff28(%rbp)[8byte]  
0x00007f61cc97a22b 4c 89 85 38 ff ff ff mov %r8 -> 0xffffff38(%rbp)[8byte]  
0x00007f61cc97a232 44 89 8d 44 ff ff ff mov %r9d -> 0xffffff44(%rbp)[4byte]  
0x00007f61cc97a239 4c 8b 7d 18 mov 0x18(%rbp)[8byte] -> %r15  
0x00007f61cc97a23d 84 d2 test %dl %dl  
0x00007f61cc97a23f 0f 84 ee 02 00 00 jz $0x00007f61cc97a533  
Actual: 7f61cc97a245 
Block 129: 
0x00007f61cc2c2095 48 8b 54 24 18 mov 0x18(%rsp)[8byte] -> %rdx  
0x00007f61cc2c209a 59 pop %rsp (%rsp)[8byte] -> %rcx %rsp  
0x00007f61cc2c209b 5e pop %rsp (%rsp)[8byte] -> %rsi %rsp  
0x00007f61cc2c209c 48 85 d2 test %rdx %rdx  
0x00007f61cc2c209f 74 17 jz $0x00007f61cc2c20b8  
Actual: 7f61cc2c20a1 
Block 130: 
0x00007f61cc2c20a1 48 85 c0 test %rax %rax  
0x00007f61cc2c20a4 74 1a jz $0x00007f61cc2c20c0  
Actual: 7f61cc2c20a6 
Block 133: 
0x00007f61cc97f2b2 e9 63 ff ff ff jmp $0x00007f61cc97f21a  
0x00007f61cc97f21a 8b 15 a8 4a 21 00 mov <rel> 0x00007f61ccb93cc8[4byte] -> %edx  
0x00007f61cc97f220 85 d2 test %edx %edx  
0x00007f61cc97f222 75 03 jnz $0x00007f61cc97f227  
Actual: 7f61cc97f224 
Block 134: 
0x00007ffe2cfe2cb0 55 push %rbp %rsp -> %rsp 0xfffffff8(%rsp)[8byte]  
0x00007ffe2cfe2cb1 48 89 e5 mov %rsp -> %rbp  
0x00007ffe2cfe2cb4 41 57 push %r15 %rsp -> %rsp 0xfffffff8(%rsp)[8byte]  
0x00007ffe2cfe2cb6 41 56 push %r14 %rsp -> %rsp 0xfffffff8(%rsp)[8byte]  
0x00007ffe2cfe2cb8 41 55 push %r13 %rsp -> %rsp 0xfffffff8(%rsp)[8byte]  
0x00007ffe2cfe2cba 41 54 push %r12 %rsp -> %rsp 0xfffffff8(%rsp)[8byte]  
0x00007ffe2cfe2cbc 53 push %rbx %rsp -> %rsp 0xfffffff8(%rsp)[8byte]  
0x00007ffe2cfe2cbd 48 83 ec 10 sub $0x0000000000000010 %rsp -> %rsp  
0x00007ffe2cfe2cc1 48 85 ff test %rdi %rdi  
0x00007ffe2cfe2cc4 0f 84 bf 00 00 00 jz $0x00007ffe2cfe2d89  
Actual: 7ffe2cfe2cca 
Block 135: 
0x00007ffe2cfe2cca 4c 8d 35 af d3 ff ff lea <rel> 0x00007ffe2cfe0080 -> %r14  
0x00007ffe2cfe2cd1 4c 8d 7d d4 lea 0xffffffd4(%rbp) -> %r15  
0x00007ffe2cfe2cd5 49 89 fc mov %rdi -> %r12  
0x00007ffe2cfe2cd8 45 8b 2e mov (%r14)[4byte] -> %r13d  
0x00007ffe2cfe2cdb 41 f6 c5 01 test %r13l $0x01  
0x00007ffe2cfe2cdf 0f 85 f6 00 00 00 jnz $0x00007ffe2cfe2ddb  
Actual: 7ffe2cfe2ce5 
Block 136: 
0x00007ffe2cfe2ce5 8b 05 99 d3 ff ff mov <rel> 0x00007ffe2cfe0084[4byte] -> %eax  
0x00007ffe2cfe2ceb 89 45 d4 mov %eax -> 0xffffffd4(%rbp)[4byte]  
0x00007ffe2cfe2cee 48 8b 05 b3 d3 ff ff mov <rel> 0x00007ffe2cfe00a8[8byte] -> %rax  
0x00007ffe2cfe2cf5 49 89 04 24 mov %rax -> (%r12)[8byte]  
0x00007ffe2cfe2cf9 8b 15 85 d3 ff ff mov <rel> 0x00007ffe2cfe0084[4byte] -> %edx  
0x00007ffe2cfe2cff 48 8b 1d 9a d3 ff ff mov <rel> 0x00007ffe2cfe00a0[8byte] -> %rbx  
0x00007ffe2cfe2d06 83 fa 01 cmp %edx $0x00000001  
0x00007ffe2cfe2d09 0f 84 bd 00 00 00 jz $0x00007ffe2cfe2dcc  
Actual: 7ffe2cfe2dcc 
Block 139: 
0x00007ffe2cfe2dd5 48 8b 75 c8 mov 0xffffffc8(%rbp)[8byte] -> %rsi  
0x00007ffe2cfe2dd9 eb d4 jmp $0x00007ffe2cfe2daf  
0x00007ffe2cfe2daf 48 2b 05 d2 d2 ff ff sub <rel> 0x00007ffe2cfe0088[8byte] %rax -> %rax  
0x00007ffe2cfe2db6 8b 0d dc d2 ff ff mov <rel> 0x00007ffe2cfe0098[4byte] -> %ecx  
0x00007ffe2cfe2dbc 48 23 05 cd d2 ff ff and <rel> 0x00007ffe2cfe0090[8byte] %rax -> %rax  
0x00007ffe2cfe2dc3 48 0f af c1 imul %rcx %rax -> %rax  
0x00007ffe2cfe2dc7 e9 4e ff ff ff jmp $0x00007ffe2cfe2d1a  
0x00007ffe2cfe2d1a 8b 0d 7c d3 ff ff mov <rel> 0x00007ffe2cfe009c[4byte] -> %ecx  
0x00007ffe2cfe2d20 45 39 2e cmp (%r14)[4byte] %r13d  
0x00007ffe2cfe2d23 75 b3 jnz $0x00007ffe2cfe2cd8  
Actual: 7ffe2cfe2cd8 
Block 140: 
0x00007ffe2cfe2cd8 45 8b 2e mov (%r14)[4byte] -> %r13d  
0x00007ffe2cfe2cdb 41 f6 c5 01 test %r13l $0x01  
0x00007ffe2cfe2cdf 0f 85 f6 00 00 00 jnz $0x00007ffe2cfe2ddb  
Actual: 7ffe2cfe2ce5 
Block 141: 
0x00007ffe2cfe2d25 48 01 d8 add %rbx %rax -> %rax  
0x00007ffe2cfe2d28 48 d3 e8 shr %cl %rax -> %rax  
0x00007ffe2cfe2d2b 48 3d ff c9 9a 3b cmp %rax $0x000000003b9ac9ff  
0x00007ffe2cfe2d31 48 89 c1 mov %rax -> %rcx  
0x00007ffe2cfe2d34 0f 86 c7 00 00 00 jbe $0x00007ffe2cfe2e01  
Actual: 7ffe2cfe2e01 
Block 142: 
0x00007ffe2cfe2e01 31 d2 xor %edx %edx -> %edx  
0x00007ffe2cfe2e03 e9 4a ff ff ff jmp $0x00007ffe2cfe2d52  
0x00007ffe2cfe2d52 8b 45 d4 mov 0xffffffd4(%rbp)[4byte] -> %eax  
0x00007ffe2cfe2d55 49 01 14 24 add %rdx (%r12)[8byte] -> (%r12)[8byte]  
0x00007ffe2cfe2d59 49 89 4c 24 08 mov %rcx -> 0x08(%r12)[8byte]  
0x00007ffe2cfe2d5e 85 c0 test %eax %eax  
0x00007ffe2cfe2d60 0f 84 8f 00 00 00 jz $0x00007ffe2cfe2df5  
Actual: 7ffe2cfe2d66 
Block 143: 
0x00007ffe2cfe2d66 48 89 c8 mov %rcx -> %rax  
0x00007ffe2cfe2d69 48 ba cf f7 53 e3 a5 mov $0x20c49ba5e353f7cf -> %rdx  
9b c4 20 
0x00007ffe2cfe2d73 48 f7 ea imul %rdx %rax -> %rdx %rax  
0x00007ffe2cfe2d76 48 89 c8 mov %rcx -> %rax  
0x00007ffe2cfe2d79 48 c1 f8 3f sar $0x000000000000003f %rax -> %rax  
0x00007ffe2cfe2d7d 48 c1 fa 07 sar $0x0000000000000007 %rdx -> %rdx  
0x00007ffe2cfe2d81 48 29 c2 sub %rax %rdx -> %rdx  
0x00007ffe2cfe2d84 49 89 54 24 08 mov %rdx -> 0x08(%r12)[8byte]  
0x00007ffe2cfe2d89 31 c0 xor %eax %eax -> %eax  
0x00007ffe2cfe2d8b 48 85 f6 test %rsi %rsi  
0x00007ffe2cfe2d8e 75 52 jnz $0x00007ffe2cfe2de2  
Actual: 7ffe2cfe2d90 
Block 146: 
0x000000000040158c 83 ff 02 cmp %edi $0x00000002  
0x000000000040158f 41 89 fd mov %edi -> %r13d  
0x0000000000401592 49 89 f6 mov %rsi -> %r14  
0x0000000000401595 48 8b 6e 08 mov 0x08(%rsi)[8byte] -> %rbp  
0x0000000000401599 0f 85 0b 02 00 00 jnz $0x00000000004017aa  
Actual: 4017aa 
Block 149: 
0x00007f61cc98bc00 66 0f ef c0 pxor %xmm0 %xmm0 -> %xmm0  
0x00007f61cc98bc04 66 0f 6f 17 movdqa (%rdi)[16byte] -> %xmm2  
0x00007f61cc98bc08 66 0f 6f 0e movdqa (%rsi)[16byte] -> %xmm1  
0x00007f61cc98bc0c 66 0f 74 c1 pcmpeqb %xmm1 %xmm0 -> %xmm0  
0x00007f61cc98bc10 66 0f 73 fa 03 pslldq $0x03 %xmm2 -> %xmm2  
0x00007f61cc98bc15 66 0f 74 d1 pcmpeqb %xmm1 %xmm2 -> %xmm2  
0x00007f61cc98bc19 66 0f f8 d0 psubb %xmm0 %xmm2 -> %xmm2  
0x00007f61cc98bc1d 66 44 0f d7 ca pmovmskb %xmm2 -> %r9d  
0x00007f61cc98bc22 d3 ea shr %cl %edx -> %edx  
0x00007f61cc98bc24 41 d3 e9 shr %cl %r9d -> %r9d  
0x00007f61cc98bc27 44 29 ca sub %r9d %edx -> %edx  
0x00007f61cc98bc2a 0f 85 95 03 00 00 jnz $0x00007f61cc98bfc5  
Actual: 7f61cc98bfc5 
Block 150: 
0x00007f61cc1bc580 48 8b 05 31 18 38 00 mov <rel> 0x00007f61cc53ddb8[8byte] -> %rax  
0x00007f61cc1bc587 31 c9 xor %ecx %ecx -> %ecx  
0x00007f61cc1bc589 64 4c 8b 00 mov %fs:(%rax)[8byte] -> %r8  
0x00007f61cc1bc58d e9 3e 00 00 00 jmp $0x00007f61cc1bc5d0  
0x00007f61cc1bc5d0 41 57 push %r15 %rsp -> %rsp 0xfffffff8(%rsp)[8byte]  
0x00007f61cc1bc5d2 41 56 push %r14 %rsp -> %rsp 0xfffffff8(%rsp)[8byte]  
0x00007f61cc1bc5d4 49 89 f6 mov %rsi -> %r14  
0x00007f61cc1bc5d7 41 55 push %r13 %rsp -> %rsp 0xfffffff8(%rsp)[8byte]  
0x00007f61cc1bc5d9 41 54 push %r12 %rsp -> %rsp 0xfffffff8(%rsp)[8byte]  
0x00007f61cc1bc5db 49 89 fd mov %rdi -> %r13  
0x00007f61cc1bc5de 55 push %rbp %rsp -> %rsp 0xfffffff8(%rsp)[8byte]  
0x00007f61cc1bc5df 53 push %rbx %rsp -> %rsp 0xfffffff8(%rsp)[8byte]  
0x00007f61cc1bc5e0 48 83 ec 28 sub $0x0000000000000028 %rsp -> %rsp  
0x00007f61cc1bc5e4 85 c9 test %ecx %ecx  
0x00007f61cc1bc5e6 74 16 jz $0x00007f61cc1bc5fe  
Actual: 7f61cc1bc5fe 
Block 151: 
0x00007f61cc1bc5fe 31 c9 xor %ecx %ecx -> %ecx  
0x00007f61cc1bc600 31 ed xor %ebp %ebp -> %ebp  
0x00007f61cc1bc602 83 fa 01 cmp %edx $0x00000001  
0x00007f61cc1bc605 0f 84 c5 00 00 00 jz $0x00007f61cc1bc6d0  
Actual: 7f61cc1bc60b 
Block 153: 
0x00007f61cc1bc614 49 0f be 45 00 movsx 0x00(%r13)[1byte] -> %rax  
0x00007f61cc1bc619 49 8b 70 68 mov 0x68(%r8)[8byte] -> %rsi  
0x00007f61cc1bc61d 4d 89 ec mov %r13 -> %r12  
0x00007f61cc1bc620 f6 44 46 01 20 test 0x01(%rsi,%rax,2)[1byte] $0x20  
0x00007f61cc1bc625 48 89 c3 mov %rax -> %rbx  
0x00007f61cc1bc628 74 19 jz $0x00007f61cc1bc643  
Actual: 7f61cc1bc643 
Block 154: 
0x00007f61cc1bc643 84 db test %bl %bl  
0x00007f61cc1bc645 0f 84 bd 00 00 00 jz $0x00007f61cc1bc708  
Actual: 7f61cc1bc64b 
Block 155: 
0x00007f61cc1bc64b 80 fb 2d cmp %bl $0x2d  
0x00007f61cc1bc64e 0f 84 47 03 00 00 jz $0x00007f61cc1bc99b  
Actual: 7f61cc1bc654 
Block 156: 
0x00007f61cc1bc654 80 fb 2b cmp %bl $0x2b  
0x00007f61cc1bc657 c7 44 24 14 00 00 00 mov $0x00000000 -> 0x14(%rsp)[4byte]  
0x00007f61cc1bc65f 0f 84 d5 03 00 00 jz $0x00007f61cc1bca3a  
Actual: 7f61cc1bc665 
Block 157: 
0x00007f61cc1bc665 80 fb 30 cmp %bl $0x30  
0x00007f61cc1bc668 0f 84 dd 00 00 00 jz $0x00007f61cc1bc74b  
Actual: 7f61cc1bc66e 
Block 158: 
0x00007f61cc1bc66e 85 d2 test %edx %edx  
0x00007f61cc1bc670 0f 85 e1 00 00 00 jnz $0x00007f61cc1bc757  
Actual: 7f61cc1bc757 
Block 159: 
0x00007f61cc1bc757 83 fa 0a cmp %edx $0x0000000a  
0x00007f61cc1bc75a 0f 84 16 ff ff ff jz $0x00007f61cc1bc676  
Actual: 7f61cc1bc676 
Block 160: 
0x00007f61cc1bc676 48 85 c9 test %rcx %rcx  
0x00007f61cc1bc679 0f 84 17 04 00 00 jz $0x00007f61cc1bca96  
Actual: 7f61cc1bca96 
Block 161: 
0x00007f61cc1bca96 c6 44 24 08 05 mov $0x05 -> 0x08(%rsp)[1byte]  
0x00007f61cc1bca9b 49 b9 99 99 99 99 99 mov $0x1999999999999999 -> %r9  
99 99 19 
0x00007f61cc1bcaa5 ba 0a 00 00 00 mov $0x0000000a -> %edx  
0x00007f61cc1bcaaa 45 31 ff xor %r15d %r15d -> %r15d  
0x00007f61cc1bcaad e9 d2 fc ff ff jmp $0x00007f61cc1bc784  
0x00007f61cc1bc784 84 db test %bl %bl  
0x00007f61cc1bc786 44 0f b6 c3 movzx %bl -> %r8d  
0x00007f61cc1bc78a 0f 84 7b ff ff ff jz $0x00007f61cc1bc70b  
Actual: 7f61cc1bc790 
Block 162: 
0x00007f61cc1bc790 4c 39 e1 cmp %rcx %r12  
0x00007f61cc1bc793 0f 84 72 ff ff ff jz $0x00007f61cc1bc70b  
Actual: 7f61cc1bc799 
Block 163: 
0x00007f61cc1bc799 4c 8b 15 f8 03 38 00 mov <rel> 0x00007f61cc53cb98[8byte] -> %r10  
0x00007f61cc1bc7a0 48 63 f2 movsxd %edx -> %rsi  
0x00007f61cc1bc7a3 4c 89 e7 mov %r12 -> %rdi  
0x00007f61cc1bc7a6 4c 89 64 24 18 mov %r12 -> 0x18(%rsp)[8byte]  
0x00007f61cc1bc7ab 45 31 db xor %r11d %r11d -> %r11d  
0x00007f61cc1bc7ae 31 c0 xor %eax %eax -> %eax  
0x00007f61cc1bc7b0 49 89 f4 mov %rsi -> %r12  
0x00007f61cc1bc7b3 0f 1f 44 00 00 nop 0x00(%rax,%rax,1)[4byte]  
0x00007f61cc1bc7b8 41 8d 70 d0 lea 0xffffffd0(%r8) -> %esi  
0x00007f61cc1bc7bc 40 80 fe 09 cmp %sil $0x09  
0x00007f61cc1bc7c0 0f 86 b0 00 00 00 jbe $0x00007f61cc1bc876  
Actual: 7f61cc1bc876 
Block 166: 
0x00007f61cc1bc884 40 3a 74 24 08 cmp %sil 0x08(%rsp)[1byte]  
0x00007f61cc1bc889 76 15 jbe $0x00007f61cc1bc8a0  
Actual: 7f61cc1bc8a0 
Block 167: 
0x00007f61cc1bc8a0 49 0f af c4 imul %r12 %rax -> %rax  
0x00007f61cc1bc8a4 40 0f b6 f6 movzx %sil -> %esi  
0x00007f61cc1bc8a8 48 01 f0 add %rsi %rax -> %rax  
0x00007f61cc1bc8ab 48 89 fe mov %rdi -> %rsi  
0x00007f61cc1bc8ae e9 4d ff ff ff jmp $0x00007f61cc1bc800  
0x00007f61cc1bc800 0f b6 5e 01 movzx 0x01(%rsi)[1byte] -> %ebx  
0x00007f61cc1bc804 48 8d 7e 01 lea 0x01(%rsi) -> %rdi  
0x00007f61cc1bc808 48 39 cf cmp %rdi %rcx  
0x00007f61cc1bc80b 44 0f b6 c3 movzx %bl -> %r8d  
0x00007f61cc1bc80f 74 04 jz $0x00007f61cc1bc815  
Actual: 7f61cc1bc811 
Block 168: 
0x00007f61cc1bc811 84 db test %bl %bl  
0x00007f61cc1bc813 75 a3 jnz $0x00007f61cc1bc7b8  
Actual: 7f61cc1bc815 
Block 169: 
0x00007f61cc1bc815 4c 8b 64 24 18 mov 0x18(%rsp)[8byte] -> %r12  
0x00007f61cc1bc81a 4c 39 e7 cmp %rdi %r12  
0x00007f61cc1bc81d 0f 84 e8 fe ff ff jz $0x00007f61cc1bc70b  
Actual: 7f61cc1bc823 
Block 170: 
0x00007f61cc1bc823 4d 85 f6 test %r14 %r14  
0x00007f61cc1bc826 74 03 jz $0x00007f61cc1bc82b  
Actual: 7f61cc1bc82b 
Block 171: 
0x00007f61cc1bc82b 45 85 db test %r11d %r11d  
0x00007f61cc1bc82e 0f 85 7f 00 00 00 jnz $0x00007f61cc1bc8b3  
Actual: 7f61cc1bc834 
Block 172: 
0x00007f61cc1bc834 8b 54 24 14 mov 0x14(%rsp)[4byte] -> %edx  
0x00007f61cc1bc838 85 d2 test %edx %edx  
0x00007f61cc1bc83a 0f 84 72 01 00 00 jz $0x00007f61cc1bc9b2  
Actual: 7f61cc1bc9b2 
Block 175: 
0x00000000004017ba 41 83 fd 03 cmp %r13d $0x00000003  
0x00000000004017be 48 89 c3 mov %rax -> %rbx  
0x00000000004017c1 41 89 c4 mov %eax -> %r12d  
0x00000000004017c4 0f 84 f9 00 00 00 jz $0x00000000004018c3  
Actual: 4018c3 
Block 180: 
0x00007f61cc98bac0 66 0f ef c0 pxor %xmm0 %xmm0 -> %xmm0  
0x00007f61cc98bac4 66 0f 6f 17 movdqa (%rdi)[16byte] -> %xmm2  
0x00007f61cc98bac8 66 0f 6f 0e movdqa (%rsi)[16byte] -> %xmm1  
0x00007f61cc98bacc 66 0f 74 c1 pcmpeqb %xmm1 %xmm0 -> %xmm0  
0x00007f61cc98bad0 66 0f 73 fa 04 pslldq $0x04 %xmm2 -> %xmm2  
0x00007f61cc98bad5 66 0f 74 d1 pcmpeqb %xmm1 %xmm2 -> %xmm2  
0x00007f61cc98bad9 66 0f f8 d0 psubb %xmm0 %xmm2 -> %xmm2  
0x00007f61cc98badd 66 44 0f d7 ca pmovmskb %xmm2 -> %r9d  
0x00007f61cc98bae2 d3 ea shr %cl %edx -> %edx  
0x00007f61cc98bae4 41 d3 e9 shr %cl %r9d -> %r9d  
0x00007f61cc98bae7 44 29 ca sub %r9d %edx -> %edx  
0x00007f61cc98baea 0f 85 d5 04 00 00 jnz $0x00007f61cc98bfc5  
Actual: 7f61cc98baf0 
Block 182: 
0x00007f61cc98bb2a 66 0f 6f 0c 0e movdqa (%rsi,%rcx,1)[16byte] -> %xmm1  
0x00007f61cc98bb2f 66 0f 6f 14 0f movdqa (%rdi,%rcx,1)[16byte] -> %xmm2  
0x00007f61cc98bb34 66 0f 6f e2 movdqa %xmm2 -> %xmm4  
0x00007f61cc98bb38 66 0f 73 db 0c psrldq $0x0c %xmm3 -> %xmm3  
0x00007f61cc98bb3d 66 0f 73 fa 04 pslldq $0x04 %xmm2 -> %xmm2  
0x00007f61cc98bb42 66 0f eb d3 por %xmm3 %xmm2 -> %xmm2  
0x00007f61cc98bb46 66 0f 74 c1 pcmpeqb %xmm1 %xmm0 -> %xmm0  
0x00007f61cc98bb4a 66 0f 74 ca pcmpeqb %xmm2 %xmm1 -> %xmm1  
0x00007f61cc98bb4e 66 0f f8 c8 psubb %xmm0 %xmm1 -> %xmm1  
0x00007f61cc98bb52 66 0f d7 d1 pmovmskb %xmm1 -> %edx  
0x00007f61cc98bb56 81 ea ff ff 00 00 sub $0x0000ffff %edx -> %edx  
0x00007f61cc98bb5c 0f 85 5e 04 00 00 jnz $0x00007f61cc98bfc0  
Actual: 7f61cc98bfc0 
Block 184: 
0x00007f61cc20a1d6 f3 0f 6f 20 movdqu (%rax)[16byte] -> %xmm4  
0x00007f61cc20a1da 66 0f 74 e0 pcmpeqb %xmm0 %xmm4 -> %xmm4  
0x00007f61cc20a1de 66 0f d7 d4 pmovmskb %xmm4 -> %edx  
0x00007f61cc20a1e2 85 d2 test %edx %edx  
0x00007f61cc20a1e4 74 04 jz $0x00007f61cc20a1ea  
Actual: 7f61cc20a1e6 
Block 186: 
0x00007f61cc1ef6ac 48 8b 2d 35 00 35 00 mov <rel> 0x00007f61cc53f6e8[8byte] -> %rbp  
0x00007f61cc1ef6b3 48 89 c3 mov %rax -> %rbx  
0x00007f61cc1ef6b6 8b 45 00 mov 0x00(%rbp)[4byte] -> %eax  
0x00007f61cc1ef6b9 48 89 ef mov %rbp -> %rdi  
0x00007f61cc1ef6bc 25 00 80 00 00 and $0x00008000 %eax -> %eax  
0x00007f61cc1ef6c1 75 61 jnz $0x00007f61cc1ef724  
Actual: 7f61cc1ef6c3 
Block 187: 
0x00007f61cc1ef6c3 48 8b 95 88 00 00 00 mov 0x00000088(%rbp)[8byte] -> %rdx  
0x00007f61cc1ef6ca 64 4c 8b 04 25 10 00 mov %fs:0x10[8byte] -> %r8  
00 00 
0x00007f61cc1ef6d3 4c 3b 42 08 cmp %r8 0x08(%rdx)[8byte]  
0x00007f61cc1ef6d7 0f 84 13 01 00 00 jz $0x00007f61cc1ef7f0  
Actual: 7f61cc1ef6dd 
Block 188: 
0x00007f61cc1ef6dd be 01 00 00 00 mov $0x00000001 -> %esi  
0x00007f61cc1ef6e2 83 3d 17 40 35 00 00 cmp <rel> 0x00007f61cc543700[4byte] $0x00000000  
0x00007f61cc1ef6e9 74 08 jz $0x00007f61cc1ef6f3  
Actual: 7f61cc1ef6f3 
Block 189: 
0x00007f61cc1ef6f3 0f b1 32 cmpxchg %esi (%rdx)[4byte] %eax -> (%rdx)[4byte] %eax  
0x00007f61cc1ef6f6 74 16 jz $0x00007f61cc1ef70e  
Actual: 7f61cc1ef70e 
Block 190: 
0x00007f61cc1ef70e 48 8b 95 88 00 00 00 mov 0x00000088(%rbp)[8byte] -> %rdx  
0x00007f61cc1ef715 48 8b 3d cc ff 34 00 mov <rel> 0x00007f61cc53f6e8[8byte] -> %rdi  
0x00007f61cc1ef71c 4c 89 42 08 mov %r8 -> 0x08(%rdx)[8byte]  
0x00007f61cc1ef720 83 42 04 01 add $0x00000001 0x04(%rdx)[4byte] -> 0x04(%rdx)[4byte]  
0x00007f61cc1ef724 8b 87 c0 00 00 00 mov 0x000000c0(%rdi)[4byte] -> %eax  
0x00007f61cc1ef72a 85 c0 test %eax %eax  
0x00007f61cc1ef72c 0f 85 ae 00 00 00 jnz $0x00007f61cc1ef7e0  
Actual: 7f61cc1ef732 
Block 192: 
0x00007f61cc1f90f0 41 57 push %r15 %rsp -> %rsp 0xfffffff8(%rsp)[8byte]  
0x00007f61cc1f90f2 41 56 push %r14 %rsp -> %rsp 0xfffffff8(%rsp)[8byte]  
0x00007f61cc1f90f4 41 55 push %r13 %rsp -> %rsp 0xfffffff8(%rsp)[8byte]  
0x00007f61cc1f90f6 41 54 push %r12 %rsp -> %rsp 0xfffffff8(%rsp)[8byte]  
0x00007f61cc1f90f8 55 push %rbp %rsp -> %rsp 0xfffffff8(%rsp)[8byte]  
0x00007f61cc1f90f9 53 push %rbx %rsp -> %rsp 0xfffffff8(%rsp)[8byte]  
0x00007f61cc1f90fa 31 db xor %ebx %ebx -> %ebx  
0x00007f61cc1f90fc 48 83 ec 08 sub $0x0000000000000008 %rsp -> %rsp  
0x00007f61cc1f9100 48 85 d2 test %rdx %rdx  
0x00007f61cc1f9103 74 68 jz $0x00007f61cc1f916d  
Actual: 7f61cc1f9105 
Block 193: 
0x00007f61cc1f9105 8b 07 mov (%rdi)[4byte] -> %eax  
0x00007f61cc1f9107 48 89 d5 mov %rdx -> %rbp  
0x00007f61cc1f910a 49 89 f4 mov %rsi -> %r12  
0x00007f61cc1f910d 49 89 fd mov %rdi -> %r13  
0x00007f61cc1f9110 25 00 0a 00 00 and $0x00000a00 %eax -> %eax  
0x00007f61cc1f9115 3d 00 0a 00 00 cmp %eax $0x00000a00  
0x00007f61cc1f911a 0f 84 b8 00 00 00 jz $0x00007f61cc1f91d8  
Actual: 7f61cc1f9120 
Block 194: 
0x00007f61cc1f9120 48 8b 5f 30 mov 0x30(%rdi)[8byte] -> %rbx  
0x00007f61cc1f9124 48 8b 7f 28 mov 0x28(%rdi)[8byte] -> %rdi  
0x00007f61cc1f9128 48 39 fb cmp %rbx %rdi  
0x00007f61cc1f912b 76 53 jbe $0x00007f61cc1f9180  
Actual: 7f61cc1f9180 
Block 196: 
0x00007f61cc1fa590 8b 0f mov (%rdi)[4byte] -> %ecx  
0x00007f61cc1fa592 f6 c1 08 test %cl $0x08  
0x00007f61cc1fa595 0f 85 a5 01 00 00 jnz $0x00007f61cc1fa740  
Actual: 7f61cc1fa59b 
Block 197: 
0x00007f61cc1fa59b f6 c5 08 test %ch $0x08  
0x00007f61cc1fa59e 41 54 push %r12 %rsp -> %rsp 0xfffffff8(%rsp)[8byte]  
0x00007f61cc1fa5a0 55 push %rbp %rsp -> %rsp 0xfffffff8(%rsp)[8byte]  
0x00007f61cc1fa5a1 89 f5 mov %esi -> %ebp  
0x00007f61cc1fa5a3 53 push %rbx %rsp -> %rsp 0xfffffff8(%rsp)[8byte]  
0x00007f61cc1fa5a4 48 89 fb mov %rdi -> %rbx  
0x00007f61cc1fa5a7 74 4f jz $0x00007f61cc1fa5f8  
Actual: 7f61cc1fa5f8 
Block 198: 
0x00007f61cc1fa5f8 48 83 7f 20 00 cmp 0x20(%rdi)[8byte] $0x0000000000000000  
0x00007f61cc1fa5fd 0f 84 5d 01 00 00 jz $0x00007f61cc1fa760  
Actual: 7f61cc1fa760 
Block 199: 
0x00007f61cc1fa760 48 89 df mov %rbx -> %rdi  
0x00007f61cc1fa763 e8 78 0c 00 00 call $0x00007f61cc1fb3e0 %rsp -> %rsp 0xfffffff8(%rsp)[8byte]  
0x00007f61cc1fb3e0 48 83 7f 38 00 cmp 0x38(%rdi)[8byte] $0x0000000000000000  
0x00007f61cc1fb3e5 74 09 jz $0x00007f61cc1fb3f0  
Actual: 7f61cc1fb3f0 
Block 200: 
0x00007f61cc1fb3f0 41 54 push %r12 %rsp -> %rsp 0xfffffff8(%rsp)[8byte]  
0x00007f61cc1fb3f2 55 push %rbp %rsp -> %rsp 0xfffffff8(%rsp)[8byte]  
0x00007f61cc1fb3f3 53 push %rbx %rsp -> %rsp 0xfffffff8(%rsp)[8byte]  
0x00007f61cc1fb3f4 8b 07 mov (%rdi)[4byte] -> %eax  
0x00007f61cc1fb3f6 48 89 fb mov %rdi -> %rbx  
0x00007f61cc1fb3f9 a8 02 test %al $0x02  
0x00007f61cc1fb3fb 74 0a jz $0x00007f61cc1fb407  
Actual: 7f61cc1fb407 
Block 208: 
0x00007f61cc1ed2a9 8b 44 24 18 mov 0x18(%rsp)[4byte] -> %eax  
0x00007f61cc1ed2ad 25 00 f0 00 00 and $0x0000f000 %eax -> %eax  
0x00007f61cc1ed2b2 3d 00 20 00 00 cmp %eax $0x00002000  
0x00007f61cc1ed2b7 74 4f jz $0x00007f61cc1ed308  
Actual: 7f61cc1ed2b9 
Block 211: 
0x00007f61cc202f00 55 push %rbp %rsp -> %rsp 0xfffffff8(%rsp)[8byte]  
0x00007f61cc202f01 53 push %rbx %rsp -> %rsp 0xfffffff8(%rsp)[8byte]  
0x00007f61cc202f02 48 83 ec 08 sub $0x0000000000000008 %rsp -> %rsp  
0x00007f61cc202f06 48 8b 05 d3 af 33 00 mov <rel> 0x00007f61cc53dee0[8byte] -> %rax  
0x00007f61cc202f0d 48 8b 00 mov (%rax)[8byte] -> %rax  
0x00007f61cc202f10 48 85 c0 test %rax %rax  
0x00007f61cc202f13 0f 85 0f 01 00 00 jnz $0x00007f61cc203028  
Actual: 7f61cc203028 
Block 214: 
0x00007f61cc2045a8 e8 f3 fa ff ff call $0x00007f61cc2040a0 %rsp -> %rsp 0xfffffff8(%rsp)[8byte]  
0x00007f61cc2040a0 41 56 push %r14 %rsp -> %rsp 0xfffffff8(%rsp)[8byte]  
0x00007f61cc2040a2 41 55 push %r13 %rsp -> %rsp 0xfffffff8(%rsp)[8byte]  
0x00007f61cc2040a4 41 54 push %r12 %rsp -> %rsp 0xfffffff8(%rsp)[8byte]  
0x00007f61cc2040a6 55 push %rbp %rsp -> %rsp 0xfffffff8(%rsp)[8byte]  
0x00007f61cc2040a7 53 push %rbx %rsp -> %rsp 0xfffffff8(%rsp)[8byte]  
0x00007f61cc2040a8 48 83 ec 30 sub $0x0000000000000030 %rsp -> %rsp  
0x00007f61cc2040ac 48 83 3d ec f1 33 00 cmp <rel> 0x00007f61cc5432a0[8byte] $0x0000000000000000  
0x00007f61cc2040b4 c7 05 66 a0 33 00 00 mov $0x00000000 -> <rel> 0x00007f61cc53e124[4byte]  
00 00 00 
0x00007f61cc2040be 0f 84 2a 01 00 00 jz $0x00007f61cc2041ee  
Actual: 7f61cc2041ee 
Block 216: 
0x00007f61cc54d9a0 8b 57 10 mov 0x10(%rdi)[4byte] -> %edx  
0x00007f61cc54d9a3 49 89 f8 mov %rdi -> %r8  
0x00007f61cc54d9a6 89 d1 mov %edx -> %ecx  
0x00007f61cc54d9a8 81 e1 7f 01 00 00 and $0x0000017f %ecx -> %ecx  
0x00007f61cc54d9ae 90 nop  
0x00007f61cc54d9af 89 d0 mov %edx -> %eax  
0x00007f61cc54d9b1 83 e0 7c and $0x0000007c %eax -> %eax  
0x00007f61cc54d9b4 75 7a jnz $0x00007f61cc54da30  
Actual: 7f61cc54d9b6 
Block 217: 
0x00007f61cc54d9b6 85 c9 test %ecx %ecx  
0x00007f61cc54d9b8 75 7e jnz $0x00007f61cc54da38  
Actual: 7f61cc54da38 
Block 218: 
0x00007f61cc54da38 81 f9 00 01 00 00 cmp %ecx $0x00000100  
0x00007f61cc54da3e 74 8f jz $0x00007f61cc54d9cf  
Actual: 7f61cc54da40 
Block 219: 
0x00007f61cc54da40 89 d7 mov %edx -> %edi  
0x00007f61cc54da42 83 e7 7f and $0x0000007f %edi -> %edi  
0x00007f61cc54da45 83 ff 01 cmp %edi $0x00000001  
0x00007f61cc54da48 75 54 jnz $0x00007f61cc54da9e  
Actual: 7f61cc54da4a 
Block 220: 
0x00007f61cc54da4a 64 8b 0c 25 d0 02 00 mov %fs:0x000002d0[4byte] -> %ecx  
0x00007f61cc54da52 41 3b 48 08 cmp %ecx 0x08(%r8)[4byte]  
0x00007f61cc54da56 74 2f jz $0x00007f61cc54da87  
Actual: 7f61cc54da58 
Block 221: 
0x00007f61cc54da58 81 e2 80 00 00 00 and $0x00000080 %edx -> %edx  
0x00007f61cc54da5e 89 d6 mov %edx -> %esi  
0x00007f61cc54da60 f0 41 0f b1 38 lock cmpxchg %edi (%r8)[4byte] %eax -> (%r8)[4byte] %eax  
0x00007f61cc54da65 74 16 jz $0x00007f61cc54da7d  
Actual: 7f61cc54da7d 
Block 224: 
0x00007f61cc983e90 4c 8b 1d 69 0a 21 00 mov <rel> 0x00007f61ccb94900[8byte] -> %r11  
0x00007f61cc983e97 4d 85 db test %r11 %r11  
0x00007f61cc983e9a 0f 84 9d 00 00 00 jz $0x00007f61cc983f3d  
Actual: 7f61cc983ea0 
Block 225: 
0x00007f61cc983ea0 4c 8d 0d 59 01 21 00 lea <rel> 0x00007f61ccb94000 -> %r9  
0x00007f61cc983ea7 45 31 d2 xor %r10d %r10d -> %r10d  
0x00007f61cc983eaa 49 8b 01 mov (%r9)[8byte] -> %rax  
0x00007f61cc983ead 48 85 c0 test %rax %rax  
0x00007f61cc983eb0 74 77 jz $0x00007f61cc983f29  
Actual: 7f61cc983eb2 
Block 228: 
0x00007f61cc983f20 48 8b 40 18 mov 0x18(%rax)[8byte] -> %rax  
0x00007f61cc983f24 48 85 c0 test %rax %rax  
0x00007f61cc983f27 75 8f jnz $0x00007f61cc983eb8  
Actual: 7f61cc983eb8 
Block 230: 
0x00007f61cc983eca f6 80 15 03 00 00 40 test 0x00000315(%rax)[1byte] $0x40  
0x00007f61cc983ed1 75 4b jnz $0x00007f61cc983f1e  
Actual: 7f61cc983f1e 
Block 232: 
0x00007f61cc2c14cb 48 85 c0 test %rax %rax  
0x00007f61cc2c14ce 0f 84 4c 02 00 00 jz $0x00007f61cc2c1720  
Actual: 7f61cc2c14d4 
Block 233: 
0x00007f61cc2c14d4 48 8b 50 08 mov 0x08(%rax)[8byte] -> %rdx  
0x00007f61cc2c14d8 48 8b 88 40 03 00 00 mov 0x00000340(%rax)[8byte] -> %rcx  
0x00007f61cc2c14df 49 89 14 24 mov %rdx -> (%r12)[8byte]  
0x00007f61cc2c14e3 49 89 4c 24 08 mov %rcx -> 0x08(%r12)[8byte]  
0x00007f61cc2c14e8 80 3a 00 cmp (%rdx)[1byte] $0x00  
0x00007f61cc2c14eb 0f 84 36 02 00 00 jz $0x00007f61cc2c1727  
Actual: 7f61cc2c14f1 
Block 234: 
0x00007f61cc2c14f1 48 8b 50 70 mov 0x70(%rax)[8byte] -> %rdx  
0x00007f61cc2c14f5 48 83 b8 98 02 00 00 cmp 0x00000298(%rax)[8byte] $0x0000000000000000  
0x00007f61cc2c14fd 4c 8b 5a 08 mov 0x08(%rdx)[8byte] -> %r11  
0x00007f61cc2c1501 48 8b 50 68 mov 0x68(%rax)[8byte] -> %rdx  
0x00007f61cc2c1505 48 8b 72 08 mov 0x08(%rdx)[8byte] -> %rsi  
0x00007f61cc2c1509 48 8b 90 90 00 00 00 mov 0x00000090(%rax)[8byte] -> %rdx  
0x00007f61cc2c1510 48 89 74 24 18 mov %rsi -> 0x18(%rsp)[8byte]  
0x00007f61cc2c1515 44 8b 7a 08 mov 0x08(%rdx)[4byte] -> %r15d  
0x00007f61cc2c1519 0f 84 52 01 00 00 jz $0x00007f61cc2c1671  
Actual: 7f61cc2c151f 
Block 235: 
0x00007f61cc2c151f 8b 90 ec 02 00 00 mov 0x000002ec(%rax)[4byte] -> %edx  
0x00007f61cc2c1525 85 d2 test %edx %edx  
0x00007f61cc2c1527 0f 84 1d 02 00 00 jz $0x00007f61cc2c174a  
Actual: 7f61cc2c152d 
Block 236: 
0x00007f61cc2c152d 48 8b a8 00 03 00 00 mov 0x00000300(%rax)[8byte] -> %rbp  
0x00007f61cc2c1534 83 ea 01 sub $0x00000001 %edx -> %edx  
0x00007f61cc2c1537 31 f6 xor %esi %esi -> %esi  
0x00007f61cc2c1539 4c 8d 74 95 04 lea 0x04(%rbp,%rdx,4) -> %r14  
0x00007f61cc2c153e 66 90 nop  
0x00007f61cc2c1540 8b 4d 00 mov 0x00(%rbp)[4byte] -> %ecx  
0x00007f61cc2c1543 85 c9 test %ecx %ecx  
0x00007f61cc2c1545 0f 84 a5 00 00 00 jz $0x00007f61cc2c15f0  
Actual: 7f61cc2c15f0 
Block 237: 
0x00007f61cc2c15f0 48 83 c5 04 add $0x0000000000000004 %rbp -> %rbp  
0x00007f61cc2c15f4 49 39 ee cmp %r14 %rbp  
0x00007f61cc2c15f7 0f 85 43 ff ff ff jnz $0x00007f61cc2c1540  
Actual: 7f61cc2c1540 
Block 238: 
0x00007f61cc2c1540 8b 4d 00 mov 0x00(%rbp)[4byte] -> %ecx  
0x00007f61cc2c1543 85 c9 test %ecx %ecx  
0x00007f61cc2c1545 0f 84 a5 00 00 00 jz $0x00007f61cc2c15f0  
Actual: 7f61cc2c154b 
Block 239: 
0x00007f61cc2c154b 48 8b b8 08 03 00 00 mov 0x00000308(%rax)[8byte] -> %rdi  
0x00007f61cc2c1552 89 ca mov %ecx -> %edx  
0x00007f61cc2c1554 48 8d 3c 97 lea (%rdi,%rdx,4) -> %rdi  
0x00007f61cc2c1558 eb 25 jmp $0x00007f61cc2c157f  
0x00007f61cc2c157f 48 8d 14 52 lea (%rdx,%rdx,2) -> %rdx  
0x00007f61cc2c1583 49 8d 14 d3 lea (%r11,%rdx,8) -> %rdx  
0x00007f61cc2c1587 44 0f b7 4a 06 movzx 0x06(%rdx)[2byte] -> %r9d  
0x00007f61cc2c158c 66 45 85 c9 data16 test %r9w %r9w  
0x00007f61cc2c1590 75 07 jnz $0x00007f61cc2c1599  
Actual: 7f61cc2c1599 
Block 240: 
0x00007f61cc2c1599 44 0f b6 42 04 movzx 0x04(%rdx)[1byte] -> %r8d  
0x00007f61cc2c159e 41 83 e0 0f and $0x0000000f %r8d -> %r8d  
0x00007f61cc2c15a2 41 80 f8 06 cmp %r8l $0x06  
0x00007f61cc2c15a6 74 c8 jz $0x00007f61cc2c1570  
Actual: 7f61cc2c15a8 
Block 241: 
0x00007f61cc2c15a8 4c 8b 52 08 mov 0x08(%rdx)[8byte] -> %r10  
0x00007f61cc2c15ac 4d 89 d0 mov %r10 -> %r8  
0x00007f61cc2c15af 4c 03 00 add (%rax)[8byte] %r8 -> %r8  
0x00007f61cc2c15b2 4c 39 c3 cmp %rbx %r8  
0x00007f61cc2c15b5 72 b9 jb $0x00007f61cc2c1570  
Actual: 7f61cc2c15b7 
Block 242: 
0x00007f61cc2c15b7 66 45 85 c9 data16 test %r9w %r9w  
0x00007f61cc2c15bb 75 a3 jnz $0x00007f61cc2c1560  
Actual: 7f61cc2c1560 
Block 243: 
0x00007f61cc2c1560 4c 8b 4a 10 mov 0x10(%rdx)[8byte] -> %r9  
0x00007f61cc2c1564 4d 85 c9 test %r9 %r9  
0x00007f61cc2c1567 75 5d jnz $0x00007f61cc2c15c6  
Actual: 7f61cc2c15c6 
Block 245: 
0x00007f61cc2c1570 48 83 c7 04 add $0x0000000000000004 %rdi -> %rdi  
0x00007f61cc2c1574 83 c1 01 add $0x00000001 %ecx -> %ecx  
0x00007f61cc2c1577 f6 47 fc 01 test 0xfffffffc(%rdi)[1byte] $0x01  
0x00007f61cc2c157b 75 73 jnz $0x00007f61cc2c15f0  
Actual: 7f61cc2c157d 
Block 246: 
0x00007f61cc2c157d 89 ca mov %ecx -> %edx  
0x00007f61cc2c157f 48 8d 14 52 lea (%rdx,%rdx,2) -> %rdx  
0x00007f61cc2c1583 49 8d 14 d3 lea (%r11,%rdx,8) -> %rdx  
0x00007f61cc2c1587 44 0f b7 4a 06 movzx 0x06(%rdx)[2byte] -> %r9d  
0x00007f61cc2c158c 66 45 85 c9 data16 test %r9w %r9w  
0x00007f61cc2c1590 75 07 jnz $0x00007f61cc2c1599  
Actual: 7f61cc2c1599 
Block 247: 
0x00007f61cc2c1569 4c 39 c3 cmp %rbx %r8  
0x00007f61cc2c156c 74 60 jz $0x00007f61cc2c15ce  
Actual: 7f61cc2c156e 
Block 248: 
0x00007f61cc2c156e 66 90 nop  
0x00007f61cc2c1570 48 83 c7 04 add $0x0000000000000004 %rdi -> %rdi  
0x00007f61cc2c1574 83 c1 01 add $0x00000001 %ecx -> %ecx  
0x00007f61cc2c1577 f6 47 fc 01 test 0xfffffffc(%rdi)[1byte] $0x01  
0x00007f61cc2c157b 75 73 jnz $0x00007f61cc2c15f0  
Actual: 7f61cc2c157d 
Block 249: 
0x00007f61cc2c15fd 48 8b 5c 24 08 mov 0x08(%rsp)[8byte] -> %rbx  
0x00007f61cc2c1602 48 85 db test %rbx %rbx  
0x00007f61cc2c1605 74 03 jz $0x00007f61cc2c160a  
Actual: 7f61cc2c1607 
Block 250: 
0x00007f61cc2c1607 48 89 03 mov %rax -> (%rbx)[8byte]  
0x00007f61cc2c160a 48 8b 5c 24 10 mov 0x10(%rsp)[8byte] -> %rbx  
0x00007f61cc2c160f 48 85 db test %rbx %rbx  
0x00007f61cc2c1612 74 03 jz $0x00007f61cc2c1617  
Actual: 7f61cc2c1617 
Block 251: 
0x00007f61cc2c1617 48 85 f6 test %rsi %rsi  
0x00007f61cc2c161a 74 3c jz $0x00007f61cc2c1658  
Actual: 7f61cc2c1658 
Block 253: 
0x00007f61cc54eee0 8b 77 10 mov 0x10(%rdi)[4byte] -> %esi  
0x00007f61cc54eee3 48 89 fa mov %rdi -> %rdx  
0x00007f61cc54eee6 89 f0 mov %esi -> %eax  
0x00007f61cc54eee8 41 89 f0 mov %esi -> %r8d  
0x00007f61cc54eeeb 25 7f 01 00 00 and $0x0000017f %eax -> %eax  
0x00007f61cc54eef0 41 83 e0 7c and $0x0000007c %r8d -> %r8d  
0x00007f61cc54eef4 75 3a jnz $0x00007f61cc54ef30  
Actual: 7f61cc54eef6 
Block 254: 
0x00007f61cc54eef6 85 c0 test %eax %eax  
0x00007f61cc54eef8 75 46 jnz $0x00007f61cc54ef40  
Actual: 7f61cc54ef40 
Block 255: 
0x00007f61cc54ef40 3d 00 01 00 00 cmp %eax $0x00000100  
0x00007f61cc54ef45 75 0b jnz $0x00007f61cc54ef52  
Actual: 7f61cc54ef52 
Block 256: 
0x00007f61cc54ef52 89 f0 mov %esi -> %eax  
0x00007f61cc54ef54 83 e0 7f and $0x0000007f %eax -> %eax  
0x00007f61cc54ef57 83 f8 01 cmp %eax $0x00000001  
0x00007f61cc54ef5a 75 1d jnz $0x00007f61cc54ef79  
Actual: 7f61cc54ef5c 
Block 257: 
0x00007f61cc54ef5c 64 8b 04 25 d0 02 00 mov %fs:0x000002d0[4byte] -> %eax  
0x00007f61cc54ef64 39 47 08 cmp 0x08(%rdi)[4byte] %eax  
0x00007f61cc54ef67 74 08 jz $0x00007f61cc54ef71  
Actual: 7f61cc54ef71 
Block 258: 
0x00007f61cc54ef71 83 6f 04 01 sub $0x00000001 0x04(%rdi)[4byte] -> 0x04(%rdi)[4byte]  
0x00007f61cc54ef75 74 83 jz $0x00007f61cc54eefa  
Actual: 7f61cc54eefa 
Block 259: 
0x00007f61cc54eefa c7 42 08 00 00 00 00 mov $0x00000000 -> 0x08(%rdx)[4byte]  
0x00007f61cc54ef01 83 6a 0c 01 sub $0x00000001 0x0c(%rdx)[4byte] -> 0x0c(%rdx)[4byte]  
0x00007f61cc54ef05 81 e6 80 00 00 00 and $0x00000080 %esi -> %esi  
0x00007f61cc54ef0b f0 ff 0a lock dec (%rdx)[4byte] -> (%rdx)[4byte]  
0x00007f61cc54ef0e 74 16 jz $0x00007f61cc54ef26  
Actual: 7f61cc54ef26 
Block 262: 
0x00007f61cc204206 85 c0 test %eax %eax  
0x00007f61cc204208 0f 84 c7 fe ff ff jz $0x00007f61cc2040d5  
Actual: 7f61cc20420e 
Block 263: 
0x00007f61cc20420e 48 8b 44 24 08 mov 0x08(%rsp)[8byte] -> %rax  
0x00007f61cc204213 48 83 78 30 00 cmp 0x30(%rax)[8byte] $0x0000000000000000  
0x00007f61cc204218 0f 85 a6 fe ff ff jnz $0x00007f61cc2040c4  
Actual: 7f61cc20421e 
Block 264: 
0x00007f61cc20421e e9 b2 fe ff ff jmp $0x00007f61cc2040d5  
0x00007f61cc2040d5 48 8b 05 84 9c 33 00 mov <rel> 0x00007f61cc53dd60[8byte] -> %rax  
0x00007f61cc2040dc 48 8d 0d 1d aa 33 00 lea <rel> 0x00007f61cc53eb00 -> %rcx  
0x00007f61cc2040e3 64 48 89 08 mov %rcx -> %fs:(%rax)[8byte]  
0x00007f61cc2040e7 48 8b 05 ea 9c 33 00 mov <rel> 0x00007f61cc53ddd8[8byte] -> %rax  
0x00007f61cc2040ee 48 8b 28 mov (%rax)[8byte] -> %rbp  
0x00007f61cc2040f1 48 85 ed test %rbp %rbp  
0x00007f61cc2040f4 0f 84 a4 00 00 00 jz $0x00007f61cc20419e  
Actual: 7f61cc2040fa 
Block 265: 
0x00007f61cc2040fa 45 31 e4 xor %r12d %r12d -> %r12d  
0x00007f61cc2040fd 4c 8d 2d a4 1b 10 00 lea <rel> 0x00007f61cc305ca8 -> %r13  
0x00007f61cc204104 eb 0e jmp $0x00007f61cc204114  
0x00007f61cc204114 48 8b 5d 00 mov 0x00(%rbp)[8byte] -> %rbx  
0x00007f61cc204118 48 85 db test %rbx %rbx  
0x00007f61cc20411b 74 73 jz $0x00007f61cc204190  
Actual: 7f61cc20411d 
Block 266: 
0x00007f61cc20411d 80 3b 4d cmp (%rbx)[1byte] $0x4d  
0x00007f61cc204120 75 ee jnz $0x00007f61cc204110  
Actual: 7f61cc204110 
Block 267: 
0x00007f61cc204110 48 83 c5 08 add $0x0000000000000008 %rbp -> %rbp  
0x00007f61cc204114 48 8b 5d 00 mov 0x00(%rbp)[8byte] -> %rbx  
0x00007f61cc204118 48 85 db test %rbx %rbx  
0x00007f61cc20411b 74 73 jz $0x00007f61cc204190  
Actual: 7f61cc20411d 
Block 268: 
0x00007f61cc204122 80 7b 01 41 cmp 0x01(%rbx)[1byte] $0x41  
0x00007f61cc204126 75 e8 jnz $0x00007f61cc204110  
Actual: 7f61cc204128 
Block 269: 
0x00007f61cc204128 80 7b 02 4c cmp 0x02(%rbx)[1byte] $0x4c  
0x00007f61cc20412c 75 e2 jnz $0x00007f61cc204110  
Actual: 7f61cc204110 
Block 270: 
0x00007f61cc204190 4d 85 e4 test %r12 %r12  
0x00007f61cc204193 74 09 jz $0x00007f61cc20419e  
Actual: 7f61cc20419e 
Block 271: 
0x00007f61cc20419e 48 8b 05 f3 9b 33 00 mov <rel> 0x00007f61cc53dd98[8byte] -> %rax  
0x00007f61cc2041a5 48 8b 00 mov (%rax)[8byte] -> %rax  
0x00007f61cc2041a8 48 85 c0 test %rax %rax  
0x00007f61cc2041ab 74 02 jz $0x00007f61cc2041af  
Actual: 7f61cc2041af 
Block 273: 
0x00007f61cc2045ad 48 8b 03 mov (%rbx)[8byte] -> %rax  
0x00007f61cc2045b0 48 85 c0 test %rax %rax  
0x00007f61cc2045b3 0f 84 e7 fe ff ff jz $0x00007f61cc2044a0  
Actual: 7f61cc2044a0 
Block 274: 
0x00007f61cc2044a0 48 8b 05 b9 98 33 00 mov <rel> 0x00007f61cc53dd60[8byte] -> %rax  
0x00007f61cc2044a7 64 48 8b 18 mov %fs:(%rax)[8byte] -> %rbx  
0x00007f61cc2044ab 48 85 db test %rbx %rbx  
0x00007f61cc2044ae 74 08 jz $0x00007f61cc2044b8  
Actual: 7f61cc2044b0 
Block 275: 
0x00007f61cc2044b0 8b 43 04 mov 0x04(%rbx)[4byte] -> %eax  
0x00007f61cc2044b3 83 e0 04 and $0x00000004 %eax -> %eax  
0x00007f61cc2044b6 74 60 jz $0x00007f61cc204518  
Actual: 7f61cc204518 
Block 276: 
0x00007f61cc204518 be 01 00 00 00 mov $0x00000001 -> %esi  
0x00007f61cc20451d 83 3d dc f1 33 00 00 cmp <rel> 0x00007f61cc543700[4byte] $0x00000000  
0x00007f61cc204524 74 08 jz $0x00007f61cc20452e  
Actual: 7f61cc20452e 
Block 277: 
0x00007f61cc20452e 0f b1 33 cmpxchg %esi (%rbx)[4byte] %eax -> (%rbx)[4byte] %eax  
0x00007f61cc204531 74 16 jz $0x00007f61cc204549  
Actual: 7f61cc204549 
Block 279: 
0x00007f61cc20102a 48 89 f0 mov %rsi -> %rax  
0x00007f61cc20102d 41 57 push %r15 %rsp -> %rsp 0xfffffff8(%rsp)[8byte]  
0x00007f61cc20102f 41 56 push %r14 %rsp -> %rsp 0xfffffff8(%rsp)[8byte]  
0x00007f61cc201031 48 83 c0 17 add $0x0000000000000017 %rax -> %rax  
0x00007f61cc201035 41 55 push %r13 %rsp -> %rsp 0xfffffff8(%rsp)[8byte]  
0x00007f61cc201037 41 54 push %r12 %rsp -> %rsp 0xfffffff8(%rsp)[8byte]  
0x00007f61cc201039 55 push %rbp %rsp -> %rsp 0xfffffff8(%rsp)[8byte]  
0x00007f61cc20103a 53 push %rbx %rsp -> %rsp 0xfffffff8(%rsp)[8byte]  
0x00007f61cc20103b 49 89 c4 mov %rax -> %r12  
0x00007f61cc20103e 49 83 e4 f0 and $0xfffffffffffffff0 %r12 -> %r12  
0x00007f61cc201042 48 89 fd mov %rdi -> %rbp  
0x00007f61cc201045 48 81 ec a8 00 00 00 sub $0x00000000000000a8 %rsp -> %rsp  
0x00007f61cc20104c 48 83 f8 20 cmp %rax $0x0000000000000020  
0x00007f61cc201050 b8 20 00 00 00 mov $0x00000020 -> %eax  
0x00007f61cc201055 4c 0f 42 e0 cmovb %rax %r12 -> %r12  
0x00007f61cc201059 48 89 74 24 10 mov %rsi -> 0x10(%rsp)[8byte]  
0x00007f61cc20105e 31 f6 xor %esi %esi -> %esi  
0x00007f61cc201060 48 85 ff test %rdi %rdi  
0x00007f61cc201063 0f 84 73 08 00 00 jz $0x00007f61cc2018dc  
Actual: 7f61cc201069 
Block 284: 
0x00007f61cc2018ff 4c 89 e0 mov %r12 -> %rax  
0x00007f61cc201902 48 c1 e8 0c shr $0x000000000000000c %rax -> %rax  
0x00007f61cc201906 48 83 f8 0a cmp %rax $0x000000000000000a  
0x00007f61cc20190a 76 3a jbe $0x00007f61cc201946  
Actual: 7f61cc20190c 
Block 286: 
0x00007f61cc201b5b 4c 89 e0 mov %r12 -> %rax  
0x00007f61cc201b5e 48 c1 e8 12 shr $0x0000000000000012 %rax -> %rax  
0x00007f61cc201b62 8d 50 7c lea 0x7c(%rax) -> %edx  
0x00007f61cc201b65 48 83 f8 02 cmp %rax $0x0000000000000002  
0x00007f61cc201b69 b8 7e 00 00 00 mov $0x0000007e -> %eax  
0x00007f61cc201b6e 0f 46 c2 cmovbe %edx %eax -> %eax  
0x00007f61cc201b71 89 04 24 mov %eax -> (%rsp)[4byte]  
0x00007f61cc201b74 e9 ee f5 ff ff jmp $0x00007f61cc201167  
0x00007f61cc201167 f6 45 04 01 test 0x04(%rbp)[1byte] $0x01  
0x00007f61cc20116b 75 08 jnz $0x00007f61cc201175  
Actual: 7f61cc20116d 
Block 287: 
0x00007f61cc20116d 48 89 ef mov %rbp -> %rdi  
0x00007f61cc201170 e8 3b d1 ff ff call $0x00007f61cc1fe2b0 %rsp -> %rsp 0xfffffff8(%rsp)[8byte]  
0x00007f61cc1fe2b0 41 57 push %r15 %rsp -> %rsp 0xfffffff8(%rsp)[8byte]  
0x00007f61cc1fe2b2 41 56 push %r14 %rsp -> %rsp 0xfffffff8(%rsp)[8byte]  
0x00007f61cc1fe2b4 41 55 push %r13 %rsp -> %rsp 0xfffffff8(%rsp)[8byte]  
0x00007f61cc1fe2b6 41 54 push %r12 %rsp -> %rsp 0xfffffff8(%rsp)[8byte]  
0x00007f61cc1fe2b8 55 push %rbp %rsp -> %rsp 0xfffffff8(%rsp)[8byte]  
0x00007f61cc1fe2b9 53 push %rbx %rsp -> %rsp 0xfffffff8(%rsp)[8byte]  
0x00007f61cc1fe2ba 48 83 ec 78 sub $0x0000000000000078 %rsp -> %rsp  
0x00007f61cc1fe2be 48 83 3d 12 25 34 00 cmp <rel> 0x00007f61cc5407d8[8byte] $0x0000000000000000  
0x00007f61cc1fe2c6 0f 84 2f 04 00 00 jz $0x00007f61cc1fe6fb  
Actual: 7f61cc1fe6fb 
Block 288: 
0x00007f61cc1fe6fb 48 89 3c 24 mov %rdi -> (%rsp)[8byte]  
0x00007f61cc1fe6ff 66 0f 76 f6 pcmpeqd %xmm6 %xmm6 -> %xmm6  
0x00007f61cc1fe703 f3 0f 7e 1c 24 movq (%rsp)[8byte] -> %xmm3  
0x00007f61cc1fe708 48 8d 47 68 lea 0x68(%rdi) -> %rax  
0x00007f61cc1fe70c 66 0f 6c db punpcklqdq %xmm3 %xmm3 -> %xmm3  
0x00007f61cc1fe710 48 8d 97 28 08 00 00 lea 0x00000828(%rdi) -> %rdx  
0x00007f61cc1fe717 66 0f ef ed pxor %xmm5 %xmm5 -> %xmm5  
0x00007f61cc1fe71b 66 0f 6f 15 9d 0d 11 movdqa <rel> 0x00007f61cc30f4c0[16byte] -> %xmm2  
0x00007f61cc1fe723 66 0f d4 1d b5 0d 11 paddq <rel> 0x00007f61cc30f4e0[16byte] %xmm3 -> %xmm3  
0x00007f61cc1fe72b 66 0f 6f 3d 9d 0d 11 movdqa <rel> 0x00007f61cc30f4d0[16byte] -> %xmm7  
0x00007f61cc1fe733 66 0f 6f 25 b5 0d 11 movdqa <rel> 0x00007f61cc30f4f0[16byte] -> %xmm4  
0x00007f61cc1fe73b 0f 1f 44 00 00 nop 0x00(%rax,%rax,1)[4byte]  
0x00007f61cc1fe740 66 0f 6f c2 movdqa %xmm2 -> %xmm0  
0x00007f61cc1fe744 66 44 0f 6f c5 movdqa %xmm5 -> %xmm8  
0x00007f61cc1fe749 66 0f fe d7 paddd %xmm7 %xmm2 -> %xmm2  
0x00007f61cc1fe74d 48 83 c0 40 add $0x0000000000000040 %rax -> %rax  
0x00007f61cc1fe751 66 0f fe c6 paddd %xmm6 %xmm0 -> %xmm0  
0x00007f61cc1fe755 66 0f 72 f0 01 pslld $0x01 %xmm0 -> %xmm0  
0x00007f61cc1fe75a 66 44 0f 66 c0 pcmpgtd %xmm0 %xmm8 -> %xmm8  
0x00007f61cc1fe75f 66 0f 6f c8 movdqa %xmm0 -> %xmm1  
0x00007f61cc1fe763 66 41 0f 6a c0 punpckhdq %xmm8 %xmm0 -> %xmm0  
0x00007f61cc1fe768 66 41 0f 62 c8 punpckldq %xmm8 %xmm1 -> %xmm1  
0x00007f61cc1fe76d 66 0f d4 c4 paddq %xmm4 %xmm0 -> %xmm0  
0x00007f61cc1fe771 66 0f 73 f0 03 psllq $0x03 %xmm0 -> %xmm0  
0x00007f61cc1fe776 66 0f d4 c3 paddq %xmm3 %xmm0 -> %xmm0  
0x00007f61cc1fe77a 66 0f d4 cc paddq %xmm4 %xmm1 -> %xmm1  
0x00007f61cc1fe77e 66 0f 73 f1 03 psllq $0x03 %xmm1 -> %xmm1  
0x00007f61cc1fe783 66 0f d4 cb paddq %xmm3 %xmm1 -> %xmm1  
0x00007f61cc1fe787 66 44 0f 6f c1 movdqa %xmm1 -> %xmm8  
0x00007f61cc1fe78c 66 44 0f 6c c1 punpcklqdq %xmm1 %xmm8 -> %xmm8  
0x00007f61cc1fe791 66 0f 6d c9 punpckhqdq %xmm1 %xmm1 -> %xmm1  
0x00007f61cc1fe795 44 0f 11 40 c0 movups %xmm8 -> 0xffffffc0(%rax)[16byte]  
0x00007f61cc1fe79a 0f 11 48 d0 movups %xmm1 -> 0xffffffd0(%rax)[16byte]  
0x00007f61cc1fe79e 66 0f 6f c8 movdqa %xmm0 -> %xmm1  
0x00007f61cc1fe7a2 66 0f 6c c8 punpcklqdq %xmm0 %xmm1 -> %xmm1  
0x00007f61cc1fe7a6 66 0f 6d c0 punpckhqdq %xmm0 %xmm0 -> %xmm0  
0x00007f61cc1fe7aa 0f 11 48 e0 movups %xmm1 -> 0xffffffe0(%rax)[16byte]  
0x00007f61cc1fe7ae 0f 11 40 f0 movups %xmm0 -> 0xfffffff0(%rax)[16byte]  
0x00007f61cc1fe7b2 48 39 d0 cmp %rax %rdx  
0x00007f61cc1fe7b5 75 89 jnz $0x00007f61cc1fe740  
Actual: 7f61cc1fe740 
Block 289: 
0x00007f61cc1fe740 66 0f 6f c2 movdqa %xmm2 -> %xmm0  
0x00007f61cc1fe744 66 44 0f 6f c5 movdqa %xmm5 -> %xmm8  
0x00007f61cc1fe749 66 0f fe d7 paddd %xmm7 %xmm2 -> %xmm2  
0x00007f61cc1fe74d 48 83 c0 40 add $0x0000000000000040 %rax -> %rax  
0x00007f61cc1fe751 66 0f fe c6 paddd %xmm6 %xmm0 -> %xmm0  
0x00007f61cc1fe755 66 0f 72 f0 01 pslld $0x01 %xmm0 -> %xmm0  
0x00007f61cc1fe75a 66 44 0f 66 c0 pcmpgtd %xmm0 %xmm8 -> %xmm8  
0x00007f61cc1fe75f 66 0f 6f c8 movdqa %xmm0 -> %xmm1  
0x00007f61cc1fe763 66 41 0f 6a c0 punpckhdq %xmm8 %xmm0 -> %xmm0  
0x00007f61cc1fe768 66 41 0f 62 c8 punpckldq %xmm8 %xmm1 -> %xmm1  
0x00007f61cc1fe76d 66 0f d4 c4 paddq %xmm4 %xmm0 -> %xmm0  
0x00007f61cc1fe771 66 0f 73 f0 03 psllq $0x03 %xmm0 -> %xmm0  
0x00007f61cc1fe776 66 0f d4 c3 paddq %xmm3 %xmm0 -> %xmm0  
0x00007f61cc1fe77a 66 0f d4 cc paddq %xmm4 %xmm1 -> %xmm1  
0x00007f61cc1fe77e 66 0f 73 f1 03 psllq $0x03 %xmm1 -> %xmm1  
0x00007f61cc1fe783 66 0f d4 cb paddq %xmm3 %xmm1 -> %xmm1  
0x00007f61cc1fe787 66 44 0f 6f c1 movdqa %xmm1 -> %xmm8  
0x00007f61cc1fe78c 66 44 0f 6c c1 punpcklqdq %xmm1 %xmm8 -> %xmm8  
0x00007f61cc1fe791 66 0f 6d c9 punpckhqdq %xmm1 %xmm1 -> %xmm1  
0x00007f61cc1fe795 44 0f 11 40 c0 movups %xmm8 -> 0xffffffc0(%rax)[16byte]  
0x00007f61cc1fe79a 0f 11 48 d0 movups %xmm1 -> 0xffffffd0(%rax)[16byte]  
0x00007f61cc1fe79e 66 0f 6f c8 movdqa %xmm0 -> %xmm1  
0x00007f61cc1fe7a2 66 0f 6c c8 punpcklqdq %xmm0 %xmm1 -> %xmm1  
0x00007f61cc1fe7a6 66 0f 6d c0 punpckhqdq %xmm0 %xmm0 -> %xmm0  
0x00007f61cc1fe7aa 0f 11 48 e0 movups %xmm1 -> 0xffffffe0(%rax)[16byte]  
0x00007f61cc1fe7ae 0f 11 40 f0 movups %xmm0 -> 0xfffffff0(%rax)[16byte]  
0x00007f61cc1fe7b2 48 39 d0 cmp %rax %rdx  
0x00007f61cc1fe7b5 75 89 jnz $0x00007f61cc1fe740  
Actual: 7f61cc1fe740 
Block 290: 
0x00007f61cc1fe7b7 48 89 87 40 08 00 00 mov %rax -> 0x00000840(%rdi)[8byte]  
0x00007f61cc1fe7be 48 89 87 38 08 00 00 mov %rax -> 0x00000838(%rdi)[8byte]  
0x00007f61cc1fe7c5 48 8d 87 38 08 00 00 lea 0x00000838(%rdi) -> %rax  
0x00007f61cc1fe7cc 48 8d 97 18 08 00 00 lea 0x00000818(%rdi) -> %rdx  
0x00007f61cc1fe7d3 48 89 87 50 08 00 00 mov %rax -> 0x00000850(%rdi)[8byte]  
0x00007f61cc1fe7da 48 89 87 48 08 00 00 mov %rax -> 0x00000848(%rdi)[8byte]  
0x00007f61cc1fe7e1 48 8d 05 18 03 34 00 lea <rel> 0x00007f61cc53eb00 -> %rax  
0x00007f61cc1fe7e8 48 89 97 30 08 00 00 mov %rdx -> 0x00000830(%rdi)[8byte]  
0x00007f61cc1fe7ef 48 89 97 28 08 00 00 mov %rdx -> 0x00000828(%rdi)[8byte]  
0x00007f61cc1fe7f6 48 39 c7 cmp %rdi %rax  
0x00007f61cc1fe7f9 0f 84 0b 03 00 00 jz $0x00007f61cc1feb0a  
Actual: 7f61cc1feb0a 
Block 292: 
0x00007f61cc201175 4c 89 e0 mov %r12 -> %rax  
0x00007f61cc201178 4c 89 e7 mov %r12 -> %rdi  
0x00007f61cc20117b 4c 8d 6d 58 lea 0x58(%rbp) -> %r13  
0x00007f61cc20117f 48 c1 e8 06 shr $0x0000000000000006 %rax -> %rax  
0x00007f61cc201183 48 c1 ef 09 shr $0x0000000000000009 %rdi -> %rdi  
0x00007f61cc201187 4c 89 e1 mov %r12 -> %rcx  
0x00007f61cc20118a 48 89 44 24 40 mov %rax -> 0x40(%rsp)[8byte]  
0x00007f61cc20118f 83 c0 30 add $0x00000030 %eax -> %eax  
0x00007f61cc201192 48 89 7c 24 50 mov %rdi -> 0x50(%rsp)[8byte]  
0x00007f61cc201197 89 44 24 4c mov %eax -> 0x4c(%rsp)[4byte]  
0x00007f61cc20119b 83 c7 5b add $0x0000005b %edi -> %edi  
0x00007f61cc20119e 44 89 e0 mov %r12d -> %eax  
0x00007f61cc2011a1 c1 e8 04 shr $0x00000004 %eax -> %eax  
0x00007f61cc2011a4 89 7c 24 60 mov %edi -> 0x60(%rsp)[4byte]  
0x00007f61cc2011a8 48 8d bc 24 80 00 00 lea 0x00000080(%rsp) -> %rdi  
0x00007f61cc2011b0 4c 89 e3 mov %r12 -> %rbx  
0x00007f61cc2011b3 4c 89 e6 mov %r12 -> %rsi  
0x00007f61cc2011b6 89 44 24 48 mov %eax -> 0x48(%rsp)[4byte]  
0x00007f61cc2011ba b8 01 00 00 00 mov $0x00000001 -> %eax  
0x00007f61cc2011bf 48 c1 e9 0c shr $0x000000000000000c %rcx -> %rcx  
0x00007f61cc2011c3 48 c1 eb 0f shr $0x000000000000000f %rbx -> %rbx  
0x00007f61cc2011c7 48 c1 ee 12 shr $0x0000000000000012 %rsi -> %rsi  
0x00007f61cc2011cb 48 29 f8 sub %rdi %rax -> %rax  
0x00007f61cc2011ce 48 89 4c 24 58 mov %rcx -> 0x58(%rsp)[8byte]  
0x00007f61cc2011d3 48 89 5c 24 68 mov %rbx -> 0x68(%rsp)[8byte]  
0x00007f61cc2011d8 48 89 74 24 70 mov %rsi -> 0x70(%rsp)[8byte]  
0x00007f61cc2011dd 83 c3 77 add $0x00000077 %ebx -> %ebx  
0x00007f61cc2011e0 83 c6 7c add $0x0000007c %esi -> %esi  
0x00007f61cc2011e3 83 c1 6e add $0x0000006e %ecx -> %ecx  
0x00007f61cc2011e6 48 89 44 24 38 mov %rax -> 0x38(%rsp)[8byte]  
0x00007f61cc2011eb 4c 89 e8 mov %r13 -> %rax  
0x00007f61cc2011ee 89 74 24 7c mov %esi -> 0x7c(%rsp)[4byte]  
0x00007f61cc2011f2 4d 89 e5 mov %r12 -> %r13  
0x00007f61cc2011f5 89 5c 24 78 mov %ebx -> 0x78(%rsp)[4byte]  
0x00007f61cc2011f9 89 4c 24 64 mov %ecx -> 0x64(%rsp)[4byte]  
0x00007f61cc2011fd 49 89 c4 mov %rax -> %r12  
0x00007f61cc201200 48 89 7c 24 08 mov %rdi -> 0x08(%rsp)[8byte]  
0x00007f61cc201205 48 8d 44 24 7f lea 0x7f(%rsp) -> %rax  
0x00007f61cc20120a 41 bf 10 27 00 00 mov $0x00002710 -> %r15d  
0x00007f61cc201210 48 89 44 24 18 mov %rax -> 0x18(%rsp)[8byte]  
0x00007f61cc201215 eb 53 jmp $0x00007f61cc20126a  
0x00007f61cc20126a 48 8b 5d 70 mov 0x70(%rbp)[8byte] -> %rbx  
0x00007f61cc20126e 4c 39 e3 cmp %rbx %r12  
0x00007f61cc201271 0f 84 79 03 00 00 jz $0x00007f61cc2015f0  
Actual: 7f61cc2015f0 
Block 294: 
0x00007f61cc20179e 8b 04 24 mov (%rsp)[4byte] -> %eax  
0x00007f61cc2017a1 05 ff ff ff 7f add $0x7fffffff %eax -> %eax  
0x00007f61cc2017a6 01 c0 add %eax %eax -> %eax  
0x00007f61cc2017a8 48 8d 44 c5 68 lea 0x68(%rbp,%rax,8) -> %rax  
0x00007f61cc2017ad 48 8b 10 mov (%rax)[8byte] -> %rdx  
0x00007f61cc2017b0 48 8d 48 f0 lea 0xfffffff0(%rax) -> %rcx  
0x00007f61cc2017b4 48 39 ca cmp %rdx %rcx  
0x00007f61cc2017b7 0f 84 40 fe ff ff jz $0x00007f61cc2015fd  
Actual: 7f61cc2015fd 
Block 298: 
0x00007f61cc2016be f6 45 04 01 test 0x04(%rbp)[1byte] $0x01  
0x00007f61cc2016c2 0f 85 0e 02 00 00 jnz $0x00007f61cc2018d6  
Actual: 7f61cc2018d6 
Block 299: 
0x00007f61cc2018d6 4d 89 ec mov %r13 -> %r12  
0x00007f61cc2018d9 48 89 ee mov %rbp -> %rsi  
0x00007f61cc2018dc 4c 89 e7 mov %r12 -> %rdi  
0x00007f61cc2018df e8 3c ee ff ff call $0x00007f61cc200720 %rsp -> %rsp 0xfffffff8(%rsp)[8byte]  
0x00007f61cc200720 41 57 push %r15 %rsp -> %rsp 0xfffffff8(%rsp)[8byte]  
0x00007f61cc200722 41 56 push %r14 %rsp -> %rsp 0xfffffff8(%rsp)[8byte]  
0x00007f61cc200724 41 55 push %r13 %rsp -> %rsp 0xfffffff8(%rsp)[8byte]  
0x00007f61cc200726 41 54 push %r12 %rsp -> %rsp 0xfffffff8(%rsp)[8byte]  
0x00007f61cc200728 55 push %rbp %rsp -> %rsp 0xfffffff8(%rsp)[8byte]  
0x00007f61cc200729 53 push %rbx %rsp -> %rsp 0xfffffff8(%rsp)[8byte]  
0x00007f61cc20072a 48 89 fb mov %rdi -> %rbx  
0x00007f61cc20072d 48 83 ec 68 sub $0x0000000000000068 %rsp -> %rsp  
0x00007f61cc200731 48 8b 05 28 d7 33 00 mov <rel> 0x00007f61cc53de60[8byte] -> %rax  
0x00007f61cc200738 48 85 f6 test %rsi %rsi  
0x00007f61cc20073b 4c 8b 70 18 mov 0x18(%rax)[8byte] -> %r14  
0x00007f61cc20073f 0f 84 6b 02 00 00 jz $0x00007f61cc2009b0  
Actual: 7f61cc200745 
Block 300: 
0x00007f61cc200745 48 39 3d 04 da 33 00 cmp <rel> 0x00007f61cc53e150[8byte] %rdi  
0x00007f61cc20074c 48 89 f5 mov %rsi -> %rbp  
0x00007f61cc20074f 0f 86 23 01 00 00 jbe $0x00007f61cc200878  
Actual: 7f61cc200878 
Block 302: 
0x00007f61cc20088a 4d 8d 64 3e 07 lea 0x07(%r14,%rdi,1) -> %r12  
0x00007f61cc20088f 4c 89 f0 mov %r14 -> %rax  
0x00007f61cc200892 48 f7 d8 neg %rax -> %rax  
0x00007f61cc200895 49 21 c4 and %rax %r12 -> %r12  
0x00007f61cc200898 4c 39 e7 cmp %rdi %r12  
0x00007f61cc20089b 0f 82 0c 07 00 00 jb $0x00007f61cc200fad  
Actual: 7f61cc200fad 
Block 303: 
0x00007f61cc200fad 45 31 c9 xor %r9d %r9d -> %r9d  
0x00007f61cc200fb0 41 83 c8 ff or $0xffffffff %r8d -> %r8d  
0x00007f61cc200fb4 ba 03 00 00 00 mov $0x00000003 -> %edx  
0x00007f61cc200fb9 31 ff xor %edi %edi -> %edi  
0x00007f61cc200fbb b9 22 00 00 00 mov $0x00000022 -> %ecx  
0x00007f61cc200fc0 4c 89 e6 mov %r12 -> %rsi  
0x00007f61cc200fc3 e8 d8 e1 07 00 call $0x00007f61cc27f1a0 %rsp -> %rsp 0xfffffff8(%rsp)[8byte]  
0x00007f61cc27f1a0 48 85 ff test %rdi %rdi  
0x00007f61cc27f1a3 41 57 push %r15 %rsp -> %rsp 0xfffffff8(%rsp)[8byte]  
0x00007f61cc27f1a5 4d 89 cf mov %r9 -> %r15  
0x00007f61cc27f1a8 41 56 push %r14 %rsp -> %rsp 0xfffffff8(%rsp)[8byte]  
0x00007f61cc27f1aa 41 89 ce mov %ecx -> %r14d  
0x00007f61cc27f1ad 41 55 push %r13 %rsp -> %rsp 0xfffffff8(%rsp)[8byte]  
0x00007f61cc27f1af 49 89 f5 mov %rsi -> %r13  
0x00007f61cc27f1b2 41 54 push %r12 %rsp -> %rsp 0xfffffff8(%rsp)[8byte]  
0x00007f61cc27f1b4 49 89 fc mov %rdi -> %r12  
0x00007f61cc27f1b7 55 push %rbp %rsp -> %rsp 0xfffffff8(%rsp)[8byte]  
0x00007f61cc27f1b8 53 push %rbx %rsp -> %rsp 0xfffffff8(%rsp)[8byte]  
0x00007f61cc27f1b9 74 35 jz $0x00007f61cc27f1f0  
Actual: 7f61cc27f1f0 
Block 304: 
0x00007f61cc27f1f0 f6 c2 04 test %dl $0x04  
0x00007f61cc27f1f3 74 c6 jz $0x00007f61cc27f1bb  
Actual: 7f61cc27f1bb 
Block 308: 
0x00007f61cc200fc8 48 83 f8 ff cmp %rax $0xffffffffffffffff  
0x00007f61cc200fcc 48 89 c2 mov %rax -> %rdx  
0x00007f61cc200fcf 0f 85 19 fa ff ff jnz $0x00007f61cc2009ee  
Actual: 7f61cc2009ee 
Block 310: 
0x00007f61cc200a13 f0 0f b1 0d 55 d7 33 lock cmpxchg %ecx <rel> 0x00007f61cc53e170[4byte] %eax -> <rel> 0x00007f61cc53e170[4byte] %eax  
0x00007f61cc200a1b 75 ec jnz $0x00007f61cc200a09  
Actual: 7f61cc200a1d 
Block 311: 
0x00007f61cc200a1d 4d 89 e6 mov %r12 -> %r14  
0x00007f61cc200a20 f0 4c 0f c1 35 4f d7 lock xadd <rel> 0x00007f61cc53e178[8byte] %r14 -> <rel> 0x00007f61cc53e178[8byte] %r14  
33 00 
0x00007f61cc200a29 4d 01 f4 add %r14 %r12 -> %r12  
0x00007f61cc200a2c 48 8b 05 4d d7 33 00 mov <rel> 0x00007f61cc53e180[8byte] -> %rax  
0x00007f61cc200a33 49 39 c4 cmp %r12 %rax  
0x00007f61cc200a36 0f 86 22 fe ff ff jbe $0x00007f61cc20085e  
Actual: 7f61cc200a3c 
Block 312: 
0x00007f61cc200a3c f0 4c 0f b1 25 3b d7 lock cmpxchg %r12 <rel> 0x00007f61cc53e180[8byte] %rax -> <rel> 0x00007f61cc53e180[8byte] %rax  
33 00 
0x00007f61cc200a45 0f 84 13 fe ff ff jz $0x00007f61cc20085e  
Actual: 7f61cc20085e 
Block 314: 
0x00007f61cc2018e4 48 85 c0 test %rax %rax  
0x00007f61cc2018e7 49 89 c2 mov %rax -> %r10  
0x00007f61cc2018ea 74 52 jz $0x00007f61cc20193e  
Actual: 7f61cc2018ec 
Block 315: 
0x00007f61cc2018ec 8b 05 e2 ee 33 00 mov <rel> 0x00007f61cc5407d4[4byte] -> %eax  
0x00007f61cc2018f2 85 c0 test %eax %eax  
0x00007f61cc2018f4 0f 84 e1 fc ff ff jz $0x00007f61cc2015db  
Actual: 7f61cc2015db 
Block 317: 
0x00007f61cc2044d4 48 85 c0 test %rax %rax  
0x00007f61cc2044d7 48 89 c2 mov %rax -> %rdx  
0x00007f61cc2044da 0f 84 98 00 00 00 jz $0x00007f61cc204578  
Actual: 7f61cc2044e0 
Block 318: 
0x00007f61cc2044e0 83 3d 19 f2 33 00 00 cmp <rel> 0x00007f61cc543700[4byte] $0x00000000  
0x00007f61cc2044e7 74 07 jz $0x00007f61cc2044f0  
Actual: 7f61cc2044f0 
Block 319: 
0x00007f61cc2044f0 ff 0b dec (%rbx)[4byte] -> (%rbx)[4byte]  
0x00007f61cc2044f2 74 16 jz $0x00007f61cc20450a  
Actual: 7f61cc20450a 
Block 321: 
0x00007f61cc1ed2d5 48 89 c6 mov %rax -> %rsi  
0x00007f61cc1ed2d8 b8 ff ff ff ff mov $0xffffffff -> %eax  
0x00007f61cc1ed2dd 48 85 f6 test %rsi %rsi  
0x00007f61cc1ed2e0 74 16 jz $0x00007f61cc1ed2f8  
Actual: 7f61cc1ed2e2 
Block 322: 
0x00007f61cc1ed2e2 48 8d 14 1e lea (%rsi,%rbx,1) -> %rdx  
0x00007f61cc1ed2e6 b9 01 00 00 00 mov $0x00000001 -> %ecx  
0x00007f61cc1ed2eb 48 89 ef mov %rbp -> %rdi  
0x00007f61cc1ed2ee e8 8d e0 00 00 call $0x00007f61cc1fb380 %rsp -> %rsp 0xfffffff8(%rsp)[8byte]  
0x00007f61cc1fb380 53 push %rbx %rsp -> %rsp 0xfffffff8(%rsp)[8byte]  
0x00007f61cc1fb381 48 89 fb mov %rdi -> %rbx  
0x00007f61cc1fb384 48 83 ec 20 sub $0x0000000000000020 %rsp -> %rsp  
0x00007f61cc1fb388 48 8b 7f 38 mov 0x38(%rdi)[8byte] -> %rdi  
0x00007f61cc1fb38c 8b 03 mov (%rbx)[4byte] -> %eax  
0x00007f61cc1fb38e 48 85 ff test %rdi %rdi  
0x00007f61cc1fb391 74 04 jz $0x00007f61cc1fb397  
Actual: 7f61cc1fb397 
Block 325: 
0x00007f61cc1fb414 83 f8 ff cmp %eax $0xffffffff  
0x00007f61cc1fb417 74 07 jz $0x00007f61cc1fb420  
Actual: 7f61cc1fb419 
Block 327: 
0x00007f61cc1fa768 48 8b 53 38 mov 0x38(%rbx)[8byte] -> %rdx  
0x00007f61cc1fa76c 8b 0b mov (%rbx)[4byte] -> %ecx  
0x00007f61cc1fa76e 48 89 53 18 mov %rdx -> 0x18(%rbx)[8byte]  
0x00007f61cc1fa772 48 89 53 08 mov %rdx -> 0x08(%rbx)[8byte]  
0x00007f61cc1fa776 48 89 53 10 mov %rdx -> 0x10(%rbx)[8byte]  
0x00007f61cc1fa77a e9 88 fe ff ff jmp $0x00007f61cc1fa607  
0x00007f61cc1fa607 f6 c5 01 test %ch $0x01  
0x00007f61cc1fa60a 0f 85 80 00 00 00 jnz $0x00007f61cc1fa690  
Actual: 7f61cc1fa610 
Block 328: 
0x00007f61cc1fa610 48 8b 43 40 mov 0x40(%rbx)[8byte] -> %rax  
0x00007f61cc1fa614 48 39 d0 cmp %rax %rdx  
0x00007f61cc1fa617 0f 84 13 01 00 00 jz $0x00007f61cc1fa730  
Actual: 7f61cc1fa61d 
Block 330: 
0x00007f61cc1fa64d 81 e1 02 02 00 00 and $0x00000202 %ecx -> %ecx  
0x00007f61cc1fa653 0f 84 61 ff ff ff jz $0x00007f61cc1fa5ba  
Actual: 7f61cc1fa5ba 
Block 331: 
0x00007f61cc1fa5ba 83 fd ff cmp %ebp $0xffffffff  
0x00007f61cc1fa5bd 0f 84 55 01 00 00 jz $0x00007f61cc1fa718  
Actual: 7f61cc1fa718 
Block 332: 
0x00007f61cc1fa718 48 89 df mov %rbx -> %rdi  
0x00007f61cc1fa71b 48 29 f2 sub %rsi %rdx -> %rdx  
0x00007f61cc1fa71e 5b pop %rsp (%rsp)[8byte] -> %rbx %rsp  
0x00007f61cc1fa71f 5d pop %rsp (%rsp)[8byte] -> %rbp %rsp  
0x00007f61cc1fa720 41 5c pop %rsp (%rsp)[8byte] -> %r12 %rsp  
0x00007f61cc1fa722 e9 c9 fa ff ff jmp $0x00007f61cc1fa1f0  
0x00007f61cc1fa1f0 31 c0 xor %eax %eax -> %eax  
0x00007f61cc1fa1f2 48 85 d2 test %rdx %rdx  
0x00007f61cc1fa1f5 75 09 jnz $0x00007f61cc1fa200  
Actual: 7f61cc1fa1f7 
Block 334: 
0x00007f61cc1f9195 83 f8 ff cmp %eax $0xffffffff  
0x00007f61cc1f9198 74 cd jz $0x00007f61cc1f9167  
Actual: 7f61cc1f919a 
Block 336: 
0x00007f61cc1f9257 48 89 d8 mov %rbx -> %rax  
0x00007f61cc1f925a 31 d2 xor %edx %edx -> %edx  
0x00007f61cc1f925c 48 f7 f1 div %rcx %rdx %rax -> %rdx %rax  
0x00007f61cc1f925f e9 4a ff ff ff jmp $0x00007f61cc1f91ae  
0x00007f61cc1f91ae 49 89 de mov %rbx -> %r14  
0x00007f61cc1f91b1 49 29 d6 sub %rdx %r14 -> %r14  
0x00007f61cc1f91b4 0f 85 ae 00 00 00 jnz $0x00007f61cc1f9268  
Actual: 7f61cc1f91ba 
Block 337: 
0x00007f61cc1f91ba 48 85 db test %rbx %rbx  
0x00007f61cc1f91bd 74 a8 jz $0x00007f61cc1f9167  
Actual: 7f61cc1f91bf 
Block 338: 
0x00007f61cc1f91bf 4b 8d 34 34 lea (%r12,%r14,1) -> %rsi  
0x00007f61cc1f91c3 48 89 da mov %rbx -> %rdx  
0x00007f61cc1f91c6 4c 89 ef mov %r13 -> %rdi  
0x00007f61cc1f91c9 e8 e2 22 00 00 call $0x00007f61cc1fb4b0 %rsp -> %rsp 0xfffffff8(%rsp)[8byte]  
0x00007f61cc1fb4b0 48 85 d2 test %rdx %rdx  
0x00007f61cc1fb4b3 0f 84 b7 00 00 00 jz $0x00007f61cc1fb570  
Actual: 7f61cc1fb4b9 
Block 341: 
0x00007f61cc1fb4ef 48 85 db test %rbx %rbx  
0x00007f61cc1fb4f2 74 1e jz $0x00007f61cc1fb512  
Actual: 7f61cc1fb4f4 
Block 342: 
0x00007f61cc1fb4f4 31 c0 xor %eax %eax -> %eax  
0x00007f61cc1fb4f6 41 0f b6 14 06 movzx (%r14,%rax,1)[1byte] -> %edx  
0x00007f61cc1fb4fb 88 14 07 mov %dl -> (%rdi,%rax,1)[1byte]  
0x00007f61cc1fb4fe 48 83 c0 01 add $0x0000000000000001 %rax -> %rax  
0x00007f61cc1fb502 48 39 c3 cmp %rbx %rax  
0x00007f61cc1fb505 75 ef jnz $0x00007f61cc1fb4f6  
Actual: 7f61cc1fb4f6 
Block 343: 
0x00007f61cc1fb4f6 41 0f b6 14 06 movzx (%r14,%rax,1)[1byte] -> %edx  
0x00007f61cc1fb4fb 88 14 07 mov %dl -> (%rdi,%rax,1)[1byte]  
0x00007f61cc1fb4fe 48 83 c0 01 add $0x0000000000000001 %rax -> %rax  
0x00007f61cc1fb502 48 39 c3 cmp %rbx %rax  
0x00007f61cc1fb505 75 ef jnz $0x00007f61cc1fb4f6  
Actual: 7f61cc1fb4f6 
Block 344: 
0x00007f61cc1fb507 48 01 df add %rbx %rdi -> %rdi  
0x00007f61cc1fb50a 49 01 de add %rbx %r14 -> %r14  
0x00007f61cc1fb50d 49 89 7c 24 28 mov %rdi -> 0x28(%r12)[8byte]  
0x00007f61cc1fb512 48 29 dd sub %rbx %rbp -> %rbp  
0x00007f61cc1fb515 48 85 ed test %rbp %rbp  
0x00007f61cc1fb518 74 3e jz $0x00007f61cc1fb558  
Actual: 7f61cc1fb558 
Block 347: 
0x00007f61cc1ef74c 48 39 c3 cmp %rbx %rax  
0x00007f61cc1ef74f 0f 85 94 00 00 00 jnz $0x00007f61cc1ef7e9  
Actual: 7f61cc1ef755 
Block 349: 
0x00007f61cc1ef76a 48 8d 50 01 lea 0x01(%rax) -> %rdx  
0x00007f61cc1ef76e 48 89 57 28 mov %rdx -> 0x28(%rdi)[8byte]  
0x00007f61cc1ef772 c6 00 0a mov $0x0a -> (%rax)[1byte]  
0x00007f61cc1ef775 48 83 c3 01 add $0x0000000000000001 %rbx -> %rbx  
0x00007f61cc1ef779 b8 ff ff ff 7f mov $0x7fffffff -> %eax  
0x00007f61cc1ef77e 48 81 fb ff ff ff 7f cmp %rbx $0x000000007fffffff  
0x00007f61cc1ef785 48 0f 47 d8 cmovnbe %rax %rbx -> %rbx  
0x00007f61cc1ef789 f7 45 00 00 80 00 00 test 0x00(%rbp)[4byte] $0x00008000  
0x00007f61cc1ef790 75 3f jnz $0x00007f61cc1ef7d1  
Actual: 7f61cc1ef792 
Block 350: 
0x00007f61cc1ef792 48 8b 95 88 00 00 00 mov 0x00000088(%rbp)[8byte] -> %rdx  
0x00007f61cc1ef799 83 6a 04 01 sub $0x00000001 0x04(%rdx)[4byte] -> 0x04(%rdx)[4byte]  
0x00007f61cc1ef79d 75 32 jnz $0x00007f61cc1ef7d1  
Actual: 7f61cc1ef79f 
Block 351: 
0x00007f61cc1ef79f 48 c7 42 08 00 00 00 mov $0x0000000000000000 -> 0x08(%rdx)[8byte]  
0x00007f61cc1ef7a7 83 3d 52 3f 35 00 00 cmp <rel> 0x00007f61cc543700[4byte] $0x00000000  
0x00007f61cc1ef7ae 74 07 jz $0x00007f61cc1ef7b7  
Actual: 7f61cc1ef7b7 
Block 352: 
0x00007f61cc1ef7b7 ff 0a dec (%rdx)[4byte] -> (%rdx)[4byte]  
0x00007f61cc1ef7b9 74 16 jz $0x00007f61cc1ef7d1  
Actual: 7f61cc1ef7d1 
Block 356: 
0x00007f61cc98b340 66 0f ef c0 pxor %xmm0 %xmm0 -> %xmm0  
0x00007f61cc98b344 66 0f 6f 17 movdqa (%rdi)[16byte] -> %xmm2  
0x00007f61cc98b348 66 0f 6f 0e movdqa (%rsi)[16byte] -> %xmm1  
0x00007f61cc98b34c 66 0f 74 c1 pcmpeqb %xmm1 %xmm0 -> %xmm0  
0x00007f61cc98b350 66 0f 73 fa 0a pslldq $0x0a %xmm2 -> %xmm2  
0x00007f61cc98b355 66 0f 74 d1 pcmpeqb %xmm1 %xmm2 -> %xmm2  
0x00007f61cc98b359 66 0f f8 d0 psubb %xmm0 %xmm2 -> %xmm2  
0x00007f61cc98b35d 66 44 0f d7 ca pmovmskb %xmm2 -> %r9d  
0x00007f61cc98b362 d3 ea shr %cl %edx -> %edx  
0x00007f61cc98b364 41 d3 e9 shr %cl %r9d -> %r9d  
0x00007f61cc98b367 44 29 ca sub %r9d %edx -> %edx  
0x00007f61cc98b36a 0f 85 55 0c 00 00 jnz $0x00007f61cc98bfc5  
Actual: 7f61cc98b370 
Block 358: 
0x00007f61cc98b3aa 66 0f 6f 0c 0e movdqa (%rsi,%rcx,1)[16byte] -> %xmm1  
0x00007f61cc98b3af 66 0f 6f 14 0f movdqa (%rdi,%rcx,1)[16byte] -> %xmm2  
0x00007f61cc98b3b4 66 0f 6f e2 movdqa %xmm2 -> %xmm4  
0x00007f61cc98b3b8 66 0f 73 db 06 psrldq $0x06 %xmm3 -> %xmm3  
0x00007f61cc98b3bd 66 0f 73 fa 0a pslldq $0x0a %xmm2 -> %xmm2  
0x00007f61cc98b3c2 66 0f eb d3 por %xmm3 %xmm2 -> %xmm2  
0x00007f61cc98b3c6 66 0f 74 c1 pcmpeqb %xmm1 %xmm0 -> %xmm0  
0x00007f61cc98b3ca 66 0f 74 ca pcmpeqb %xmm2 %xmm1 -> %xmm1  
0x00007f61cc98b3ce 66 0f f8 c8 psubb %xmm0 %xmm1 -> %xmm1  
0x00007f61cc98b3d2 66 0f d7 d1 pmovmskb %xmm1 -> %edx  
0x00007f61cc98b3d6 81 ea ff ff 00 00 sub $0x0000ffff %edx -> %edx  
0x00007f61cc98b3dc 0f 85 de 0b 00 00 jnz $0x00007f61cc98bfc0  
Actual: 7f61cc98bfc0 
Block 359: 
0x00007f61cc202f19 48 8b 05 40 ae 33 00 mov <rel> 0x00007f61cc53dd60[8byte] -> %rax  
0x00007f61cc202f20 48 89 fd mov %rdi -> %rbp  
0x00007f61cc202f23 64 48 8b 18 mov %fs:(%rax)[8byte] -> %rbx  
0x00007f61cc202f27 48 85 db test %rbx %rbx  
0x00007f61cc202f2a 74 08 jz $0x00007f61cc202f34  
Actual: 7f61cc202f2c 
Block 360: 
0x00007f61cc202f2c 8b 43 04 mov 0x04(%rbx)[4byte] -> %eax  
0x00007f61cc202f2f 83 e0 04 and $0x00000004 %eax -> %eax  
0x00007f61cc202f32 74 5c jz $0x00007f61cc202f90  
Actual: 7f61cc202f90 
Block 361: 
0x00007f61cc202f90 be 01 00 00 00 mov $0x00000001 -> %esi  
0x00007f61cc202f95 83 3d 64 07 34 00 00 cmp <rel> 0x00007f61cc543700[4byte] $0x00000000  
0x00007f61cc202f9c 74 08 jz $0x00007f61cc202fa6  
Actual: 7f61cc202fa6 
Block 362: 
0x00007f61cc202fa6 0f b1 33 cmpxchg %esi (%rbx)[4byte] %eax -> (%rbx)[4byte] %eax  
0x00007f61cc202fa9 74 16 jz $0x00007f61cc202fc1  
Actual: 7f61cc202fc1 
Block 364: 
0x00007f61cc202f50 48 85 c0 test %rax %rax  
0x00007f61cc202f53 48 89 c2 mov %rax -> %rdx  
0x00007f61cc202f56 0f 84 9c 00 00 00 jz $0x00007f61cc202ff8  
Actual: 7f61cc202f5c 
Block 365: 
0x00007f61cc202f5c 83 3d 9d 07 34 00 00 cmp <rel> 0x00007f61cc543700[4byte] $0x00000000  
0x00007f61cc202f63 74 07 jz $0x00007f61cc202f6c  
Actual: 7f61cc202f6c 
Block 366: 
0x00007f61cc202f6c ff 0b dec (%rbx)[4byte] -> (%rbx)[4byte]  
0x00007f61cc202f6e 74 16 jz $0x00007f61cc202f86  
Actual: 7f61cc202f86 
Block 368: 
0x0000000000400be1 48 85 c0 test %rax %rax  
0x0000000000400be4 48 89 43 10 mov %rax -> 0x10(%rbx)[8byte]  
0x0000000000400be8 74 3d jz $0x0000000000400c27  
Actual: 400bea 
Block 372: 
0x0000000000400c0b 48 83 c3 18 add $0x0000000000000018 %rbx -> %rbx  
0x0000000000400c0f 49 39 dc cmp %r12 %rbx  
0x0000000000400c12 75 a4 jnz $0x0000000000400bb8  
Actual: 400bb8 
Block 377: 
0x00007f61cc20a1ea 48 83 e0 f0 and $0xfffffffffffffff0 %rax -> %rax  
0x00007f61cc20a1ee 66 0f 74 48 10 pcmpeqb 0x10(%rax)[16byte] %xmm1 -> %xmm1  
0x00007f61cc20a1f3 66 0f 74 50 20 pcmpeqb 0x20(%rax)[16byte] %xmm2 -> %xmm2  
0x00007f61cc20a1f8 66 0f 74 58 30 pcmpeqb 0x30(%rax)[16byte] %xmm3 -> %xmm3  
0x00007f61cc20a1fd 66 0f d7 d1 pmovmskb %xmm1 -> %edx  
0x00007f61cc20a201 66 44 0f d7 c2 pmovmskb %xmm2 -> %r8d  
0x00007f61cc20a206 66 0f d7 cb pmovmskb %xmm3 -> %ecx  
0x00007f61cc20a20a 48 c1 e2 10 shl $0x0000000000000010 %rdx -> %rdx  
0x00007f61cc20a20e 48 c1 e1 10 shl $0x0000000000000010 %rcx -> %rcx  
0x00007f61cc20a212 4c 09 c1 or %r8 %rcx -> %rcx  
0x00007f61cc20a215 48 c1 e1 20 shl $0x0000000000000020 %rcx -> %rcx  
0x00007f61cc20a219 48 09 ca or %rcx %rdx -> %rdx  
0x00007f61cc20a21c 48 89 f9 mov %rdi -> %rcx  
0x00007f61cc20a21f 48 31 c1 xor %rax %rcx -> %rcx  
0x00007f61cc20a222 48 83 e0 c0 and $0xffffffffffffffc0 %rax -> %rax  
0x00007f61cc20a226 48 d3 fa sar %cl %rdx -> %rdx  
0x00007f61cc20a229 48 85 d2 test %rdx %rdx  
0x00007f61cc20a22c 0f 84 7e 00 00 00 jz $0x00007f61cc20a2b0  
Actual: 7f61cc20a232 
Block 379: 
0x00007f61cc1ef7e0 83 f8 ff cmp %eax $0xffffffff  
0x00007f61cc1ef7e3 0f 84 53 ff ff ff jz $0x00007f61cc1ef73c  
Actual: 7f61cc1ef73c 
Block 381: 
0x00007f61cc1f912d 48 29 fb sub %rdi %rbx -> %rbx  
0x00007f61cc1f9130 45 31 f6 xor %r14d %r14d -> %r14d  
0x00007f61cc1f9133 48 85 db test %rbx %rbx  
0x00007f61cc1f9136 0f 84 ec 00 00 00 jz $0x00007f61cc1f9228  
Actual: 7f61cc1f913c 
Block 383: 
0x00007f61cc20df96 f6 c2 01 test %dl $0x01  
0x00007f61cc20df99 74 0b jz $0x00007f61cc20dfa6  
Actual: 7f61cc20dfa6 
Block 384: 
0x00007f61cc20dfa6 f6 c2 02 test %dl $0x02  
0x00007f61cc20dfa9 74 0e jz $0x00007f61cc20dfb9  
Actual: 7f61cc20dfab 
Block 385: 
0x00007f61cc20dfab 0f b7 0e movzx (%rsi)[2byte] -> %ecx  
0x00007f61cc20dfae 66 89 0f data16 mov %cx -> (%rdi)[2byte]  
0x00007f61cc20dfb1 48 83 c6 02 add $0x0000000000000002 %rsi -> %rsi  
0x00007f61cc20dfb5 48 83 c7 02 add $0x0000000000000002 %rdi -> %rdi  
0x00007f61cc20dfb9 f6 c2 04 test %dl $0x04  
0x00007f61cc20dfbc 74 0c jz $0x00007f61cc20dfca  
Actual: 7f61cc20dfca 
Block 386: 
0x00007f61cc20dfca f6 c2 08 test %dl $0x08  
0x00007f61cc20dfcd 74 11 jz $0x00007f61cc20dfe0  
Actual: 7f61cc20dfe0 
Block 387: 
0x00007f61cc20dfe0 81 e2 f0 00 00 00 and $0x000000f0 %edx -> %edx  
0x00007f61cc20dfe6 74 23 jz $0x00007f61cc20e00b  
Actual: 7f61cc20dfe8 
Block 388: 
0x00007f61cc20dfe8 0f 1f 84 00 00 00 00 nop 0x00000000(%rax,%rax,1)[4byte]  
0x00007f61cc20dff0 48 8b 0e mov (%rsi)[8byte] -> %rcx  
0x00007f61cc20dff3 4c 8b 46 08 mov 0x08(%rsi)[8byte] -> %r8  
0x00007f61cc20dff7 48 89 0f mov %rcx -> (%rdi)[8byte]  
0x00007f61cc20dffa 4c 89 47 08 mov %r8 -> 0x08(%rdi)[8byte]  
0x00007f61cc20dffe 83 ea 10 sub $0x00000010 %edx -> %edx  
0x00007f61cc20e001 48 8d 76 10 lea 0x10(%rsi) -> %rsi  
0x00007f61cc20e005 48 8d 7f 10 lea 0x10(%rdi) -> %rdi  
0x00007f61cc20e009 75 e5 jnz $0x00007f61cc20dff0  
Actual: 7f61cc20e00b 
Block 390: 
0x00007f61cc1f9151 49 89 45 28 mov %rax -> 0x28(%r13)[8byte]  
0x00007f61cc1f9155 48 89 e8 mov %rbp -> %rax  
0x00007f61cc1f9158 48 29 d8 sub %rbx %rax -> %rax  
0x00007f61cc1f915b 48 89 c3 mov %rax -> %rbx  
0x00007f61cc1f915e 49 01 de add %rbx %r14 -> %r14  
0x00007f61cc1f9161 0f 85 19 02 00 00 jnz $0x00007f61cc1f9380  
Actual: 7f61cc1f9167 
Block 394: 
0x00007f61cc98b0c0 66 0f ef c0 pxor %xmm0 %xmm0 -> %xmm0  
0x00007f61cc98b0c4 66 0f 6f 17 movdqa (%rdi)[16byte] -> %xmm2  
0x00007f61cc98b0c8 66 0f 6f 0e movdqa (%rsi)[16byte] -> %xmm1  
0x00007f61cc98b0cc 66 0f 74 c1 pcmpeqb %xmm1 %xmm0 -> %xmm0  
0x00007f61cc98b0d0 66 0f 73 fa 0c pslldq $0x0c %xmm2 -> %xmm2  
0x00007f61cc98b0d5 66 0f 74 d1 pcmpeqb %xmm1 %xmm2 -> %xmm2  
0x00007f61cc98b0d9 66 0f f8 d0 psubb %xmm0 %xmm2 -> %xmm2  
0x00007f61cc98b0dd 66 44 0f d7 ca pmovmskb %xmm2 -> %r9d  
0x00007f61cc98b0e2 d3 ea shr %cl %edx -> %edx  
0x00007f61cc98b0e4 41 d3 e9 shr %cl %r9d -> %r9d  
0x00007f61cc98b0e7 44 29 ca sub %r9d %edx -> %edx  
0x00007f61cc98b0ea 0f 85 d5 0e 00 00 jnz $0x00007f61cc98bfc5  
Actual: 7f61cc98b0f0 
Block 396: 
0x00007f61cc98b12a 66 0f 6f 0c 0e movdqa (%rsi,%rcx,1)[16byte] -> %xmm1  
0x00007f61cc98b12f 66 0f 6f 14 0f movdqa (%rdi,%rcx,1)[16byte] -> %xmm2  
0x00007f61cc98b134 66 0f 6f e2 movdqa %xmm2 -> %xmm4  
0x00007f61cc98b138 66 0f 73 db 04 psrldq $0x04 %xmm3 -> %xmm3  
0x00007f61cc98b13d 66 0f 73 fa 0c pslldq $0x0c %xmm2 -> %xmm2  
0x00007f61cc98b142 66 0f eb d3 por %xmm3 %xmm2 -> %xmm2  
0x00007f61cc98b146 66 0f 74 c1 pcmpeqb %xmm1 %xmm0 -> %xmm0  
0x00007f61cc98b14a 66 0f 74 ca pcmpeqb %xmm2 %xmm1 -> %xmm1  
0x00007f61cc98b14e 66 0f f8 c8 psubb %xmm0 %xmm1 -> %xmm1  
0x00007f61cc98b152 66 0f d7 d1 pmovmskb %xmm1 -> %edx  
0x00007f61cc98b156 81 ea ff ff 00 00 sub $0x0000ffff %edx -> %edx  
0x00007f61cc98b15c 0f 85 5e 0e 00 00 jnz $0x00007f61cc98bfc0  
Actual: 7f61cc98bfc0 
Block 397: 
0x00007f61cc5544e0 83 3d b9 ae 20 00 00 cmp <rel> 0x00007f61cc75f3a0[4byte] $0x00000000  
0x00007f61cc5544e7 75 10 jnz $0x00007f61cc5544f9  
Actual: 7f61cc5544e9 
Block 404: 
0x00007f61cc553d80 83 3d 19 b6 20 00 00 cmp <rel> 0x00007f61cc75f3a0[4byte] $0x00000000  
0x00007f61cc553d87 75 10 jnz $0x00007f61cc553d99  
Actual: 7f61cc553d89 
Block 407: 
0x0000000000400efd 85 c0 test %eax %eax  
0x0000000000400eff 75 d7 jnz $0x0000000000400ed8  
Actual: 400ed8 
Block 412: 
0x00007f61cc553de0 83 3d b9 b5 20 00 00 cmp <rel> 0x00007f61cc75f3a0[4byte] $0x00000000  
0x00007f61cc553de7 75 10 jnz $0x00007f61cc553df9  
Actual: 7f61cc553de9 
Block 420: 
0x00007f61cc98b480 66 0f ef c0 pxor %xmm0 %xmm0 -> %xmm0  
0x00007f61cc98b484 66 0f 6f 17 movdqa (%rdi)[16byte] -> %xmm2  
0x00007f61cc98b488 66 0f 6f 0e movdqa (%rsi)[16byte] -> %xmm1  
0x00007f61cc98b48c 66 0f 74 c1 pcmpeqb %xmm1 %xmm0 -> %xmm0  
0x00007f61cc98b490 66 0f 73 fa 09 pslldq $0x09 %xmm2 -> %xmm2  
0x00007f61cc98b495 66 0f 74 d1 pcmpeqb %xmm1 %xmm2 -> %xmm2  
0x00007f61cc98b499 66 0f f8 d0 psubb %xmm0 %xmm2 -> %xmm2  
0x00007f61cc98b49d 66 44 0f d7 ca pmovmskb %xmm2 -> %r9d  
0x00007f61cc98b4a2 d3 ea shr %cl %edx -> %edx  
0x00007f61cc98b4a4 41 d3 e9 shr %cl %r9d -> %r9d  
0x00007f61cc98b4a7 44 29 ca sub %r9d %edx -> %edx  
0x00007f61cc98b4aa 0f 85 15 0b 00 00 jnz $0x00007f61cc98bfc5  
Actual: 7f61cc98b4b0 
Block 422: 
0x00007f61cc98b4ea 66 0f 6f 0c 0e movdqa (%rsi,%rcx,1)[16byte] -> %xmm1  
0x00007f61cc98b4ef 66 0f 6f 14 0f movdqa (%rdi,%rcx,1)[16byte] -> %xmm2  
0x00007f61cc98b4f4 66 0f 6f e2 movdqa %xmm2 -> %xmm4  
0x00007f61cc98b4f8 66 0f 73 db 07 psrldq $0x07 %xmm3 -> %xmm3  
0x00007f61cc98b4fd 66 0f 73 fa 09 pslldq $0x09 %xmm2 -> %xmm2  
0x00007f61cc98b502 66 0f eb d3 por %xmm3 %xmm2 -> %xmm2  
0x00007f61cc98b506 66 0f 74 c1 pcmpeqb %xmm1 %xmm0 -> %xmm0  
0x00007f61cc98b50a 66 0f 74 ca pcmpeqb %xmm2 %xmm1 -> %xmm1  
0x00007f61cc98b50e 66 0f f8 c8 psubb %xmm0 %xmm1 -> %xmm1  
0x00007f61cc98b512 66 0f d7 d1 pmovmskb %xmm1 -> %edx  
0x00007f61cc98b516 81 ea ff ff 00 00 sub $0x0000ffff %edx -> %edx  
0x00007f61cc98b51c 0f 85 9e 0a 00 00 jnz $0x00007f61cc98bfc0  
Actual: 7f61cc98bfc0 
Block 423: 
0x00007f61cc1d58a0 48 81 ec d8 00 00 00 sub $0x00000000000000d8 %rsp -> %rsp  
0x00007f61cc1d58a7 84 c0 test %al %al  
0x00007f61cc1d58a9 48 89 74 24 28 mov %rsi -> 0x28(%rsp)[8byte]  
0x00007f61cc1d58ae 48 89 54 24 30 mov %rdx -> 0x30(%rsp)[8byte]  
0x00007f61cc1d58b3 48 89 4c 24 38 mov %rcx -> 0x38(%rsp)[8byte]  
0x00007f61cc1d58b8 4c 89 44 24 40 mov %r8 -> 0x40(%rsp)[8byte]  
0x00007f61cc1d58bd 4c 89 4c 24 48 mov %r9 -> 0x48(%rsp)[8byte]  
0x00007f61cc1d58c2 74 37 jz $0x00007f61cc1d58fb  
Actual: 7f61cc1d58fb 
Block 424: 
0x00007f61cc1d58fb 48 8d 84 24 e0 00 00 lea 0x000000e0(%rsp) -> %rax  
0x00007f61cc1d5903 48 89 fe mov %rdi -> %rsi  
0x00007f61cc1d5906 48 8d 54 24 08 lea 0x08(%rsp) -> %rdx  
0x00007f61cc1d590b 48 89 44 24 10 mov %rax -> 0x10(%rsp)[8byte]  
0x00007f61cc1d5910 48 8d 44 24 20 lea 0x20(%rsp) -> %rax  
0x00007f61cc1d5915 c7 44 24 08 08 00 00 mov $0x00000008 -> 0x08(%rsp)[4byte]  
0x00007f61cc1d591d c7 44 24 0c 30 00 00 mov $0x00000030 -> 0x0c(%rsp)[4byte]  
0x00007f61cc1d5925 48 89 44 24 18 mov %rax -> 0x18(%rsp)[8byte]  
0x00007f61cc1d592a 48 8b 05 17 86 36 00 mov <rel> 0x00007f61cc53df48[8byte] -> %rax  
0x00007f61cc1d5931 48 8b 38 mov (%rax)[8byte] -> %rdi  
0x00007f61cc1d5934 e8 67 7b ff ff call $0x00007f61cc1cd4a0 %rsp -> %rsp 0xfffffff8(%rsp)[8byte]  
0x00007f61cc1cd4a0 55 push %rbp %rsp -> %rsp 0xfffffff8(%rsp)[8byte]  
0x00007f61cc1cd4a1 48 89 e5 mov %rsp -> %rbp  
0x00007f61cc1cd4a4 41 57 push %r15 %rsp -> %rsp 0xfffffff8(%rsp)[8byte]  
0x00007f61cc1cd4a6 41 56 push %r14 %rsp -> %rsp 0xfffffff8(%rsp)[8byte]  
0x00007f61cc1cd4a8 41 55 push %r13 %rsp -> %rsp 0xfffffff8(%rsp)[8byte]  
0x00007f61cc1cd4aa 41 54 push %r12 %rsp -> %rsp 0xfffffff8(%rsp)[8byte]  
0x00007f61cc1cd4ac 53 push %rbx %rsp -> %rsp 0xfffffff8(%rsp)[8byte]  
0x00007f61cc1cd4ad 48 81 ec 18 05 00 00 sub $0x0000000000000518 %rsp -> %rsp  
0x00007f61cc1cd4b4 48 8b 05 ad 09 37 00 mov <rel> 0x00007f61cc53de68[8byte] -> %rax  
0x00007f61cc1cd4bb 64 8b 00 mov %fs:(%rax)[4byte] -> %eax  
0x00007f61cc1cd4be 89 85 6c fb ff ff mov %eax -> 0xfffffb6c(%rbp)[4byte]  
0x00007f61cc1cd4c4 8b 87 c0 00 00 00 mov 0x000000c0(%rdi)[4byte] -> %eax  
0x00007f61cc1cd4ca 85 c0 test %eax %eax  
0x00007f61cc1cd4cc 0f 85 f6 00 00 00 jnz $0x00007f61cc1cd5c8  
Actual: 7f61cc1cd5c8 
Block 425: 
0x00007f61cc1cd5c8 83 f8 ff cmp %eax $0xffffffff  
0x00007f61cc1cd5cb 0f 84 0b ff ff ff jz $0x00007f61cc1cd4dc  
Actual: 7f61cc1cd4dc 
Block 426: 
0x00007f61cc1cd4dc 8b 0f mov (%rdi)[4byte] -> %ecx  
0x00007f61cc1cd4de f6 c1 08 test %cl $0x08  
0x00007f61cc1cd4e1 0f 85 f9 02 00 00 jnz $0x00007f61cc1cd7e0  
Actual: 7f61cc1cd4e7 
Block 427: 
0x00007f61cc1cd4e7 48 85 f6 test %rsi %rsi  
0x00007f61cc1cd4ea 0f 84 0e 03 00 00 jz $0x00007f61cc1cd7fe  
Actual: 7f61cc1cd4f0 
Block 428: 
0x00007f61cc1cd4f0 89 c8 mov %ecx -> %eax  
0x00007f61cc1cd4f2 49 89 d5 mov %rdx -> %r13  
0x00007f61cc1cd4f5 49 89 f4 mov %rsi -> %r12  
0x00007f61cc1cd4f8 83 e0 02 and $0x00000002 %eax -> %eax  
0x00007f61cc1cd4fb 48 89 fb mov %rdi -> %rbx  
0x00007f61cc1cd4fe 89 85 58 fb ff ff mov %eax -> 0xfffffb58(%rbp)[4byte]  
0x00007f61cc1cd504 0f 85 5e 01 00 00 jnz $0x00007f61cc1cd668  
Actual: 7f61cc1cd50a 
Block 430: 
0x00007f61cc215313 f3 0f 6f 07 movdqu (%rdi)[16byte] -> %xmm0  
0x00007f61cc215317 66 0f ef db pxor %xmm3 %xmm3 -> %xmm3  
0x00007f61cc21531b 66 0f 6f e0 movdqa %xmm0 -> %xmm4  
0x00007f61cc21531f 66 0f 74 c1 pcmpeqb %xmm1 %xmm0 -> %xmm0  
0x00007f61cc215323 66 0f 74 e3 pcmpeqb %xmm3 %xmm4 -> %xmm4  
0x00007f61cc215327 66 0f eb c4 por %xmm4 %xmm0 -> %xmm0  
0x00007f61cc21532b 66 0f d7 c0 pmovmskb %xmm0 -> %eax  
0x00007f61cc21532f 85 c0 test %eax %eax  
0x00007f61cc215331 74 0d jz $0x00007f61cc215340  
Actual: 7f61cc215333 
Block 432: 
0x00007f61cc1cd540 8b 8d 60 fb ff ff mov 0xfffffb60(%rbp)[4byte] -> %ecx  
0x00007f61cc1cd546 49 89 c7 mov %rax -> %r15  
0x00007f61cc1cd549 48 89 85 70 fb ff ff mov %rax -> 0xfffffb70(%rbp)[8byte]  
0x00007f61cc1cd550 80 e5 80 and $0x80 %ch -> %ch  
0x00007f61cc1cd553 0f 84 87 00 00 00 jz $0x00007f61cc1cd5e0  
Actual: 7f61cc1cd5e0 
Block 433: 
0x00007f61cc1cd5e0 44 8b 35 09 61 37 00 mov <rel> 0x00007f61cc5436f0[4byte] -> %r14d  
0x00007f61cc1cd5e7 45 85 f6 test %r14d %r14d  
0x00007f61cc1cd5ea 0f 85 f8 00 00 00 jnz $0x00007f61cc1cd6e8  
Actual: 7f61cc1cd6e8 
Block 435: 
0x00007f61cc553670 48 89 37 mov %rsi -> (%rdi)[8byte]  
0x00007f61cc553673 48 89 57 08 mov %rdx -> 0x08(%rdi)[8byte]  
0x00007f61cc553677 64 48 8b 04 25 f8 02 mov %fs:0x000002f8[8byte] -> %rax  
00 00 
0x00007f61cc553680 48 89 47 18 mov %rax -> 0x18(%rdi)[8byte]  
0x00007f61cc553684 64 8b 14 25 08 03 00 mov %fs:0x00000308[4byte] -> %edx  
0x00007f61cc55368c 89 d0 mov %edx -> %eax  
0x00007f61cc55368e 83 e0 02 and $0x00000002 %eax -> %eax  
0x00007f61cc553691 75 25 jnz $0x00007f61cc5536b8  
Actual: 7f61cc553693 
Block 437: 
0x00007f61cc1cd70f f7 03 00 80 00 00 test (%rbx)[4byte] $0x00008000  
0x00007f61cc1cd715 0f 84 ea fe ff ff jz $0x00007f61cc1cd605  
Actual: 7f61cc1cd605 
Block 438: 
0x00007f61cc1cd605 48 8b 93 88 00 00 00 mov 0x00000088(%rbx)[8byte] -> %rdx  
0x00007f61cc1cd60c 64 4c 8b 04 25 10 00 mov %fs:0x10[8byte] -> %r8  
00 00 
0x00007f61cc1cd615 4c 3b 42 08 cmp %r8 0x08(%rdx)[8byte]  
0x00007f61cc1cd619 74 3e jz $0x00007f61cc1cd659  
Actual: 7f61cc1cd61b 
Block 439: 
0x00007f61cc1cd61b be 01 00 00 00 mov $0x00000001 -> %esi  
0x00007f61cc1cd620 31 c0 xor %eax %eax -> %eax  
0x00007f61cc1cd622 83 3d d7 60 37 00 00 cmp <rel> 0x00007f61cc543700[4byte] $0x00000000  
0x00007f61cc1cd629 74 08 jz $0x00007f61cc1cd633  
Actual: 7f61cc1cd633 
Block 440: 
0x00007f61cc1cd633 0f b1 32 cmpxchg %esi (%rdx)[4byte] %eax -> (%rdx)[4byte] %eax  
0x00007f61cc1cd636 74 16 jz $0x00007f61cc1cd64e  
Actual: 7f61cc1cd64e 
Block 442: 
0x00007f61cc20dfb9 f6 c2 04 test %dl $0x04  
0x00007f61cc20dfbc 74 0c jz $0x00007f61cc20dfca  
Actual: 7f61cc20dfbe 
Block 443: 
0x00007f61cc20dfbe 8b 0e mov (%rsi)[4byte] -> %ecx  
0x00007f61cc20dfc0 89 0f mov %ecx -> (%rdi)[4byte]  
0x00007f61cc20dfc2 48 83 c6 04 add $0x0000000000000004 %rsi -> %rsi  
0x00007f61cc20dfc6 48 83 c7 04 add $0x0000000000000004 %rdi -> %rdi  
0x00007f61cc20dfca f6 c2 08 test %dl $0x08  
0x00007f61cc20dfcd 74 11 jz $0x00007f61cc20dfe0  
Actual: 7f61cc20dfcf 
Block 444: 
0x00007f61cc20dfcf 48 8b 0e mov (%rsi)[8byte] -> %rcx  
0x00007f61cc20dfd2 48 89 0f mov %rcx -> (%rdi)[8byte]  
0x00007f61cc20dfd5 48 83 c6 08 add $0x0000000000000008 %rsi -> %rsi  
0x00007f61cc20dfd9 48 83 c7 08 add $0x0000000000000008 %rdi -> %rdi  
0x00007f61cc20dfdd 0f 1f 00 nop (%rax)[4byte]  
0x00007f61cc20dfe0 81 e2 f0 00 00 00 and $0x000000f0 %edx -> %edx  
0x00007f61cc20dfe6 74 23 jz $0x00007f61cc20e00b  
Actual: 7f61cc20e00b 
Block 445: 
0x00007f61cc1cd579 4c 8b 8d 60 fb ff ff mov 0xfffffb60(%rbp)[8byte] -> %r9  
0x00007f61cc1cd580 49 39 c1 cmp %r9 %rax  
0x00007f61cc1cd583 0f 84 97 01 00 00 jz $0x00007f61cc1cd720  
Actual: 7f61cc1cd720 
Block 447: 
0x00007f61cc1cd748 48 8b 95 70 fb ff ff mov 0xfffffb70(%rbp)[8byte] -> %rdx  
0x00007f61cc1cd74f 80 3a 00 cmp (%rdx)[1byte] $0x00  
0x00007f61cc1cd752 0f 84 37 fe ff ff jz $0x00007f61cc1cd58f  
Actual: 7f61cc1cd758 
Block 448: 
0x00007f61cc1cd758 48 83 3d c8 5c 37 00 cmp <rel> 0x00007f61cc543428[8byte] $0x0000000000000000  
0x00007f61cc1cd760 0f 84 b1 00 00 00 jz $0x00007f61cc1cd817  
Actual: 7f61cc1cd817 
Block 449: 
0x00007f61cc1cd817 48 83 3d 11 5c 37 00 cmp <rel> 0x00007f61cc543430[8byte] $0x0000000000000000  
0x00007f61cc1cd81f 0f 85 41 ff ff ff jnz $0x00007f61cc1cd766  
Actual: 7f61cc1cd825 
Block 450: 
0x00007f61cc1cd825 48 83 3d eb 1e 37 00 cmp <rel> 0x00007f61cc53f718[8byte] $0x0000000000000000  
0x00007f61cc1cd82d c7 85 68 fb ff ff 00 mov $0x00000000 -> 0xfffffb68(%rbp)[4byte]  
00 00 00 
0x00007f61cc1cd837 74 29 jz $0x00007f61cc1cd862  
Actual: 7f61cc1cd862 
Block 453: 
0x00007f61cc1ce310 83 bd 58 fb ff ff 00 cmp 0xfffffb58(%rbp)[4byte] $0x00000000  
0x00007f61cc1ce317 41 8b 55 00 mov 0x00(%r13)[4byte] -> %edx  
0x00007f61cc1ce31b 0f 85 7b 14 00 00 jnz $0x00007f61cc1cf79c  
Actual: 7f61cc1ce321 
Block 454: 
0x00007f61cc1ce321 83 bd f8 fa ff ff 00 cmp 0xfffffaf8(%rbp)[4byte] $0x00000000  
0x00007f61cc1ce328 0f 85 53 14 00 00 jnz $0x00007f61cc1cf781  
Actual: 7f61cc1ce32e 
Block 455: 
0x00007f61cc1ce32e 83 bd 08 fb ff ff 00 cmp 0xfffffb08(%rbp)[4byte] $0x00000000  
0x00007f61cc1ce335 0f 85 bc 1b 00 00 jnz $0x00007f61cc1cfef7  
Actual: 7f61cc1ce33b 
Block 459: 
0x00007f61cc1cf32b c7 85 38 fb ff ff 01 mov $0x00000001 -> 0xfffffb38(%rbp)[4byte]  
00 00 00 
0x00007f61cc1cf335 e9 fc fe ff ff jmp $0x00007f61cc1cf236  
0x00007f61cc1cf236 41 80 fa 58 cmp %r10l $0x58  
0x00007f61cc1cf23a 8b 95 20 fb ff ff mov 0xfffffb20(%rbp)[4byte] -> %edx  
0x00007f61cc1cf240 48 8b b5 28 fb ff ff mov 0xfffffb28(%rbp)[8byte] -> %rsi  
0x00007f61cc1cf247 0f 94 c1 setz -> %cl  
0x00007f61cc1cf24a 4c 89 df mov %r11 -> %rdi  
0x00007f61cc1cf24d 44 89 8d f0 fa ff ff mov %r9d -> 0xfffffaf0(%rbp)[4byte]  
0x00007f61cc1cf254 0f b6 c9 movzx %cl -> %ecx  
0x00007f61cc1cf257 4c 89 85 c8 fa ff ff mov %r8 -> 0xfffffac8(%rbp)[8byte]  
0x00007f61cc1cf25e 44 88 95 d0 fa ff ff mov %r10l -> 0xfffffad0(%rbp)[1byte]  
0x00007f61cc1cf265 4c 89 9d f8 fa ff ff mov %r11 -> 0xfffffaf8(%rbp)[8byte]  
0x00007f61cc1cf26c e8 5f b9 ff ff call $0x00007f61cc1cabd0 %rsp -> %rsp 0xfffffff8(%rsp)[8byte]  
0x00007f61cc1cabd0 48 8d 05 a9 95 13 00 lea <rel> 0x00007f61cc304180 -> %rax  
0x00007f61cc1cabd7 4c 8d 05 62 95 13 00 lea <rel> 0x00007f61cc304140 -> %r8  
0x00007f61cc1cabde 85 c9 test %ecx %ecx  
0x00007f61cc1cabe0 4c 0f 45 c0 cmovnz %rax %r8 -> %r8  
0x00007f61cc1cabe4 83 fa 0a cmp %edx $0x0000000a  
0x00007f61cc1cabe7 74 77 jz $0x00007f61cc1cac60  
Actual: 7f61cc1cac60 
Block 460: 
0x00007f61cc1cac60 48 b9 cd cc cc cc cc mov $0xcccccccccccccccd -> %rcx  
cc cc cc 
0x00007f61cc1cac6a 66 0f 1f 44 00 00 data16 nop 0x00(%rax,%rax,1)[4byte]  
0x00007f61cc1cac70 48 89 f8 mov %rdi -> %rax  
0x00007f61cc1cac73 48 83 ee 01 sub $0x0000000000000001 %rsi -> %rsi  
0x00007f61cc1cac77 48 f7 e1 mul %rcx %rax -> %rdx %rax  
0x00007f61cc1cac7a 48 c1 ea 03 shr $0x0000000000000003 %rdx -> %rdx  
0x00007f61cc1cac7e 48 8d 04 92 lea (%rdx,%rdx,4) -> %rax  
0x00007f61cc1cac82 48 01 c0 add %rax %rax -> %rax  
0x00007f61cc1cac85 48 29 c7 sub %rax %rdi -> %rdi  
0x00007f61cc1cac88 48 85 d2 test %rdx %rdx  
0x00007f61cc1cac8b 41 0f b6 04 38 movzx (%r8,%rdi,1)[1byte] -> %eax  
0x00007f61cc1cac90 48 89 d7 mov %rdx -> %rdi  
0x00007f61cc1cac93 88 06 mov %al -> (%rsi)[1byte]  
0x00007f61cc1cac95 75 d9 jnz $0x00007f61cc1cac70  
Actual: 7f61cc1cac70 
Block 461: 
0x00007f61cc1cac70 48 89 f8 mov %rdi -> %rax  
0x00007f61cc1cac73 48 83 ee 01 sub $0x0000000000000001 %rsi -> %rsi  
0x00007f61cc1cac77 48 f7 e1 mul %rcx %rax -> %rdx %rax  
0x00007f61cc1cac7a 48 c1 ea 03 shr $0x0000000000000003 %rdx -> %rdx  
0x00007f61cc1cac7e 48 8d 04 92 lea (%rdx,%rdx,4) -> %rax  
0x00007f61cc1cac82 48 01 c0 add %rax %rax -> %rax  
0x00007f61cc1cac85 48 29 c7 sub %rax %rdi -> %rdi  
0x00007f61cc1cac88 48 85 d2 test %rdx %rdx  
0x00007f61cc1cac8b 41 0f b6 04 38 movzx (%r8,%rdi,1)[1byte] -> %eax  
0x00007f61cc1cac90 48 89 d7 mov %rdx -> %rdi  
0x00007f61cc1cac93 88 06 mov %al -> (%rsi)[1byte]  
0x00007f61cc1cac95 75 d9 jnz $0x00007f61cc1cac70  
Actual: 7f61cc1cac70 
Block 463: 
0x00007f61cc1cf271 83 bd e8 fa ff ff 00 cmp 0xfffffae8(%rbp)[4byte] $0x00000000  
0x00007f61cc1cf278 48 89 85 08 fb ff ff mov %rax -> 0xfffffb08(%rbp)[8byte]  
0x00007f61cc1cf27f 4c 8b 9d f8 fa ff ff mov 0xfffffaf8(%rbp)[8byte] -> %r11  
0x00007f61cc1cf286 44 0f b6 95 d0 fa ff movzx 0xfffffad0(%rbp)[1byte] -> %r10d  
0x00007f61cc1cf28e 4c 8b 85 c8 fa ff ff mov 0xfffffac8(%rbp)[8byte] -> %r8  
0x00007f61cc1cf295 44 8b 8d f0 fa ff ff mov 0xfffffaf0(%rbp)[4byte] -> %r9d  
0x00007f61cc1cf29c 74 10 jz $0x00007f61cc1cf2ae  
Actual: 7f61cc1cf2ae 
Block 464: 
0x00007f61cc1cf2ae 83 bd e0 fa ff ff 00 cmp 0xfffffae0(%rbp)[4byte] $0x00000000  
0x00007f61cc1cf2b5 74 09 jz $0x00007f61cc1cf2c0  
Actual: 7f61cc1cf2c0 
Block 465: 
0x00007f61cc1cf2c0 48 63 85 38 fb ff ff movsxd 0xfffffb38(%rbp)[4byte] -> %rax  
0x00007f61cc1cf2c7 48 8b 95 28 fb ff ff mov 0xfffffb28(%rbp)[8byte] -> %rdx  
0x00007f61cc1cf2ce 4d 85 db test %r11 %r11  
0x00007f61cc1cf2d1 48 8b b5 08 fb ff ff mov 0xfffffb08(%rbp)[8byte] -> %rsi  
0x00007f61cc1cf2d8 0f 95 85 38 fb ff ff setnz -> 0xfffffb38(%rbp)[1byte]  
0x00007f61cc1cf2df 0f b6 bd 38 fb ff ff movzx 0xfffffb38(%rbp)[1byte] -> %edi  
0x00007f61cc1cf2e6 48 29 f2 sub %rsi %rdx -> %rdx  
0x00007f61cc1cf2e9 48 39 d0 cmp %rax %rdx  
0x00007f61cc1cf2ec 0f 9e c2 setle -> %dl  
0x00007f61cc1cf2ef 40 20 fa and %dil %dl -> %dl  
0x00007f61cc1cf2f2 0f 84 da f0 ff ff jz $0x00007f61cc1ce3d2  
Actual: 7f61cc1cf2f8 
Block 466: 
0x00007f61cc1cf2f8 83 bd 20 fb ff ff 08 cmp 0xfffffb20(%rbp)[4byte] $0x00000008  
0x00007f61cc1cf2ff 0f 94 c1 setz -> %cl  
0x00007f61cc1cf302 22 8d 00 fb ff ff and 0xfffffb00(%rbp)[1byte] %cl -> %cl  
0x00007f61cc1cf308 88 8d 38 fb ff ff mov %cl -> 0xfffffb38(%rbp)[1byte]  
0x00007f61cc1cf30e 0f 84 1a 0c 00 00 jz $0x00007f61cc1cff2e  
Actual: 7f61cc1cff2e 
Block 467: 
0x00007f61cc1cff2e 88 95 38 fb ff ff mov %dl -> 0xfffffb38(%rbp)[1byte]  
0x00007f61cc1cff34 e9 99 e4 ff ff jmp $0x00007f61cc1ce3d2  
0x00007f61cc1ce3d2 48 8b 8d 28 fb ff ff mov 0xfffffb28(%rbp)[8byte] -> %rcx  
0x00007f61cc1ce3d9 48 2b 8d 08 fb ff ff sub 0xfffffb08(%rbp)[8byte] %rcx -> %rcx  
0x00007f61cc1ce3e0 48 29 c8 sub %rcx %rax -> %rax  
0x00007f61cc1ce3e3 48 89 8d 28 fb ff ff mov %rcx -> 0xfffffb28(%rbp)[8byte]  
0x00007f61cc1ce3ea 48 89 c6 mov %rax -> %rsi  
0x00007f61cc1ce3ed b8 00 00 00 00 mov $0x00000000 -> %eax  
0x00007f61cc1ce3f2 48 0f 49 c6 cmovns %rsi %rax -> %rax  
0x00007f61cc1ce3f6 83 bd 30 fb ff ff 00 cmp 0xfffffb30(%rbp)[4byte] $0x00000000  
0x00007f61cc1ce3fd 48 89 85 e8 fa ff ff mov %rax -> 0xfffffae8(%rbp)[8byte]  
0x00007f61cc1ce404 89 85 f8 fa ff ff mov %eax -> 0xfffffaf8(%rbp)[4byte]  
0x00007f61cc1ce40a 0f 85 eb 0b 00 00 jnz $0x00007f61cc1ceffb  
Actual: 7f61cc1ce410 
Block 468: 
0x00007f61cc1ce410 44 8b 9d 40 fb ff ff mov 0xfffffb40(%rbp)[4byte] -> %r11d  
0x00007f61cc1ce417 41 29 cb sub %ecx %r11d -> %r11d  
0x00007f61cc1ce41a 41 29 c3 sub %eax %r11d -> %r11d  
0x00007f61cc1ce41d 80 bd 38 fb ff ff 00 cmp 0xfffffb38(%rbp)[1byte] $0x00  
0x00007f61cc1ce424 74 1d jz $0x00007f61cc1ce443  
Actual: 7f61cc1ce426 
Block 469: 
0x00007f61cc1ce426 83 bd 00 fb ff ff 00 cmp 0xfffffb00(%rbp)[4byte] $0x00000000  
0x00007f61cc1ce42d 74 14 jz $0x00007f61cc1ce443  
Actual: 7f61cc1ce443 
Block 470: 
0x00007f61cc1ce443 8b 85 58 fb ff ff mov 0xfffffb58(%rbp)[4byte] -> %eax  
0x00007f61cc1ce449 0b 85 18 fb ff ff or 0xfffffb18(%rbp)[4byte] %eax -> %eax  
0x00007f61cc1ce44f 0b 85 10 fb ff ff or 0xfffffb10(%rbp)[4byte] %eax -> %eax  
0x00007f61cc1ce455 83 f8 01 cmp %eax $0x00000001  
0x00007f61cc1ce458 41 83 d3 ff adc $0xffffffff %r11d -> %r11d  
0x00007f61cc1ce45c 80 bd 04 fb ff ff 20 cmp 0xfffffb04(%rbp)[1byte] $0x20  
0x00007f61cc1ce463 0f 84 f8 0f 00 00 jz $0x00007f61cc1cf461  
Actual: 7f61cc1cf461 
Block 472: 
0x00007f61cc1ce470 83 bd 58 fb ff ff 00 cmp 0xfffffb58(%rbp)[4byte] $0x00000000  
0x00007f61cc1ce477 0f 84 94 11 00 00 jz $0x00007f61cc1cf611  
Actual: 7f61cc1cf611 
Block 473: 
0x00007f61cc1cf611 83 bd 10 fb ff ff 00 cmp 0xfffffb10(%rbp)[4byte] $0x00000000  
0x00007f61cc1cf618 0f 84 b9 00 00 00 jz $0x00007f61cc1cf6d7  
Actual: 7f61cc1cf6d7 
Block 474: 
0x00007f61cc1cf6d7 83 bd 18 fb ff ff 00 cmp 0xfffffb18(%rbp)[4byte] $0x00000000  
0x00007f61cc1cf6de 0f 84 c3 ed ff ff jz $0x00007f61cc1ce4a7  
Actual: 7f61cc1ce4a7 
Block 475: 
0x00007f61cc1ce4a7 80 bd 38 fb ff ff 00 cmp 0xfffffb38(%rbp)[1byte] $0x00  
0x00007f61cc1ce4ae 74 62 jz $0x00007f61cc1ce512  
Actual: 7f61cc1ce4b0 
Block 476: 
0x00007f61cc1ce4b0 83 bd 00 fb ff ff 00 cmp 0xfffffb00(%rbp)[4byte] $0x00000000  
0x00007f61cc1ce4b7 74 59 jz $0x00007f61cc1ce512  
Actual: 7f61cc1ce512 
Block 479: 
0x00007f61cc1ce5ac 48 8b 8d 28 fb ff ff mov 0xfffffb28(%rbp)[8byte] -> %rcx  
0x00007f61cc1ce5b3 4c 8b 85 58 fb ff ff mov 0xfffffb58(%rbp)[8byte] -> %r8  
0x00007f61cc1ce5ba 48 39 c1 cmp %rcx %rax  
0x00007f61cc1ce5bd 0f 85 c7 f6 ff ff jnz $0x00007f61cc1cdc8a  
Actual: 7f61cc1ce5c3 
Block 481: 
0x00007f61cc1cdf9f 44 03 8d 28 fb ff ff add 0xfffffb28(%rbp)[4byte] %r9d -> %r9d  
0x00007f61cc1cdfa6 e9 12 fc ff ff jmp $0x00007f61cc1cdbbd  
0x00007f61cc1cdbbd 83 85 f4 fa ff ff 01 add $0x00000001 0xfffffaf4(%rbp)[4byte] -> 0xfffffaf4(%rbp)[4byte]  
0x00007f61cc1cdbc4 4d 85 c0 test %r8 %r8  
0x00007f61cc1cdbc7 74 16 jz $0x00007f61cc1cdbdf  
Actual: 7f61cc1cdbdf 
Block 484: 
0x00007f61cc20df9b 0f b6 0e movzx (%rsi)[1byte] -> %ecx  
0x00007f61cc20df9e 88 0f mov %cl -> (%rdi)[1byte]  
0x00007f61cc20dfa0 48 ff c6 inc %rsi -> %rsi  
0x00007f61cc20dfa3 48 ff c7 inc %rdi -> %rdi  
0x00007f61cc20dfa6 f6 c2 02 test %dl $0x02  
0x00007f61cc20dfa9 74 0e jz $0x00007f61cc20dfb9  
Actual: 7f61cc20dfab 
Block 485: 
0x00007f61cc1cdc30 48 8b 95 70 fb ff ff mov 0xfffffb70(%rbp)[8byte] -> %rdx  
0x00007f61cc1cdc37 48 8b 8d 58 fb ff ff mov 0xfffffb58(%rbp)[8byte] -> %rcx  
0x00007f61cc1cdc3e 48 89 d6 mov %rdx -> %rsi  
0x00007f61cc1cdc41 48 29 ce sub %rcx %rsi -> %rsi  
0x00007f61cc1cdc44 48 39 f0 cmp %rax %rsi  
0x00007f61cc1cdc47 0f 85 3c f9 ff ff jnz $0x00007f61cc1cd589  
Actual: 7f61cc1cdc4d 
Block 487: 
0x00007f61cc1cdc64 41 01 c1 add %eax %r9d -> %r9d  
0x00007f61cc1cdc67 80 3a 00 cmp (%rdx)[1byte] $0x00  
0x00007f61cc1cdc6a 0f 85 2e fc ff ff jnz $0x00007f61cc1cd89e  
Actual: 7f61cc1cdc70 
Block 488: 
0x00007f61cc1cdc70 e9 1a f9 ff ff jmp $0x00007f61cc1cd58f  
0x00007f61cc1cd58f f7 03 00 80 00 00 test (%rbx)[4byte] $0x00008000  
0x00007f61cc1cd595 75 11 jnz $0x00007f61cc1cd5a8  
Actual: 7f61cc1cd597 
Block 489: 
0x00007f61cc1cd597 48 8b 93 88 00 00 00 mov 0x00000088(%rbx)[8byte] -> %rdx  
0x00007f61cc1cd59e 83 6a 04 01 sub $0x00000001 0x04(%rdx)[4byte] -> 0x04(%rdx)[4byte]  
0x00007f61cc1cd5a2 0f 84 d0 00 00 00 jz $0x00007f61cc1cd678  
Actual: 7f61cc1cd678 
Block 490: 
0x00007f61cc1cd678 48 c7 42 08 00 00 00 mov $0x0000000000000000 -> 0x08(%rdx)[8byte]  
0x00007f61cc1cd680 83 3d 79 60 37 00 00 cmp <rel> 0x00007f61cc543700[4byte] $0x00000000  
0x00007f61cc1cd687 74 07 jz $0x00007f61cc1cd690  
Actual: 7f61cc1cd690 
Block 491: 
0x00007f61cc1cd690 ff 0a dec (%rdx)[4byte] -> (%rdx)[4byte]  
0x00007f61cc1cd692 74 16 jz $0x00007f61cc1cd6aa  
Actual: 7f61cc1cd6aa 
Block 492: 
0x00007f61cc1cd6aa 45 85 f6 test %r14d %r14d  
0x00007f61cc1cd6ad 0f 84 fe fe ff ff jz $0x00007f61cc1cd5b1  
Actual: 7f61cc1cd6b3 
Block 494: 
0x00007f61cc5536e0 48 8b 47 18 mov 0x18(%rdi)[8byte] -> %rax  
0x00007f61cc5536e4 64 48 89 04 25 f8 02 mov %rax -> %fs:0x000002f8[8byte]  
00 00 
0x00007f61cc5536ed 8b 47 10 mov 0x10(%rdi)[4byte] -> %eax  
0x00007f61cc5536f0 85 c0 test %eax %eax  
0x00007f61cc5536f2 75 1c jnz $0x00007f61cc553710  
Actual: 7f61cc5536f4 
Block 495: 
0x00007f61cc5536f4 85 f6 test %esi %esi  
0x00007f61cc5536f6 75 08 jnz $0x00007f61cc553700  
Actual: 7f61cc5536f8 
Block 501: 
0x00007f61cc979ef0 83 bc 24 84 00 00 00 cmp 0x00000084(%rsp)[4byte] $0x00000001  
0x00007f61cc979ef8 4c 8b 6c 24 60 mov 0x60(%rsp)[8byte] -> %r13  
0x00007f61cc979efd 44 8b 7c 24 68 mov 0x68(%rsp)[4byte] -> %r15d  
0x00007f61cc979f02 48 8b ac 24 d0 00 00 mov 0x000000d0(%rsp)[8byte] -> %rbp  
0x00007f61cc979f0a 4c 8b b4 24 e8 00 00 mov 0x000000e8(%rsp)[8byte] -> %r14  
0x00007f61cc979f12 4c 8b 64 24 70 mov 0x70(%rsp)[8byte] -> %r12  
0x00007f61cc979f17 0f 85 00 f9 ff ff jnz $0x00007f61cc97981d  
Actual: 7f61cc97981d 
Block 502: 
0x00007f61cc98b200 66 0f ef c0 pxor %xmm0 %xmm0 -> %xmm0  
0x00007f61cc98b204 66 0f 6f 17 movdqa (%rdi)[16byte] -> %xmm2  
0x00007f61cc98b208 66 0f 6f 0e movdqa (%rsi)[16byte] -> %xmm1  
0x00007f61cc98b20c 66 0f 74 c1 pcmpeqb %xmm1 %xmm0 -> %xmm0  
0x00007f61cc98b210 66 0f 73 fa 0b pslldq $0x0b %xmm2 -> %xmm2  
0x00007f61cc98b215 66 0f 74 d1 pcmpeqb %xmm1 %xmm2 -> %xmm2  
0x00007f61cc98b219 66 0f f8 d0 psubb %xmm0 %xmm2 -> %xmm2  
0x00007f61cc98b21d 66 44 0f d7 ca pmovmskb %xmm2 -> %r9d  
0x00007f61cc98b222 d3 ea shr %cl %edx -> %edx  
0x00007f61cc98b224 41 d3 e9 shr %cl %r9d -> %r9d  
0x00007f61cc98b227 44 29 ca sub %r9d %edx -> %edx  
0x00007f61cc98b22a 0f 85 95 0d 00 00 jnz $0x00007f61cc98bfc5  
Actual: 7f61cc98b230 
Block 504: 
0x00007f61cc98b26a 66 0f 6f 0c 0e movdqa (%rsi,%rcx,1)[16byte] -> %xmm1  
0x00007f61cc98b26f 66 0f 6f 14 0f movdqa (%rdi,%rcx,1)[16byte] -> %xmm2  
0x00007f61cc98b274 66 0f 6f e2 movdqa %xmm2 -> %xmm4  
0x00007f61cc98b278 66 0f 73 db 05 psrldq $0x05 %xmm3 -> %xmm3  
0x00007f61cc98b27d 66 0f 73 fa 0b pslldq $0x0b %xmm2 -> %xmm2  
0x00007f61cc98b282 66 0f eb d3 por %xmm3 %xmm2 -> %xmm2  
0x00007f61cc98b286 66 0f 74 c1 pcmpeqb %xmm1 %xmm0 -> %xmm0  
0x00007f61cc98b28a 66 0f 74 ca pcmpeqb %xmm2 %xmm1 -> %xmm1  
0x00007f61cc98b28e 66 0f f8 c8 psubb %xmm0 %xmm1 -> %xmm1  
0x00007f61cc98b292 66 0f d7 d1 pmovmskb %xmm1 -> %edx  
0x00007f61cc98b296 81 ea ff ff 00 00 sub $0x0000ffff %edx -> %edx  
0x00007f61cc98b29c 0f 85 1e 0d 00 00 jnz $0x00007f61cc98bfc0  
Actual: 7f61cc98bfc0 
Block 505: 
0x00007f61cc212fd0 48 8b 15 89 ae 32 00 mov <rel> 0x00007f61cc53de60[8byte] -> %rdx  
0x00007f61cc212fd7 f7 82 b0 00 00 00 00 test 0x000000b0(%rdx)[4byte] $0x00001000  
10 00 00 
0x00007f61cc212fe1 74 14 jz $0x00007f61cc212ff7  
Actual: 7f61cc212ff7 
Block 506: 
0x00007f61cc212ff7 48 8d 05 22 92 0b 00 lea <rel> 0x00007f61cc2cc220 -> %rax  
0x00007f61cc212ffe f7 82 b0 00 00 00 00 test 0x000000b0(%rdx)[4byte] $0x00000800  
08 00 00 
0x00007f61cc213008 74 01 jz $0x00007f61cc21300b  
Actual: 7f61cc21300b 
Block 507: 
0x00007f61cc21300b 48 8d 05 3e 00 00 00 lea <rel> 0x00007f61cc213050 -> %rax  
0x00007f61cc213012 f7 82 b0 00 00 00 04 test 0x000000b0(%rdx)[4byte] $0x00000004  
00 00 00 
0x00007f61cc21301c 75 08 jnz $0x00007f61cc213026  
Actual: 7f61cc21301e 
Block 509: 
0x00007f61cc21e540 48 89 f0 mov %rsi -> %rax  
0x00007f61cc21e543 48 8d 0c 12 lea (%rdx,%rdx,1) -> %rcx  
0x00007f61cc21e547 48 29 f8 sub %rdi %rax -> %rax  
0x00007f61cc21e54a 48 29 d0 sub %rdx %rax -> %rax  
0x00007f61cc21e54d 48 39 c8 cmp %rax %rcx  
0x00007f61cc21e550 0f 82 07 01 00 00 jb $0x00007f61cc21e65d  
Actual: 7f61cc21e556 
Block 510: 
0x00007f61cc21e556 48 83 fa 10 cmp %rdx $0x0000000000000010  
0x00007f61cc21e55a 0f 86 8b 01 00 00 jbe $0x00007f61cc21e6eb  
Actual: 7f61cc21e560 
Block 512: 
0x00007f61cc21e590 f3 44 0f 6f 46 10 movdqu 0x10(%rsi)[16byte] -> %xmm8  
0x00007f61cc21e596 48 83 fa 40 cmp %rdx $0x0000000000000040  
0x00007f61cc21e59a f3 44 0f 7f 47 10 movdqu %xmm8 -> 0x10(%rdi)[16byte]  
0x00007f61cc21e5a0 f3 44 0f 6f 44 16 e0 movdqu 0xffffffe0(%rsi,%rdx,1)[16byte] -> %xmm8  
0x00007f61cc21e5a7 f3 44 0f 7f 44 17 e0 movdqu %xmm8 -> 0xffffffe0(%rdi,%rdx,1)[16byte]  
0x00007f61cc21e5ae 76 ce jbe $0x00007f61cc21e57e  
Actual: 7f61cc21e5b0 
Block 513: 
0x00007f61cc21e5b0 f3 44 0f 6f 46 20 movdqu 0x20(%rsi)[16byte] -> %xmm8  
0x00007f61cc21e5b6 48 81 fa 80 00 00 00 cmp %rdx $0x0000000000000080  
0x00007f61cc21e5bd f3 44 0f 7f 47 20 movdqu %xmm8 -> 0x20(%rdi)[16byte]  
0x00007f61cc21e5c3 f3 44 0f 6f 44 16 d0 movdqu 0xffffffd0(%rsi,%rdx,1)[16byte] -> %xmm8  
0x00007f61cc21e5ca f3 44 0f 7f 44 17 d0 movdqu %xmm8 -> 0xffffffd0(%rdi,%rdx,1)[16byte]  
0x00007f61cc21e5d1 f3 44 0f 6f 46 30 movdqu 0x30(%rsi)[16byte] -> %xmm8  
0x00007f61cc21e5d7 f3 44 0f 7f 47 30 movdqu %xmm8 -> 0x30(%rdi)[16byte]  
0x00007f61cc21e5dd f3 44 0f 6f 44 16 c0 movdqu 0xffffffc0(%rsi,%rdx,1)[16byte] -> %xmm8  
0x00007f61cc21e5e4 f3 44 0f 7f 44 17 c0 movdqu %xmm8 -> 0xffffffc0(%rdi,%rdx,1)[16byte]  
0x00007f61cc21e5eb 76 91 jbe $0x00007f61cc21e57e  
Actual: 7f61cc21e5ed 
Block 514: 
0x00007f61cc21e5ed 48 8d 4f 40 lea 0x40(%rdi) -> %rcx  
0x00007f61cc21e5f1 48 01 fa add %rdi %rdx -> %rdx  
0x00007f61cc21e5f4 48 83 e2 c0 and $0xffffffffffffffc0 %rdx -> %rdx  
0x00007f61cc21e5f8 48 83 e1 c0 and $0xffffffffffffffc0 %rcx -> %rcx  
0x00007f61cc21e5fc 48 89 c8 mov %rcx -> %rax  
0x00007f61cc21e5ff 48 29 f8 sub %rdi %rax -> %rax  
0x00007f61cc21e602 48 01 c6 add %rax %rsi -> %rsi  
0x00007f61cc21e605 48 39 d1 cmp %rcx %rdx  
0x00007f61cc21e608 0f 84 70 ff ff ff jz $0x00007f61cc21e57e  
Actual: 7f61cc21e60e 
Block 515: 
0x00007f61cc21e60e 49 89 f2 mov %rsi -> %r10  
0x00007f61cc21e611 49 29 ca sub %rcx %r10 -> %r10  
0x00007f61cc21e614 4d 8d 4a 10 lea 0x10(%r10) -> %r9  
0x00007f61cc21e618 4d 8d 42 20 lea 0x20(%r10) -> %r8  
0x00007f61cc21e61c 49 8d 42 30 lea 0x30(%r10) -> %rax  
0x00007f61cc21e620 f3 46 0f 6f 04 11 movdqu (%rcx,%r10,1)[16byte] -> %xmm8  
0x00007f61cc21e626 66 44 0f 7f 01 movdqa %xmm8 -> (%rcx)[16byte]  
0x00007f61cc21e62b f3 46 0f 6f 04 09 movdqu (%rcx,%r9,1)[16byte] -> %xmm8  
0x00007f61cc21e631 66 44 0f 7f 41 10 movdqa %xmm8 -> 0x10(%rcx)[16byte]  
0x00007f61cc21e637 f3 46 0f 6f 04 01 movdqu (%rcx,%r8,1)[16byte] -> %xmm8  
0x00007f61cc21e63d 66 44 0f 7f 41 20 movdqa %xmm8 -> 0x20(%rcx)[16byte]  
0x00007f61cc21e643 f3 44 0f 6f 04 01 movdqu (%rcx,%rax,1)[16byte] -> %xmm8  
0x00007f61cc21e649 66 44 0f 7f 41 30 movdqa %xmm8 -> 0x30(%rcx)[16byte]  
0x00007f61cc21e64f 48 83 c1 40 add $0x0000000000000040 %rcx -> %rcx  
0x00007f61cc21e653 48 39 ca cmp %rdx %rcx  
0x00007f61cc21e656 75 c8 jnz $0x00007f61cc21e620  
Actual: 7f61cc21e620 
Block 516: 
0x00007f61cc21e620 f3 46 0f 6f 04 11 movdqu (%rcx,%r10,1)[16byte] -> %xmm8  
0x00007f61cc21e626 66 44 0f 7f 01 movdqa %xmm8 -> (%rcx)[16byte]  
0x00007f61cc21e62b f3 46 0f 6f 04 09 movdqu (%rcx,%r9,1)[16byte] -> %xmm8  
0x00007f61cc21e631 66 44 0f 7f 41 10 movdqa %xmm8 -> 0x10(%rcx)[16byte]  
0x00007f61cc21e637 f3 46 0f 6f 04 01 movdqu (%rcx,%r8,1)[16byte] -> %xmm8  
0x00007f61cc21e63d 66 44 0f 7f 41 20 movdqa %xmm8 -> 0x20(%rcx)[16byte]  
0x00007f61cc21e643 f3 44 0f 6f 04 01 movdqu (%rcx,%rax,1)[16byte] -> %xmm8  
0x00007f61cc21e649 66 44 0f 7f 41 30 movdqa %xmm8 -> 0x30(%rcx)[16byte]  
0x00007f61cc21e64f 48 83 c1 40 add $0x0000000000000040 %rcx -> %rcx  
0x00007f61cc21e653 48 39 ca cmp %rdx %rcx  
0x00007f61cc21e656 75 c8 jnz $0x00007f61cc21e620  
Actual: 7f61cc21e620 
Block 522: 
0x00007f61cc215340 f3 0f 6f 47 10 movdqu 0x10(%rdi)[16byte] -> %xmm0  
0x00007f61cc215345 66 0f 6f e0 movdqa %xmm0 -> %xmm4  
0x00007f61cc215349 66 0f 74 c1 pcmpeqb %xmm1 %xmm0 -> %xmm0  
0x00007f61cc21534d 66 0f 74 e3 pcmpeqb %xmm3 %xmm4 -> %xmm4  
0x00007f61cc215351 66 0f eb c4 por %xmm4 %xmm0 -> %xmm0  
0x00007f61cc215355 66 0f d7 c8 pmovmskb %xmm0 -> %ecx  
0x00007f61cc215359 f3 0f 6f 47 20 movdqu 0x20(%rdi)[16byte] -> %xmm0  
0x00007f61cc21535e 66 0f 6f e0 movdqa %xmm0 -> %xmm4  
0x00007f61cc215362 66 0f 74 c1 pcmpeqb %xmm1 %xmm0 -> %xmm0  
0x00007f61cc215366 48 c1 e1 10 shl $0x0000000000000010 %rcx -> %rcx  
0x00007f61cc21536a 66 0f 74 e3 pcmpeqb %xmm3 %xmm4 -> %xmm4  
0x00007f61cc21536e 66 0f eb c4 por %xmm4 %xmm0 -> %xmm0  
0x00007f61cc215372 66 0f d7 c0 pmovmskb %xmm0 -> %eax  
0x00007f61cc215376 f3 0f 6f 47 30 movdqu 0x30(%rdi)[16byte] -> %xmm0  
0x00007f61cc21537b 66 0f 74 d8 pcmpeqb %xmm0 %xmm3 -> %xmm3  
0x00007f61cc21537f 48 c1 e0 20 shl $0x0000000000000020 %rax -> %rax  
0x00007f61cc215383 66 0f 74 c1 pcmpeqb %xmm1 %xmm0 -> %xmm0  
0x00007f61cc215387 48 09 c8 or %rcx %rax -> %rax  
0x00007f61cc21538a 66 0f eb c3 por %xmm3 %xmm0 -> %xmm0  
0x00007f61cc21538e 66 0f d7 c8 pmovmskb %xmm0 -> %ecx  
0x00007f61cc215392 48 c1 e1 30 shl $0x0000000000000030 %rcx -> %rcx  
0x00007f61cc215396 48 09 c8 or %rcx %rax -> %rax  
0x00007f61cc215399 48 85 c0 test %rax %rax  
0x00007f61cc21539c 0f 85 ae 00 00 00 jnz $0x00007f61cc215450  
Actual: 7f61cc215450 
Block 525: 
0x00007f61cc201161 83 c0 30 add $0x00000030 %eax -> %eax  
0x00007f61cc201164 89 04 24 mov %eax -> (%rsp)[4byte]  
0x00007f61cc201167 f6 45 04 01 test 0x04(%rbp)[1byte] $0x01  
0x00007f61cc20116b 75 08 jnz $0x00007f61cc201175  
Actual: 7f61cc201175 
Block 526: 
0x00007f61cc201668 89 c2 mov %eax -> %edx  
0x00007f61cc20166a 8b b4 95 58 08 00 00 mov 0x00000858(%rbp,%rdx,4)[4byte] -> %esi  
0x00007f61cc201671 85 f6 test %esi %esi  
0x00007f61cc201673 0f 85 d8 02 00 00 jnz $0x00007f61cc201951  
Actual: 7f61cc201679 
Block 527: 
0x00007f61cc201679 8d 47 02 lea 0x02(%rdi) -> %eax  
0x00007f61cc20167c 83 f8 04 cmp %eax $0x00000004  
0x00007f61cc20167f 74 24 jz $0x00007f61cc2016a5  
Actual: 7f61cc2016a5 
Block 528: 
0x00007f61cc200755 c6 44 24 10 00 mov $0x00 -> 0x10(%rsp)[1byte]  
0x00007f61cc20075a 4d 89 f3 mov %r14 -> %r11  
0x00007f61cc20075d 49 8d 44 1e 07 lea 0x07(%r14,%rbx,1) -> %rax  
0x00007f61cc200762 4c 8d 53 20 lea 0x20(%rbx) -> %r10  
0x00007f61cc200766 49 f7 db neg %r11 -> %r11  
0x00007f61cc200769 4c 8d 3d 90 e3 33 00 lea <rel> 0x00007f61cc53eb00 -> %r15  
0x00007f61cc200770 4c 21 d8 and %r11 %rax -> %rax  
0x00007f61cc200773 4d 89 d5 mov %r10 -> %r13  
0x00007f61cc200776 4c 89 5c 24 08 mov %r11 -> 0x08(%rsp)[8byte]  
0x00007f61cc20077b 48 89 44 24 28 mov %rax -> 0x28(%rsp)[8byte]  
0x00007f61cc200780 4c 8b 5d 58 mov 0x58(%rbp)[8byte] -> %r11  
0x00007f61cc200784 4d 8b 63 08 mov 0x08(%r11)[8byte] -> %r12  
0x00007f61cc200788 49 83 e4 f8 and $0xfffffffffffffff8 %r12 -> %r12  
0x00007f61cc20078c 4c 39 fd cmp %rbp %r15  
0x00007f61cc20078f 0f 84 bb 02 00 00 jz $0x00007f61cc200a50  
Actual: 7f61cc200a50 
Block 529: 
0x00007f61cc200a50 4d 89 ea mov %r13 -> %r10  
0x00007f61cc200a53 4d 89 dd mov %r11 -> %r13  
0x00007f61cc200a56 4d 8d 5e ff lea 0xffffffff(%r14) -> %r11  
0x00007f61cc200a5a 49 f7 de neg %r14 -> %r14  
0x00007f61cc200a5d f6 45 04 02 test 0x04(%rbp)[1byte] $0x02  
0x00007f61cc200a61 48 8b 05 e0 d6 33 00 mov <rel> 0x00007f61cc53e148[8byte] -> %rax  
0x00007f61cc200a68 4c 89 74 24 08 mov %r14 -> 0x08(%rsp)[8byte]  
0x00007f61cc200a6d 48 8d 54 03 20 lea 0x20(%rbx,%rax,1) -> %rdx  
0x00007f61cc200a72 0f 85 58 01 00 00 jnz $0x00007f61cc200bd0  
Actual: 7f61cc200a78 
Block 532: 
0x00007f61cc206390 48 83 ec 08 sub $0x0000000000000008 %rsp -> %rsp  
0x00007f61cc206394 e8 47 46 07 00 call $0x00007f61cc27a9e0 %rsp -> %rsp 0xfffffff8(%rsp)[8byte]  
0x00007f61cc27a9e0 41 54 push %r12 %rsp -> %rsp 0xfffffff8(%rsp)[8byte]  
0x00007f61cc27a9e2 4c 8b 25 cf 34 2c 00 mov <rel> 0x00007f61cc53deb8[8byte] -> %r12  
0x00007f61cc27a9e9 55 push %rbp %rsp -> %rsp 0xfffffff8(%rsp)[8byte]  
0x00007f61cc27a9ea 53 push %rbx %rsp -> %rsp 0xfffffff8(%rsp)[8byte]  
0x00007f61cc27a9eb 48 89 fd mov %rdi -> %rbp  
0x00007f61cc27a9ee 49 8b 1c 24 mov (%r12)[8byte] -> %rbx  
0x00007f61cc27a9f2 48 85 db test %rbx %rbx  
0x00007f61cc27a9f5 74 41 jz $0x00007f61cc27aa38  
Actual: 7f61cc27aa38 
Block 538: 
0x00007f61cc27aa43 49 8b 1c 24 mov (%r12)[8byte] -> %rbx  
0x00007f61cc27aa47 eb b8 jmp $0x00007f61cc27aa01  
0x00007f61cc27aa01 48 83 fd 00 cmp %rbp $0x0000000000000000  
0x00007f61cc27aa05 74 24 jz $0x00007f61cc27aa2b  
Actual: 7f61cc27aa07 
Block 540: 
0x00007f61cc27aa09 48 89 d8 mov %rbx -> %rax  
0x00007f61cc27aa0c 48 01 e8 add %rbp %rax -> %rax  
0x00007f61cc27aa0f 0f 92 c0 setb -> %al  
0x00007f61cc27aa12 84 c0 test %al %al  
0x00007f61cc27aa14 74 3a jz $0x00007f61cc27aa50  
Actual: 7f61cc27aa50 
Block 545: 
0x00007f61cc200aa8 48 8b 54 24 10 mov 0x10(%rsp)[8byte] -> %rdx  
0x00007f61cc200aad 49 89 c0 mov %rax -> %r8  
0x00007f61cc200ab0 90 nop  
0x00007f61cc200ab1 48 85 c0 test %rax %rax  
0x00007f61cc200ab4 4c 8b 5c 24 18 mov 0x18(%rsp)[8byte] -> %r11  
0x00007f61cc200ab9 4c 8b 54 24 20 mov 0x20(%rsp)[8byte] -> %r10  
0x00007f61cc200abe 0f 84 1c 03 00 00 jz $0x00007f61cc200de0  
Actual: 7f61cc200ac4 
Block 546: 
0x00007f61cc200ac4 48 8b 05 d5 d3 33 00 mov <rel> 0x00007f61cc53dea0[8byte] -> %rax  
0x00007f61cc200acb b9 01 00 00 00 mov $0x00000001 -> %ecx  
0x00007f61cc200ad0 48 8b 10 mov (%rax)[8byte] -> %rdx  
0x00007f61cc200ad3 31 c0 xor %eax %eax -> %eax  
0x00007f61cc200ad5 48 85 d2 test %rdx %rdx  
0x00007f61cc200ad8 0f 85 ca 02 00 00 jnz $0x00007f61cc200da8  
Actual: 7f61cc200ade 
Block 547: 
0x00007f61cc200ade 48 83 3d aa d6 33 00 cmp <rel> 0x00007f61cc53e190[8byte] $0x0000000000000000  
0x00007f61cc200ae6 0f 84 ac 02 00 00 jz $0x00007f61cc200d98  
Actual: 7f61cc200d98 
Block 548: 
0x00007f61cc200d98 4c 89 05 f1 d3 33 00 mov %r8 -> <rel> 0x00007f61cc53e190[8byte]  
0x00007f61cc200d9f e9 48 fd ff ff jmp $0x00007f61cc200aec  
0x00007f61cc200aec 4c 89 f6 mov %r14 -> %rsi  
0x00007f61cc200aef 48 03 35 8a e8 33 00 add <rel> 0x00007f61cc53f380[8byte] %rsi -> %rsi  
0x00007f61cc200af6 4b 8d 54 25 00 lea 0x00(%r13,%r12,1) -> %rdx  
0x00007f61cc200afb 4c 39 c2 cmp %rdx %r8  
0x00007f61cc200afe 48 89 35 7b e8 33 00 mov %rsi -> <rel> 0x00007f61cc53f380[8byte]  
0x00007f61cc200b05 0f 85 15 01 00 00 jnz $0x00007f61cc200c20  
Actual: 7f61cc200c20 
Block 549: 
0x00007f61cc200c20 8b 0d de de 33 00 mov <rel> 0x00007f61cc53eb04[4byte] -> %ecx  
0x00007f61cc200c26 f6 c1 02 test %cl $0x02  
0x00007f61cc200c29 0f 85 19 01 00 00 jnz $0x00007f61cc200d48  
Actual: 7f61cc200c2f 
Block 550: 
0x00007f61cc200c2f 4d 85 e4 test %r12 %r12  
0x00007f61cc200c32 74 09 jz $0x00007f61cc200c3d  
Actual: 7f61cc200c3d 
Block 551: 
0x00007f61cc200c3d 4d 85 e4 test %r12 %r12  
0x00007f61cc200c40 74 10 jz $0x00007f61cc200c52  
Actual: 7f61cc200c52 
Block 552: 
0x00007f61cc200c52 4c 89 c0 mov %r8 -> %rax  
0x00007f61cc200c55 4c 89 c1 mov %r8 -> %rcx  
0x00007f61cc200c58 83 e0 0f and $0x0000000f %eax -> %eax  
0x00007f61cc200c5b 74 0f jz $0x00007f61cc200c6c  
Actual: 7f61cc200c6c 
Block 554: 
0x00007f61cc27a9f7 8b 05 63 36 2c 00 mov <rel> 0x00007f61cc53e060[4byte] -> %eax  
0x00007f61cc27a9fd 85 c0 test %eax %eax  
0x00007f61cc27a9ff 75 37 jnz $0x00007f61cc27aa38  
Actual: 7f61cc27aa38 
Block 556: 
0x00007f61cc200c9f 48 85 c0 test %rax %rax  
0x00007f61cc200ca2 4c 8b 4c 24 08 mov 0x08(%rsp)[8byte] -> %r9  
0x00007f61cc200ca7 48 8b 4c 24 10 mov 0x10(%rsp)[8byte] -> %rcx  
0x00007f61cc200cac 4c 8b 54 24 18 mov 0x18(%rsp)[8byte] -> %r10  
0x00007f61cc200cb1 0f 84 d2 02 00 00 jz $0x00007f61cc200f89  
Actual: 7f61cc200cb7 
Block 557: 
0x00007f61cc200cb7 48 8b 35 e2 d1 33 00 mov <rel> 0x00007f61cc53dea0[8byte] -> %rsi  
0x00007f61cc200cbe 48 8b 36 mov (%rsi)[8byte] -> %rsi  
0x00007f61cc200cc1 48 85 f6 test %rsi %rsi  
0x00007f61cc200cc4 0f 85 86 02 00 00 jnz $0x00007f61cc200f50  
Actual: 7f61cc200cca 
Block 558: 
0x00007f61cc200cca 48 8b 35 af e6 33 00 mov <rel> 0x00007f61cc53f380[8byte] -> %rsi  
0x00007f61cc200cd1 49 89 c8 mov %rcx -> %r8  
0x00007f61cc200cd4 4c 29 c0 sub %r8 %rax -> %rax  
0x00007f61cc200cd7 4c 01 f6 add %r14 %rsi -> %rsi  
0x00007f61cc200cda 4c 89 05 77 de 33 00 mov %r8 -> <rel> 0x00007f61cc53eb58[8byte]  
0x00007f61cc200ce1 4c 01 c8 add %r9 %rax -> %rax  
0x00007f61cc200ce4 48 83 c8 01 or $0x0000000000000001 %rax -> %rax  
0x00007f61cc200ce8 4d 85 e4 test %r12 %r12  
0x00007f61cc200ceb 49 89 40 08 mov %rax -> 0x08(%r8)[8byte]  
0x00007f61cc200cef 48 89 35 8a e6 33 00 mov %rsi -> <rel> 0x00007f61cc53f380[8byte]  
0x00007f61cc200cf6 74 2f jz $0x00007f61cc200d27  
Actual: 7f61cc200d27 
Block 560: 
0x00007f61cc20081c 48 89 b5 88 08 00 00 mov %rsi -> 0x00000888(%rbp)[8byte]  
0x00007f61cc200823 48 8b 42 08 mov 0x08(%rdx)[8byte] -> %rax  
0x00007f61cc200827 48 83 e0 f8 and $0xfffffffffffffff8 %rax -> %rax  
0x00007f61cc20082b 4c 39 d0 cmp %rax %r10  
0x00007f61cc20082e 0f 82 44 03 00 00 jb $0x00007f61cc200b78  
Actual: 7f61cc200834 
Block 562: 
0x00000000004015ff 48 85 c0 test %rax %rax  
0x0000000000401602 48 89 c5 mov %rax -> %rbp  
0x0000000000401605 0f 84 cd 02 00 00 jz $0x00000000004018d8  
Actual: 40160b 
Block 568: 
0x000000000040184e e9 1a fe ff ff jmp $0x000000000040166d  
0x000000000040166d 31 ff xor %edi %edi -> %edi  
0x000000000040166f be 01 00 00 00 mov $0x00000001 -> %esi  
0x0000000000401674 89 1d 52 ef 20 00 mov %ebx -> <rel> 0x00000000006105cc[4byte]  
0x000000000040167a e8 c1 20 00 00 call $0x0000000000403740 %rsp -> %rsp 0xfffffff8(%rsp)[8byte]  
0x0000000000403740 41 56 push %r14 %rsp -> %rsp 0xfffffff8(%rsp)[8byte]  
0x0000000000403742 41 55 push %r13 %rsp -> %rsp 0xfffffff8(%rsp)[8byte]  
0x0000000000403744 41 54 push %r12 %rsp -> %rsp 0xfffffff8(%rsp)[8byte]  
0x0000000000403746 55 push %rbp %rsp -> %rsp 0xfffffff8(%rsp)[8byte]  
0x0000000000403747 53 push %rbx %rsp -> %rsp 0xfffffff8(%rsp)[8byte]  
0x0000000000403748 89 fb mov %edi -> %ebx  
0x000000000040374a 48 81 ec 10 14 00 00 sub $0x0000000000001410 %rsp -> %rsp  
0x0000000000403751 44 8b 05 54 ce 20 00 mov <rel> 0x00000000006105ac[4byte] -> %r8d  
0x0000000000403758 8b 0d 2e ca 20 00 mov <rel> 0x000000000061018c[4byte] -> %ecx  
0x000000000040375e 8b 15 68 ce 20 00 mov <rel> 0x00000000006105cc[4byte] -> %edx  
0x0000000000403764 48 8d 7c 24 1c lea 0x1c(%rsp) -> %rdi  
0x0000000000403769 e8 62 20 00 00 call $0x00000000004057d0 %rsp -> %rsp 0xfffffff8(%rsp)[8byte]  
0x00000000004057d0 41 55 push %r13 %rsp -> %rsp 0xfffffff8(%rsp)[8byte]  
0x00000000004057d2 41 54 push %r12 %rsp -> %rsp 0xfffffff8(%rsp)[8byte]  
0x00000000004057d4 41 89 cd mov %ecx -> %r13d  
0x00000000004057d7 55 push %rbp %rsp -> %rsp 0xfffffff8(%rsp)[8byte]  
0x00000000004057d8 53 push %rbx %rsp -> %rsp 0xfffffff8(%rsp)[8byte]  
0x00000000004057d9 41 89 d4 mov %edx -> %r12d  
0x00000000004057dc 48 89 fb mov %rdi -> %rbx  
0x00000000004057df 48 83 ec 18 sub $0x0000000000000018 %rsp -> %rsp  
0x00000000004057e3 48 85 ff test %rdi %rdi  
0x00000000004057e6 74 50 jz $0x0000000000405838  
Actual: 4057e8 
Block 569: 
0x00000000004057e8 85 f6 test %esi %esi  
0x00000000004057ea c7 07 00 00 00 00 mov $0x00000000 -> (%rdi)[4byte]  
0x00000000004057f0 75 16 jnz $0x0000000000405808  
Actual: 405808 
Block 572: 
0x0000000000405819 41 83 fd 04 cmp %r13d $0x00000004  
0x000000000040581d 76 31 jbe $0x0000000000405850  
Actual: 405850 
Block 574: 
0x00007f61cc201892 83 c0 5b add $0x0000005b %eax -> %eax  
0x00007f61cc201895 89 04 24 mov %eax -> (%rsp)[4byte]  
0x00007f61cc201898 e9 ca f8 ff ff jmp $0x00007f61cc201167  
0x00007f61cc201167 f6 45 04 01 test 0x04(%rbp)[1byte] $0x01  
0x00007f61cc20116b 75 08 jnz $0x00007f61cc201175  
Actual: 7f61cc201175 
Block 575: 
0x00007f61cc201bb0 48 8d 15 49 cf 33 00 lea <rel> 0x00007f61cc53eb00 -> %rdx  
0x00007f61cc201bb7 4c 29 e8 sub %r13 %rax -> %rax  
0x00007f61cc201bba 31 c9 xor %ecx %ecx -> %ecx  
0x00007f61cc201bbc 4b 8d 34 2a lea (%r10,%r13,1) -> %rsi  
0x00007f61cc201bc0 48 39 d5 cmp %rbp %rdx  
0x00007f61cc201bc3 4c 89 ea mov %r13 -> %rdx  
0x00007f61cc201bc6 0f 95 c1 setnz -> %cl  
0x00007f61cc201bc9 48 83 ca 01 or $0x0000000000000001 %rdx -> %rdx  
0x00007f61cc201bcd 48 83 c8 01 or $0x0000000000000001 %rax -> %rax  
0x00007f61cc201bd1 48 c1 e1 02 shl $0x0000000000000002 %rcx -> %rcx  
0x00007f61cc201bd5 48 89 75 58 mov %rsi -> 0x58(%rbp)[8byte]  
0x00007f61cc201bd9 49 83 c2 10 add $0x0000000000000010 %r10 -> %r10  
0x00007f61cc201bdd 48 09 ca or %rcx %rdx -> %rdx  
0x00007f61cc201be0 49 89 52 f8 mov %rdx -> 0xfffffff8(%r10)[8byte]  
0x00007f61cc201be4 48 89 46 08 mov %rax -> 0x08(%rsi)[8byte]  
0x00007f61cc201be8 8b 05 e6 eb 33 00 mov <rel> 0x00007f61cc5407d4[4byte] -> %eax  
0x00007f61cc201bee 85 c0 test %eax %eax  
0x00007f61cc201bf0 0f 84 e5 f9 ff ff jz $0x00007f61cc2015db  
Actual: 7f61cc2015db 
Block 576: 
0x0000000000405863 48 85 c0 test %rax %rax  
0x0000000000405866 48 89 c5 mov %rax -> %rbp  
0x0000000000405869 8b 74 24 08 mov 0x08(%rsp)[4byte] -> %esi  
0x000000000040586d 44 8b 44 24 0c mov 0x0c(%rsp)[4byte] -> %r8d  
0x0000000000405872 0f 84 98 00 00 00 jz $0x0000000000405910  
Actual: 405878 
Block 577: 
0x0000000000405878 48 85 db test %rbx %rbx  
0x000000000040587b 74 06 jz $0x0000000000405883  
Actual: 40587d 
Block 579: 
0x00000000004043ac 41 57 push %r15 %rsp -> %rsp 0xfffffff8(%rsp)[8byte]  
0x00000000004043ae 41 56 push %r14 %rsp -> %rsp 0xfffffff8(%rsp)[8byte]  
0x00000000004043b0 41 55 push %r13 %rsp -> %rsp 0xfffffff8(%rsp)[8byte]  
0x00000000004043b2 41 54 push %r12 %rsp -> %rsp 0xfffffff8(%rsp)[8byte]  
0x00000000004043b4 55 push %rbp %rsp -> %rsp 0xfffffff8(%rsp)[8byte]  
0x00000000004043b5 53 push %rbx %rsp -> %rsp 0xfffffff8(%rsp)[8byte]  
0x00000000004043b6 48 89 fd mov %rdi -> %rbp  
0x00000000004043b9 48 83 ec 08 sub $0x0000000000000008 %rsp -> %rsp  
0x00000000004043bd 48 85 ff test %rdi %rdi  
0x00000000004043c0 0f 84 ce 01 00 00 jz $0x0000000000404594  
Actual: 4043c6 
Block 581: 
0x00000000004043d5 85 c9 test %ecx %ecx  
0x00000000004043d7 b8 1e 00 00 00 mov $0x0000001e -> %eax  
0x00000000004043dc 41 89 f7 mov %esi -> %r15d  
0x00000000004043df 44 0f 44 e0 cmovz %eax %r12d -> %r12d  
0x00000000004043e3 48 8b 47 38 mov 0x38(%rdi)[8byte] -> %rax  
0x00000000004043e7 41 89 d6 mov %edx -> %r14d  
0x00000000004043ea 48 85 c0 test %rax %rax  
0x00000000004043ed 0f 84 7c 01 00 00 jz $0x000000000040456f  
Actual: 40456f 
Block 582: 
0x000000000040456f 48 83 7d 40 00 cmp 0x40(%rbp)[8byte] $0x0000000000000000  
0x0000000000404574 48 c7 47 38 f0 3e 40 mov $0x0000000000403ef0 -> 0x38(%rdi)[8byte]  
0x000000000040457c b8 f0 3e 40 00 mov $0x00403ef0 -> %eax  
0x0000000000404581 0f 85 77 fe ff ff jnz $0x00000000004043fe  
Actual: 404587 
Block 585: 
0x00007f61cc20191d 83 c0 77 add $0x00000077 %eax -> %eax  
0x00007f61cc201920 89 04 24 mov %eax -> (%rsp)[4byte]  
0x00007f61cc201923 e9 3f f8 ff ff jmp $0x00007f61cc201167  
0x00007f61cc201167 f6 45 04 01 test 0x04(%rbp)[1byte] $0x01  
0x00007f61cc20116b 75 08 jnz $0x00007f61cc201175  
Actual: 7f61cc201175 
Block 586: 
0x000000000040440e 48 85 c0 test %rax %rax  
0x0000000000404411 48 89 c3 mov %rax -> %rbx  
0x0000000000404414 0f 84 b9 01 00 00 jz $0x00000000004045d3  
Actual: 40441a 
Block 590: 
0x000000000040447d 48 8b 73 18 mov 0x18(%rbx)[8byte] -> %rsi  
0x0000000000404481 48 89 43 28 mov %rax -> 0x28(%rbx)[8byte]  
0x0000000000404485 48 85 f6 test %rsi %rsi  
0x0000000000404488 0f 84 14 01 00 00 jz $0x00000000004045a2  
Actual: 40448e 
Block 591: 
0x000000000040448e 48 8b 53 20 mov 0x20(%rbx)[8byte] -> %rdx  
0x0000000000404492 48 85 d2 test %rdx %rdx  
0x0000000000404495 0f 84 00 01 00 00 jz $0x000000000040459b  
Actual: 40449b 
Block 592: 
0x000000000040449b 48 85 c0 test %rax %rax  
0x000000000040449e 0f 84 f7 00 00 00 jz $0x000000000040459b  
Actual: 4044a4 
Block 593: 
0x00000000004044a4 48 89 53 40 mov %rdx -> 0x40(%rbx)[8byte]  
0x00000000004044a8 41 83 ed 13 sub $0x00000013 %r13d -> %r13d  
0x00000000004044ac 48 8d 83 80 00 00 00 lea 0x00000080(%rbx) -> %rax  
0x00000000004044b3 48 8d 93 80 01 00 00 lea 0x00000180(%rbx) -> %rdx  
0x00000000004044ba c7 43 0c 02 00 00 00 mov $0x00000002 -> 0x0c(%rbx)[4byte]  
0x00000000004044c1 c7 43 08 02 00 00 00 mov $0x00000002 -> 0x08(%rbx)[4byte]  
0x00000000004044c8 c7 83 8c 02 00 00 00 mov $0x00000000 -> 0x0000028c(%rbx)[4byte]  
00 00 00 
0x00000000004044d2 44 89 bb 98 02 00 00 mov %r15d -> 0x00000298(%rbx)[4byte]  
0x00000000004044d9 44 89 6b 70 mov %r13d -> 0x70(%rbx)[4byte]  
0x00000000004044dd 44 89 b3 90 02 00 00 mov %r14d -> 0x00000290(%rbx)[4byte]  
0x00000000004044e4 44 89 63 58 mov %r12d -> 0x58(%rbx)[4byte]  
0x00000000004044e8 48 89 73 48 mov %rsi -> 0x48(%rbx)[8byte]  
0x00000000004044ec 48 c7 43 50 00 00 00 mov $0x0000000000000000 -> 0x50(%rbx)[8byte]  
0x00000000004044f4 48 89 73 38 mov %rsi -> 0x38(%rbx)[8byte]  
0x00000000004044f8 48 89 5d 30 mov %rbx -> 0x30(%rbp)[8byte]  
0x00000000004044fc c7 45 0c 00 00 00 00 mov $0x00000000 -> 0x0c(%rbp)[4byte]  
0x0000000000404503 c7 45 10 00 00 00 00 mov $0x00000000 -> 0x10(%rbp)[4byte]  
0x000000000040450a c7 45 24 00 00 00 00 mov $0x00000000 -> 0x24(%rbp)[4byte]  
0x0000000000404511 c7 45 28 00 00 00 00 mov $0x00000000 -> 0x28(%rbp)[4byte]  
0x0000000000404518 c7 43 5c 00 01 00 00 mov $0x00000100 -> 0x5c(%rbx)[4byte]  
0x000000000040451f c7 43 60 00 00 00 00 mov $0x00000000 -> 0x60(%rbx)[4byte]  
0x0000000000404526 c7 43 6c 00 00 00 00 mov $0x00000000 -> 0x6c(%rbx)[4byte]  
0x000000000040452d c7 43 74 00 00 00 00 mov $0x00000000 -> 0x74(%rbx)[4byte]  
0x0000000000404534 c7 43 78 00 00 00 00 mov $0x00000000 -> 0x78(%rbx)[4byte]  
0x000000000040453b c7 83 88 02 00 00 ff mov $0xffffffff -> 0x00000288(%rbx)[4byte]  
ff ff ff 
0x0000000000404545 0f 1f 00 nop (%rax)[4byte]  
0x0000000000404548 c6 00 00 mov $0x00 -> (%rax)[1byte]  
0x000000000040454b 48 83 c0 01 add $0x0000000000000001 %rax -> %rax  
0x000000000040454f 48 39 d0 cmp %rax %rdx  
0x0000000000404552 75 f4 jnz $0x0000000000404548  
Actual: 404548 
Block 594: 
0x0000000000404548 c6 00 00 mov $0x00 -> (%rax)[1byte]  
0x000000000040454b 48 83 c0 01 add $0x0000000000000001 %rax -> %rax  
0x000000000040454f 48 39 d0 cmp %rax %rdx  
0x0000000000404552 75 f4 jnz $0x0000000000404548  
Actual: 404548 
Block 596: 
0x00000000004058ea 85 c0 test %eax %eax  
0x00000000004058ec 75 38 jnz $0x0000000000405926  
Actual: 4058ee 
Block 598: 
0x000000000040376e 44 8b 54 24 1c mov 0x1c(%rsp)[4byte] -> %r10d  
0x0000000000403773 48 89 c5 mov %rax -> %rbp  
0x0000000000403776 45 85 d2 test %r10d %r10d  
0x0000000000403779 0f 85 81 02 00 00 jnz $0x0000000000403a00  
Actual: 40377f 
Block 605: 
0x00000000004035c8 89 c7 mov %eax -> %edi  
0x00000000004035ca b8 01 00 00 00 mov $0x00000001 -> %eax  
0x00000000004035cf 83 ff ff cmp %edi $0xffffffff  
0x00000000004035d2 74 0d jz $0x00000000004035e1  
Actual: 4035d4 
Block 609: 
0x00000000004012a0 48 8b 48 10 mov 0x10(%rax)[8byte] -> %rcx  
0x00000000004012a4 83 ea 01 sub $0x00000001 %edx -> %edx  
0x00000000004012a7 89 50 08 mov %edx -> 0x08(%rax)[4byte]  
0x00000000004012aa 48 63 d2 movsxd %edx -> %rdx  
0x00000000004012ad 0f b6 1c 11 movzx (%rcx,%rdx,1)[1byte] -> %ebx  
0x00000000004012b1 40 38 eb cmp %bl %bpl  
0x00000000004012b4 75 56 jnz $0x000000000040130c  
Actual: 4012b6 
Block 613: 
0x00000000004037f1 84 c0 test %al %al  
0x00000000004037f3 74 b3 jz $0x00000000004037a8  
Actual: 4037a8 
Block 622: 
0x00000000004037c5 48 8d 94 24 80 00 00 lea 0x00000080(%rsp) -> %rdx  
0x00000000004037cd 48 8d 7c 24 1c lea 0x1c(%rsp) -> %rdi  
0x00000000004037d2 89 c1 mov %eax -> %ecx  
0x00000000004037d4 48 89 ee mov %rbp -> %rsi  
0x00000000004037d7 e8 64 21 00 00 call $0x0000000000405940 %rsp -> %rsp 0xfffffff8(%rsp)[8byte]  
0x0000000000405940 48 85 ff test %rdi %rdi  
0x0000000000405943 74 06 jz $0x000000000040594b  
Actual: 405945 
Block 623: 
0x0000000000405945 c7 07 00 00 00 00 mov $0x00000000 -> (%rdi)[4byte]  
0x000000000040594b 48 85 f6 test %rsi %rsi  
0x000000000040594e 0f 84 fc 00 00 00 jz $0x0000000000405a50  
Actual: 405954 
Block 624: 
0x0000000000405954 48 85 d2 test %rdx %rdx  
0x0000000000405957 c7 86 e8 13 00 00 00 mov $0x00000000 -> 0x000013e8(%rsi)[4byte]  
00 00 00 
0x0000000000405961 0f 84 f9 00 00 00 jz $0x0000000000405a60  
Actual: 405967 
Block 625: 
0x0000000000405967 89 c8 mov %ecx -> %eax  
0x0000000000405969 c1 e8 1f shr $0x0000001f %eax -> %eax  
0x000000000040596c 84 c0 test %al %al  
0x000000000040596e 0f 85 ec 00 00 00 jnz $0x0000000000405a60  
Actual: 405974 
Block 626: 
0x0000000000405974 80 be 90 13 00 00 00 cmp 0x00001390(%rsi)[1byte] $0x00  
0x000000000040597b 0f 84 af 00 00 00 jz $0x0000000000405a30  
Actual: 405981 
Block 627: 
0x0000000000405981 85 c9 test %ecx %ecx  
0x0000000000405983 41 56 push %r14 %rsp -> %rsp 0xfffffff8(%rsp)[8byte]  
0x0000000000405985 41 55 push %r13 %rsp -> %rsp 0xfffffff8(%rsp)[8byte]  
0x0000000000405987 41 54 push %r12 %rsp -> %rsp 0xfffffff8(%rsp)[8byte]  
0x0000000000405989 55 push %rbp %rsp -> %rsp 0xfffffff8(%rsp)[8byte]  
0x000000000040598a 48 89 fd mov %rdi -> %rbp  
0x000000000040598d 53 push %rbx %rsp -> %rsp 0xfffffff8(%rsp)[8byte]  
0x000000000040598e 48 89 f3 mov %rsi -> %rbx  
0x0000000000405991 0f 84 e9 00 00 00 jz $0x0000000000405a80  
Actual: 405997 
Block 628: 
0x0000000000405997 89 8e a0 13 00 00 mov %ecx -> 0x000013a0(%rsi)[4byte]  
0x000000000040599d 48 89 96 98 13 00 00 mov %rdx -> 0x00001398(%rsi)[8byte]  
0x00000000004059a4 4c 8d 66 04 lea 0x04(%rsi) -> %r12  
0x00000000004059a8 4c 8d ae 98 13 00 00 lea 0x00001398(%rsi) -> %r13  
0x00000000004059af eb 15 jmp $0x00000000004059c6  
0x00000000004059c6 31 f6 xor %esi %esi -> %esi  
0x00000000004059c8 c7 83 b8 13 00 00 88 mov $0x00001388 -> 0x000013b8(%rbx)[4byte]  
13 00 00 
0x00000000004059d2 4c 89 a3 b0 13 00 00 mov %r12 -> 0x000013b0(%rbx)[8byte]  
0x00000000004059d9 4c 89 ef mov %r13 -> %rdi  
0x00000000004059dc e8 ff eb ff ff call $0x00000000004045e0 %rsp -> %rsp 0xfffffff8(%rsp)[8byte]  
0x00000000004045e0 55 push %rbp %rsp -> %rsp 0xfffffff8(%rsp)[8byte]  
0x00000000004045e1 53 push %rbx %rsp -> %rsp 0xfffffff8(%rsp)[8byte]  
0x00000000004045e2 48 83 ec 08 sub $0x0000000000000008 %rsp -> %rsp  
0x00000000004045e6 48 85 ff test %rdi %rdi  
0x00000000004045e9 0f 84 9d 00 00 00 jz $0x000000000040468c  
Actual: 4045ef 
Block 629: 
0x00000000004045ef 48 8b 5f 30 mov 0x30(%rdi)[8byte] -> %rbx  
0x00000000004045f3 48 85 db test %rbx %rbx  
0x00000000004045f6 0f 84 90 00 00 00 jz $0x000000000040468c  
Actual: 4045fc 
Block 630: 
0x00000000004045fc 48 8b 13 mov (%rbx)[8byte] -> %rdx  
0x00000000004045ff 48 39 d7 cmp %rdi %rdx  
0x0000000000404602 0f 85 84 00 00 00 jnz $0x000000000040468c  
Actual: 404608 
Block 631: 
0x0000000000404608 31 c0 xor %eax %eax -> %eax  
0x000000000040460a 8b 6b 08 mov 0x08(%rbx)[4byte] -> %ebp  
0x000000000040460d 83 fe 01 cmp %esi $0x00000001  
0x0000000000404610 0f 95 c0 setnz -> %al  
0x0000000000404613 83 c0 03 add $0x00000003 %eax -> %eax  
0x0000000000404616 83 fd 02 cmp %ebp $0x00000002  
0x0000000000404619 0f 84 e1 00 00 00 jz $0x0000000000404700  
Actual: 404700 
Block 632: 
0x0000000000404700 85 f6 test %esi %esi  
0x0000000000404702 0f 84 73 ff ff ff jz $0x000000000040467b  
Actual: 40467b 
Block 633: 
0x000000000040467b 48 89 df mov %rbx -> %rdi  
0x000000000040467e bd 01 00 00 00 mov $0x00000001 -> %ebp  
0x0000000000404683 e8 78 f8 ff ff call $0x0000000000403f00 %rsp -> %rsp 0xfffffff8(%rsp)[8byte]  
0x0000000000403f00 41 56 push %r14 %rsp -> %rsp 0xfffffff8(%rsp)[8byte]  
0x0000000000403f02 41 55 push %r13 %rsp -> %rsp 0xfffffff8(%rsp)[8byte]  
0x0000000000403f04 4c 8d af 80 01 00 00 lea 0x00000180(%rdi) -> %r13  
0x0000000000403f0b 41 54 push %r12 %rsp -> %rsp 0xfffffff8(%rsp)[8byte]  
0x0000000000403f0d 45 31 e4 xor %r12d %r12d -> %r12d  
0x0000000000403f10 55 push %rbp %rsp -> %rsp 0xfffffff8(%rsp)[8byte]  
0x0000000000403f11 31 ed xor %ebp %ebp -> %ebp  
0x0000000000403f13 53 push %rbx %rsp -> %rsp 0xfffffff8(%rsp)[8byte]  
0x0000000000403f14 48 89 fb mov %rdi -> %rbx  
0x0000000000403f17 8b 47 0c mov 0x0c(%rdi)[4byte] -> %eax  
0x0000000000403f1a eb 0d jmp $0x0000000000403f29  
0x0000000000403f29 83 f8 01 cmp %eax $0x00000001  
0x0000000000403f2c 75 f2 jnz $0x0000000000403f20  
Actual: 403f20 
Block 634: 
0x0000000000403f20 83 f8 02 cmp %eax $0x00000002  
0x0000000000403f23 0f 84 06 04 00 00 jz $0x000000000040432f  
Actual: 40432f 
Block 635: 
0x000000000040432f 8b 4b 6c mov 0x6c(%rbx)[4byte] -> %ecx  
0x0000000000404332 8b 53 08 mov 0x08(%rbx)[4byte] -> %edx  
0x0000000000404335 e9 bb fc ff ff jmp $0x0000000000403ff5  
0x0000000000403ff5 83 fa 02 cmp %edx $0x00000002  
0x0000000000403ff8 0f 84 d3 01 00 00 jz $0x00000000004041d1  
Actual: 4041d1 
Block 637: 
0x0000000000404229 48 8b 03 mov (%rbx)[8byte] -> %rax  
0x000000000040422c 8b 50 08 mov 0x08(%rax)[4byte] -> %edx  
0x000000000040422f 85 d2 test %edx %edx  
0x0000000000404231 0f 84 27 ff ff ff jz $0x000000000040415e  
Actual: 404237 
Block 638: 
0x0000000000404237 48 8b 30 mov (%rax)[8byte] -> %rsi  
0x000000000040423a 8b 7b 5c mov 0x5c(%rbx)[4byte] -> %edi  
0x000000000040423d 44 0f b6 36 movzx (%rsi)[1byte] -> %r14d  
0x0000000000404241 41 39 fe cmp %r14d %edi  
0x0000000000404244 75 9a jnz $0x00000000004041e0  
Actual: 4041e0 
Block 639: 
0x00000000004041e0 83 7b 60 01 cmp 0x60(%rbx)[4byte] $0x00000001  
0x00000000004041e4 74 73 jz $0x0000000000404259  
Actual: 4041e6 
Block 640: 
0x00000000004041e6 81 ff ff 00 00 00 cmp %edi $0x000000ff  
0x00000000004041ec 0f 86 bb 00 00 00 jbe $0x00000000004042ad  
Actual: 4041f2 
Block 641: 
0x00000000004041f2 44 89 73 5c mov %r14d -> 0x5c(%rbx)[4byte]  
0x00000000004041f6 c7 43 60 01 00 00 00 mov $0x00000001 -> 0x60(%rbx)[4byte]  
0x00000000004041fd 8b 78 0c mov 0x0c(%rax)[4byte] -> %edi  
0x0000000000404200 83 ea 01 sub $0x00000001 %edx -> %edx  
0x0000000000404203 48 83 c6 01 add $0x0000000000000001 %rsi -> %rsi  
0x0000000000404207 89 50 08 mov %edx -> 0x08(%rax)[4byte]  
0x000000000040420a 48 89 30 mov %rsi -> (%rax)[8byte]  
0x000000000040420d be 01 00 00 00 mov $0x00000001 -> %esi  
0x0000000000404212 8d 57 01 lea 0x01(%rdi) -> %edx  
0x0000000000404215 85 d2 test %edx %edx  
0x0000000000404217 89 50 0c mov %edx -> 0x0c(%rax)[4byte]  
0x000000000040421a 0f 84 06 01 00 00 jz $0x0000000000404326  
Actual: 404220 
Block 643: 
0x0000000000404259 8b 83 88 02 00 00 mov 0x00000288(%rbx)[4byte] -> %eax  
0x000000000040425f 48 63 c9 movsxd %ecx -> %rcx  
0x0000000000404262 89 c2 mov %eax -> %edx  
0x0000000000404264 c1 e0 08 shl $0x00000008 %eax -> %eax  
0x0000000000404267 c1 ea 18 shr $0x00000018 %edx -> %edx  
0x000000000040426a 31 fa xor %edi %edx -> %edx  
0x000000000040426c 0f b6 d2 movzx %dl -> %edx  
0x000000000040426f 33 04 95 e0 f0 60 00 xor 0x0060f0e0(,%rdx,4)[4byte] %eax -> %eax  
0x0000000000404276 89 83 88 02 00 00 mov %eax -> 0x00000288(%rbx)[4byte]  
0x000000000040427c 89 f8 mov %edi -> %eax  
0x000000000040427e c6 84 03 80 00 00 00 mov $0x01 -> 0x00000080(%rbx,%rax,1)[1byte]  
0x0000000000404286 48 8b 43 40 mov 0x40(%rbx)[8byte] -> %rax  
0x000000000040428a 40 88 3c 08 mov %dil -> (%rax,%rcx,1)[1byte]  
0x000000000040428e 8b 43 6c mov 0x6c(%rbx)[4byte] -> %eax  
0x0000000000404291 44 89 73 5c mov %r14d -> 0x5c(%rbx)[4byte]  
0x0000000000404295 44 8b 43 70 mov 0x70(%rbx)[4byte] -> %r8d  
0x0000000000404299 8d 48 01 lea 0x01(%rax) -> %ecx  
0x000000000040429c 48 8b 03 mov (%rbx)[8byte] -> %rax  
0x000000000040429f 89 4b 6c mov %ecx -> 0x6c(%rbx)[4byte]  
0x00000000004042a2 48 8b 30 mov (%rax)[8byte] -> %rsi  
0x00000000004042a5 8b 50 08 mov 0x08(%rax)[4byte] -> %edx  
0x00000000004042a8 e9 50 ff ff ff jmp $0x00000000004041fd  
0x00000000004041fd 8b 78 0c mov 0x0c(%rax)[4byte] -> %edi  
0x0000000000404200 83 ea 01 sub $0x00000001 %edx -> %edx  
0x0000000000404203 48 83 c6 01 add $0x0000000000000001 %rsi -> %rsi  
0x0000000000404207 89 50 08 mov %edx -> 0x08(%rax)[4byte]  
0x000000000040420a 48 89 30 mov %rsi -> (%rax)[8byte]  
0x000000000040420d be 01 00 00 00 mov $0x00000001 -> %esi  
0x0000000000404212 8d 57 01 lea 0x01(%rdi) -> %edx  
0x0000000000404215 85 d2 test %edx %edx  
0x0000000000404217 89 50 0c mov %edx -> 0x0c(%rax)[4byte]  
0x000000000040421a 0f 84 06 01 00 00 jz $0x0000000000404326  
Actual: 404220 
Block 644: 
0x0000000000404246 8b 7b 60 mov 0x60(%rbx)[4byte] -> %edi  
0x0000000000404249 81 ff ff 00 00 00 cmp %edi $0x000000ff  
0x000000000040424f 74 5c jz $0x00000000004042ad  
Actual: 404251 
Block 645: 
0x0000000000404251 83 c7 01 add $0x00000001 %edi -> %edi  
0x0000000000404254 89 7b 60 mov %edi -> 0x60(%rbx)[4byte]  
0x0000000000404257 eb a4 jmp $0x00000000004041fd  
0x00000000004041fd 8b 78 0c mov 0x0c(%rax)[4byte] -> %edi  
0x0000000000404200 83 ea 01 sub $0x00000001 %edx -> %edx  
0x0000000000404203 48 83 c6 01 add $0x0000000000000001 %rsi -> %rsi  
0x0000000000404207 89 50 08 mov %edx -> 0x08(%rax)[4byte]  
0x000000000040420a 48 89 30 mov %rsi -> (%rax)[8byte]  
0x000000000040420d be 01 00 00 00 mov $0x00000001 -> %esi  
0x0000000000404212 8d 57 01 lea 0x01(%rdi) -> %edx  
0x0000000000404215 85 d2 test %edx %edx  
0x0000000000404217 89 50 0c mov %edx -> 0x0c(%rax)[4byte]  
0x000000000040421a 0f 84 06 01 00 00 jz $0x0000000000404326  
Actual: 404220 
Block 647: 
0x0000000000403d9b 8b 97 88 02 00 00 mov 0x00000288(%rdi)[4byte] -> %edx  
0x0000000000403da1 45 0f b6 c1 movzx %r9l -> %r8d  
0x0000000000403da5 31 c9 xor %ecx %ecx -> %ecx  
0x0000000000403da7 66 0f 1f 84 00 00 00 data16 nop 0x00000000(%rax,%rax,1)[4byte]  
00 00 
0x0000000000403db0 89 d0 mov %edx -> %eax  
0x0000000000403db2 83 c1 01 add $0x00000001 %ecx -> %ecx  
0x0000000000403db5 c1 e2 08 shl $0x00000008 %edx -> %edx  
0x0000000000403db8 c1 e8 18 shr $0x00000018 %eax -> %eax  
0x0000000000403dbb 44 31 c0 xor %r8d %eax -> %eax  
0x0000000000403dbe 33 14 85 e0 f0 60 00 xor 0x0060f0e0(,%rax,4)[4byte] %edx -> %edx  
0x0000000000403dc5 39 f1 cmp %ecx %esi  
0x0000000000403dc7 75 e7 jnz $0x0000000000403db0  
Actual: 403db0 
Block 648: 
0x0000000000403db0 89 d0 mov %edx -> %eax  
0x0000000000403db2 83 c1 01 add $0x00000001 %ecx -> %ecx  
0x0000000000403db5 c1 e2 08 shl $0x00000008 %edx -> %edx  
0x0000000000403db8 c1 e8 18 shr $0x00000018 %eax -> %eax  
0x0000000000403dbb 44 31 c0 xor %r8d %eax -> %eax  
0x0000000000403dbe 33 14 85 e0 f0 60 00 xor 0x0060f0e0(,%rax,4)[4byte] %edx -> %edx  
0x0000000000403dc5 39 f1 cmp %ecx %esi  
0x0000000000403dc7 75 e7 jnz $0x0000000000403db0  
Actual: 403dc9 
Block 649: 
0x0000000000403dc9 89 97 88 02 00 00 mov %edx -> 0x00000288(%rdi)[4byte]  
0x0000000000403dcf 44 89 c8 mov %r9d -> %eax  
0x0000000000403dd2 83 fe 02 cmp %esi $0x00000002  
0x0000000000403dd5 c6 84 07 80 00 00 00 mov $0x01 -> 0x00000080(%rdi,%rax,1)[1byte]  
0x0000000000403ddd 0f 84 dd 00 00 00 jz $0x0000000000403ec0  
Actual: 403ec0 
Block 651: 
0x00000000004042b5 48 8b 03 mov (%rbx)[8byte] -> %rax  
0x00000000004042b8 8b 4b 6c mov 0x6c(%rbx)[4byte] -> %ecx  
0x00000000004042bb 44 8b 43 70 mov 0x70(%rbx)[4byte] -> %r8d  
0x00000000004042bf 48 8b 30 mov (%rax)[8byte] -> %rsi  
0x00000000004042c2 8b 50 08 mov 0x08(%rax)[4byte] -> %edx  
0x00000000004042c5 e9 28 ff ff ff jmp $0x00000000004041f2  
0x00000000004041f2 44 89 73 5c mov %r14d -> 0x5c(%rbx)[4byte]  
0x00000000004041f6 c7 43 60 01 00 00 00 mov $0x00000001 -> 0x60(%rbx)[4byte]  
0x00000000004041fd 8b 78 0c mov 0x0c(%rax)[4byte] -> %edi  
0x0000000000404200 83 ea 01 sub $0x00000001 %edx -> %edx  
0x0000000000404203 48 83 c6 01 add $0x0000000000000001 %rsi -> %rsi  
0x0000000000404207 89 50 08 mov %edx -> 0x08(%rax)[4byte]  
0x000000000040420a 48 89 30 mov %rsi -> (%rax)[8byte]  
0x000000000040420d be 01 00 00 00 mov $0x00000001 -> %esi  
0x0000000000404212 8d 57 01 lea 0x01(%rdi) -> %edx  
0x0000000000404215 85 d2 test %edx %edx  
0x0000000000404217 89 50 0c mov %edx -> 0x0c(%rax)[4byte]  
0x000000000040421a 0f 84 06 01 00 00 jz $0x0000000000404326  
Actual: 404220 
Block 652: 
0x0000000000403de3 83 fe 03 cmp %esi $0x00000003  
0x0000000000403de6 0f 84 94 00 00 00 jz $0x0000000000403e80  
Actual: 403e80 
Block 654: 
0x0000000000403dec 83 fe 01 cmp %esi $0x00000001  
0x0000000000403def 74 77 jz $0x0000000000403e68  
Actual: 403df1 
Block 656: 
0x000000000040415e 41 09 f4 or %esi %r12d -> %r12d  
0x0000000000404161 83 7b 08 02 cmp 0x08(%rbx)[4byte] $0x00000002  
0x0000000000404165 74 da jz $0x0000000000404141  
Actual: 404141 
Block 658: 
0x0000000000404688 84 c0 test %al %al  
0x000000000040468a 75 e6 jnz $0x0000000000404672  
Actual: 404672 
Block 660: 
0x00000000004059e1 83 f8 01 cmp %eax $0x00000001  
0x00000000004059e4 0f 85 b6 00 00 00 jnz $0x0000000000405aa0  
Actual: 4059ea 
Block 662: 
0x00000000004059b8 8b 83 a0 13 00 00 mov 0x000013a0(%rbx)[4byte] -> %eax  
0x00000000004059be 85 c0 test %eax %eax  
0x00000000004059c0 0f 84 ba 00 00 00 jz $0x0000000000405a80  
Actual: 405a80 
Block 663: 
0x0000000000405a80 48 85 ed test %rbp %rbp  
0x0000000000405a83 74 07 jz $0x0000000000405a8c  
Actual: 405a85 
Block 665: 
0x00000000004037dc 44 8b 4c 24 1c mov 0x1c(%rsp)[4byte] -> %r9d  
0x00000000004037e1 45 85 c9 test %r9d %r9d  
0x00000000004037e4 0f 85 16 02 00 00 jnz $0x0000000000403a00  
Actual: 4037ea 
Block 666: 
0x00000000004042cf 41 09 f4 or %esi %r12d -> %r12d  
0x00000000004042d2 83 7b 08 02 cmp 0x08(%rbx)[4byte] $0x00000002  
0x00000000004042d6 0f 85 8b fe ff ff jnz $0x0000000000404167  
Actual: 4042dc 
Block 672: 
0x000000000040249c 48 8b 74 24 70 mov 0x70(%rsp)[8byte] -> %rsi  
0x00000000004024a1 48 89 f0 mov %rsi -> %rax  
0x00000000004024a4 48 8d 56 fc lea 0xfffffffc(%rsi) -> %rdx  
0x00000000004024a8 48 05 00 00 04 00 add $0x0000000000040000 %rax -> %rax  
0x00000000004024ae c7 00 00 00 00 00 mov $0x00000000 -> (%rax)[4byte]  
0x00000000004024b4 48 83 e8 04 sub $0x0000000000000004 %rax -> %rax  
0x00000000004024b8 48 39 c2 cmp %rdx %rax  
0x00000000004024bb 75 f1 jnz $0x00000000004024ae  
Actual: 4024ae 
Block 673: 
0x00000000004024ae c7 00 00 00 00 00 mov $0x00000000 -> (%rax)[4byte]  
0x00000000004024b4 48 83 e8 04 sub $0x0000000000000004 %rax -> %rax  
0x00000000004024b8 48 39 c2 cmp %rdx %rax  
0x00000000004024bb 75 f1 jnz $0x00000000004024ae  
Actual: 4024ae 
Block 675: 
0x00000000004024de 48 8b 5c 24 18 mov 0x18(%rsp)[8byte] -> %rbx  
0x00000000004024e3 83 ee 04 sub $0x00000004 %esi -> %esi  
0x00000000004024e6 48 63 d1 movsxd %ecx -> %rdx  
0x00000000004024e9 c1 ee 02 shr $0x00000002 %esi -> %esi  
0x00000000004024ec 49 8d 0c 14 lea (%r12,%rdx,1) -> %rcx  
0x00000000004024f0 4c 8b 4c 24 70 mov 0x70(%rsp)[8byte] -> %r9  
0x00000000004024f5 41 89 f0 mov %esi -> %r8d  
0x00000000004024f8 48 8d 7c 53 fa lea 0xfffffffa(%rbx,%rdx,2) -> %rdi  
0x00000000004024fd 49 c1 e0 02 shl $0x0000000000000002 %r8 -> %r8  
0x0000000000402501 48 83 ea 04 sub $0x0000000000000004 %rdx -> %rdx  
0x0000000000402505 4c 29 c2 sub %r8 %rdx -> %rdx  
0x0000000000402508 4c 01 e2 add %r12 %rdx -> %rdx  
0x000000000040250b 45 31 d2 xor %r10d %r10d -> %r10d  
0x000000000040250e c1 f8 08 sar $0x00000008 %eax -> %eax  
0x0000000000402511 45 31 db xor %r11d %r11d -> %r11d  
0x0000000000402514 66 44 89 57 06 data16 mov %r10w -> 0x06(%rdi)[2byte]  
0x0000000000402519 44 0f b6 01 movzx (%rcx)[1byte] -> %r8d  
0x000000000040251d 31 db xor %ebx %ebx -> %ebx  
0x000000000040251f 31 ed xor %ebp %ebp -> %ebp  
0x0000000000402521 48 83 e9 04 sub $0x0000000000000004 %rcx -> %rcx  
0x0000000000402525 48 83 ef 08 sub $0x0000000000000008 %rdi -> %rdi  
0x0000000000402529 41 c1 e0 08 shl $0x00000008 %r8d -> %r8d  
0x000000000040252d 44 09 c0 or %r8d %eax -> %eax  
0x0000000000402530 4c 63 c0 movsxd %eax -> %r8  
0x0000000000402533 c1 f8 08 sar $0x00000008 %eax -> %eax  
0x0000000000402536 43 83 04 81 01 add $0x00000001 (%r9,%r8,4)[4byte] -> (%r9,%r8,4)[4byte]  
0x000000000040253b 66 44 89 5f 0c data16 mov %r11w -> 0x0c(%rdi)[2byte]  
0x0000000000402540 41 89 c0 mov %eax -> %r8d  
0x0000000000402543 0f b6 41 03 movzx 0x03(%rcx)[1byte] -> %eax  
0x0000000000402547 c1 e0 08 shl $0x00000008 %eax -> %eax  
0x000000000040254a 44 09 c0 or %r8d %eax -> %eax  
0x000000000040254d 4c 63 c0 movsxd %eax -> %r8  
0x0000000000402550 c1 f8 08 sar $0x00000008 %eax -> %eax  
0x0000000000402553 43 83 04 81 01 add $0x00000001 (%r9,%r8,4)[4byte] -> (%r9,%r8,4)[4byte]  
0x0000000000402558 66 89 5f 0a data16 mov %bx -> 0x0a(%rdi)[2byte]  
0x000000000040255c 41 89 c0 mov %eax -> %r8d  
0x000000000040255f 0f b6 41 02 movzx 0x02(%rcx)[1byte] -> %eax  
0x0000000000402563 c1 e0 08 shl $0x00000008 %eax -> %eax  
0x0000000000402566 44 09 c0 or %r8d %eax -> %eax  
0x0000000000402569 4c 63 c0 movsxd %eax -> %r8  
0x000000000040256c c1 f8 08 sar $0x00000008 %eax -> %eax  
0x000000000040256f 43 83 04 81 01 add $0x00000001 (%r9,%r8,4)[4byte] -> (%r9,%r8,4)[4byte]  
0x0000000000402574 66 89 6f 08 data16 mov %bp -> 0x08(%rdi)[2byte]  
0x0000000000402578 41 89 c0 mov %eax -> %r8d  
0x000000000040257b 0f b6 41 01 movzx 0x01(%rcx)[1byte] -> %eax  
0x000000000040257f c1 e0 08 shl $0x00000008 %eax -> %eax  
0x0000000000402582 44 09 c0 or %r8d %eax -> %eax  
0x0000000000402585 4c 63 c0 movsxd %eax -> %r8  
0x0000000000402588 43 83 04 81 01 add $0x00000001 (%r9,%r8,4)[4byte] -> (%r9,%r8,4)[4byte]  
0x000000000040258d 48 39 ca cmp %rdx %rcx  
0x0000000000402590 0f 85 75 ff ff ff jnz $0x000000000040250b  
Actual: 40250b 
Block 676: 
0x000000000040250b 45 31 d2 xor %r10d %r10d -> %r10d  
0x000000000040250e c1 f8 08 sar $0x00000008 %eax -> %eax  
0x0000000000402511 45 31 db xor %r11d %r11d -> %r11d  
0x0000000000402514 66 44 89 57 06 data16 mov %r10w -> 0x06(%rdi)[2byte]  
0x0000000000402519 44 0f b6 01 movzx (%rcx)[1byte] -> %r8d  
0x000000000040251d 31 db xor %ebx %ebx -> %ebx  
0x000000000040251f 31 ed xor %ebp %ebp -> %ebp  
0x0000000000402521 48 83 e9 04 sub $0x0000000000000004 %rcx -> %rcx  
0x0000000000402525 48 83 ef 08 sub $0x0000000000000008 %rdi -> %rdi  
0x0000000000402529 41 c1 e0 08 shl $0x00000008 %r8d -> %r8d  
0x000000000040252d 44 09 c0 or %r8d %eax -> %eax  
0x0000000000402530 4c 63 c0 movsxd %eax -> %r8  
0x0000000000402533 c1 f8 08 sar $0x00000008 %eax -> %eax  
0x0000000000402536 43 83 04 81 01 add $0x00000001 (%r9,%r8,4)[4byte] -> (%r9,%r8,4)[4byte]  
0x000000000040253b 66 44 89 5f 0c data16 mov %r11w -> 0x0c(%rdi)[2byte]  
0x0000000000402540 41 89 c0 mov %eax -> %r8d  
0x0000000000402543 0f b6 41 03 movzx 0x03(%rcx)[1byte] -> %eax  
0x0000000000402547 c1 e0 08 shl $0x00000008 %eax -> %eax  
0x000000000040254a 44 09 c0 or %r8d %eax -> %eax  
0x000000000040254d 4c 63 c0 movsxd %eax -> %r8  
0x0000000000402550 c1 f8 08 sar $0x00000008 %eax -> %eax  
0x0000000000402553 43 83 04 81 01 add $0x00000001 (%r9,%r8,4)[4byte] -> (%r9,%r8,4)[4byte]  
0x0000000000402558 66 89 5f 0a data16 mov %bx -> 0x0a(%rdi)[2byte]  
0x000000000040255c 41 89 c0 mov %eax -> %r8d  
0x000000000040255f 0f b6 41 02 movzx 0x02(%rcx)[1byte] -> %eax  
0x0000000000402563 c1 e0 08 shl $0x00000008 %eax -> %eax  
0x0000000000402566 44 09 c0 or %r8d %eax -> %eax  
0x0000000000402569 4c 63 c0 movsxd %eax -> %r8  
0x000000000040256c c1 f8 08 sar $0x00000008 %eax -> %eax  
0x000000000040256f 43 83 04 81 01 add $0x00000001 (%r9,%r8,4)[4byte] -> (%r9,%r8,4)[4byte]  
0x0000000000402574 66 89 6f 08 data16 mov %bp -> 0x08(%rdi)[2byte]  
0x0000000000402578 41 89 c0 mov %eax -> %r8d  
0x000000000040257b 0f b6 41 01 movzx 0x01(%rcx)[1byte] -> %eax  
0x000000000040257f c1 e0 08 shl $0x00000008 %eax -> %eax  
0x0000000000402582 44 09 c0 or %r8d %eax -> %eax  
0x0000000000402585 4c 63 c0 movsxd %eax -> %r8  
0x0000000000402588 43 83 04 81 01 add $0x00000001 (%r9,%r8,4)[4byte] -> (%r9,%r8,4)[4byte]  
0x000000000040258d 48 39 ca cmp %rdx %rcx  
0x0000000000402590 0f 85 75 ff ff ff jnz $0x000000000040250b  
Actual: 40250b 
Block 679: 
0x00000000004025de 48 63 54 24 14 movsxd 0x14(%rsp)[4byte] -> %rdx  
0x00000000004025e3 48 8b 44 24 18 mov 0x18(%rsp)[8byte] -> %rax  
0x00000000004025e8 48 8d 0c 50 lea (%rax,%rdx,2) -> %rcx  
0x00000000004025ec 31 c0 xor %eax %eax -> %eax  
0x00000000004025ee 4c 01 e2 add %r12 %rdx -> %rdx  
0x00000000004025f1 41 0f b6 34 04 movzx (%r12,%rax,1)[1byte] -> %esi  
0x00000000004025f6 31 ff xor %edi %edi -> %edi  
0x00000000004025f8 40 88 34 02 mov %sil -> (%rdx,%rax,1)[1byte]  
0x00000000004025fc 66 89 3c 41 data16 mov %di -> (%rcx,%rax,2)[2byte]  
0x0000000000402600 48 83 c0 01 add $0x0000000000000001 %rax -> %rax  
0x0000000000402604 48 83 f8 22 cmp %rax $0x0000000000000022  
0x0000000000402608 75 e7 jnz $0x00000000004025f1  
Actual: 4025f1 
Block 680: 
0x00000000004025f1 41 0f b6 34 04 movzx (%r12,%rax,1)[1byte] -> %esi  
0x00000000004025f6 31 ff xor %edi %edi -> %edi  
0x00000000004025f8 40 88 34 02 mov %sil -> (%rdx,%rax,1)[1byte]  
0x00000000004025fc 66 89 3c 41 data16 mov %di -> (%rcx,%rax,2)[2byte]  
0x0000000000402600 48 83 c0 01 add $0x0000000000000001 %rax -> %rax  
0x0000000000402604 48 83 f8 22 cmp %rax $0x0000000000000022  
0x0000000000402608 75 e7 jnz $0x00000000004025f1  
Actual: 4025f1 
Block 682: 
0x000000000040262f 48 8b 4c 24 70 mov 0x70(%rsp)[8byte] -> %rcx  
0x0000000000402634 48 89 c8 mov %rcx -> %rax  
0x0000000000402637 48 81 c1 04 00 04 00 add $0x0000000000040004 %rcx -> %rcx  
0x000000000040263e 48 83 c0 04 add $0x0000000000000004 %rax -> %rax  
0x0000000000402642 8b 50 fc mov 0xfffffffc(%rax)[4byte] -> %edx  
0x0000000000402645 01 10 add %edx (%rax)[4byte] -> (%rax)[4byte]  
0x0000000000402647 48 83 c0 04 add $0x0000000000000004 %rax -> %rax  
0x000000000040264b 48 39 c1 cmp %rcx %rax  
0x000000000040264e 75 f2 jnz $0x0000000000402642  
Actual: 402642 
Block 683: 
0x0000000000402642 8b 50 fc mov 0xfffffffc(%rax)[4byte] -> %edx  
0x0000000000402645 01 10 add %edx (%rax)[4byte] -> (%rax)[4byte]  
0x0000000000402647 48 83 c0 04 add $0x0000000000000004 %rax -> %rax  
0x000000000040264b 48 39 c1 cmp %rcx %rax  
0x000000000040264e 75 f2 jnz $0x0000000000402642  
Actual: 402642 
Block 689: 
0x0000000000402774 31 c0 xor %eax %eax -> %eax  
0x0000000000402776 c6 84 04 c0 00 00 00 mov $0x00 -> 0x000000c0(%rsp,%rax,1)[1byte]  
0x000000000040277e 89 84 84 70 06 00 00 mov %eax -> 0x00000670(%rsp,%rax,4)[4byte]  
0x0000000000402785 48 83 c0 01 add $0x0000000000000001 %rax -> %rax  
0x0000000000402789 48 3d 00 01 00 00 cmp %rax $0x0000000000000100  
0x000000000040278f 75 e5 jnz $0x0000000000402776  
Actual: 402776 
Block 690: 
0x0000000000402776 c6 84 04 c0 00 00 00 mov $0x00 -> 0x000000c0(%rsp,%rax,1)[1byte]  
0x000000000040277e 89 84 84 70 06 00 00 mov %eax -> 0x00000670(%rsp,%rax,4)[4byte]  
0x0000000000402785 48 83 c0 01 add $0x0000000000000001 %rax -> %rax  
0x0000000000402789 48 3d 00 01 00 00 cmp %rax $0x0000000000000100  
0x000000000040278f 75 e5 jnz $0x0000000000402776  
Actual: 402776 
Block 691: 
0x0000000000402791 b8 05 00 00 00 mov $0x00000005 -> %eax  
0x0000000000402796 ba 01 00 00 00 mov $0x00000001 -> %edx  
0x000000000040279b 83 e8 01 sub $0x00000001 %eax -> %eax  
0x000000000040279e 8d 54 52 01 lea 0x01(%rdx,%rdx,2) -> %edx  
0x00000000004027a2 75 f7 jnz $0x000000000040279b  
Actual: 40279b 
Block 692: 
0x000000000040279b 83 e8 01 sub $0x00000001 %eax -> %eax  
0x000000000040279e 8d 54 52 01 lea 0x01(%rdx,%rdx,2) -> %edx  
0x00000000004027a2 75 f7 jnz $0x000000000040279b  
Actual: 40279b 
Block 696: 
0x0000000000402864 49 83 c4 01 add $0x0000000000000001 %r12 -> %r12  
0x0000000000402868 49 83 c5 04 add $0x0000000000000004 %r13 -> %r13  
0x000000000040286c 44 89 9c b4 70 06 00 mov %r11d -> 0x00000670(%rsp,%rsi,4)[4byte]  
0x0000000000402874 4d 39 e7 cmp %r15 %r12  
0x0000000000402877 75 8f jnz $0x0000000000402808  
Actual: 402808 
Block 699: 
0x0000000000402879 41 83 f9 01 cmp %r9d $0x00000001  
0x000000000040287d 0f 85 34 ff ff ff jnz $0x00000000004027b7  
Actual: 4027b7 
Block 701: 
0x0000000000402883 48 8d 84 24 70 06 00 lea 0x00000670(%rsp) -> %rax  
0x000000000040288b 48 8d b4 24 70 0a 00 lea 0x00000a70(%rsp) -> %rsi  
0x0000000000402893 4c 8b 6c 24 28 mov 0x28(%rsp)[8byte] -> %r13  
0x0000000000402898 4c 8b 64 24 30 mov 0x30(%rsp)[8byte] -> %r12  
0x000000000040289d 48 8b 6c 24 20 mov 0x20(%rsp)[8byte] -> %rbp  
0x00000000004028a2 48 89 84 24 90 00 00 mov %rax -> 0x00000090(%rsp)[8byte]  
0x00000000004028aa 48 8d 84 24 6c 0a 00 lea 0x00000a6c(%rsp) -> %rax  
0x00000000004028b2 48 89 b4 24 b8 00 00 mov %rsi -> 0x000000b8(%rsp)[8byte]  
0x00000000004028ba c7 84 24 9c 00 00 00 mov $0x00000000 -> 0x0000009c(%rsp)[4byte]  
00 00 00 00 
0x00000000004028c5 48 89 84 24 b0 00 00 mov %rax -> 0x000000b0(%rsp)[8byte]  
0x00000000004028cd 48 8b 84 24 90 00 00 mov 0x00000090(%rsp)[8byte] -> %rax  
0x00000000004028d5 48 c7 44 24 78 00 00 mov $0x0000000000000000 -> 0x78(%rsp)[8byte]  
00 00 
0x00000000004028de 4d 89 ef mov %r13 -> %r15  
0x00000000004028e1 8b 00 mov (%rax)[4byte] -> %eax  
0x00000000004028e3 89 84 24 98 00 00 00 mov %eax -> 0x00000098(%rsp)[4byte]  
0x00000000004028ea c1 e0 08 shl $0x00000008 %eax -> %eax  
0x00000000004028ed 89 84 24 a4 00 00 00 mov %eax -> 0x000000a4(%rsp)[4byte]  
0x00000000004028f4 48 8b 74 24 78 mov 0x78(%rsp)[8byte] -> %rsi  
0x00000000004028f9 39 b4 24 98 00 00 00 cmp 0x00000098(%rsp)[4byte] %esi  
0x0000000000402900 0f 84 4c 05 00 00 jz $0x0000000000402e52  
Actual: 402906 
Block 702: 
0x0000000000402906 8b 84 24 a4 00 00 00 mov 0x000000a4(%rsp)[4byte] -> %eax  
0x000000000040290d 48 8b 4c 24 70 mov 0x70(%rsp)[8byte] -> %rcx  
0x0000000000402912 01 f0 add %esi %eax -> %eax  
0x0000000000402914 48 98 cwde %ax -> %rax  
0x0000000000402916 48 c1 e0 02 shl $0x0000000000000002 %rax -> %rax  
0x000000000040291a 48 8d 34 01 lea (%rcx,%rax,1) -> %rsi  
0x000000000040291e 8b 16 mov (%rsi)[4byte] -> %edx  
0x0000000000402920 48 89 b4 24 88 00 00 mov %rsi -> 0x00000088(%rsp)[8byte]  
0x0000000000402928 f7 c2 00 00 20 00 test %edx $0x00200000  
0x000000000040292e 0f 85 0e 05 00 00 jnz $0x0000000000402e42  
Actual: 402934 
Block 704: 
0x0000000000402e42 48 8b 84 24 88 00 00 mov 0x00000088(%rsp)[8byte] -> %rax  
0x0000000000402e4a 81 ca 00 00 20 00 or $0x00200000 %edx -> %edx  
0x0000000000402e50 89 10 mov %edx -> (%rax)[4byte]  
0x0000000000402e52 48 83 44 24 78 01 add $0x0000000000000001 0x78(%rsp)[8byte] -> 0x78(%rsp)[8byte]  
0x0000000000402e58 48 8b 44 24 78 mov 0x78(%rsp)[8byte] -> %rax  
0x0000000000402e5d 48 3d 00 01 00 00 cmp %rax $0x0000000000000100  
0x0000000000402e63 0f 85 8b fa ff ff jnz $0x00000000004028f4  
Actual: 4028f4 
Block 705: 
0x00000000004028f4 48 8b 74 24 78 mov 0x78(%rsp)[8byte] -> %rsi  
0x00000000004028f9 39 b4 24 98 00 00 00 cmp 0x00000098(%rsp)[4byte] %esi  
0x0000000000402900 0f 84 4c 05 00 00 jz $0x0000000000402e52  
Actual: 402906 
Block 712: 
0x0000000000402bcc 48 63 f1 movsxd %ecx -> %rsi  
0x0000000000402bcf f7 d8 neg %eax -> %eax  
0x0000000000402bd1 44 89 f5 mov %r14d -> %ebp  
0x0000000000402bd4 48 89 74 24 40 mov %rsi -> 0x40(%rsp)[8byte]  
0x0000000000402bd9 48 8b b4 24 80 00 00 mov 0x00000080(%rsp)[8byte] -> %rsi  
0x0000000000402be1 48 98 cwde %ax -> %rax  
0x0000000000402be3 48 89 44 24 38 mov %rax -> 0x38(%rsp)[8byte]  
0x0000000000402be8 48 c1 e0 02 shl $0x0000000000000002 %rax -> %rax  
0x0000000000402bec 49 89 dc mov %rbx -> %r12  
0x0000000000402bef 48 89 44 24 30 mov %rax -> 0x30(%rsp)[8byte]  
0x0000000000402bf4 48 01 de add %rbx %rsi -> %rsi  
0x0000000000402bf7 48 89 74 24 48 mov %rsi -> 0x48(%rsp)[8byte]  
0x0000000000402bfc 0f 1f 40 00 nop 0x00(%rax)[4byte]  
0x0000000000402c00 48 8b 44 24 40 mov 0x40(%rsp)[8byte] -> %rax  
0x0000000000402c05 4c 8b 7c 24 48 mov 0x48(%rsp)[8byte] -> %r15  
0x0000000000402c0a 41 8b 14 84 mov (%r12,%rax,4)[4byte] -> %edx  
0x0000000000402c0e 4c 89 fb mov %r15 -> %rbx  
0x0000000000402c11 49 89 c5 mov %rax -> %r13  
0x0000000000402c14 8d 34 2a lea (%rdx,%rbp,1) -> %esi  
0x0000000000402c17 89 54 24 58 mov %edx -> 0x58(%rsp)[4byte]  
0x0000000000402c1b 89 74 24 50 mov %esi -> 0x50(%rsp)[4byte]  
0x0000000000402c1f eb 22 jmp $0x0000000000402c43  
0x0000000000402c43 8b 3b mov (%rbx)[4byte] -> %edi  
0x0000000000402c45 4c 8b 4c 24 08 mov 0x08(%rsp)[8byte] -> %r9  
0x0000000000402c4a 49 89 df mov %rbx -> %r15  
0x0000000000402c4d 44 8b 44 24 14 mov 0x14(%rsp)[4byte] -> %r8d  
0x0000000000402c52 48 8b 4c 24 18 mov 0x18(%rsp)[8byte] -> %rcx  
0x0000000000402c57 48 8b 54 24 20 mov 0x20(%rsp)[8byte] -> %rdx  
0x0000000000402c5c 8b 74 24 50 mov 0x50(%rsp)[4byte] -> %esi  
0x0000000000402c60 01 ef add %ebp %edi -> %edi  
0x0000000000402c62 e8 79 f5 ff ff call $0x00000000004021e0 %rsp -> %rsp 0xfffffff8(%rsp)[8byte]  
0x00000000004021e0 89 f0 mov %esi -> %eax  
0x00000000004021e2 41 89 fa mov %edi -> %r10d  
0x00000000004021e5 0f b6 04 02 movzx (%rdx,%rax,1)[1byte] -> %eax  
0x00000000004021e9 42 38 04 12 cmp (%rdx,%r10,1)[1byte] %al  
0x00000000004021ed 74 09 jz $0x00000000004021f8  
Actual: 4021f8 
Block 713: 
0x00000000004021f8 44 8d 56 01 lea 0x01(%rsi) -> %r10d  
0x00000000004021fc 8d 47 01 lea 0x01(%rdi) -> %eax  
0x00000000004021ff 46 0f b6 1c 12 movzx (%rdx,%r10,1)[1byte] -> %r11d  
0x0000000000402204 44 38 1c 02 cmp (%rdx,%rax,1)[1byte] %r11l  
0x0000000000402208 75 e5 jnz $0x00000000004021ef  
Actual: 40220a 
Block 714: 
0x000000000040220a 44 8d 56 02 lea 0x02(%rsi) -> %r10d  
0x000000000040220e 8d 47 02 lea 0x02(%rdi) -> %eax  
0x0000000000402211 46 0f b6 1c 12 movzx (%rdx,%r10,1)[1byte] -> %r11d  
0x0000000000402216 44 38 1c 02 cmp (%rdx,%rax,1)[1byte] %r11l  
0x000000000040221a 75 d3 jnz $0x00000000004021ef  
Actual: 40221c 
Block 715: 
0x000000000040221c 44 8d 56 03 lea 0x03(%rsi) -> %r10d  
0x0000000000402220 8d 47 03 lea 0x03(%rdi) -> %eax  
0x0000000000402223 46 0f b6 1c 12 movzx (%rdx,%r10,1)[1byte] -> %r11d  
0x0000000000402228 44 38 1c 02 cmp (%rdx,%rax,1)[1byte] %r11l  
0x000000000040222c 75 c1 jnz $0x00000000004021ef  
Actual: 40222e 
Block 716: 
0x000000000040222e 44 8d 56 04 lea 0x04(%rsi) -> %r10d  
0x0000000000402232 8d 47 04 lea 0x04(%rdi) -> %eax  
0x0000000000402235 46 0f b6 1c 12 movzx (%rdx,%r10,1)[1byte] -> %r11d  
0x000000000040223a 44 38 1c 02 cmp (%rdx,%rax,1)[1byte] %r11l  
0x000000000040223e 75 af jnz $0x00000000004021ef  
Actual: 402240 
Block 717: 
0x0000000000402240 44 8d 56 05 lea 0x05(%rsi) -> %r10d  
0x0000000000402244 8d 47 05 lea 0x05(%rdi) -> %eax  
0x0000000000402247 46 0f b6 1c 12 movzx (%rdx,%r10,1)[1byte] -> %r11d  
0x000000000040224c 44 38 1c 02 cmp (%rdx,%rax,1)[1byte] %r11l  
0x0000000000402250 75 9d jnz $0x00000000004021ef  
Actual: 402252 
Block 718: 
0x0000000000402252 44 8d 56 06 lea 0x06(%rsi) -> %r10d  
0x0000000000402256 8d 47 06 lea 0x06(%rdi) -> %eax  
0x0000000000402259 46 0f b6 1c 12 movzx (%rdx,%r10,1)[1byte] -> %r11d  
0x000000000040225e 44 38 1c 02 cmp (%rdx,%rax,1)[1byte] %r11l  
0x0000000000402262 75 8b jnz $0x00000000004021ef  
Actual: 402264 
Block 719: 
0x0000000000402264 44 8d 56 07 lea 0x07(%rsi) -> %r10d  
0x0000000000402268 8d 47 07 lea 0x07(%rdi) -> %eax  
0x000000000040226b 46 0f b6 1c 12 movzx (%rdx,%r10,1)[1byte] -> %r11d  
0x0000000000402270 44 38 1c 02 cmp (%rdx,%rax,1)[1byte] %r11l  
0x0000000000402274 0f 85 75 ff ff ff jnz $0x00000000004021ef  
Actual: 40227a 
Block 720: 
0x000000000040227a 44 8d 56 08 lea 0x08(%rsi) -> %r10d  
0x000000000040227e 8d 47 08 lea 0x08(%rdi) -> %eax  
0x0000000000402281 46 0f b6 1c 12 movzx (%rdx,%r10,1)[1byte] -> %r11d  
0x0000000000402286 44 38 1c 02 cmp (%rdx,%rax,1)[1byte] %r11l  
0x000000000040228a 0f 85 5f ff ff ff jnz $0x00000000004021ef  
Actual: 402290 
Block 721: 
0x0000000000402290 44 8d 56 09 lea 0x09(%rsi) -> %r10d  
0x0000000000402294 8d 47 09 lea 0x09(%rdi) -> %eax  
0x0000000000402297 46 0f b6 1c 12 movzx (%rdx,%r10,1)[1byte] -> %r11d  
0x000000000040229c 44 38 1c 02 cmp (%rdx,%rax,1)[1byte] %r11l  
0x00000000004022a0 0f 85 49 ff ff ff jnz $0x00000000004021ef  
Actual: 4022a6 
Block 722: 
0x00000000004022a6 44 8d 56 0a lea 0x0a(%rsi) -> %r10d  
0x00000000004022aa 8d 47 0a lea 0x0a(%rdi) -> %eax  
0x00000000004022ad 46 0f b6 1c 12 movzx (%rdx,%r10,1)[1byte] -> %r11d  
0x00000000004022b2 44 38 1c 02 cmp (%rdx,%rax,1)[1byte] %r11l  
0x00000000004022b6 0f 85 33 ff ff ff jnz $0x00000000004021ef  
Actual: 4022bc 
Block 723: 
0x00000000004022bc 44 8d 56 0b lea 0x0b(%rsi) -> %r10d  
0x00000000004022c0 8d 47 0b lea 0x0b(%rdi) -> %eax  
0x00000000004022c3 46 0f b6 1c 12 movzx (%rdx,%r10,1)[1byte] -> %r11d  
0x00000000004022c8 44 38 1c 02 cmp (%rdx,%rax,1)[1byte] %r11l  
0x00000000004022cc 0f 85 1d ff ff ff jnz $0x00000000004021ef  
Actual: 4022d2 
Block 724: 
0x00000000004022d2 53 push %rbx %rsp -> %rsp 0xfffffff8(%rsp)[8byte]  
0x00000000004022d3 41 8d 40 08 lea 0x08(%r8) -> %eax  
0x00000000004022d7 83 c7 0c add $0x0000000c %edi -> %edi  
0x00000000004022da 83 c6 0c add $0x0000000c %esi -> %esi  
0x00000000004022dd 41 89 f2 mov %esi -> %r10d  
0x00000000004022e0 41 89 fb mov %edi -> %r11d  
0x00000000004022e3 42 0f b6 1c 12 movzx (%rdx,%r10,1)[1byte] -> %ebx  
0x00000000004022e8 42 38 1c 1a cmp (%rdx,%r11,1)[1byte] %bl  
0x00000000004022ec 0f 85 3a 01 00 00 jnz $0x000000000040242c  
Actual: 4022f2 
Block 725: 
0x00000000004022f2 42 0f b7 1c 51 movzx (%rcx,%r10,2)[2byte] -> %ebx  
0x00000000004022f7 66 42 39 1c 59 data16 cmp (%rcx,%r11,2)[2byte] %bx  
0x00000000004022fc 0f 85 2a 01 00 00 jnz $0x000000000040242c  
Actual: 402302 
Block 726: 
0x0000000000402302 44 8d 56 01 lea 0x01(%rsi) -> %r10d  
0x0000000000402306 44 8d 5f 01 lea 0x01(%rdi) -> %r11d  
0x000000000040230a 42 0f b6 1c 12 movzx (%rdx,%r10,1)[1byte] -> %ebx  
0x000000000040230f 42 38 1c 1a cmp (%rdx,%r11,1)[1byte] %bl  
0x0000000000402313 0f 85 13 01 00 00 jnz $0x000000000040242c  
Actual: 402319 
Block 727: 
0x0000000000402319 42 0f b7 1c 51 movzx (%rcx,%r10,2)[2byte] -> %ebx  
0x000000000040231e 66 42 39 1c 59 data16 cmp (%rcx,%r11,2)[2byte] %bx  
0x0000000000402323 0f 85 03 01 00 00 jnz $0x000000000040242c  
Actual: 402329 
Block 728: 
0x0000000000402329 44 8d 56 02 lea 0x02(%rsi) -> %r10d  
0x000000000040232d 44 8d 5f 02 lea 0x02(%rdi) -> %r11d  
0x0000000000402331 42 0f b6 1c 12 movzx (%rdx,%r10,1)[1byte] -> %ebx  
0x0000000000402336 42 38 1c 1a cmp (%rdx,%r11,1)[1byte] %bl  
0x000000000040233a 0f 85 ec 00 00 00 jnz $0x000000000040242c  
Actual: 402340 
Block 729: 
0x0000000000402340 42 0f b7 1c 51 movzx (%rcx,%r10,2)[2byte] -> %ebx  
0x0000000000402345 66 42 39 1c 59 data16 cmp (%rcx,%r11,2)[2byte] %bx  
0x000000000040234a 0f 85 dc 00 00 00 jnz $0x000000000040242c  
Actual: 402350 
Block 730: 
0x0000000000402350 44 8d 56 03 lea 0x03(%rsi) -> %r10d  
0x0000000000402354 44 8d 5f 03 lea 0x03(%rdi) -> %r11d  
0x0000000000402358 42 0f b6 1c 12 movzx (%rdx,%r10,1)[1byte] -> %ebx  
0x000000000040235d 42 38 1c 1a cmp (%rdx,%r11,1)[1byte] %bl  
0x0000000000402361 0f 85 c5 00 00 00 jnz $0x000000000040242c  
Actual: 402367 
Block 731: 
0x0000000000402367 42 0f b7 1c 51 movzx (%rcx,%r10,2)[2byte] -> %ebx  
0x000000000040236c 66 42 39 1c 59 data16 cmp (%rcx,%r11,2)[2byte] %bx  
0x0000000000402371 0f 85 b5 00 00 00 jnz $0x000000000040242c  
Actual: 402377 
Block 732: 
0x0000000000402377 44 8d 56 04 lea 0x04(%rsi) -> %r10d  
0x000000000040237b 44 8d 5f 04 lea 0x04(%rdi) -> %r11d  
0x000000000040237f 42 0f b6 1c 12 movzx (%rdx,%r10,1)[1byte] -> %ebx  
0x0000000000402384 42 38 1c 1a cmp (%rdx,%r11,1)[1byte] %bl  
0x0000000000402388 0f 85 9e 00 00 00 jnz $0x000000000040242c  
Actual: 40238e 
Block 733: 
0x000000000040238e 42 0f b7 1c 51 movzx (%rcx,%r10,2)[2byte] -> %ebx  
0x0000000000402393 66 42 39 1c 59 data16 cmp (%rcx,%r11,2)[2byte] %bx  
0x0000000000402398 0f 85 8e 00 00 00 jnz $0x000000000040242c  
Actual: 40239e 
Block 734: 
0x000000000040239e 44 8d 56 05 lea 0x05(%rsi) -> %r10d  
0x00000000004023a2 44 8d 5f 05 lea 0x05(%rdi) -> %r11d  
0x00000000004023a6 42 0f b6 1c 12 movzx (%rdx,%r10,1)[1byte] -> %ebx  
0x00000000004023ab 42 38 1c 1a cmp (%rdx,%r11,1)[1byte] %bl  
0x00000000004023af 75 7b jnz $0x000000000040242c  
Actual: 4023b1 
Block 735: 
0x00000000004023b1 42 0f b7 1c 51 movzx (%rcx,%r10,2)[2byte] -> %ebx  
0x00000000004023b6 66 42 39 1c 59 data16 cmp (%rcx,%r11,2)[2byte] %bx  
0x00000000004023bb 75 6f jnz $0x000000000040242c  
Actual: 4023bd 
Block 736: 
0x00000000004023bd 44 8d 56 06 lea 0x06(%rsi) -> %r10d  
0x00000000004023c1 44 8d 5f 06 lea 0x06(%rdi) -> %r11d  
0x00000000004023c5 42 0f b6 1c 12 movzx (%rdx,%r10,1)[1byte] -> %ebx  
0x00000000004023ca 42 38 1c 1a cmp (%rdx,%r11,1)[1byte] %bl  
0x00000000004023ce 75 5c jnz $0x000000000040242c  
Actual: 4023d0 
Block 737: 
0x00000000004023d0 42 0f b7 1c 51 movzx (%rcx,%r10,2)[2byte] -> %ebx  
0x00000000004023d5 66 42 39 1c 59 data16 cmp (%rcx,%r11,2)[2byte] %bx  
0x00000000004023da 75 50 jnz $0x000000000040242c  
Actual: 4023dc 
Block 738: 
0x00000000004023dc 44 8d 56 07 lea 0x07(%rsi) -> %r10d  
0x00000000004023e0 44 8d 5f 07 lea 0x07(%rdi) -> %r11d  
0x00000000004023e4 42 0f b6 1c 12 movzx (%rdx,%r10,1)[1byte] -> %ebx  
0x00000000004023e9 42 38 1c 1a cmp (%rdx,%r11,1)[1byte] %bl  
0x00000000004023ed 75 3d jnz $0x000000000040242c  
Actual: 4023ef 
Block 739: 
0x00000000004023ef 42 0f b7 1c 51 movzx (%rcx,%r10,2)[2byte] -> %ebx  
0x00000000004023f4 66 42 39 1c 59 data16 cmp (%rcx,%r11,2)[2byte] %bx  
0x00000000004023f9 75 31 jnz $0x000000000040242c  
Actual: 4023fb 
Block 741: 
0x00000000004022dd 41 89 f2 mov %esi -> %r10d  
0x00000000004022e0 41 89 fb mov %edi -> %r11d  
0x00000000004022e3 42 0f b6 1c 12 movzx (%rdx,%r10,1)[1byte] -> %ebx  
0x00000000004022e8 42 38 1c 1a cmp (%rdx,%r11,1)[1byte] %bl  
0x00000000004022ec 0f 85 3a 01 00 00 jnz $0x000000000040242c  
Actual: 4022f2 
Block 743: 
0x0000000000402c67 84 c0 test %al %al  
0x0000000000402c69 75 bd jnz $0x0000000000402c28  
Actual: 402c6b 
Block 745: 
0x0000000000402dca 41 89 ee mov %ebp -> %r14d  
0x0000000000402dcd 4c 89 e3 mov %r12 -> %rbx  
0x0000000000402dd0 48 83 6c 24 60 04 sub $0x0000000000000004 0x60(%rsp)[8byte] -> 0x60(%rsp)[8byte]  
0x0000000000402dd6 be bc c1 40 00 mov $0x0040c1bc -> %esi  
0x0000000000402ddb 48 8b 44 24 60 mov 0x60(%rsp)[8byte] -> %rax  
0x0000000000402de0 48 39 c6 cmp %rsi %rax  
0x0000000000402de3 0f 85 c7 fd ff ff jnz $0x0000000000402bb0  
Actual: 402de9 
Block 747: 
0x0000000000402e00 8b 54 24 6c mov 0x6c(%rsp)[4byte] -> %edx  
0x0000000000402e04 85 d2 test %edx %edx  
0x0000000000402e06 0f 85 a0 fc ff ff jnz $0x0000000000402aac  
Actual: 402e0c 
Block 749: 
0x0000000000402e38 48 8b 84 24 88 00 00 mov 0x00000088(%rsp)[8byte] -> %rax  
0x0000000000402e40 8b 10 mov (%rax)[4byte] -> %edx  
0x0000000000402e42 48 8b 84 24 88 00 00 mov 0x00000088(%rsp)[8byte] -> %rax  
0x0000000000402e4a 81 ca 00 00 20 00 or $0x00200000 %edx -> %edx  
0x0000000000402e50 89 10 mov %edx -> (%rax)[4byte]  
0x0000000000402e52 48 83 44 24 78 01 add $0x0000000000000001 0x78(%rsp)[8byte] -> 0x78(%rsp)[8byte]  
0x0000000000402e58 48 8b 44 24 78 mov 0x78(%rsp)[8byte] -> %rax  
0x0000000000402e5d 48 3d 00 01 00 00 cmp %rax $0x0000000000000100  
0x0000000000402e63 0f 85 8b fa ff ff jnz $0x00000000004028f4  
Actual: 4028f4 
Block 751: 
0x0000000000402c90 48 89 d0 mov %rdx -> %rax  
0x0000000000402c93 41 8b 4c 94 04 mov 0x04(%r12,%rdx,4)[4byte] -> %ecx  
0x0000000000402c98 4c 8d 78 01 lea 0x01(%rax) -> %r15  
0x0000000000402c9c 48 8b 44 24 48 mov 0x48(%rsp)[8byte] -> %rax  
0x0000000000402ca1 8d 14 29 lea (%rcx,%rbp,1) -> %edx  
0x0000000000402ca4 89 4c 24 5c mov %ecx -> 0x5c(%rsp)[4byte]  
0x0000000000402ca8 4d 89 fd mov %r15 -> %r13  
0x0000000000402cab 4c 8d 70 04 lea 0x04(%rax) -> %r14  
0x0000000000402caf 89 54 24 50 mov %edx -> 0x50(%rsp)[4byte]  
0x0000000000402cb3 4c 89 f3 mov %r14 -> %rbx  
0x0000000000402cb6 eb 23 jmp $0x0000000000402cdb  
0x0000000000402cdb 8b 3b mov (%rbx)[4byte] -> %edi  
0x0000000000402cdd 4c 8b 4c 24 08 mov 0x08(%rsp)[8byte] -> %r9  
0x0000000000402ce2 49 89 df mov %rbx -> %r15  
0x0000000000402ce5 44 8b 44 24 14 mov 0x14(%rsp)[4byte] -> %r8d  
0x0000000000402cea 48 8b 4c 24 18 mov 0x18(%rsp)[8byte] -> %rcx  
0x0000000000402cef 48 8b 54 24 20 mov 0x20(%rsp)[8byte] -> %rdx  
0x0000000000402cf4 8b 74 24 50 mov 0x50(%rsp)[4byte] -> %esi  
0x0000000000402cf8 01 ef add %ebp %edi -> %edi  
0x0000000000402cfa e8 e1 f4 ff ff call $0x00000000004021e0 %rsp -> %rsp 0xfffffff8(%rsp)[8byte]  
0x00000000004021e0 89 f0 mov %esi -> %eax  
0x00000000004021e2 41 89 fa mov %edi -> %r10d  
0x00000000004021e5 0f b6 04 02 movzx (%rdx,%rax,1)[1byte] -> %eax  
0x00000000004021e9 42 38 04 12 cmp (%rdx,%r10,1)[1byte] %al  
0x00000000004021ed 74 09 jz $0x00000000004021f8  
Actual: 4021f8 
Block 752: 
0x0000000000402cff 84 c0 test %al %al  
0x0000000000402d01 75 bd jnz $0x0000000000402cc0  
Actual: 402d03 
Block 754: 
0x0000000000402d21 48 8b 44 24 40 mov 0x40(%rsp)[8byte] -> %rax  
0x0000000000402d26 41 8b 54 84 08 mov 0x08(%r12,%rax,4)[4byte] -> %edx  
0x0000000000402d2b 4c 8d 78 02 lea 0x02(%rax) -> %r15  
0x0000000000402d2f 48 8b 44 24 48 mov 0x48(%rsp)[8byte] -> %rax  
0x0000000000402d34 4d 89 fd mov %r15 -> %r13  
0x0000000000402d37 8d 0c 2a lea (%rdx,%rbp,1) -> %ecx  
0x0000000000402d3a 4c 8d 70 08 lea 0x08(%rax) -> %r14  
0x0000000000402d3e 89 54 24 58 mov %edx -> 0x58(%rsp)[4byte]  
0x0000000000402d42 89 4c 24 50 mov %ecx -> 0x50(%rsp)[4byte]  
0x0000000000402d46 4c 89 f3 mov %r14 -> %rbx  
0x0000000000402d49 eb 20 jmp $0x0000000000402d6b  
0x0000000000402d6b 8b 3b mov (%rbx)[4byte] -> %edi  
0x0000000000402d6d 4c 8b 4c 24 08 mov 0x08(%rsp)[8byte] -> %r9  
0x0000000000402d72 49 89 df mov %rbx -> %r15  
0x0000000000402d75 44 8b 44 24 14 mov 0x14(%rsp)[4byte] -> %r8d  
0x0000000000402d7a 48 8b 4c 24 18 mov 0x18(%rsp)[8byte] -> %rcx  
0x0000000000402d7f 48 8b 54 24 20 mov 0x20(%rsp)[8byte] -> %rdx  
0x0000000000402d84 8b 74 24 50 mov 0x50(%rsp)[4byte] -> %esi  
0x0000000000402d88 01 ef add %ebp %edi -> %edi  
0x0000000000402d8a e8 51 f4 ff ff call $0x00000000004021e0 %rsp -> %rsp 0xfffffff8(%rsp)[8byte]  
0x00000000004021e0 89 f0 mov %esi -> %eax  
0x00000000004021e2 41 89 fa mov %edi -> %r10d  
0x00000000004021e5 0f b6 04 02 movzx (%rdx,%rax,1)[1byte] -> %eax  
0x00000000004021e9 42 38 04 12 cmp (%rdx,%r10,1)[1byte] %al  
0x00000000004021ed 74 09 jz $0x00000000004021f8  
Actual: 4021f8 
Block 755: 
0x0000000000402d8f 84 c0 test %al %al  
0x0000000000402d91 75 bd jnz $0x0000000000402d50  
Actual: 402d93 
Block 763: 
0x0000000000402cdb 8b 3b mov (%rbx)[4byte] -> %edi  
0x0000000000402cdd 4c 8b 4c 24 08 mov 0x08(%rsp)[8byte] -> %r9  
0x0000000000402ce2 49 89 df mov %rbx -> %r15  
0x0000000000402ce5 44 8b 44 24 14 mov 0x14(%rsp)[4byte] -> %r8d  
0x0000000000402cea 48 8b 4c 24 18 mov 0x18(%rsp)[8byte] -> %rcx  
0x0000000000402cef 48 8b 54 24 20 mov 0x20(%rsp)[8byte] -> %rdx  
0x0000000000402cf4 8b 74 24 50 mov 0x50(%rsp)[4byte] -> %esi  
0x0000000000402cf8 01 ef add %ebp %edi -> %edi  
0x0000000000402cfa e8 e1 f4 ff ff call $0x00000000004021e0 %rsp -> %rsp 0xfffffff8(%rsp)[8byte]  
0x00000000004021e0 89 f0 mov %esi -> %eax  
0x00000000004021e2 41 89 fa mov %edi -> %r10d  
0x00000000004021e5 0f b6 04 02 movzx (%rdx,%rax,1)[1byte] -> %eax  
0x00000000004021e9 42 38 04 12 cmp (%rdx,%r10,1)[1byte] %al  
0x00000000004021ed 74 09 jz $0x00000000004021f8  
Actual: 4021ef 
Block 764: 
0x0000000000402c00 48 8b 44 24 40 mov 0x40(%rsp)[8byte] -> %rax  
0x0000000000402c05 4c 8b 7c 24 48 mov 0x48(%rsp)[8byte] -> %r15  
0x0000000000402c0a 41 8b 14 84 mov (%r12,%rax,4)[4byte] -> %edx  
0x0000000000402c0e 4c 89 fb mov %r15 -> %rbx  
0x0000000000402c11 49 89 c5 mov %rax -> %r13  
0x0000000000402c14 8d 34 2a lea (%rdx,%rbp,1) -> %esi  
0x0000000000402c17 89 54 24 58 mov %edx -> 0x58(%rsp)[4byte]  
0x0000000000402c1b 89 74 24 50 mov %esi -> 0x50(%rsp)[4byte]  
0x0000000000402c1f eb 22 jmp $0x0000000000402c43  
0x0000000000402c43 8b 3b mov (%rbx)[4byte] -> %edi  
0x0000000000402c45 4c 8b 4c 24 08 mov 0x08(%rsp)[8byte] -> %r9  
0x0000000000402c4a 49 89 df mov %rbx -> %r15  
0x0000000000402c4d 44 8b 44 24 14 mov 0x14(%rsp)[4byte] -> %r8d  
0x0000000000402c52 48 8b 4c 24 18 mov 0x18(%rsp)[8byte] -> %rcx  
0x0000000000402c57 48 8b 54 24 20 mov 0x20(%rsp)[8byte] -> %rdx  
0x0000000000402c5c 8b 74 24 50 mov 0x50(%rsp)[4byte] -> %esi  
0x0000000000402c60 01 ef add %ebp %edi -> %edi  
0x0000000000402c62 e8 79 f5 ff ff call $0x00000000004021e0 %rsp -> %rsp 0xfffffff8(%rsp)[8byte]  
0x00000000004021e0 89 f0 mov %esi -> %eax  
0x00000000004021e2 41 89 fa mov %edi -> %r10d  
0x00000000004021e5 0f b6 04 02 movzx (%rdx,%rax,1)[1byte] -> %eax  
0x00000000004021e9 42 38 04 12 cmp (%rdx,%r10,1)[1byte] %al  
0x00000000004021ed 74 09 jz $0x00000000004021f8  
Actual: 4021ef 
Block 765: 
0x0000000000402c43 8b 3b mov (%rbx)[4byte] -> %edi  
0x0000000000402c45 4c 8b 4c 24 08 mov 0x08(%rsp)[8byte] -> %r9  
0x0000000000402c4a 49 89 df mov %rbx -> %r15  
0x0000000000402c4d 44 8b 44 24 14 mov 0x14(%rsp)[4byte] -> %r8d  
0x0000000000402c52 48 8b 4c 24 18 mov 0x18(%rsp)[8byte] -> %rcx  
0x0000000000402c57 48 8b 54 24 20 mov 0x20(%rsp)[8byte] -> %rdx  
0x0000000000402c5c 8b 74 24 50 mov 0x50(%rsp)[4byte] -> %esi  
0x0000000000402c60 01 ef add %ebp %edi -> %edi  
0x0000000000402c62 e8 79 f5 ff ff call $0x00000000004021e0 %rsp -> %rsp 0xfffffff8(%rsp)[8byte]  
0x00000000004021e0 89 f0 mov %esi -> %eax  
0x00000000004021e2 41 89 fa mov %edi -> %r10d  
0x00000000004021e5 0f b6 04 02 movzx (%rdx,%rax,1)[1byte] -> %eax  
0x00000000004021e9 42 38 04 12 cmp (%rdx,%r10,1)[1byte] %al  
0x00000000004021ed 74 09 jz $0x00000000004021f8  
Actual: 4021f8 
Block 767: 
0x0000000000402d6b 8b 3b mov (%rbx)[4byte] -> %edi  
0x0000000000402d6d 4c 8b 4c 24 08 mov 0x08(%rsp)[8byte] -> %r9  
0x0000000000402d72 49 89 df mov %rbx -> %r15  
0x0000000000402d75 44 8b 44 24 14 mov 0x14(%rsp)[4byte] -> %r8d  
0x0000000000402d7a 48 8b 4c 24 18 mov 0x18(%rsp)[8byte] -> %rcx  
0x0000000000402d7f 48 8b 54 24 20 mov 0x20(%rsp)[8byte] -> %rdx  
0x0000000000402d84 8b 74 24 50 mov 0x50(%rsp)[4byte] -> %esi  
0x0000000000402d88 01 ef add %ebp %edi -> %edi  
0x0000000000402d8a e8 51 f4 ff ff call $0x00000000004021e0 %rsp -> %rsp 0xfffffff8(%rsp)[8byte]  
0x00000000004021e0 89 f0 mov %esi -> %eax  
0x00000000004021e2 41 89 fa mov %edi -> %r10d  
0x00000000004021e5 0f b6 04 02 movzx (%rdx,%rax,1)[1byte] -> %eax  
0x00000000004021e9 42 38 04 12 cmp (%rdx,%r10,1)[1byte] %al  
0x00000000004021ed 74 09 jz $0x00000000004021f8  
Actual: 4021ef 
Block 770: 
0x0000000000402e52 48 83 44 24 78 01 add $0x0000000000000001 0x78(%rsp)[8byte] -> 0x78(%rsp)[8byte]  
0x0000000000402e58 48 8b 44 24 78 mov 0x78(%rsp)[8byte] -> %rax  
0x0000000000402e5d 48 3d 00 01 00 00 cmp %rax $0x0000000000000100  
0x0000000000402e63 0f 85 8b fa ff ff jnz $0x00000000004028f4  
Actual: 4028f4 
Block 776: 
0x0000000000401994 48 8d b4 24 60 07 00 lea 0x00000760(%rsp) -> %rsi  
0x000000000040199c 48 89 f0 mov %rsi -> %rax  
0x000000000040199f 48 89 f2 mov %rsi -> %rdx  
0x00000000004019a2 48 05 04 04 00 00 add $0x0000000000000404 %rax -> %rax  
0x00000000004019a8 c7 02 00 00 00 00 mov $0x00000000 -> (%rdx)[4byte]  
0x00000000004019ae 48 83 c2 04 add $0x0000000000000004 %rdx -> %rdx  
0x00000000004019b2 48 39 d0 cmp %rax %rdx  
0x00000000004019b5 75 f1 jnz $0x00000000004019a8  
Actual: 4019a8 
Block 777: 
0x00000000004019a8 c7 02 00 00 00 00 mov $0x00000000 -> (%rdx)[4byte]  
0x00000000004019ae 48 83 c2 04 add $0x0000000000000004 %rdx -> %rdx  
0x00000000004019b2 48 39 d0 cmp %rax %rdx  
0x00000000004019b5 75 f1 jnz $0x00000000004019a8  
Actual: 4019a8 
Block 779: 
0x00000000004019c1 8b 5c 24 14 mov 0x14(%rsp)[4byte] -> %ebx  
0x00000000004019c5 48 89 e8 mov %rbp -> %rax  
0x00000000004019c8 8d 4b ff lea 0xffffffff(%rbx) -> %ecx  
0x00000000004019cb 48 8d 7c 0d 01 lea 0x01(%rbp,%rcx,1) -> %rdi  
0x00000000004019d0 0f b6 08 movzx (%rax)[1byte] -> %ecx  
0x00000000004019d3 48 83 c0 01 add $0x0000000000000001 %rax -> %rax  
0x00000000004019d7 83 84 8c 60 07 00 00 add $0x00000001 0x00000760(%rsp,%rcx,4)[4byte] -> 0x00000760(%rsp,%rcx,4)[4byte]  
0x00000000004019df 48 39 c7 cmp %rdi %rax  
0x00000000004019e2 75 ec jnz $0x00000000004019d0  
Actual: 4019d0 
Block 780: 
0x00000000004019d0 0f b6 08 movzx (%rax)[1byte] -> %ecx  
0x00000000004019d3 48 83 c0 01 add $0x0000000000000001 %rax -> %rax  
0x00000000004019d7 83 84 8c 60 07 00 00 add $0x00000001 0x00000760(%rsp,%rcx,4)[4byte] -> 0x00000760(%rsp,%rcx,4)[4byte]  
0x00000000004019df 48 39 c7 cmp %rdi %rax  
0x00000000004019e2 75 ec jnz $0x00000000004019d0  
Actual: 4019d0 
Block 781: 
0x00000000004019e4 31 c0 xor %eax %eax -> %eax  
0x00000000004019e6 8b 8c 04 60 07 00 00 mov 0x00000760(%rsp,%rax,1)[4byte] -> %ecx  
0x00000000004019ed 89 8c 04 60 03 00 00 mov %ecx -> 0x00000360(%rsp,%rax,1)[4byte]  
0x00000000004019f4 48 83 c0 04 add $0x0000000000000004 %rax -> %rax  
0x00000000004019f8 48 3d 00 04 00 00 cmp %rax $0x0000000000000400  
0x00000000004019fe 75 e6 jnz $0x00000000004019e6  
Actual: 4019e6 
Block 782: 
0x00000000004019e6 8b 8c 04 60 07 00 00 mov 0x00000760(%rsp,%rax,1)[4byte] -> %ecx  
0x00000000004019ed 89 8c 04 60 03 00 00 mov %ecx -> 0x00000360(%rsp,%rax,1)[4byte]  
0x00000000004019f4 48 83 c0 04 add $0x0000000000000004 %rax -> %rax  
0x00000000004019f8 48 3d 00 04 00 00 cmp %rax $0x0000000000000400  
0x00000000004019fe 75 e6 jnz $0x00000000004019e6  
Actual: 4019e6 
Block 783: 
0x0000000000401a00 48 8d 84 24 64 07 00 lea 0x00000764(%rsp) -> %rax  
0x0000000000401a08 8b 48 fc mov 0xfffffffc(%rax)[4byte] -> %ecx  
0x0000000000401a0b 01 08 add %ecx (%rax)[4byte] -> (%rax)[4byte]  
0x0000000000401a0d 48 83 c0 04 add $0x0000000000000004 %rax -> %rax  
0x0000000000401a11 48 39 c2 cmp %rdx %rax  
0x0000000000401a14 75 f2 jnz $0x0000000000401a08  
Actual: 401a08 
Block 784: 
0x0000000000401a08 8b 48 fc mov 0xfffffffc(%rax)[4byte] -> %ecx  
0x0000000000401a0b 01 08 add %ecx (%rax)[4byte] -> (%rax)[4byte]  
0x0000000000401a0d 48 83 c0 04 add $0x0000000000000004 %rax -> %rax  
0x0000000000401a11 48 39 c2 cmp %rdx %rax  
0x0000000000401a14 75 f2 jnz $0x0000000000401a08  
Actual: 401a08 
Block 788: 
0x0000000000401a5c 83 c0 01 add $0x00000001 %eax -> %eax  
0x0000000000401a5f 4c 89 ea mov %r13 -> %rdx  
0x0000000000401a62 49 8d 44 85 04 lea 0x04(%r13,%rax,4) -> %rax  
0x0000000000401a67 c7 02 00 00 00 00 mov $0x00000000 -> (%rdx)[4byte]  
0x0000000000401a6d 48 83 c2 04 add $0x0000000000000004 %rdx -> %rdx  
0x0000000000401a71 48 39 d0 cmp %rax %rdx  
0x0000000000401a74 75 f1 jnz $0x0000000000401a67  
Actual: 401a67 
Block 789: 
0x0000000000401a67 c7 02 00 00 00 00 mov $0x00000000 -> (%rdx)[4byte]  
0x0000000000401a6d 48 83 c2 04 add $0x0000000000000004 %rdx -> %rdx  
0x0000000000401a71 48 39 d0 cmp %rax %rdx  
0x0000000000401a74 75 f1 jnz $0x0000000000401a67  
Actual: 401a67 
Block 790: 
0x0000000000401a76 4c 8d 84 24 60 0b 00 lea 0x00000b60(%rsp) -> %r8  
0x0000000000401a7e bf 01 00 00 00 mov $0x00000001 -> %edi  
0x0000000000401a83 8b 0e mov (%rsi)[4byte] -> %ecx  
0x0000000000401a85 89 fa mov %edi -> %edx  
0x0000000000401a87 48 83 c6 04 add $0x0000000000000004 %rsi -> %rsi  
0x0000000000401a8b 89 c8 mov %ecx -> %eax  
0x0000000000401a8d d3 e2 shl %cl %edx -> %edx  
0x0000000000401a8f c1 f8 05 sar $0x00000005 %eax -> %eax  
0x0000000000401a92 48 98 cwde %ax -> %rax  
0x0000000000401a94 41 09 54 85 00 or %edx 0x00(%r13,%rax,4)[4byte] -> 0x00(%r13,%rax,4)[4byte]  
0x0000000000401a99 49 39 f0 cmp %r8 %rsi  
0x0000000000401a9c 75 e5 jnz $0x0000000000401a83  
Actual: 401a83 
Block 791: 
0x0000000000401a83 8b 0e mov (%rsi)[4byte] -> %ecx  
0x0000000000401a85 89 fa mov %edi -> %edx  
0x0000000000401a87 48 83 c6 04 add $0x0000000000000004 %rsi -> %rsi  
0x0000000000401a8b 89 c8 mov %ecx -> %eax  
0x0000000000401a8d d3 e2 shl %cl %edx -> %edx  
0x0000000000401a8f c1 f8 05 sar $0x00000005 %eax -> %eax  
0x0000000000401a92 48 98 cwde %ax -> %rax  
0x0000000000401a94 41 09 54 85 00 or %edx 0x00(%r13,%rax,4)[4byte] -> 0x00(%r13,%rax,4)[4byte]  
0x0000000000401a99 49 39 f0 cmp %r8 %rsi  
0x0000000000401a9c 75 e5 jnz $0x0000000000401a83  
Actual: 401a83 
Block 792: 
0x0000000000401a9e 8b 44 24 14 mov 0x14(%rsp)[4byte] -> %eax  
0x0000000000401aa2 be 01 00 00 00 mov $0x00000001 -> %esi  
0x0000000000401aa7 8d 78 40 lea 0x40(%rax) -> %edi  
0x0000000000401aaa 89 c1 mov %eax -> %ecx  
0x0000000000401aac 89 c2 mov %eax -> %edx  
0x0000000000401aae 89 f3 mov %esi -> %ebx  
0x0000000000401ab0 d3 e3 shl %cl %ebx -> %ebx  
0x0000000000401ab2 c1 fa 05 sar $0x00000005 %edx -> %edx  
0x0000000000401ab5 8d 48 01 lea 0x01(%rax) -> %ecx  
0x0000000000401ab8 48 63 d2 movsxd %edx -> %rdx  
0x0000000000401abb 83 c0 02 add $0x00000002 %eax -> %eax  
0x0000000000401abe 41 09 5c 95 00 or %ebx 0x00(%r13,%rdx,4)[4byte] -> 0x00(%r13,%rdx,4)[4byte]  
0x0000000000401ac3 89 ca mov %ecx -> %edx  
0x0000000000401ac5 89 f3 mov %esi -> %ebx  
0x0000000000401ac7 c1 fa 05 sar $0x00000005 %edx -> %edx  
0x0000000000401aca d3 e3 shl %cl %ebx -> %ebx  
0x0000000000401acc 48 63 d2 movsxd %edx -> %rdx  
0x0000000000401acf 89 d9 mov %ebx -> %ecx  
0x0000000000401ad1 f7 d1 not %ecx -> %ecx  
0x0000000000401ad3 41 21 4c 95 00 and %ecx 0x00(%r13,%rdx,4)[4byte] -> 0x00(%r13,%rdx,4)[4byte]  
0x0000000000401ad8 39 c7 cmp %edi %eax  
0x0000000000401ada 75 ce jnz $0x0000000000401aaa  
Actual: 401aaa 
Block 793: 
0x0000000000401aaa 89 c1 mov %eax -> %ecx  
0x0000000000401aac 89 c2 mov %eax -> %edx  
0x0000000000401aae 89 f3 mov %esi -> %ebx  
0x0000000000401ab0 d3 e3 shl %cl %ebx -> %ebx  
0x0000000000401ab2 c1 fa 05 sar $0x00000005 %edx -> %edx  
0x0000000000401ab5 8d 48 01 lea 0x01(%rax) -> %ecx  
0x0000000000401ab8 48 63 d2 movsxd %edx -> %rdx  
0x0000000000401abb 83 c0 02 add $0x00000002 %eax -> %eax  
0x0000000000401abe 41 09 5c 95 00 or %ebx 0x00(%r13,%rdx,4)[4byte] -> 0x00(%r13,%rdx,4)[4byte]  
0x0000000000401ac3 89 ca mov %ecx -> %edx  
0x0000000000401ac5 89 f3 mov %esi -> %ebx  
0x0000000000401ac7 c1 fa 05 sar $0x00000005 %edx -> %edx  
0x0000000000401aca d3 e3 shl %cl %ebx -> %ebx  
0x0000000000401acc 48 63 d2 movsxd %edx -> %rdx  
0x0000000000401acf 89 d9 mov %ebx -> %ecx  
0x0000000000401ad1 f7 d1 not %ecx -> %ecx  
0x0000000000401ad3 41 21 4c 95 00 and %ecx 0x00(%r13,%rdx,4)[4byte] -> 0x00(%r13,%rdx,4)[4byte]  
0x0000000000401ad8 39 c7 cmp %edi %eax  
0x0000000000401ada 75 ce jnz $0x0000000000401aaa  
Actual: 401aaa 
Block 798: 
0x0000000000401b46 c7 44 24 30 00 00 00 mov $0x00000000 -> 0x30(%rsp)[4byte]  
0x0000000000401b4e c7 44 24 24 ff ff ff mov $0xffffffff -> 0x24(%rsp)[4byte]  
0x0000000000401b56 4d 89 ef mov %r13 -> %r15  
0x0000000000401b59 8b 44 24 24 mov 0x24(%rsp)[4byte] -> %eax  
0x0000000000401b5d eb 09 jmp $0x0000000000401b68  
0x0000000000401b68 83 c0 01 add $0x00000001 %eax -> %eax  
0x0000000000401b6b be 01 00 00 00 mov $0x00000001 -> %esi  
0x0000000000401b70 89 c2 mov %eax -> %edx  
0x0000000000401b72 89 c1 mov %eax -> %ecx  
0x0000000000401b74 c1 fa 05 sar $0x00000005 %edx -> %edx  
0x0000000000401b77 83 e1 1f and $0x0000001f %ecx -> %ecx  
0x0000000000401b7a 48 63 d2 movsxd %edx -> %rdx  
0x0000000000401b7d d3 e6 shl %cl %esi -> %esi  
0x0000000000401b7f 41 8b 14 97 mov (%r15,%rdx,4)[4byte] -> %edx  
0x0000000000401b83 85 d6 test %esi %edx  
0x0000000000401b85 75 d9 jnz $0x0000000000401b60  
Actual: 401b60 
Block 799: 
0x0000000000401b60 85 c9 test %ecx %ecx  
0x0000000000401b62 0f 84 8f 02 00 00 jz $0x0000000000401df7  
Actual: 401df7 
Block 800: 
0x0000000000401df7 83 fa ff cmp %edx $0xffffffff  
0x0000000000401dfa 74 ec jz $0x0000000000401de8  
Actual: 401dfc 
Block 801: 
0x0000000000401dfc bb 01 00 00 00 mov $0x00000001 -> %ebx  
0x0000000000401e01 89 c1 mov %eax -> %ecx  
0x0000000000401e03 d3 e3 shl %cl %ebx -> %ebx  
0x0000000000401e05 85 d3 test %ebx %edx  
0x0000000000401e07 0f 84 7a fd ff ff jz $0x0000000000401b87  
Actual: 401e0d 
Block 802: 
0x0000000000401e0d 89 c1 mov %eax -> %ecx  
0x0000000000401e0f 90 nop  
0x0000000000401e10 83 c1 01 add $0x00000001 %ecx -> %ecx  
0x0000000000401e13 ba 01 00 00 00 mov $0x00000001 -> %edx  
0x0000000000401e18 89 c8 mov %ecx -> %eax  
0x0000000000401e1a d3 e2 shl %cl %edx -> %edx  
0x0000000000401e1c c1 f8 05 sar $0x00000005 %eax -> %eax  
0x0000000000401e1f 48 98 cwde %ax -> %rax  
0x0000000000401e21 41 85 14 87 test (%r15,%rax,4)[4byte] %edx  
0x0000000000401e25 75 e9 jnz $0x0000000000401e10  
Actual: 401e27 
Block 804: 
0x0000000000401b98 a8 1f test %al $0x1f  
0x0000000000401b9a 75 14 jnz $0x0000000000401bb0  
Actual: 401bb0 
Block 805: 
0x0000000000401bb0 83 c0 01 add $0x00000001 %eax -> %eax  
0x0000000000401bb3 be 01 00 00 00 mov $0x00000001 -> %esi  
0x0000000000401bb8 89 c2 mov %eax -> %edx  
0x0000000000401bba 89 c1 mov %eax -> %ecx  
0x0000000000401bbc c1 fa 05 sar $0x00000005 %edx -> %edx  
0x0000000000401bbf 83 e1 1f and $0x0000001f %ecx -> %ecx  
0x0000000000401bc2 48 63 d2 movsxd %edx -> %rdx  
0x0000000000401bc5 d3 e6 shl %cl %esi -> %esi  
0x0000000000401bc7 41 8b 14 97 mov (%r15,%rdx,4)[4byte] -> %edx  
0x0000000000401bcb 85 d6 test %esi %edx  
0x0000000000401bcd 74 d9 jz $0x0000000000401ba8  
Actual: 401ba8 
Block 806: 
0x0000000000401ba8 85 c9 test %ecx %ecx  
0x0000000000401baa 0f 84 6f 03 00 00 jz $0x0000000000401f1f  
Actual: 401bb0 
Block 807: 
0x0000000000401f1f 85 d2 test %edx %edx  
0x0000000000401f21 74 ed jz $0x0000000000401f10  
Actual: 401f10 
Block 808: 
0x0000000000401f10 83 c0 20 add $0x00000020 %eax -> %eax  
0x0000000000401f13 89 c2 mov %eax -> %edx  
0x0000000000401f15 c1 fa 05 sar $0x00000005 %edx -> %edx  
0x0000000000401f18 48 63 d2 movsxd %edx -> %rdx  
0x0000000000401f1b 41 8b 14 97 mov (%r15,%rdx,4)[4byte] -> %edx  
0x0000000000401f1f 85 d2 test %edx %edx  
0x0000000000401f21 74 ed jz $0x0000000000401f10  
Actual: 401f10 
Block 809: 
0x0000000000401f23 bb 01 00 00 00 mov $0x00000001 -> %ebx  
0x0000000000401f28 89 c1 mov %eax -> %ecx  
0x0000000000401f2a d3 e3 shl %cl %ebx -> %ebx  
0x0000000000401f2c 85 d3 test %ebx %edx  
0x0000000000401f2e 0f 85 9b fc ff ff jnz $0x0000000000401bcf  
Actual: 401f34 
Block 810: 
0x0000000000401f34 89 c1 mov %eax -> %ecx  
0x0000000000401f36 66 2e 0f 1f 84 00 00 data16 nop %cs:0x00000000(%rax,%rax,1)[4byte]  
00 00 00 
0x0000000000401f40 83 c1 01 add $0x00000001 %ecx -> %ecx  
0x0000000000401f43 ba 01 00 00 00 mov $0x00000001 -> %edx  
0x0000000000401f48 89 c8 mov %ecx -> %eax  
0x0000000000401f4a d3 e2 shl %cl %edx -> %edx  
0x0000000000401f4c c1 f8 05 sar $0x00000005 %eax -> %eax  
0x0000000000401f4f 48 98 cwde %ax -> %rax  
0x0000000000401f51 41 85 14 87 test (%r15,%rax,4)[4byte] %edx  
0x0000000000401f55 74 e9 jz $0x0000000000401f40  
Actual: 401f40 
Block 811: 
0x0000000000401f40 83 c1 01 add $0x00000001 %ecx -> %ecx  
0x0000000000401f43 ba 01 00 00 00 mov $0x00000001 -> %edx  
0x0000000000401f48 89 c8 mov %ecx -> %eax  
0x0000000000401f4a d3 e2 shl %cl %edx -> %edx  
0x0000000000401f4c c1 f8 05 sar $0x00000005 %eax -> %eax  
0x0000000000401f4f 48 98 cwde %ax -> %rax  
0x0000000000401f51 41 85 14 87 test (%r15,%rax,4)[4byte] %edx  
0x0000000000401f55 74 e9 jz $0x0000000000401f40  
Actual: 401f40 
Block 815: 
0x0000000000401c3a 69 44 24 20 c5 1d 00 imul 0x20(%rsp)[4byte] $0x00001dc5 -> %eax  
0x0000000000401c42 83 c0 01 add $0x00000001 %eax -> %eax  
0x0000000000401c45 25 ff 7f 00 00 and $0x00007fff %eax -> %eax  
0x0000000000401c4a 89 c7 mov %eax -> %edi  
0x0000000000401c4c 89 44 24 20 mov %eax -> 0x20(%rsp)[4byte]  
0x0000000000401c50 b8 ab aa aa aa mov $0xaaaaaaab -> %eax  
0x0000000000401c55 f7 e7 mul %edi %eax -> %edx %eax  
0x0000000000401c57 d1 ea shr $0x00000001 %edx -> %edx  
0x0000000000401c59 8d 04 52 lea (%rdx,%rdx,2) -> %eax  
0x0000000000401c5c 89 fa mov %edi -> %edx  
0x0000000000401c5e 29 c2 sub %eax %edx -> %edx  
0x0000000000401c60 0f 85 d6 04 00 00 jnz $0x000000000040213c  
Actual: 40213c 
Block 816: 
0x000000000040213c 83 fa 01 cmp %edx $0x00000001  
0x000000000040213f 74 56 jz $0x0000000000402197  
Actual: 402197 
Block 818: 
0x0000000000401c90 41 8b 02 mov (%r10)[4byte] -> %eax  
0x0000000000401c93 48 89 c2 mov %rax -> %rdx  
0x0000000000401c96 8b 44 85 00 mov 0x00(%rbp,%rax,4)[4byte] -> %eax  
0x0000000000401c9a 44 29 c8 sub %r9d %eax -> %eax  
0x0000000000401c9d 83 f8 00 cmp %eax $0x00000000  
0x0000000000401ca0 0f 85 ba 02 00 00 jnz $0x0000000000401f60  
Actual: 401f60 
Block 820: 
0x0000000000401f66 48 63 c1 movsxd %ecx -> %rax  
0x0000000000401f69 8d 51 ff lea 0xffffffff(%rcx) -> %edx  
0x0000000000401f6c 4c 89 14 24 mov %r10 -> (%rsp)[8byte]  
0x0000000000401f70 49 8d 04 84 lea (%r12,%rax,4) -> %rax  
0x0000000000401f74 eb 2e jmp $0x0000000000401fa4  
0x0000000000401fa4 8b 30 mov (%rax)[4byte] -> %esi  
0x0000000000401fa6 44 39 4c b5 00 cmp 0x00(%rbp,%rsi,4)[4byte] %r9d  
0x0000000000401fab 48 89 f1 mov %rsi -> %rcx  
0x0000000000401fae 74 d0 jz $0x0000000000401f80  
Actual: 401fb0 
Block 824: 
0x0000000000401fa4 8b 30 mov (%rax)[4byte] -> %esi  
0x0000000000401fa6 44 39 4c b5 00 cmp 0x00(%rbp,%rsi,4)[4byte] %r9d  
0x0000000000401fab 48 89 f1 mov %rsi -> %rcx  
0x0000000000401fae 74 d0 jz $0x0000000000401f80  
Actual: 401fb0 
Block 830: 
0x0000000000401cec 48 8b 74 24 18 mov 0x18(%rsp)[8byte] -> %rsi  
0x0000000000401cf1 83 ea 01 sub $0x00000001 %edx -> %edx  
0x0000000000401cf4 48 98 cwde %ax -> %rax  
0x0000000000401cf6 48 8d 54 32 01 lea 0x01(%rdx,%rsi,1) -> %rdx  
0x0000000000401cfb 48 29 f0 sub %rsi %rax -> %rax  
0x0000000000401cfe 49 8d 14 94 lea (%r12,%rdx,4) -> %rdx  
0x0000000000401d02 66 0f 1f 44 00 00 data16 nop 0x00(%rax,%rax,1)[4byte]  
0x0000000000401d08 41 8b 36 mov (%r14)[4byte] -> %esi  
0x0000000000401d0b 45 8b 0c 86 mov (%r14,%rax,4)[4byte] -> %r9d  
0x0000000000401d0f 45 89 0e mov %r9d -> (%r14)[4byte]  
0x0000000000401d12 41 89 34 86 mov %esi -> (%r14,%rax,4)[4byte]  
0x0000000000401d16 49 83 c6 04 add $0x0000000000000004 %r14 -> %r14  
0x0000000000401d1a 4c 39 f2 cmp %rdx %r14  
0x0000000000401d1d 75 e9 jnz $0x0000000000401d08  
Actual: 401d08 
Block 831: 
0x0000000000401d08 41 8b 36 mov (%r14)[4byte] -> %esi  
0x0000000000401d0b 45 8b 0c 86 mov (%r14,%rax,4)[4byte] -> %r9d  
0x0000000000401d0f 45 89 0e mov %r9d -> (%r14)[4byte]  
0x0000000000401d12 41 89 34 86 mov %esi -> (%r14,%rax,4)[4byte]  
0x0000000000401d16 49 83 c6 04 add $0x0000000000000004 %r14 -> %r14  
0x0000000000401d1a 4c 39 f2 cmp %rdx %r14  
0x0000000000401d1d 75 e9 jnz $0x0000000000401d08  
Actual: 401d08 
Block 833: 
0x0000000000401d39 49 63 c8 movsxd %r8d -> %rcx  
0x0000000000401d3c 83 ef 01 sub $0x00000001 %edi -> %edi  
0x0000000000401d3f 48 63 d2 movsxd %edx -> %rdx  
0x0000000000401d42 48 8d 7c 39 01 lea 0x01(%rcx,%rdi,1) -> %rdi  
0x0000000000401d47 49 8d 04 8c lea (%r12,%rcx,4) -> %rax  
0x0000000000401d4b 48 29 ca sub %rcx %rdx -> %rdx  
0x0000000000401d4e 49 8d 3c bc lea (%r12,%rdi,4) -> %rdi  
0x0000000000401d52 66 0f 1f 44 00 00 data16 nop 0x00(%rax,%rax,1)[4byte]  
0x0000000000401d58 8b 08 mov (%rax)[4byte] -> %ecx  
0x0000000000401d5a 44 8b 0c 90 mov (%rax,%rdx,4)[4byte] -> %r9d  
0x0000000000401d5e 44 89 08 mov %r9d -> (%rax)[4byte]  
0x0000000000401d61 89 0c 90 mov %ecx -> (%rax,%rdx,4)[4byte]  
0x0000000000401d64 48 83 c0 04 add $0x0000000000000004 %rax -> %rax  
0x0000000000401d68 48 39 c7 cmp %rdi %rax  
0x0000000000401d6b 75 eb jnz $0x0000000000401d58  
Actual: 401d58 
Block 834: 
0x0000000000401d58 8b 08 mov (%rax)[4byte] -> %ecx  
0x0000000000401d5a 44 8b 0c 90 mov (%rax,%rdx,4)[4byte] -> %r9d  
0x0000000000401d5e 44 89 08 mov %r9d -> (%rax)[4byte]  
0x0000000000401d61 89 0c 90 mov %ecx -> (%rax,%rdx,4)[4byte]  
0x0000000000401d64 48 83 c0 04 add $0x0000000000000004 %rax -> %rax  
0x0000000000401d68 48 39 c7 cmp %rdi %rax  
0x0000000000401d6b 75 eb jnz $0x0000000000401d58  
Actual: 401d58 
Block 839: 
0x0000000000401fd3 41 39 dd cmp %r13d %ebx  
0x0000000000401fd6 0f 84 14 01 00 00 jz $0x00000000004020f0  
Actual: 401fdc 
Block 842: 
0x00000000004020f0 8b 54 24 0c mov 0x0c(%rsp)[4byte] -> %edx  
0x00000000004020f4 85 d2 test %edx %edx  
0x00000000004020f6 0f 85 ba fc ff ff jnz $0x0000000000401db6  
Actual: 401db6 
Block 847: 
0x0000000000402099 41 8b 04 3c mov (%r12,%rdi,1)[4byte] -> %eax  
0x000000000040209d 44 39 4c 85 00 cmp 0x00(%rbp,%rax,4)[4byte] %r9d  
0x00000000004020a2 48 89 c1 mov %rax -> %rcx  
0x00000000004020a5 48 89 f8 mov %rdi -> %rax  
0x00000000004020a8 72 18 jb $0x00000000004020c2  
Actual: 4020aa 
Block 848: 
0x00000000004020aa eb 29 jmp $0x00000000004020d5  
0x00000000004020d5 41 83 e8 01 sub $0x00000001 %r8d -> %r8d  
0x00000000004020d9 48 83 ef 04 sub $0x0000000000000004 %rdi -> %rdi  
0x00000000004020dd 45 89 54 04 fc mov %r10d -> 0xfffffffc(%r12,%rax,1)[4byte]  
0x00000000004020e2 45 39 e8 cmp %r8d %r13d  
0x00000000004020e5 75 99 jnz $0x0000000000402080  
Actual: 402080 
Block 850: 
0x00000000004020e7 66 0f 1f 84 00 00 00 data16 nop 0x00000000(%rax,%rax,1)[4byte]  
00 00 
0x00000000004020f0 8b 54 24 0c mov 0x0c(%rsp)[4byte] -> %edx  
0x00000000004020f4 85 d2 test %edx %edx  
0x00000000004020f6 0f 85 ba fc ff ff jnz $0x0000000000401db6  
Actual: 401db6 
Block 853: 
0x0000000000402018 43 8b 04 04 mov (%r12,%r8,1)[4byte] -> %eax  
0x000000000040201c 39 7c 85 00 cmp 0x00(%rbp,%rax,4)[4byte] %edi  
0x0000000000402020 48 89 c1 mov %rax -> %rcx  
0x0000000000402023 4c 89 c0 mov %r8 -> %rax  
0x0000000000402026 72 19 jb $0x0000000000402041  
Actual: 402028 
Block 854: 
0x0000000000402028 eb 2a jmp $0x0000000000402054  
0x0000000000402054 41 83 e9 01 sub $0x00000001 %r9d -> %r9d  
0x0000000000402058 49 83 e8 04 sub $0x0000000000000004 %r8 -> %r8  
0x000000000040205c 45 89 54 04 f0 mov %r10d -> 0xfffffff0(%r12,%rax,1)[4byte]  
0x0000000000402061 45 39 cb cmp %r11d %r9d  
0x0000000000402064 75 9a jnz $0x0000000000402000  
Actual: 402000 
Block 857: 
0x00000000004020b0 48 83 c0 04 add $0x0000000000000004 %rax -> %rax  
0x00000000004020b4 41 8b 34 04 mov (%r12,%rax,1)[4byte] -> %esi  
0x00000000004020b8 44 3b 4c b5 00 cmp %r9d 0x00(%rbp,%rsi,4)[4byte]  
0x00000000004020bd 48 89 f1 mov %rsi -> %rcx  
0x00000000004020c0 76 13 jbe $0x00000000004020d5  
Actual: 4020c2 
Block 858: 
0x00000000004020ce 48 63 c2 movsxd %edx -> %rax  
0x00000000004020d1 48 c1 e0 02 shl $0x0000000000000002 %rax -> %rax  
0x00000000004020d5 41 83 e8 01 sub $0x00000001 %r8d -> %r8d  
0x00000000004020d9 48 83 ef 04 sub $0x0000000000000004 %rdi -> %rdi  
0x00000000004020dd 45 89 54 04 fc mov %r10d -> 0xfffffffc(%r12,%rax,1)[4byte]  
0x00000000004020e2 45 39 e8 cmp %r8d %r13d  
0x00000000004020e5 75 99 jnz $0x0000000000402080  
Actual: 402080 
Block 859: 
0x00000000004020d5 41 83 e8 01 sub $0x00000001 %r8d -> %r8d  
0x00000000004020d9 48 83 ef 04 sub $0x0000000000000004 %rdi -> %rdi  
0x00000000004020dd 45 89 54 04 fc mov %r10d -> 0xfffffffc(%r12,%rax,1)[4byte]  
0x00000000004020e2 45 39 e8 cmp %r8d %r13d  
0x00000000004020e5 75 99 jnz $0x0000000000402080  
Actual: 402080 
Block 861: 
0x000000000040204d 48 63 c2 movsxd %edx -> %rax  
0x0000000000402050 48 c1 e0 02 shl $0x0000000000000002 %rax -> %rax  
0x0000000000402054 41 83 e9 01 sub $0x00000001 %r9d -> %r9d  
0x0000000000402058 49 83 e8 04 sub $0x0000000000000004 %r8 -> %r8  
0x000000000040205c 45 89 54 04 f0 mov %r10d -> 0xfffffff0(%r12,%rax,1)[4byte]  
0x0000000000402061 45 39 cb cmp %r11d %r9d  
0x0000000000402064 75 9a jnz $0x0000000000402000  
Actual: 402000 
Block 862: 
0x0000000000402030 48 83 c0 10 add $0x0000000000000010 %rax -> %rax  
0x0000000000402034 41 8b 34 04 mov (%r12,%rax,1)[4byte] -> %esi  
0x0000000000402038 3b 7c b5 00 cmp %edi 0x00(%rbp,%rsi,4)[4byte]  
0x000000000040203c 48 89 f1 mov %rsi -> %rcx  
0x000000000040203f 76 13 jbe $0x0000000000402054  
Actual: 402054 
Block 863: 
0x0000000000402054 41 83 e9 01 sub $0x00000001 %r9d -> %r9d  
0x0000000000402058 49 83 e8 04 sub $0x0000000000000004 %r8 -> %r8  
0x000000000040205c 45 89 54 04 f0 mov %r10d -> 0xfffffff0(%r12,%rax,1)[4byte]  
0x0000000000402061 45 39 cb cmp %r11d %r9d  
0x0000000000402064 75 9a jnz $0x0000000000402000  
Actual: 402000 
Block 864: 
0x00000000004020fc 48 63 4c 24 2c movsxd 0x2c(%rsp)[4byte] -> %rcx  
0x0000000000402101 4c 8b 7c 24 38 mov 0x38(%rsp)[8byte] -> %r15  
0x0000000000402106 b8 ff ff ff ff mov $0xffffffff -> %eax  
0x000000000040210b 8b 7c 24 24 mov 0x24(%rsp)[4byte] -> %edi  
0x000000000040210f 41 8b 14 8c mov (%r12,%rcx,4)[4byte] -> %edx  
0x0000000000402113 8b 54 95 00 mov 0x00(%rbp,%rdx,4)[4byte] -> %edx  
0x0000000000402117 39 c2 cmp %edx %eax  
0x0000000000402119 74 12 jz $0x000000000040212d  
Actual: 40211b 
Block 866: 
0x000000000040210f 41 8b 14 8c mov (%r12,%rcx,4)[4byte] -> %edx  
0x0000000000402113 8b 54 95 00 mov 0x00(%rbp,%rdx,4)[4byte] -> %edx  
0x0000000000402117 39 c2 cmp %edx %eax  
0x0000000000402119 74 12 jz $0x000000000040212d  
Actual: 40212d 
Block 868: 
0x0000000000402137 e9 1d fa ff ff jmp $0x0000000000401b59  
0x0000000000401b59 8b 44 24 24 mov 0x24(%rsp)[4byte] -> %eax  
0x0000000000401b5d eb 09 jmp $0x0000000000401b68  
0x0000000000401b68 83 c0 01 add $0x00000001 %eax -> %eax  
0x0000000000401b6b be 01 00 00 00 mov $0x00000001 -> %esi  
0x0000000000401b70 89 c2 mov %eax -> %edx  
0x0000000000401b72 89 c1 mov %eax -> %ecx  
0x0000000000401b74 c1 fa 05 sar $0x00000005 %edx -> %edx  
0x0000000000401b77 83 e1 1f and $0x0000001f %ecx -> %ecx  
0x0000000000401b7a 48 63 d2 movsxd %edx -> %rdx  
0x0000000000401b7d d3 e6 shl %cl %esi -> %esi  
0x0000000000401b7f 41 8b 14 97 mov (%r15,%rdx,4)[4byte] -> %edx  
0x0000000000401b83 85 d6 test %esi %edx  
0x0000000000401b85 75 d9 jnz $0x0000000000401b60  
Actual: 401b60 
Block 869: 
0x0000000000401b68 83 c0 01 add $0x00000001 %eax -> %eax  
0x0000000000401b6b be 01 00 00 00 mov $0x00000001 -> %esi  
0x0000000000401b70 89 c2 mov %eax -> %edx  
0x0000000000401b72 89 c1 mov %eax -> %ecx  
0x0000000000401b74 c1 fa 05 sar $0x00000005 %edx -> %edx  
0x0000000000401b77 83 e1 1f and $0x0000001f %ecx -> %ecx  
0x0000000000401b7a 48 63 d2 movsxd %edx -> %rdx  
0x0000000000401b7d d3 e6 shl %cl %esi -> %esi  
0x0000000000401b7f 41 8b 14 97 mov (%r15,%rdx,4)[4byte] -> %edx  
0x0000000000401b83 85 d6 test %esi %edx  
0x0000000000401b85 75 d9 jnz $0x0000000000401b60  
Actual: 401b87 
Block 872: 
0x0000000000401b9c e9 72 03 00 00 jmp $0x0000000000401f13  
0x0000000000401f13 89 c2 mov %eax -> %edx  
0x0000000000401f15 c1 fa 05 sar $0x00000005 %edx -> %edx  
0x0000000000401f18 48 63 d2 movsxd %edx -> %rdx  
0x0000000000401f1b 41 8b 14 97 mov (%r15,%rdx,4)[4byte] -> %edx  
0x0000000000401f1f 85 d2 test %edx %edx  
0x0000000000401f21 74 ed jz $0x0000000000401f10  
Actual: 401f10 
Block 875: 
0x0000000000401e69 8b 44 24 30 mov 0x30(%rsp)[4byte] -> %eax  
0x0000000000401e6d 85 c0 test %eax %eax  
0x0000000000401e6f 0f 85 6f fc ff ff jnz $0x0000000000401ae4  
Actual: 401ae4 
Block 877: 
0x0000000000401e10 83 c1 01 add $0x00000001 %ecx -> %ecx  
0x0000000000401e13 ba 01 00 00 00 mov $0x00000001 -> %edx  
0x0000000000401e18 89 c8 mov %ecx -> %eax  
0x0000000000401e1a d3 e2 shl %cl %edx -> %edx  
0x0000000000401e1c c1 f8 05 sar $0x00000005 %eax -> %eax  
0x0000000000401e1f 48 98 cwde %ax -> %rax  
0x0000000000401e21 41 85 14 87 test (%r15,%rax,4)[4byte] %edx  
0x0000000000401e25 75 e9 jnz $0x0000000000401e10  
Actual: 401e27 
Block 878: 
0x0000000000401de8 83 c0 20 add $0x00000020 %eax -> %eax  
0x0000000000401deb 89 c2 mov %eax -> %edx  
0x0000000000401ded c1 fa 05 sar $0x00000005 %edx -> %edx  
0x0000000000401df0 48 63 d2 movsxd %edx -> %rdx  
0x0000000000401df3 41 8b 14 97 mov (%r15,%rdx,4)[4byte] -> %edx  
0x0000000000401df7 83 fa ff cmp %edx $0xffffffff  
0x0000000000401dfa 74 ec jz $0x0000000000401de8  
Actual: 401dfc 
Block 881: 
0x0000000000401e9f 8d 53 ff lea 0xffffffff(%rbx) -> %edx  
0x0000000000401ea2 8b b4 24 60 03 00 00 mov 0x00000360(%rsp)[4byte] -> %esi  
0x0000000000401ea9 4c 89 e0 mov %r12 -> %rax  
0x0000000000401eac 31 c9 xor %ecx %ecx -> %ecx  
0x0000000000401eae 49 8d 7c 94 04 lea 0x04(%r12,%rdx,4) -> %rdi  
0x0000000000401eb3 85 f6 test %esi %esi  
0x0000000000401eb5 75 1a jnz $0x0000000000401ed1  
Actual: 401ed1 
Block 882: 
0x0000000000401ed1 83 ee 01 sub $0x00000001 %esi -> %esi  
0x0000000000401ed4 48 63 d1 movsxd %ecx -> %rdx  
0x0000000000401ed7 48 83 c0 04 add $0x0000000000000004 %rax -> %rax  
0x0000000000401edb 89 b4 94 60 03 00 00 mov %esi -> 0x00000360(%rsp,%rdx,4)[4byte]  
0x0000000000401ee2 8b 50 fc mov 0xfffffffc(%rax)[4byte] -> %edx  
0x0000000000401ee5 48 39 f8 cmp %rax %rdi  
0x0000000000401ee8 88 4c 15 00 mov %cl -> 0x00(%rbp,%rdx,1)[1byte]  
0x0000000000401eec 75 c5 jnz $0x0000000000401eb3  
Actual: 401eb3 
Block 883: 
0x0000000000401eb3 85 f6 test %esi %esi  
0x0000000000401eb5 75 1a jnz $0x0000000000401ed1  
Actual: 401ed1 
Block 884: 
0x0000000000401eb7 8d 51 01 lea 0x01(%rcx) -> %edx  
0x0000000000401eba 48 63 d2 movsxd %edx -> %rdx  
0x0000000000401ebd 0f 1f 00 nop (%rax)[4byte]  
0x0000000000401ec0 89 d1 mov %edx -> %ecx  
0x0000000000401ec2 48 83 c2 01 add $0x0000000000000001 %rdx -> %rdx  
0x0000000000401ec6 8b b4 94 5c 03 00 00 mov 0x0000035c(%rsp,%rdx,4)[4byte] -> %esi  
0x0000000000401ecd 85 f6 test %esi %esi  
0x0000000000401ecf 74 ef jz $0x0000000000401ec0  
Actual: 401ed1 
Block 888: 
0x0000000000403443 8b 3b mov (%rbx)[4byte] -> %edi  
0x0000000000403445 85 ff test %edi %edi  
0x0000000000403447 0f 84 8d 00 00 00 jz $0x00000000004034da  
Actual: 40344d 
Block 890: 
0x0000000000403458 48 83 c0 01 add $0x0000000000000001 %rax -> %rax  
0x000000000040345c 8b 74 83 fc mov 0xfffffffc(%rbx,%rax,4)[4byte] -> %esi  
0x0000000000403460 85 f6 test %esi %esi  
0x0000000000403462 74 64 jz $0x00000000004034c8  
Actual: 403464 
Block 893: 
0x000000000040686b 45 8b 4c 24 6c mov 0x6c(%r12)[4byte] -> %r9d  
0x0000000000406870 49 63 c1 movsxd %r9d -> %rax  
0x0000000000406873 49 03 44 24 20 add 0x20(%r12)[8byte] %rax -> %rax  
0x0000000000406878 41 83 bc 24 94 02 00 cmp 0x00000294(%r12)[4byte] $0x00000001  
00 01 
0x0000000000406881 49 89 44 24 50 mov %rax -> 0x50(%r12)[8byte]  
0x0000000000406886 0f 84 3a 07 00 00 jz $0x0000000000406fc6  
Actual: 406fc6 
Block 914: 
0x0000000000406932 49 8d 84 24 80 00 00 lea 0x00000080(%r12) -> %rax  
0x000000000040693a 4d 8b 44 24 38 mov 0x38(%r12)[8byte] -> %r8  
0x000000000040693f 4d 8b 4c 24 40 mov 0x40(%r12)[8byte] -> %r9  
0x0000000000406944 49 8b 4c 24 48 mov 0x48(%r12)[8byte] -> %rcx  
0x0000000000406949 49 8d b4 24 80 01 00 lea 0x00000180(%r12) -> %rsi  
0x0000000000406951 41 c7 44 24 7c 00 00 mov $0x00000000 -> 0x7c(%r12)[4byte]  
00 00 
0x000000000040695a 48 89 44 24 50 mov %rax -> 0x50(%rsp)[8byte]  
0x000000000040695f 31 d2 xor %edx %edx -> %edx  
0x0000000000406961 80 38 00 cmp (%rax)[1byte] $0x00  
0x0000000000406964 74 0e jz $0x0000000000406974  
Actual: 406966 
Block 915: 
0x0000000000406966 88 90 00 01 00 00 mov %dl -> 0x00000100(%rax)[1byte]  
0x000000000040696c 83 c2 01 add $0x00000001 %edx -> %edx  
0x000000000040696f 41 89 54 24 7c mov %edx -> 0x7c(%r12)[4byte]  
0x0000000000406974 48 83 c0 01 add $0x0000000000000001 %rax -> %rax  
0x0000000000406978 48 39 f0 cmp %rax %rsi  
0x000000000040697b 75 e4 jnz $0x0000000000406961  
Actual: 406961 
Block 916: 
0x0000000000406961 80 38 00 cmp (%rax)[1byte] $0x00  
0x0000000000406964 74 0e jz $0x0000000000406974  
Actual: 406966 
Block 917: 
0x000000000040697d 8d 7a 01 lea 0x01(%rdx) -> %edi  
0x0000000000406980 49 8d 84 24 a0 02 00 lea 0x000002a0(%r12) -> %rax  
0x0000000000406988 48 89 fe mov %rdi -> %rsi  
0x000000000040698b 49 8d bc bc a4 02 00 lea 0x000002a4(%r12,%rdi,4) -> %rdi  
0x0000000000406993 c7 00 00 00 00 00 mov $0x00000000 -> (%rax)[4byte]  
0x0000000000406999 48 83 c0 04 add $0x0000000000000004 %rax -> %rax  
0x000000000040699d 48 39 f8 cmp %rax %rdi  
0x00000000004069a0 75 f1 jnz $0x0000000000406993  
Actual: 406993 
Block 918: 
0x0000000000406993 c7 00 00 00 00 00 mov $0x00000000 -> (%rax)[4byte]  
0x0000000000406999 48 83 c0 04 add $0x0000000000000004 %rax -> %rax  
0x000000000040699d 48 39 f8 cmp %rax %rdi  
0x00000000004069a0 75 f1 jnz $0x0000000000406993  
Actual: 406993 
Block 919: 
0x00000000004069a2 85 d2 test %edx %edx  
0x00000000004069a4 0f 84 99 07 00 00 jz $0x0000000000407143  
Actual: 4069aa 
Block 920: 
0x00000000004069aa 48 8d 9c 24 a0 00 00 lea 0x000000a0(%rsp) -> %rbx  
0x00000000004069b2 8d 7a ff lea 0xffffffff(%rdx) -> %edi  
0x00000000004069b5 31 c0 xor %eax %eax -> %eax  
0x00000000004069b7 48 83 c7 01 add $0x0000000000000001 %rdi -> %rdi  
0x00000000004069bb 48 89 5c 24 28 mov %rbx -> 0x28(%rsp)[8byte]  
0x00000000004069c0 49 89 da mov %rbx -> %r10  
0x00000000004069c3 41 88 04 02 mov %al -> (%r10,%rax,1)[1byte]  
0x00000000004069c7 48 83 c0 01 add $0x0000000000000001 %rax -> %rax  
0x00000000004069cb 48 39 f8 cmp %rax %rdi  
0x00000000004069ce 75 f3 jnz $0x00000000004069c3  
Actual: 4069c3 
Block 921: 
0x00000000004069c3 41 88 04 02 mov %al -> (%r10,%rax,1)[1byte]  
0x00000000004069c7 48 83 c0 01 add $0x0000000000000001 %rax -> %rax  
0x00000000004069cb 48 39 f8 cmp %rax %rdi  
0x00000000004069ce 75 f3 jnz $0x00000000004069c3  
Actual: 4069c3 
Block 923: 
0x000000000040716c 47 8b 54 98 fc mov 0xfffffffc(%r8,%r11,4)[4byte] -> %r10d  
0x0000000000407171 44 0f b6 b4 24 a0 00 movzx 0x000000a0(%rsp)[1byte] -> %r14d  
00 00 
0x000000000040717a 41 83 ea 01 sub $0x00000001 %r10d -> %r10d  
0x000000000040717e 45 8d 2c 2a lea (%r10,%rbp,1) -> %r13d  
0x0000000000407182 45 85 d2 test %r10d %r10d  
0x0000000000407185 45 0f 48 d5 cmovs %r13d %r10d -> %r10d  
0x0000000000407189 4d 63 d2 movsxd %r10d -> %r10  
0x000000000040718c 47 0f b6 14 11 movzx (%r9,%r10,1)[1byte] -> %r10d  
0x0000000000407191 47 0f b6 ac 14 80 01 movzx 0x00000180(%r12,%r10,1)[1byte] -> %r13d  
00 00 
0x000000000040719a 45 38 f5 cmp %r13l %r14l  
0x000000000040719d 0f 84 55 01 00 00 jz $0x00000000004072f8  
Actual: 4071a3 
Block 924: 
0x00000000004071a3 85 c0 test %eax %eax  
0x00000000004071a5 74 61 jz $0x0000000000407208  
Actual: 407208 
Block 925: 
0x0000000000407208 44 0f b6 94 24 a1 00 movzx 0x000000a1(%rsp)[1byte] -> %r10d  
00 00 
0x0000000000407211 48 8d 43 01 lea 0x01(%rbx) -> %rax  
0x0000000000407215 44 88 b4 24 a1 00 00 mov %r14l -> 0x000000a1(%rsp)[1byte]  
0x000000000040721d 45 38 d5 cmp %r13l %r10l  
0x0000000000407220 74 12 jz $0x0000000000407234  
Actual: 407222 
Block 926: 
0x0000000000407222 48 83 c0 01 add $0x0000000000000001 %rax -> %rax  
0x0000000000407226 0f b6 28 movzx (%rax)[1byte] -> %ebp  
0x0000000000407229 44 88 10 mov %r10l -> (%rax)[1byte]  
0x000000000040722c 41 38 ed cmp %r13l %bpl  
0x000000000040722f 41 89 ea mov %ebp -> %r10d  
0x0000000000407232 75 ee jnz $0x0000000000407222  
Actual: 407222 
Block 929: 
0x00000000004071a7 8d 6f 01 lea 0x01(%rdi) -> %ebp  
0x00000000004071aa 48 63 ff movsxd %edi -> %rdi  
0x00000000004071ad 83 e8 01 sub $0x00000001 %eax -> %eax  
0x00000000004071b0 4c 8d 14 79 lea (%rcx,%rdi,2) -> %r10  
0x00000000004071b4 eb 26 jmp $0x00000000004071dc  
0x00000000004071dc a8 01 test %al $0x01  
0x00000000004071de 75 d6 jnz $0x00000000004071b6  
Actual: 4071e0 
Block 931: 
0x00000000004071ff 44 0f b6 b4 24 a0 00 movzx 0x000000a0(%rsp)[1byte] -> %r14d  
00 00 
0x0000000000407208 44 0f b6 94 24 a1 00 movzx 0x000000a1(%rsp)[1byte] -> %r10d  
00 00 
0x0000000000407211 48 8d 43 01 lea 0x01(%rbx) -> %rax  
0x0000000000407215 44 88 b4 24 a1 00 00 mov %r14l -> 0x000000a1(%rsp)[1byte]  
0x000000000040721d 45 38 d5 cmp %r13l %r10l  
0x0000000000407220 74 12 jz $0x0000000000407234  
Actual: 407222 
Block 932: 
0x00000000004071d7 83 e8 02 sub $0x00000002 %eax -> %eax  
0x00000000004071da d1 f8 sar $0x00000001 %eax -> %eax  
0x00000000004071dc a8 01 test %al $0x01  
0x00000000004071de 75 d6 jnz $0x00000000004071b6  
Actual: 4071e0 
Block 934: 
0x000000000040726f 85 c0 test %eax %eax  
0x0000000000407271 0f 84 21 05 00 00 jz $0x0000000000407798  
Actual: 407277 
Block 935: 
0x0000000000407277 44 8d 47 01 lea 0x01(%rdi) -> %r8d  
0x000000000040727b 48 63 ff movsxd %edi -> %rdi  
0x000000000040727e 83 e8 01 sub $0x00000001 %eax -> %eax  
0x0000000000407281 48 8d 3c 79 lea (%rcx,%rdi,2) -> %rdi  
0x0000000000407285 eb 32 jmp $0x00000000004072b9  
0x00000000004072b9 a8 01 test %al $0x01  
0x00000000004072bb 75 d3 jnz $0x0000000000407290  
Actual: 4072bd 
Block 939: 
0x000000000040738d 48 8d 14 39 lea (%rcx,%rdi,1) -> %rdx  
0x0000000000407391 48 89 f8 mov %rdi -> %rax  
0x0000000000407394 0f 1f 40 00 nop 0x00(%rax)[4byte]  
0x0000000000407398 c6 00 0f mov $0x0f -> (%rax)[1byte]  
0x000000000040739b 48 83 c0 01 add $0x0000000000000001 %rax -> %rax  
0x000000000040739f 48 39 d0 cmp %rax %rdx  
0x00000000004073a2 75 f4 jnz $0x0000000000407398  
Actual: 407398 
Block 940: 
0x0000000000407398 c6 00 0f mov $0x0f -> (%rax)[1byte]  
0x000000000040739b 48 83 c0 01 add $0x0000000000000001 %rax -> %rax  
0x000000000040739f 48 39 d0 cmp %rax %rdx  
0x00000000004073a2 75 f4 jnz $0x0000000000407398  
Actual: 407398 
Block 941: 
0x00000000004073a4 48 81 c7 02 01 00 00 add $0x0000000000000102 %rdi -> %rdi  
0x00000000004073ab 48 39 f7 cmp %rdi %rsi  
0x00000000004073ae 75 d5 jnz $0x0000000000407385  
Actual: 407385 
Block 950: 
0x0000000000407493 44 39 eb cmp %ebx %r13d  
0x0000000000407496 0f 9f c2 setnle -> %dl  
0x0000000000407499 45 39 f3 cmp %r11d %r14d  
0x000000000040749c 0f 95 c0 setnz -> %al  
0x000000000040749f 84 c2 test %dl %al  
0x00000000004074a1 74 1b jz $0x00000000004074be  
Actual: 4074be 
Block 960: 
0x000000000040747b 48 83 c2 01 add $0x0000000000000001 %rdx -> %rdx  
0x000000000040747f 48 39 ca cmp %rdx %rcx  
0x0000000000407482 74 0f jz $0x0000000000407493  
Actual: 407484 
Block 962: 
0x00000000004074a3 41 83 fe 01 cmp %r14d $0x00000001  
0x00000000004074a7 74 15 jz $0x00000000004074be  
Actual: 4074a9 
Block 963: 
0x00000000004074a9 f6 44 24 14 01 test 0x14(%rsp)[1byte] $0x01  
0x00000000004074ae 74 0e jz $0x00000000004074be  
Actual: 4074b0 
Block 968: 
0x00000000004075cc 48 8b 44 24 78 mov 0x78(%rsp)[8byte] -> %rax  
0x00000000004075d1 48 8d 14 08 lea (%rax,%rcx,1) -> %rdx  
0x00000000004075d5 48 89 c8 mov %rcx -> %rax  
0x00000000004075d8 0f 1f 84 00 00 00 00 nop 0x00000000(%rax,%rax,1)[4byte]  
0x00000000004075e0 c7 00 00 00 00 00 mov $0x00000000 -> (%rax)[4byte]  
0x00000000004075e6 48 83 c0 04 add $0x0000000000000004 %rax -> %rax  
0x00000000004075ea 48 39 c2 cmp %rdx %rax  
0x00000000004075ed 75 f1 jnz $0x00000000004075e0  
Actual: 4075e0 
Block 969: 
0x00000000004075e0 c7 00 00 00 00 00 mov $0x00000000 -> (%rax)[4byte]  
0x00000000004075e6 48 83 c0 04 add $0x0000000000000004 %rax -> %rax  
0x00000000004075ea 48 39 c2 cmp %rdx %rax  
0x00000000004075ed 75 f1 jnz $0x00000000004075e0  
Actual: 4075e0 
Block 970: 
0x00000000004075ef 48 81 c1 08 04 00 00 add $0x0000000000000408 %rcx -> %rcx  
0x00000000004075f6 48 3b 4c 24 58 cmp %rcx 0x58(%rsp)[8byte]  
0x00000000004075fb 75 c5 jnz $0x00000000004075c2  
Actual: 4075c2 
Block 972: 
0x00000000004075fd 83 fd 06 cmp %ebp $0x00000006  
0x0000000000407600 0f 84 ba 10 00 00 jz $0x00000000004086c0  
Actual: 4086c0 
Block 974: 
0x00000000004086ce 48 8b 44 24 18 mov 0x18(%rsp)[8byte] -> %rax  
0x00000000004086d3 48 8b 4c 24 48 mov 0x48(%rsp)[8byte] -> %rcx  
0x00000000004086d8 49 8d b4 24 b8 c9 00 lea 0x0000c9b8(%r12) -> %rsi  
0x00000000004086e0 0f b6 90 02 01 00 00 movzx 0x00000102(%rax)[1byte] -> %edx  
0x00000000004086e7 0f b6 38 movzx (%rax)[1byte] -> %edi  
0x00000000004086ea 48 83 c6 10 add $0x0000000000000010 %rsi -> %rsi  
0x00000000004086ee 48 83 c0 01 add $0x0000000000000001 %rax -> %rax  
0x00000000004086f2 c1 e2 10 shl $0x00000010 %edx -> %edx  
0x00000000004086f5 09 fa or %edi %edx -> %edx  
0x00000000004086f7 89 56 f0 mov %edx -> 0xfffffff0(%rsi)[4byte]  
0x00000000004086fa 0f b6 90 05 03 00 00 movzx 0x00000305(%rax)[1byte] -> %edx  
0x0000000000408701 0f b6 b8 03 02 00 00 movzx 0x00000203(%rax)[1byte] -> %edi  
0x0000000000408708 c1 e2 10 shl $0x00000010 %edx -> %edx  
0x000000000040870b 09 fa or %edi %edx -> %edx  
0x000000000040870d 89 56 f4 mov %edx -> 0xfffffff4(%rsi)[4byte]  
0x0000000000408710 0f b6 90 09 05 00 00 movzx 0x00000509(%rax)[1byte] -> %edx  
0x0000000000408717 0f b6 b8 07 04 00 00 movzx 0x00000407(%rax)[1byte] -> %edi  
0x000000000040871e c1 e2 10 shl $0x00000010 %edx -> %edx  
0x0000000000408721 09 fa or %edi %edx -> %edx  
0x0000000000408723 89 56 f8 mov %edx -> 0xfffffff8(%rsi)[4byte]  
0x0000000000408726 48 39 f1 cmp %rcx %rsi  
0x0000000000408729 75 b5 jnz $0x00000000004086e0  
Actual: 4086e0 
Block 975: 
0x00000000004086e0 0f b6 90 02 01 00 00 movzx 0x00000102(%rax)[1byte] -> %edx  
0x00000000004086e7 0f b6 38 movzx (%rax)[1byte] -> %edi  
0x00000000004086ea 48 83 c6 10 add $0x0000000000000010 %rsi -> %rsi  
0x00000000004086ee 48 83 c0 01 add $0x0000000000000001 %rax -> %rax  
0x00000000004086f2 c1 e2 10 shl $0x00000010 %edx -> %edx  
0x00000000004086f5 09 fa or %edi %edx -> %edx  
0x00000000004086f7 89 56 f0 mov %edx -> 0xfffffff0(%rsi)[4byte]  
0x00000000004086fa 0f b6 90 05 03 00 00 movzx 0x00000305(%rax)[1byte] -> %edx  
0x0000000000408701 0f b6 b8 03 02 00 00 movzx 0x00000203(%rax)[1byte] -> %edi  
0x0000000000408708 c1 e2 10 shl $0x00000010 %edx -> %edx  
0x000000000040870b 09 fa or %edi %edx -> %edx  
0x000000000040870d 89 56 f4 mov %edx -> 0xfffffff4(%rsi)[4byte]  
0x0000000000408710 0f b6 90 09 05 00 00 movzx 0x00000509(%rax)[1byte] -> %edx  
0x0000000000408717 0f b6 b8 07 04 00 00 movzx 0x00000407(%rax)[1byte] -> %edi  
0x000000000040871e c1 e2 10 shl $0x00000010 %edx -> %edx  
0x0000000000408721 09 fa or %edi %edx -> %edx  
0x0000000000408723 89 56 f8 mov %edx -> 0xfffffff8(%rsi)[4byte]  
0x0000000000408726 48 39 f1 cmp %rcx %rsi  
0x0000000000408729 75 b5 jnz $0x00000000004086e0  
Actual: 4086e0 
Block 979: 
0x0000000000407644 83 fd 06 cmp %ebp $0x00000006  
0x0000000000407647 0f 84 a3 05 00 00 jz $0x0000000000407bf0  
Actual: 407bf0 
Block 980: 
0x0000000000407bf0 89 c1 mov %eax -> %ecx  
0x0000000000407bf2 29 d1 sub %edx %ecx -> %ecx  
0x0000000000407bf4 83 f9 31 cmp %ecx $0x00000031  
0x0000000000407bf7 0f 85 50 fa ff ff jnz $0x000000000040764d  
Actual: 407bfd 
Block 985: 
0x00000000004076cc 45 01 d9 add %r11d %r9d -> %r9d  
0x00000000004076cf 4d 63 de movsxd %r14d -> %r11  
0x00000000004076d2 45 88 b4 3c a7 06 00 mov %r14l -> 0x000006a7(%r12,%rdi,1)[1byte]  
0x00000000004076da 42 83 84 9c a0 00 00 add $0x00000001 0x000000a0(%rsp,%r11,4)[4byte] -> 0x000000a0(%rsp,%r11,4)[4byte]  
00 01 
0x00000000004076e3 83 fd 06 cmp %ebp $0x00000006  
0x00000000004076e6 41 89 fe mov %edi -> %r14d  
0x00000000004076e9 0f 84 41 01 00 00 jz $0x0000000000407830  
Actual: 407830 
Block 986: 
0x0000000000407830 89 c1 mov %eax -> %ecx  
0x0000000000407832 29 d1 sub %edx %ecx -> %ecx  
0x0000000000407834 83 f9 31 cmp %ecx $0x00000031  
0x0000000000407837 0f 85 b2 fe ff ff jnz $0x00000000004076ef  
Actual: 40783d 
Block 990: 
0x0000000000407654 0f 1f 40 00 nop 0x00(%rax)[4byte]  
0x0000000000407658 46 0f b7 34 7b movzx (%rbx,%r15,2)[2byte] -> %r14d  
0x000000000040765d 4c 8d 84 24 80 00 00 lea 0x00000080(%rsp) -> %r8  
0x0000000000407665 4b 8d 0c 34 lea (%r12,%r14,1) -> %rcx  
0x0000000000407669 4d 01 ee add %r13 %r14 -> %r14  
0x000000000040766c 4d 01 e6 add %r12 %r14 -> %r14  
0x000000000040766f 90 nop  
0x0000000000407670 44 0f b6 99 4c 93 00 movzx 0x0000934c(%rcx)[1byte] -> %r11d  
0x0000000000407678 48 81 c1 02 01 00 00 add $0x0000000000000102 %rcx -> %rcx  
0x000000000040767f 66 45 01 18 data16 add %r11w (%r8)[2byte] -> (%r8)[2byte]  
0x0000000000407683 49 83 c0 02 add $0x0000000000000002 %r8 -> %r8  
0x0000000000407687 49 39 ce cmp %r14 %rcx  
0x000000000040768a 75 e4 jnz $0x0000000000407670  
Actual: 407670 
Block 991: 
0x0000000000407670 44 0f b6 99 4c 93 00 movzx 0x0000934c(%rcx)[1byte] -> %r11d  
0x0000000000407678 48 81 c1 02 01 00 00 add $0x0000000000000102 %rcx -> %rcx  
0x000000000040767f 66 45 01 18 data16 add %r11w (%r8)[2byte] -> (%r8)[2byte]  
0x0000000000407683 49 83 c0 02 add $0x0000000000000002 %r8 -> %r8  
0x0000000000407687 49 39 ce cmp %r14 %rcx  
0x000000000040768a 75 e4 jnz $0x0000000000407670  
Actual: 407670 
Block 993: 
0x0000000000407658 46 0f b7 34 7b movzx (%rbx,%r15,2)[2byte] -> %r14d  
0x000000000040765d 4c 8d 84 24 80 00 00 lea 0x00000080(%rsp) -> %r8  
0x0000000000407665 4b 8d 0c 34 lea (%r12,%r14,1) -> %rcx  
0x0000000000407669 4d 01 ee add %r13 %r14 -> %r14  
0x000000000040766c 4d 01 e6 add %r12 %r14 -> %r14  
0x000000000040766f 90 nop  
0x0000000000407670 44 0f b6 99 4c 93 00 movzx 0x0000934c(%rcx)[1byte] -> %r11d  
0x0000000000407678 48 81 c1 02 01 00 00 add $0x0000000000000102 %rcx -> %rcx  
0x000000000040767f 66 45 01 18 data16 add %r11w (%r8)[2byte] -> (%r8)[2byte]  
0x0000000000407683 49 83 c0 02 add $0x0000000000000002 %r8 -> %r8  
0x0000000000407687 49 39 ce cmp %r14 %rcx  
0x000000000040768a 75 e4 jnz $0x0000000000407670  
Actual: 407670 
Block 1001: 
0x000000000040b5b6 8b 44 24 30 mov 0x30(%rsp)[4byte] -> %eax  
0x000000000040b5ba 48 8d 9c 24 50 04 00 lea 0x00000450(%rsp) -> %rbx  
0x000000000040b5c2 48 8d bc 24 54 04 00 lea 0x00000454(%rsp) -> %rdi  
0x000000000040b5ca 41 b8 00 01 00 00 mov $0x00000100 -> %r8d  
0x000000000040b5d0 48 89 5c 24 08 mov %rbx -> 0x08(%rsp)[8byte]  
0x000000000040b5d5 44 8d 50 ff lea 0xffffffff(%rax) -> %r10d  
0x000000000040b5d9 44 89 d0 mov %r10d -> %eax  
0x000000000040b5dc 4c 8d 0c 85 04 00 00 lea 0x04(,%rax,4) -> %r9  
0x000000000040b5e4 31 c0 xor %eax %eax -> %eax  
0x000000000040b5e6 8b 0c 06 mov (%rsi,%rax,1)[4byte] -> %ecx  
0x000000000040b5e9 89 ca mov %ecx -> %edx  
0x000000000040b5eb c1 e2 08 shl $0x00000008 %edx -> %edx  
0x000000000040b5ee 85 c9 test %ecx %ecx  
0x000000000040b5f0 41 0f 44 d0 cmovz %r8d %edx -> %edx  
0x000000000040b5f4 89 14 07 mov %edx -> (%rdi,%rax,1)[4byte]  
0x000000000040b5f7 48 83 c0 04 add $0x0000000000000004 %rax -> %rax  
0x000000000040b5fb 4c 39 c8 cmp %rax %r9  
0x000000000040b5fe 75 e6 jnz $0x000000000040b5e6  
Actual: 40b5e6 
Block 1002: 
0x000000000040b5e6 8b 0c 06 mov (%rsi,%rax,1)[4byte] -> %ecx  
0x000000000040b5e9 89 ca mov %ecx -> %edx  
0x000000000040b5eb c1 e2 08 shl $0x00000008 %edx -> %edx  
0x000000000040b5ee 85 c9 test %ecx %ecx  
0x000000000040b5f0 41 0f 44 d0 cmovz %r8d %edx -> %edx  
0x000000000040b5f4 89 14 07 mov %edx -> (%rdi,%rax,1)[4byte]  
0x000000000040b5f7 48 83 c0 04 add $0x0000000000000004 %rax -> %rax  
0x000000000040b5fb 4c 39 c8 cmp %rax %r9  
0x000000000040b5fe 75 e6 jnz $0x000000000040b5e6  
Actual: 40b5e6 
Block 1005: 
0x000000000040b9cf 44 89 c2 mov %r8d -> %edx  
0x000000000040b9d2 e9 03 fd ff ff jmp $0x000000000040b6da  
0x000000000040b6da 49 83 c0 01 add $0x0000000000000001 %r8 -> %r8  
0x000000000040b6de 48 63 d2 movsxd %edx -> %rdx  
0x000000000040b6e1 4d 39 c3 cmp %r11 %r8  
0x000000000040b6e4 44 89 54 94 40 mov %r10d -> 0x40(%rsp,%rdx,4)[4byte]  
0x000000000040b6e9 75 8d jnz $0x000000000040b678  
Actual: 40b678 
Block 1007: 
0x000000000040b6eb 8b 44 24 30 mov 0x30(%rsp)[4byte] -> %eax  
0x000000000040b6ef 83 f8 01 cmp %eax $0x00000001  
0x000000000040b6f2 0f 84 26 02 00 00 jz $0x000000000040b91e  
Actual: 40b6f8 
Block 1008: 
0x000000000040b6f8 48 63 6c 24 38 movsxd 0x38(%rsp)[4byte] -> %rbp  
0x000000000040b6fd 4c 8b 64 24 18 mov 0x18(%rsp)[8byte] -> %r12  
0x000000000040b702 44 8d 48 fe lea 0xfffffffe(%rax) -> %r9d  
0x000000000040b706 41 89 c0 mov %eax -> %r8d  
0x000000000040b709 0f 1f 80 00 00 00 00 nop 0x00000000(%rax)[4byte]  
0x000000000040b710 45 8b 5c 24 04 mov 0x04(%r12)[4byte] -> %r11d  
0x000000000040b715 41 83 e8 01 sub $0x00000001 %r8d -> %r8d  
0x000000000040b719 4c 63 74 24 44 movsxd 0x44(%rsp)[4byte] -> %r14  
0x000000000040b71e 41 83 f8 01 cmp %r8d $0x00000001  
0x000000000040b722 44 89 5c 24 44 mov %r11d -> 0x44(%rsp)[4byte]  
0x000000000040b727 0f 84 b4 02 00 00 jz $0x000000000040b9e1  
Actual: 40b72d 
Block 1022: 
0x000000000040b9c7 44 89 c2 mov %r8d -> %edx  
0x000000000040b9ca e9 23 ff ff ff jmp $0x000000000040b8f2  
0x000000000040b8f2 48 63 d2 movsxd %edx -> %rdx  
0x000000000040b8f5 48 83 c5 01 add $0x0000000000000001 %rbp -> %rbp  
0x000000000040b8f9 49 83 ec 04 sub $0x0000000000000004 %r12 -> %r12  
0x000000000040b8fd 41 83 e9 01 sub $0x00000001 %r9d -> %r9d  
0x000000000040b901 41 83 f8 01 cmp %r8d $0x00000001  
0x000000000040b905 44 89 54 94 40 mov %r10d -> 0x40(%rsp,%rdx,4)[4byte]  
0x000000000040b90a 0f 85 00 fe ff ff jnz $0x000000000040b710  
Actual: 40b710 
Block 1023: 
0x000000000040b710 45 8b 5c 24 04 mov 0x04(%r12)[4byte] -> %r11d  
0x000000000040b715 41 83 e8 01 sub $0x00000001 %r8d -> %r8d  
0x000000000040b719 4c 63 74 24 44 movsxd 0x44(%rsp)[4byte] -> %r14  
0x000000000040b71e 41 83 f8 01 cmp %r8d $0x00000001  
0x000000000040b722 44 89 5c 24 44 mov %r11d -> 0x44(%rsp)[4byte]  
0x000000000040b727 0f 84 b4 02 00 00 jz $0x000000000040b9e1  
Actual: 40b72d 
Block 1033: 
0x000000000040b95f 89 d0 mov %edx -> %eax  
0x000000000040b961 41 39 d2 cmp %r10d %edx  
0x000000000040b964 41 88 44 09 ff mov %al -> 0xffffffff(%r9,%rcx,1)[1byte]  
0x000000000040b969 0f 4c f7 cmovl %edi %esi -> %esi  
0x000000000040b96c 48 83 c1 01 add $0x0000000000000001 %rcx -> %rcx  
0x000000000040b970 49 39 c8 cmp %r8 %rcx  
0x000000000040b973 75 c4 jnz $0x000000000040b939  
Actual: 40b939 
Block 1035: 
0x000000000040b975 40 84 f6 test %sil %sil  
0x000000000040b978 0f 84 94 00 00 00 jz $0x000000000040ba12  
Actual: 40ba12 
Block 1037: 
0x000000000040775d 48 81 44 24 30 08 04 add $0x0000000000000408 0x30(%rsp)[8byte] -> 0x30(%rsp)[8byte]  
00 00 
0x0000000000407766 4c 3b 7c 24 60 cmp %r15 0x60(%rsp)[8byte]  
0x000000000040776b 75 d3 jnz $0x0000000000407740  
Actual: 407740 
Block 1040: 
0x000000000040b6da 49 83 c0 01 add $0x0000000000000001 %r8 -> %r8  
0x000000000040b6de 48 63 d2 movsxd %edx -> %rdx  
0x000000000040b6e1 4d 39 c3 cmp %r11 %r8  
0x000000000040b6e4 44 89 54 94 40 mov %r10d -> 0x40(%rsp,%rdx,4)[4byte]  
0x000000000040b6e9 75 8d jnz $0x000000000040b678  
Actual: 40b678 
Block 1045: 
0x000000000040b8f2 48 63 d2 movsxd %edx -> %rdx  
0x000000000040b8f5 48 83 c5 01 add $0x0000000000000001 %rbp -> %rbp  
0x000000000040b8f9 49 83 ec 04 sub $0x0000000000000004 %r12 -> %r12  
0x000000000040b8fd 41 83 e9 01 sub $0x00000001 %r9d -> %r9d  
0x000000000040b901 41 83 f8 01 cmp %r8d $0x00000001  
0x000000000040b905 44 89 54 94 40 mov %r10d -> 0x40(%rsp,%rdx,4)[4byte]  
0x000000000040b90a 0f 85 00 fe ff ff jnz $0x000000000040b710  
Actual: 40b710 
Block 1047: 
0x000000000040776d 83 44 24 14 01 add $0x00000001 0x14(%rsp)[4byte] -> 0x14(%rsp)[4byte]  
0x0000000000407772 8b 44 24 14 mov 0x14(%rsp)[4byte] -> %eax  
0x0000000000407776 83 f8 05 cmp %eax $0x00000005  
0x0000000000407779 0f 84 21 10 00 00 jz $0x00000000004087a0  
Actual: 40777f 
Block 1051: 
0x00000000004087bb 8b 74 24 14 mov 0x14(%rsp)[4byte] -> %esi  
0x00000000004087bf 85 f6 test %esi %esi  
0x00000000004087c1 74 70 jz $0x0000000000408833  
Actual: 4087c3 
Block 1052: 
0x00000000004087c3 8b 44 24 14 mov 0x14(%rsp)[4byte] -> %eax  
0x00000000004087c7 0f b6 94 24 90 00 00 movzx 0x00000090(%rsp)[1byte] -> %edx  
0x00000000004087cf 49 8d bc 24 a8 06 00 lea 0x000006a8(%r12) -> %rdi  
0x00000000004087d7 83 e8 01 sub $0x00000001 %eax -> %eax  
0x00000000004087da 4d 8d 84 04 a9 06 00 lea 0x000006a9(%r12,%rax,1) -> %r8  
0x00000000004087e2 44 0f b6 0f movzx (%rdi)[1byte] -> %r9d  
0x00000000004087e6 41 38 d1 cmp %r9l %dl  
0x00000000004087e9 0f 84 99 04 00 00 jz $0x0000000000408c88  
Actual: 4087ef 
Block 1053: 
0x00000000004087ef b8 01 00 00 00 mov $0x00000001 -> %eax  
0x00000000004087f4 eb 0d jmp $0x0000000000408803  
0x0000000000408803 0f b6 8c 04 90 00 00 movzx 0x00000090(%rsp,%rax,1)[1byte] -> %ecx  
0x000000000040880b 48 8d 70 01 lea 0x01(%rax) -> %rsi  
0x000000000040880f 88 94 04 90 00 00 00 mov %dl -> 0x00000090(%rsp,%rax,1)[1byte]  
0x0000000000408816 41 38 c9 cmp %r9l %cl  
0x0000000000408819 89 ca mov %ecx -> %edx  
0x000000000040881b 75 e3 jnz $0x0000000000408800  
Actual: 408800 
Block 1054: 
0x0000000000408800 48 89 f0 mov %rsi -> %rax  
0x0000000000408803 0f b6 8c 04 90 00 00 movzx 0x00000090(%rsp,%rax,1)[1byte] -> %ecx  
0x000000000040880b 48 8d 70 01 lea 0x01(%rax) -> %rsi  
0x000000000040880f 88 94 04 90 00 00 00 mov %dl -> 0x00000090(%rsp,%rax,1)[1byte]  
0x0000000000408816 41 38 c9 cmp %r9l %cl  
0x0000000000408819 89 ca mov %ecx -> %edx  
0x000000000040881b 75 e3 jnz $0x0000000000408800  
Actual: 408800 
Block 1055: 
0x000000000040881d 88 87 52 46 00 00 mov %al -> 0x00004652(%rdi)[1byte]  
0x0000000000408823 48 83 c7 01 add $0x0000000000000001 %rdi -> %rdi  
0x0000000000408827 88 94 24 90 00 00 00 mov %dl -> 0x00000090(%rsp)[1byte]  
0x000000000040882e 49 39 f8 cmp %r8 %rdi  
0x0000000000408831 75 af jnz $0x00000000004087e2  
Actual: 4087e2 
Block 1056: 
0x00000000004087e2 44 0f b6 0f movzx (%rdi)[1byte] -> %r9d  
0x00000000004087e6 41 38 d1 cmp %r9l %dl  
0x00000000004087e9 0f 84 99 04 00 00 jz $0x0000000000408c88  
Actual: 408c88 
Block 1057: 
0x0000000000408c88 31 c0 xor %eax %eax -> %eax  
0x0000000000408c8a e9 8e fb ff ff jmp $0x000000000040881d  
0x000000000040881d 88 87 52 46 00 00 mov %al -> 0x00004652(%rdi)[1byte]  
0x0000000000408823 48 83 c7 01 add $0x0000000000000001 %rdi -> %rdi  
0x0000000000408827 88 94 24 90 00 00 00 mov %dl -> 0x00000090(%rsp)[1byte]  
0x000000000040882e 49 39 f8 cmp %r8 %rdi  
0x0000000000408831 75 af jnz $0x00000000004087e2  
Actual: 4087e2 
Block 1059: 
0x0000000000408855 48 8b 44 24 20 mov 0x20(%rsp)[8byte] -> %rax  
0x000000000040885a 4c 89 ee mov %r13 -> %rsi  
0x000000000040885d 41 bf 20 00 00 00 mov $0x00000020 -> %r15d  
0x0000000000408863 45 31 f6 xor %r14d %r14d -> %r14d  
0x0000000000408866 4a 8d 14 28 lea (%rax,%r13,1) -> %rdx  
0x000000000040886a 66 0f 1f 44 00 00 data16 nop 0x00(%rax,%rax,1)[4byte]  
0x0000000000408870 0f b6 06 movzx (%rsi)[1byte] -> %eax  
0x0000000000408873 41 39 c6 cmp %r14d %eax  
0x0000000000408876 44 0f 4c f0 cmovl %eax %r14d -> %r14d  
0x000000000040887a 41 39 c7 cmp %r15d %eax  
0x000000000040887d 44 0f 4f f8 cmovnle %eax %r15d -> %r15d  
0x0000000000408881 48 83 c6 01 add $0x0000000000000001 %rsi -> %rsi  
0x0000000000408885 48 39 f2 cmp %rdx %rsi  
0x0000000000408888 75 e6 jnz $0x0000000000408870  
Actual: 408870 
Block 1060: 
0x0000000000408870 0f b6 06 movzx (%rsi)[1byte] -> %eax  
0x0000000000408873 41 39 c6 cmp %r14d %eax  
0x0000000000408876 44 0f 4c f0 cmovl %eax %r14d -> %r14d  
0x000000000040887a 41 39 c7 cmp %r15d %eax  
0x000000000040887d 44 0f 4f f8 cmovnle %eax %r15d -> %r15d  
0x0000000000408881 48 83 c6 01 add $0x0000000000000001 %rsi -> %rsi  
0x0000000000408885 48 39 f2 cmp %rdx %rsi  
0x0000000000408888 75 e6 jnz $0x0000000000408870  
Actual: 408870 
Block 1062: 
0x0000000000408894 45 85 ff test %r15d %r15d  
0x0000000000408897 0f 84 05 04 00 00 jz $0x0000000000408ca2  
Actual: 40889d 
Block 1065: 
0x000000000040ba69 0f b6 0c 06 movzx (%rsi,%rax,1)[1byte] -> %ecx  
0x000000000040ba6d 39 d1 cmp %ecx %edx  
0x000000000040ba6f 75 ef jnz $0x000000000040ba60  
Actual: 40ba60 
Block 1068: 
0x000000000040ba82 83 c2 01 add $0x00000001 %edx -> %edx  
0x000000000040ba85 45 01 c9 add %r9d %r9d -> %r9d  
0x000000000040ba88 41 39 d2 cmp %r10d %edx  
0x000000000040ba8b 75 c3 jnz $0x000000000040ba50  
Actual: 40ba50 
Block 1071: 
0x00000000004088bf 4c 89 f8 mov %r15 -> %rax  
0x00000000004088c2 48 05 08 04 00 00 add $0x0000000000000408 %rax -> %rax  
0x00000000004088c8 4c 39 6c 24 08 cmp 0x08(%rsp)[8byte] %r13  
0x00000000004088cd 48 89 44 24 38 mov %rax -> 0x38(%rsp)[8byte]  
0x00000000004088d2 0f 85 71 ff ff ff jnz $0x0000000000408849  
Actual: 408849 
Block 1073: 
0x00000000004088d8 4c 8d 9c 24 90 00 00 lea 0x00000090(%rsp) -> %r11  
0x00000000004088e0 48 8b 44 24 50 mov 0x50(%rsp)[8byte] -> %rax  
0x00000000004088e5 4d 89 ee mov %r13 -> %r14  
0x00000000004088e8 49 8d 53 10 lea 0x10(%r11) -> %rdx  
0x00000000004088ec 4d 89 dd mov %r11 -> %r13  
0x00000000004088ef 48 8d 48 10 lea 0x10(%rax) -> %rcx  
0x00000000004088f3 41 c6 45 00 00 mov $0x00 -> 0x00(%r13)[1byte]  
0x00000000004088f8 0f 1f 84 00 00 00 00 nop 0x00000000(%rax,%rax,1)[4byte]  
0x0000000000408900 80 38 00 cmp (%rax)[1byte] $0x00  
0x0000000000408903 74 05 jz $0x000000000040890a  
Actual: 408905 
Block 1074: 
0x0000000000408905 41 c6 45 00 01 mov $0x01 -> 0x00(%r13)[1byte]  
0x000000000040890a 48 83 c0 01 add $0x0000000000000001 %rax -> %rax  
0x000000000040890e 48 39 c1 cmp %rcx %rax  
0x0000000000408911 75 ed jnz $0x0000000000408900  
Actual: 408900 
Block 1075: 
0x0000000000408900 80 38 00 cmp (%rax)[1byte] $0x00  
0x0000000000408903 74 05 jz $0x000000000040890a  
Actual: 408905 
Block 1076: 
0x0000000000408913 49 83 c5 01 add $0x0000000000000001 %r13 -> %r13  
0x0000000000408917 48 89 c8 mov %rcx -> %rax  
0x000000000040891a 4c 39 ea cmp %rdx %r13  
0x000000000040891d 75 d0 jnz $0x00000000004088ef  
Actual: 4088ef 
Block 1077: 
0x00000000004088ef 48 8d 48 10 lea 0x10(%rax) -> %rcx  
0x00000000004088f3 41 c6 45 00 00 mov $0x00 -> 0x00(%r13)[1byte]  
0x00000000004088f8 0f 1f 84 00 00 00 00 nop 0x00000000(%rax,%rax,1)[4byte]  
0x0000000000408900 80 38 00 cmp (%rax)[1byte] $0x00  
0x0000000000408903 74 05 jz $0x000000000040890a  
Actual: 408905 
Block 1078: 
0x000000000040891f 41 8b 44 24 74 mov 0x74(%r12)[4byte] -> %eax  
0x0000000000408924 4c 8d bc 24 90 00 00 lea 0x00000090(%rsp) -> %r15  
0x000000000040892c 4c 89 5c 24 20 mov %r11 -> 0x20(%rsp)[8byte]  
0x0000000000408931 89 44 24 08 mov %eax -> 0x08(%rsp)[4byte]  
0x0000000000408935 eb 24 jmp $0x000000000040895b  
0x000000000040895b 41 80 3f 00 cmp (%r15)[1byte] $0x00  
0x000000000040895f 75 df jnz $0x0000000000408940  
Actual: 408940 
Block 1081: 
0x0000000000408956 4d 39 fd cmp %r13 %r15  
0x0000000000408959 74 1e jz $0x0000000000408979  
Actual: 40895b 
Block 1082: 
0x000000000040895b 41 80 3f 00 cmp (%r15)[1byte] $0x00  
0x000000000040895f 75 df jnz $0x0000000000408940  
Actual: 408940 
Block 1083: 
0x0000000000408979 49 8d 84 24 90 01 00 lea 0x00000190(%r12) -> %rax  
0x0000000000408981 4d 8d bc 24 90 00 00 lea 0x00000090(%r12) -> %r15  
0x0000000000408989 4c 8b 5c 24 20 mov 0x20(%rsp)[8byte] -> %r11  
0x000000000040898e 48 89 44 24 20 mov %rax -> 0x20(%rsp)[8byte]  
0x0000000000408993 41 80 3b 00 cmp (%r11)[1byte] $0x00  
0x0000000000408997 74 4a jz $0x00000000004089e3  
Actual: 408999 
Block 1084: 
0x0000000000408999 4d 8d 6f f0 lea 0xfffffff0(%r15) -> %r13  
0x000000000040899d 4c 89 5c 24 28 mov %r11 -> 0x28(%rsp)[8byte]  
0x00000000004089a2 eb 1b jmp $0x00000000004089bf  
0x00000000004089bf 41 80 7d 00 00 cmp 0x00(%r13)[1byte] $0x00  
0x00000000004089c4 75 de jnz $0x00000000004089a4  
Actual: 4089a4 
Block 1086: 
0x00000000004089ba 4d 39 ef cmp %r15 %r13  
0x00000000004089bd 74 1f jz $0x00000000004089de  
Actual: 4089bf 
Block 1087: 
0x00000000004089bf 41 80 7d 00 00 cmp 0x00(%r13)[1byte] $0x00  
0x00000000004089c4 75 de jnz $0x00000000004089a4  
Actual: 4089a4 
Block 1088: 
0x00000000004089de 4c 8b 5c 24 28 mov 0x28(%rsp)[8byte] -> %r11  
0x00000000004089e3 49 83 c3 01 add $0x0000000000000001 %r11 -> %r11  
0x00000000004089e7 49 83 c7 10 add $0x0000000000000010 %r15 -> %r15  
0x00000000004089eb 4c 39 7c 24 20 cmp 0x20(%rsp)[8byte] %r15  
0x00000000004089f0 75 a1 jnz $0x0000000000408993  
Actual: 408993 
Block 1089: 
0x0000000000408993 41 80 3b 00 cmp (%r11)[1byte] $0x00  
0x0000000000408997 74 4a jz $0x00000000004089e3  
Actual: 408999 
Block 1093: 
0x0000000000408a48 45 85 ff test %r15d %r15d  
0x0000000000408a4b 74 75 jz $0x0000000000408ac2  
Actual: 408a4d 
Block 1094: 
0x0000000000408a4d 8b 44 24 14 mov 0x14(%rsp)[4byte] -> %eax  
0x0000000000408a51 4d 8d 9c 24 fa 4c 00 lea 0x00004cfa(%r12) -> %r11  
0x0000000000408a59 4c 89 5c 24 08 mov %r11 -> 0x08(%rsp)[8byte]  
0x0000000000408a5e 83 e8 01 sub $0x00000001 %eax -> %eax  
0x0000000000408a61 4d 8d bc 04 fb 4c 00 lea 0x00004cfb(%r12,%rax,1) -> %r15  
0x0000000000408a69 48 8b 44 24 08 mov 0x08(%rsp)[8byte] -> %rax  
0x0000000000408a6e 45 31 ed xor %r13d %r13d -> %r13d  
0x0000000000408a71 80 38 00 cmp (%rax)[1byte] $0x00  
0x0000000000408a74 74 2d jz $0x0000000000408aa3  
Actual: 408a76 
Block 1099: 
0x0000000000408ab2 48 83 44 24 08 01 add $0x0000000000000001 0x08(%rsp)[8byte] -> 0x08(%rsp)[8byte]  
0x0000000000408ab8 48 8b 44 24 08 mov 0x08(%rsp)[8byte] -> %rax  
0x0000000000408abd 49 39 c7 cmp %r15 %rax  
0x0000000000408ac0 75 a7 jnz $0x0000000000408a69  
Actual: 408a69 
Block 1100: 
0x0000000000408a69 48 8b 44 24 08 mov 0x08(%rsp)[8byte] -> %rax  
0x0000000000408a6e 45 31 ed xor %r13d %r13d -> %r13d  
0x0000000000408a71 80 38 00 cmp (%rax)[1byte] $0x00  
0x0000000000408a74 74 2d jz $0x0000000000408aa3  
Actual: 408aa3 
Block 1107: 
0x0000000000408b90 48 83 44 24 08 01 add $0x0000000000000001 0x08(%rsp)[8byte] -> 0x08(%rsp)[8byte]  
0x0000000000408b96 48 8b 44 24 08 mov 0x08(%rsp)[8byte] -> %rax  
0x0000000000408b9b 49 39 c5 cmp %r13 %rax  
0x0000000000408b9e 75 ad jnz $0x0000000000408b4d  
Actual: 408b4d 
Block 1112: 
0x0000000000408ba0 49 81 c7 02 01 00 00 add $0x0000000000000102 %r15 -> %r15  
0x0000000000408ba7 4d 39 fe cmp %r14 %r15  
0x0000000000408baa 0f 85 5a ff ff ff jnz $0x0000000000408b0a  
Actual: 408b0a 
Block 1118: 
0x0000000000408c26 83 7c 24 10 06 cmp 0x10(%rsp)[4byte] $0x00000006  
0x0000000000408c2b 0f 84 a7 dd ff ff jz $0x00000000004069d8  
Actual: 4069d8 
Block 1119: 
0x00000000004069d8 44 89 e8 mov %r13d -> %eax  
0x00000000004069db 44 29 f8 sub %r15d %eax -> %eax  
0x00000000004069de 83 f8 31 cmp %eax $0x00000031  
0x00000000004069e1 0f 85 4a 22 00 00 jnz $0x0000000000408c31  
Actual: 4069e7 
Block 1177: 
0x0000000000406f6f 49 89 ec mov %rbp -> %r12  
0x0000000000406f72 3b 54 24 14 cmp %edx 0x14(%rsp)[4byte]  
0x0000000000406f76 74 0a jz $0x0000000000406f82  
Actual: 406f82 
Block 1179: 
0x0000000000406fa9 80 7c 24 6c 00 cmp 0x6c(%rsp)[1byte] $0x00  
0x0000000000406fae 0f 85 86 00 00 00 jnz $0x000000000040703a  
Actual: 406fb4 
Block 1181: 
0x00000000004042e6 c7 43 0c 01 00 00 00 mov $0x00000001 -> 0x0c(%rbx)[4byte]  
0x00000000004042ed e9 3c fc ff ff jmp $0x0000000000403f2e  
0x0000000000403f2e 48 8b 03 mov (%rbx)[8byte] -> %rax  
0x0000000000403f31 8b 53 78 mov 0x78(%rbx)[4byte] -> %edx  
0x0000000000403f34 31 ff xor %edi %edi -> %edi  
0x0000000000403f36 8b 48 20 mov 0x20(%rax)[4byte] -> %ecx  
0x0000000000403f39 eb 4f jmp $0x0000000000403f8a  
0x0000000000403f8a 85 c9 test %ecx %ecx  
0x0000000000403f8c 75 b2 jnz $0x0000000000403f40  
Actual: 403f40 
Block 1183: 
0x0000000000403f49 48 8b 4b 50 mov 0x50(%rbx)[8byte] -> %rcx  
0x0000000000403f4d 48 63 d2 movsxd %edx -> %rdx  
0x0000000000403f50 48 8b 40 18 mov 0x18(%rax)[8byte] -> %rax  
0x0000000000403f54 0f b6 14 11 movzx (%rcx,%rdx,1)[1byte] -> %edx  
0x0000000000403f58 88 10 mov %dl -> (%rax)[1byte]  
0x0000000000403f5a 8b 43 78 mov 0x78(%rbx)[4byte] -> %eax  
0x0000000000403f5d 8d 50 01 lea 0x01(%rax) -> %edx  
0x0000000000403f60 48 8b 03 mov (%rbx)[8byte] -> %rax  
0x0000000000403f63 89 53 78 mov %edx -> 0x78(%rbx)[4byte]  
0x0000000000403f66 8b 78 20 mov 0x20(%rax)[4byte] -> %edi  
0x0000000000403f69 48 83 40 18 01 add $0x0000000000000001 0x18(%rax)[8byte] -> 0x18(%rax)[8byte]  
0x0000000000403f6e 8d 4f ff lea 0xffffffff(%rdi) -> %ecx  
0x0000000000403f71 8b 78 24 mov 0x24(%rax)[4byte] -> %edi  
0x0000000000403f74 89 48 20 mov %ecx -> 0x20(%rax)[4byte]  
0x0000000000403f77 8d 77 01 lea 0x01(%rdi) -> %esi  
0x0000000000403f7a bf 01 00 00 00 mov $0x00000001 -> %edi  
0x0000000000403f7f 85 f6 test %esi %esi  
0x0000000000403f81 89 70 24 mov %esi -> 0x24(%rax)[4byte]  
0x0000000000403f84 0f 84 c6 01 00 00 jz $0x0000000000404150  
Actual: 403f8a 
Block 1184: 
0x0000000000403f8a 85 c9 test %ecx %ecx  
0x0000000000403f8c 75 b2 jnz $0x0000000000403f40  
Actual: 403f40 
Block 1191: 
0x0000000000405a12 41 39 c6 cmp %r14d %eax  
0x0000000000405a15 74 a1 jz $0x00000000004059b8  
Actual: 4059b8 
Block 1192: 
0x00000000004059c6 31 f6 xor %esi %esi -> %esi  
0x00000000004059c8 c7 83 b8 13 00 00 88 mov $0x00001388 -> 0x000013b8(%rbx)[4byte]  
13 00 00 
0x00000000004059d2 4c 89 a3 b0 13 00 00 mov %r12 -> 0x000013b0(%rbx)[8byte]  
0x00000000004059d9 4c 89 ef mov %r13 -> %rdi  
0x00000000004059dc e8 ff eb ff ff call $0x00000000004045e0 %rsp -> %rsp 0xfffffff8(%rsp)[8byte]  
0x00000000004045e0 55 push %rbp %rsp -> %rsp 0xfffffff8(%rsp)[8byte]  
0x00000000004045e1 53 push %rbx %rsp -> %rsp 0xfffffff8(%rsp)[8byte]  
0x00000000004045e2 48 83 ec 08 sub $0x0000000000000008 %rsp -> %rsp  
0x00000000004045e6 48 85 ff test %rdi %rdi  
0x00000000004045e9 0f 84 9d 00 00 00 jz $0x000000000040468c  
Actual: 4045ef 
Block 1193: 
0x0000000000403f2e 48 8b 03 mov (%rbx)[8byte] -> %rax  
0x0000000000403f31 8b 53 78 mov 0x78(%rbx)[4byte] -> %edx  
0x0000000000403f34 31 ff xor %edi %edi -> %edi  
0x0000000000403f36 8b 48 20 mov 0x20(%rax)[4byte] -> %ecx  
0x0000000000403f39 eb 4f jmp $0x0000000000403f8a  
0x0000000000403f8a 85 c9 test %ecx %ecx  
0x0000000000403f8c 75 b2 jnz $0x0000000000403f40  
Actual: 403f40 
Block 1194: 
0x0000000000404110 8b 53 08 mov 0x08(%rbx)[4byte] -> %edx  
0x0000000000404113 09 fd or %edi %ebp -> %ebp  
0x0000000000404115 83 fa 04 cmp %edx $0x00000004  
0x0000000000404118 0f 85 87 fe ff ff jnz $0x0000000000403fa5  
Actual: 403fa5 
Block 1195: 
0x0000000000403fa5 48 8d 83 80 00 00 00 lea 0x00000080(%rbx) -> %rax  
0x0000000000403fac c7 43 6c 00 00 00 00 mov $0x00000000 -> 0x6c(%rbx)[4byte]  
0x0000000000403fb3 c7 43 74 00 00 00 00 mov $0x00000000 -> 0x74(%rbx)[4byte]  
0x0000000000403fba c7 43 78 00 00 00 00 mov $0x00000000 -> 0x78(%rbx)[4byte]  
0x0000000000403fc1 c7 83 88 02 00 00 ff mov $0xffffffff -> 0x00000288(%rbx)[4byte]  
ff ff ff 
0x0000000000403fcb 0f 1f 44 00 00 nop 0x00(%rax,%rax,1)[4byte]  
0x0000000000403fd0 c6 00 00 mov $0x00 -> (%rax)[1byte]  
0x0000000000403fd3 48 83 c0 01 add $0x0000000000000001 %rax -> %rax  
0x0000000000403fd7 49 39 c5 cmp %r13 %rax  
0x0000000000403fda 75 f4 jnz $0x0000000000403fd0  
Actual: 403fd0 
Block 1196: 
0x0000000000403fd0 c6 00 00 mov $0x00 -> (%rax)[1byte]  
0x0000000000403fd3 48 83 c0 01 add $0x0000000000000001 %rax -> %rax  
0x0000000000403fd7 49 39 c5 cmp %r13 %rax  
0x0000000000403fda 75 f4 jnz $0x0000000000403fd0  
Actual: 403fd0 
Block 1197: 
0x0000000000403fdc 83 83 94 02 00 00 01 add $0x00000001 0x00000294(%rbx)[4byte] -> 0x00000294(%rbx)[4byte]  
0x0000000000403fe3 31 c9 xor %ecx %ecx -> %ecx  
0x0000000000403fe5 83 fa 03 cmp %edx $0x00000003  
0x0000000000403fe8 c7 43 0c 02 00 00 00 mov $0x00000002 -> 0x0c(%rbx)[4byte]  
0x0000000000403fef 0f 84 fd 02 00 00 jz $0x00000000004042f2  
Actual: 403ff5 
Block 1198: 
0x0000000000403ff5 83 fa 02 cmp %edx $0x00000002  
0x0000000000403ff8 0f 84 d3 01 00 00 jz $0x00000000004041d1  
Actual: 4041d1 
Block 1201: 
0x00007f61cc21e6eb f6 c2 18 test %dl $0x18  
0x00007f61cc21e6ee 75 3d jnz $0x00007f61cc21e72d  
Actual: 7f61cc21e6f0 
Block 1202: 
0x00007f61cc21e6f0 f6 c2 04 test %dl $0x04  
0x00007f61cc21e6f3 75 51 jnz $0x00007f61cc21e746  
Actual: 7f61cc21e746 
Block 1207: 
0x00000000004037f5 4c 8d 6c 24 14 lea 0x14(%rsp) -> %r13  
0x00000000004037fa 4c 8d 64 24 10 lea 0x10(%rsp) -> %r12  
0x00000000004037ff 48 8d 5c 24 0c lea 0x0c(%rsp) -> %rbx  
0x0000000000403804 48 83 ec 08 sub $0x0000000000000008 %rsp -> %rsp  
0x0000000000403808 31 d2 xor %edx %edx -> %edx  
0x000000000040380a 48 89 ee mov %rbp -> %rsi  
0x000000000040380d 4c 8d 74 24 20 lea 0x20(%rsp) -> %r14  
0x0000000000403812 4d 89 e0 mov %r12 -> %r8  
0x0000000000403815 4d 89 e9 mov %r13 -> %r9  
0x0000000000403818 48 89 d9 mov %rbx -> %rcx  
0x000000000040381b 41 56 push %r14 %rsp -> %rsp 0xfffffff8(%rsp)[8byte]  
0x000000000040381d 48 8d 7c 24 2c lea 0x2c(%rsp) -> %rdi  
0x0000000000403822 e8 89 22 00 00 call $0x0000000000405ab0 %rsp -> %rsp 0xfffffff8(%rsp)[8byte]  
0x0000000000405ab0 41 57 push %r15 %rsp -> %rsp 0xfffffff8(%rsp)[8byte]  
0x0000000000405ab2 41 56 push %r14 %rsp -> %rsp 0xfffffff8(%rsp)[8byte]  
0x0000000000405ab4 41 55 push %r13 %rsp -> %rsp 0xfffffff8(%rsp)[8byte]  
0x0000000000405ab6 41 54 push %r12 %rsp -> %rsp 0xfffffff8(%rsp)[8byte]  
0x0000000000405ab8 55 push %rbp %rsp -> %rsp 0xfffffff8(%rsp)[8byte]  
0x0000000000405ab9 53 push %rbx %rsp -> %rsp 0xfffffff8(%rsp)[8byte]  
0x0000000000405aba 48 83 ec 28 sub $0x0000000000000028 %rsp -> %rsp  
0x0000000000405abe 48 85 f6 test %rsi %rsi  
0x0000000000405ac1 4c 8b 6c 24 60 mov 0x60(%rsp)[8byte] -> %r13  
0x0000000000405ac6 0f 84 b4 01 00 00 jz $0x0000000000405c80  
Actual: 405acc 
Block 1208: 
0x0000000000405acc 80 be 90 13 00 00 00 cmp 0x00001390(%rsi)[1byte] $0x00  
0x0000000000405ad3 0f 84 d7 00 00 00 jz $0x0000000000405bb0  
Actual: 405ad9 
Block 1209: 
0x0000000000405ad9 48 85 c9 test %rcx %rcx  
0x0000000000405adc 74 06 jz $0x0000000000405ae4  
Actual: 405ade 
Block 1210: 
0x0000000000405ade c7 01 00 00 00 00 mov $0x00000000 -> (%rcx)[4byte]  
0x0000000000405ae4 4d 85 c0 test %r8 %r8  
0x0000000000405ae7 74 07 jz $0x0000000000405af0  
Actual: 405ae9 
Block 1211: 
0x0000000000405ae9 41 c7 00 00 00 00 00 mov $0x00000000 -> (%r8)[4byte]  
0x0000000000405af0 4d 85 c9 test %r9 %r9  
0x0000000000405af3 74 07 jz $0x0000000000405afc  
Actual: 405af5 
Block 1212: 
0x0000000000405af5 41 c7 01 00 00 00 00 mov $0x00000000 -> (%r9)[4byte]  
0x0000000000405afc 4d 85 ed test %r13 %r13  
0x0000000000405aff 74 08 jz $0x0000000000405b09  
Actual: 405b01 
Block 1213: 
0x0000000000405b01 41 c7 45 00 00 00 00 mov $0x00000000 -> 0x00(%r13)[4byte]  
0x0000000000405b09 85 d2 test %edx %edx  
0x0000000000405b0b 4c 89 4c 24 18 mov %r9 -> 0x18(%rsp)[8byte]  
0x0000000000405b10 4c 89 44 24 10 mov %r8 -> 0x10(%rsp)[8byte]  
0x0000000000405b15 49 89 cc mov %rcx -> %r12  
0x0000000000405b18 48 89 f5 mov %rsi -> %rbp  
0x0000000000405b1b 48 89 fb mov %rdi -> %rbx  
0x0000000000405b1e 75 0e jnz $0x0000000000405b2e  
Actual: 405b20 
Block 1214: 
0x0000000000405b20 8b 86 e8 13 00 00 mov 0x000013e8(%rsi)[4byte] -> %eax  
0x0000000000405b26 85 c0 test %eax %eax  
0x0000000000405b28 0f 84 aa 00 00 00 jz $0x0000000000405bd8  
Actual: 405bd8 
Block 1215: 
0x0000000000405bd8 4c 8d 7e 04 lea 0x04(%rsi) -> %r15  
0x0000000000405bdc 4c 8d b6 98 13 00 00 lea 0x00001398(%rsi) -> %r14  
0x0000000000405be3 eb 0d jmp $0x0000000000405bf2  
0x0000000000405bf2 c7 85 b8 13 00 00 88 mov $0x00001388 -> 0x000013b8(%rbp)[4byte]  
13 00 00 
0x0000000000405bfc 4c 89 bd b0 13 00 00 mov %r15 -> 0x000013b0(%rbp)[8byte]  
0x0000000000405c03 be 02 00 00 00 mov $0x00000002 -> %esi  
0x0000000000405c08 4c 89 f7 mov %r14 -> %rdi  
0x0000000000405c0b e8 d0 e9 ff ff call $0x00000000004045e0 %rsp -> %rsp 0xfffffff8(%rsp)[8byte]  
0x00000000004045e0 55 push %rbp %rsp -> %rsp 0xfffffff8(%rsp)[8byte]  
0x00000000004045e1 53 push %rbx %rsp -> %rsp 0xfffffff8(%rsp)[8byte]  
0x00000000004045e2 48 83 ec 08 sub $0x0000000000000008 %rsp -> %rsp  
0x00000000004045e6 48 85 ff test %rdi %rdi  
0x00000000004045e9 0f 84 9d 00 00 00 jz $0x000000000040468c  
Actual: 4045ef 
Block 1216: 
0x0000000000404708 83 fe 01 cmp %esi $0x00000001  
0x000000000040470b 74 23 jz $0x0000000000404730  
Actual: 40470d 
Block 1217: 
0x000000000040470d 83 fe 02 cmp %esi $0x00000002  
0x0000000000404710 0f 85 76 ff ff ff jnz $0x000000000040468c  
Actual: 404716 
Block 1218: 
0x0000000000404716 8b 4f 08 mov 0x08(%rdi)[4byte] -> %ecx  
0x0000000000404719 89 c5 mov %eax -> %ebp  
0x000000000040471b c7 43 08 04 00 00 00 mov $0x00000004 -> 0x08(%rbx)[4byte]  
0x0000000000404722 89 4b 10 mov %ecx -> 0x10(%rbx)[4byte]  
0x0000000000404725 e9 ec fe ff ff jmp $0x0000000000404616  
0x0000000000404616 83 fd 02 cmp %ebp $0x00000002  
0x0000000000404619 0f 84 e1 00 00 00 jz $0x0000000000404700  
Actual: 40461f 
Block 1220: 
0x0000000000404621 83 fd 03 cmp %ebp $0x00000003  
0x0000000000404624 0f 84 86 00 00 00 jz $0x00000000004046b0  
Actual: 40462a 
Block 1221: 
0x000000000040462a 83 fd 04 cmp %ebp $0x00000004  
0x000000000040462d 75 71 jnz $0x00000000004046a0  
Actual: 40462f 
Block 1222: 
0x000000000040462f 83 fe 02 cmp %esi $0x00000002  
0x0000000000404632 75 39 jnz $0x000000000040466d  
Actual: 404634 
Block 1223: 
0x0000000000404634 8b 42 08 mov 0x08(%rdx)[4byte] -> %eax  
0x0000000000404637 39 43 10 cmp 0x10(%rbx)[4byte] %eax  
0x000000000040463a 75 31 jnz $0x000000000040466d  
Actual: 40463c 
Block 1224: 
0x000000000040463c 48 89 df mov %rbx -> %rdi  
0x000000000040463f e8 bc f8 ff ff call $0x0000000000403f00 %rsp -> %rsp 0xfffffff8(%rsp)[8byte]  
0x0000000000403f00 41 56 push %r14 %rsp -> %rsp 0xfffffff8(%rsp)[8byte]  
0x0000000000403f02 41 55 push %r13 %rsp -> %rsp 0xfffffff8(%rsp)[8byte]  
0x0000000000403f04 4c 8d af 80 01 00 00 lea 0x00000180(%rdi) -> %r13  
0x0000000000403f0b 41 54 push %r12 %rsp -> %rsp 0xfffffff8(%rsp)[8byte]  
0x0000000000403f0d 45 31 e4 xor %r12d %r12d -> %r12d  
0x0000000000403f10 55 push %rbp %rsp -> %rsp 0xfffffff8(%rsp)[8byte]  
0x0000000000403f11 31 ed xor %ebp %ebp -> %ebp  
0x0000000000403f13 53 push %rbx %rsp -> %rsp 0xfffffff8(%rsp)[8byte]  
0x0000000000403f14 48 89 fb mov %rdi -> %rbx  
0x0000000000403f17 8b 47 0c mov 0x0c(%rdi)[4byte] -> %eax  
0x0000000000403f1a eb 0d jmp $0x0000000000403f29  
0x0000000000403f29 83 f8 01 cmp %eax $0x00000001  
0x0000000000403f2c 75 f2 jnz $0x0000000000403f20  
Actual: 403f20 
Block 1226: 
0x0000000000404007 48 8b 03 mov (%rbx)[8byte] -> %rax  
0x000000000040400a 8b 70 08 mov 0x08(%rax)[4byte] -> %esi  
0x000000000040400d 85 f6 test %esi %esi  
0x000000000040400f 0f 84 52 01 00 00 jz $0x0000000000404167  
Actual: 404167 
Block 1227: 
0x0000000000404167 8b 43 10 mov 0x10(%rbx)[4byte] -> %eax  
0x000000000040416a 85 c0 test %eax %eax  
0x000000000040416c 74 2a jz $0x0000000000404198  
Actual: 404198 
Block 1228: 
0x0000000000404198 81 7b 5c ff 00 00 00 cmp 0x5c(%rbx)[4byte] $0x000000ff  
0x000000000040419f 0f 86 95 01 00 00 jbe $0x000000000040433a  
Actual: 40433a 
Block 1232: 
0x0000000000402e69 4c 63 b4 24 98 00 00 movsxd 0x00000098(%rsp)[4byte] -> %r14  
0x0000000000402e71 4d 89 fd mov %r15 -> %r13  
0x0000000000402e74 42 80 bc 34 c0 00 00 cmp 0x000000c0(%rsp,%r14,1)[1byte] $0x00  
00 00 
0x0000000000402e7d 74 0a jz $0x0000000000402e89  
Actual: 402e89 
Block 1233: 
0x0000000000402e89 48 8b 44 24 70 mov 0x70(%rsp)[8byte] -> %rax  
0x0000000000402e8e 4e 8d 1c b5 00 00 00 lea 0x00(,%r14,4) -> %r11  
0x0000000000402e96 31 d2 xor %edx %edx -> %edx  
0x0000000000402e98 4a 8d 1c 18 lea (%rax,%r11,1) -> %rbx  
0x0000000000402e9c 48 89 d9 mov %rbx -> %rcx  
0x0000000000402e9f 8b 01 mov (%rcx)[4byte] -> %eax  
0x0000000000402ea1 48 81 c1 00 04 00 00 add $0x0000000000000400 %rcx -> %rcx  
0x0000000000402ea8 25 ff ff df ff and $0xffdfffff %eax -> %eax  
0x0000000000402ead 89 84 14 70 0a 00 00 mov %eax -> 0x00000a70(%rsp,%rdx,1)[4byte]  
0x0000000000402eb4 8b 81 04 fc ff ff mov 0xfffffc04(%rcx)[4byte] -> %eax  
0x0000000000402eba 25 ff ff df ff and $0xffdfffff %eax -> %eax  
0x0000000000402ebf 83 e8 01 sub $0x00000001 %eax -> %eax  
0x0000000000402ec2 89 84 14 70 0e 00 00 mov %eax -> 0x00000e70(%rsp,%rdx,1)[4byte]  
0x0000000000402ec9 48 83 c2 04 add $0x0000000000000004 %rdx -> %rdx  
0x0000000000402ecd 48 81 fa 00 04 00 00 cmp %rdx $0x0000000000000400  
0x0000000000402ed4 75 c9 jnz $0x0000000000402e9f  
Actual: 402e9f 
Block 1234: 
0x0000000000402e9f 8b 01 mov (%rcx)[4byte] -> %eax  
0x0000000000402ea1 48 81 c1 00 04 00 00 add $0x0000000000000400 %rcx -> %rcx  
0x0000000000402ea8 25 ff ff df ff and $0xffdfffff %eax -> %eax  
0x0000000000402ead 89 84 14 70 0a 00 00 mov %eax -> 0x00000a70(%rsp,%rdx,1)[4byte]  
0x0000000000402eb4 8b 81 04 fc ff ff mov 0xfffffc04(%rcx)[4byte] -> %eax  
0x0000000000402eba 25 ff ff df ff and $0xffdfffff %eax -> %eax  
0x0000000000402ebf 83 e8 01 sub $0x00000001 %eax -> %eax  
0x0000000000402ec2 89 84 14 70 0e 00 00 mov %eax -> 0x00000e70(%rsp,%rdx,1)[4byte]  
0x0000000000402ec9 48 83 c2 04 add $0x0000000000000004 %rdx -> %rdx  
0x0000000000402ecd 48 81 fa 00 04 00 00 cmp %rdx $0x0000000000000400  
0x0000000000402ed4 75 c9 jnz $0x0000000000402e9f  
Actual: 402e9f 
Block 1236: 
0x0000000000402efc 48 63 c2 movsxd %edx -> %rax  
0x0000000000402eff 49 8d 74 85 00 lea 0x00(%r13,%rax,4) -> %rsi  
0x0000000000402f04 8b 06 mov (%rsi)[4byte] -> %eax  
0x0000000000402f06 8b 4c 24 14 mov 0x14(%rsp)[4byte] -> %ecx  
0x0000000000402f0a 83 e8 01 sub $0x00000001 %eax -> %eax  
0x0000000000402f0d 01 c1 add %eax %ecx -> %ecx  
0x0000000000402f0f 85 c0 test %eax %eax  
0x0000000000402f11 0f 48 c1 cmovs %ecx %eax -> %eax  
0x0000000000402f14 48 63 c8 movsxd %eax -> %rcx  
0x0000000000402f17 41 0f b6 3c 0c movzx (%r12,%rcx,1)[1byte] -> %edi  
0x0000000000402f1c 80 bc 3c c0 00 00 00 cmp 0x000000c0(%rsp,%rdi,1)[1byte] $0x00  
0x0000000000402f24 75 19 jnz $0x0000000000402f3f  
Actual: 402f26 
Block 1238: 
0x0000000000402f04 8b 06 mov (%rsi)[4byte] -> %eax  
0x0000000000402f06 8b 4c 24 14 mov 0x14(%rsp)[4byte] -> %ecx  
0x0000000000402f0a 83 e8 01 sub $0x00000001 %eax -> %eax  
0x0000000000402f0d 01 c1 add %eax %ecx -> %ecx  
0x0000000000402f0f 85 c0 test %eax %eax  
0x0000000000402f11 0f 48 c1 cmovs %ecx %eax -> %eax  
0x0000000000402f14 48 63 c8 movsxd %eax -> %rcx  
0x0000000000402f17 41 0f b6 3c 0c movzx (%r12,%rcx,1)[1byte] -> %edi  
0x0000000000402f1c 80 bc 3c c0 00 00 00 cmp 0x000000c0(%rsp,%rdi,1)[1byte] $0x00  
0x0000000000402f24 75 19 jnz $0x0000000000402f3f  
Actual: 402f26 
Block 1240: 
0x0000000000402f81 83 e8 02 sub $0x00000002 %eax -> %eax  
0x0000000000402f84 48 63 d6 movsxd %esi -> %rdx  
0x0000000000402f87 48 98 cwde %ax -> %rax  
0x0000000000402f89 48 29 c2 sub %rax %rdx -> %rdx  
0x0000000000402f8c 4d 8d 4c 95 00 lea 0x00(%r13,%rdx,4) -> %r9  
0x0000000000402f91 41 8b 34 81 mov (%r9,%rax,4)[4byte] -> %esi  
0x0000000000402f95 8d 56 ff lea 0xffffffff(%rsi) -> %edx  
0x0000000000402f98 8b 74 24 14 mov 0x14(%rsp)[4byte] -> %esi  
0x0000000000402f9c 01 d6 add %edx %esi -> %esi  
0x0000000000402f9e 85 d2 test %edx %edx  
0x0000000000402fa0 0f 48 d6 cmovs %esi %edx -> %edx  
0x0000000000402fa3 48 63 f2 movsxd %edx -> %rsi  
0x0000000000402fa6 41 0f b6 3c 34 movzx (%r12,%rsi,1)[1byte] -> %edi  
0x0000000000402fab 80 bc 3c c0 00 00 00 cmp 0x000000c0(%rsp,%rdi,1)[1byte] $0x00  
0x0000000000402fb3 75 19 jnz $0x0000000000402fce  
Actual: 402fb5 
Block 1242: 
0x0000000000402f91 41 8b 34 81 mov (%r9,%rax,4)[4byte] -> %esi  
0x0000000000402f95 8d 56 ff lea 0xffffffff(%rsi) -> %edx  
0x0000000000402f98 8b 74 24 14 mov 0x14(%rsp)[4byte] -> %esi  
0x0000000000402f9c 01 d6 add %edx %esi -> %esi  
0x0000000000402f9e 85 d2 test %edx %edx  
0x0000000000402fa0 0f 48 d6 cmovs %esi %edx -> %edx  
0x0000000000402fa3 48 63 f2 movsxd %edx -> %rsi  
0x0000000000402fa6 41 0f b6 3c 34 movzx (%r12,%rsi,1)[1byte] -> %edi  
0x0000000000402fab 80 bc 3c c0 00 00 00 cmp 0x000000c0(%rsp,%rdi,1)[1byte] $0x00  
0x0000000000402fb3 75 19 jnz $0x0000000000402fce  
Actual: 402fb5 
Block 1243: 
0x0000000000402fe0 8d 41 ff lea 0xffffffff(%rcx) -> %eax  
0x0000000000402fe3 39 d0 cmp %eax %edx  
0x0000000000402fe5 74 2b jz $0x0000000000403012  
Actual: 403012 
Block 1244: 
0x0000000000403012 48 8b 44 24 70 mov 0x70(%rsp)[8byte] -> %rax  
0x0000000000403017 4a 8d 84 18 00 00 04 lea 0x00040000(%rax,%r11,1) -> %rax  
0x000000000040301f 81 0b 00 00 20 00 or $0x00200000 (%rbx)[4byte] -> (%rbx)[4byte]  
0x0000000000403025 48 81 c3 00 04 00 00 add $0x0000000000000400 %rbx -> %rbx  
0x000000000040302c 48 39 d8 cmp %rax %rbx  
0x000000000040302f 75 ee jnz $0x000000000040301f  
Actual: 40301f 
Block 1245: 
0x000000000040301f 81 0b 00 00 20 00 or $0x00200000 (%rbx)[4byte] -> (%rbx)[4byte]  
0x0000000000403025 48 81 c3 00 04 00 00 add $0x0000000000000400 %rbx -> %rbx  
0x000000000040302c 48 39 d8 cmp %rax %rbx  
0x000000000040302f 75 ee jnz $0x000000000040301f  
Actual: 40301f 
Block 1246: 
0x0000000000403031 48 8b 8c 24 90 00 00 mov 0x00000090(%rsp)[8byte] -> %rcx  
0x0000000000403039 48 39 8c 24 b0 00 00 cmp 0x000000b0(%rsp)[8byte] %rcx  
0x0000000000403041 42 c6 84 34 c0 00 00 mov $0x01 -> 0x000000c0(%rsp,%r14,1)[1byte]  
00 01 
0x000000000040304a 0f 84 9c 00 00 00 jz $0x00000000004030ec  
Actual: 403050 
Block 1253: 
0x00000000004030cd 48 83 84 24 90 00 00 add $0x0000000000000004 0x00000090(%rsp)[8byte] -> 0x00000090(%rsp)[8byte]  
00 04 
0x00000000004030d6 48 8b 84 24 90 00 00 mov 0x00000090(%rsp)[8byte] -> %rax  
0x00000000004030de 48 39 84 24 b8 00 00 cmp 0x000000b8(%rsp)[8byte] %rax  
0x00000000004030e6 0f 85 e1 f7 ff ff jnz $0x00000000004028cd  
Actual: 4028cd 
Block 1254: 
0x00000000004028cd 48 8b 84 24 90 00 00 mov 0x00000090(%rsp)[8byte] -> %rax  
0x00000000004028d5 48 c7 44 24 78 00 00 mov $0x0000000000000000 -> 0x78(%rsp)[8byte]  
00 00 
0x00000000004028de 4d 89 ef mov %r13 -> %r15  
0x00000000004028e1 8b 00 mov (%rax)[4byte] -> %eax  
0x00000000004028e3 89 84 24 98 00 00 00 mov %eax -> 0x00000098(%rsp)[4byte]  
0x00000000004028ea c1 e0 08 shl $0x00000008 %eax -> %eax  
0x00000000004028ed 89 84 24 a4 00 00 00 mov %eax -> 0x000000a4(%rsp)[4byte]  
0x00000000004028f4 48 8b 74 24 78 mov 0x78(%rsp)[8byte] -> %rsi  
0x00000000004028f9 39 b4 24 98 00 00 00 cmp 0x00000098(%rsp)[4byte] %esi  
0x0000000000402900 0f 84 4c 05 00 00 jz $0x0000000000402e52  
Actual: 402906 
Block 1258: 
0x00000000004029d2 8b 74 24 68 mov 0x68(%rsp)[4byte] -> %esi  
0x00000000004029d6 8b 7c 24 54 mov 0x54(%rsp)[4byte] -> %edi  
0x00000000004029da 44 89 f9 mov %r15d -> %ecx  
0x00000000004029dd 89 f0 mov %esi -> %eax  
0x00000000004029df 01 f8 add %edi %eax -> %eax  
0x00000000004029e1 d1 f8 sar $0x00000001 %eax -> %eax  
0x00000000004029e3 48 98 cwde %ax -> %rax  
0x00000000004029e5 41 03 0c 84 add (%r12,%rax,4)[4byte] %ecx -> %ecx  
0x00000000004029e9 48 63 c7 movsxd %edi -> %rax  
0x00000000004029ec 0f b6 54 0d 00 movzx 0x00(%rbp,%rcx,1)[1byte] -> %edx  
0x00000000004029f1 44 89 f9 mov %r15d -> %ecx  
0x00000000004029f4 41 03 0c 84 add (%r12,%rax,4)[4byte] %ecx -> %ecx  
0x00000000004029f8 0f b6 44 0d 00 movzx 0x00(%rbp,%rcx,1)[1byte] -> %eax  
0x00000000004029fd 48 63 ce movsxd %esi -> %rcx  
0x0000000000402a00 49 8d 34 8c lea (%r12,%rcx,4) -> %rsi  
0x0000000000402a04 48 89 4c 24 28 mov %rcx -> 0x28(%rsp)[8byte]  
0x0000000000402a09 44 89 f9 mov %r15d -> %ecx  
0x0000000000402a0c 03 0e add (%rsi)[4byte] %ecx -> %ecx  
0x0000000000402a0e 44 0f b6 4c 0d 00 movzx 0x00(%rbp,%rcx,1)[1byte] -> %r9d  
0x0000000000402a14 44 38 c8 cmp %al %r9l  
0x0000000000402a17 72 09 jb $0x0000000000402a22  
Actual: 402a19 
Block 1261: 
0x0000000000402a50 41 8b 12 mov (%r10)[4byte] -> %edx  
0x0000000000402a53 41 8d 04 17 lea (%r15,%rdx,1) -> %eax  
0x0000000000402a57 0f b6 44 05 00 movzx 0x00(%rbp,%rax,1)[1byte] -> %eax  
0x0000000000402a5c 44 29 c8 sub %r9d %eax -> %eax  
0x0000000000402a5f 83 f8 00 cmp %eax $0x00000000  
0x0000000000402a62 0f 85 87 00 00 00 jnz $0x0000000000402aef  
Actual: 402aef 
Block 1264: 
0x0000000000402af1 48 63 c1 movsxd %ecx -> %rax  
0x0000000000402af4 8d 51 ff lea 0xffffffff(%rcx) -> %edx  
0x0000000000402af7 4c 89 54 24 08 mov %r10 -> 0x08(%rsp)[8byte]  
0x0000000000402afc 49 8d 04 84 lea (%r12,%rax,4) -> %rax  
0x0000000000402b00 eb 2a jmp $0x0000000000402b2c  
0x0000000000402b2c 8b 08 mov (%rax)[4byte] -> %ecx  
0x0000000000402b2e 41 8d 34 0f lea (%r15,%rcx,1) -> %esi  
0x0000000000402b32 0f b6 74 35 00 movzx 0x00(%rbp,%rsi,1)[1byte] -> %esi  
0x0000000000402b37 44 39 ce cmp %esi %r9d  
0x0000000000402b3a 74 cc jz $0x0000000000402b08  
Actual: 402b3c 
Block 1267: 
0x0000000000402b2c 8b 08 mov (%rax)[4byte] -> %ecx  
0x0000000000402b2e 41 8d 34 0f lea (%r15,%rcx,1) -> %esi  
0x0000000000402b32 0f b6 74 35 00 movzx 0x00(%rbp,%rsi,1)[1byte] -> %esi  
0x0000000000402b37 44 39 ce cmp %esi %r9d  
0x0000000000402b3a 74 cc jz $0x0000000000402b08  
Actual: 402b3c 
Block 1273: 
0x000000000040319e 49 63 f8 movsxd %r8d -> %rdi  
0x00000000004031a1 83 e9 01 sub $0x00000001 %ecx -> %ecx  
0x00000000004031a4 48 63 d2 movsxd %edx -> %rdx  
0x00000000004031a7 48 8d 4c 0f 01 lea 0x01(%rdi,%rcx,1) -> %rcx  
0x00000000004031ac 49 8d 04 bc lea (%r12,%rdi,4) -> %rax  
0x00000000004031b0 48 29 fa sub %rdi %rdx -> %rdx  
0x00000000004031b3 49 8d 0c 8c lea (%r12,%rcx,4) -> %rcx  
0x00000000004031b7 8b 38 mov (%rax)[4byte] -> %edi  
0x00000000004031b9 44 8b 0c 90 mov (%rax,%rdx,4)[4byte] -> %r9d  
0x00000000004031bd 44 89 08 mov %r9d -> (%rax)[4byte]  
0x00000000004031c0 89 3c 90 mov %edi -> (%rax,%rdx,4)[4byte]  
0x00000000004031c3 48 83 c0 04 add $0x0000000000000004 %rax -> %rax  
0x00000000004031c7 48 39 c1 cmp %rcx %rax  
0x00000000004031ca 75 eb jnz $0x00000000004031b7  
Actual: 4031cc 
Block 1282: 
0x0000000000403153 48 8b 74 24 28 mov 0x28(%rsp)[8byte] -> %rsi  
0x0000000000403158 83 ea 01 sub $0x00000001 %edx -> %edx  
0x000000000040315b 48 98 cwde %ax -> %rax  
0x000000000040315d 48 8d 54 16 01 lea 0x01(%rsi,%rdx,1) -> %rdx  
0x0000000000403162 48 29 f0 sub %rsi %rax -> %rax  
0x0000000000403165 49 8d 14 94 lea (%r12,%rdx,4) -> %rdx  
0x0000000000403169 41 8b 75 00 mov 0x00(%r13)[4byte] -> %esi  
0x000000000040316d 45 8b 4c 85 00 mov 0x00(%r13,%rax,4)[4byte] -> %r9d  
0x0000000000403172 45 89 4d 00 mov %r9d -> 0x00(%r13)[4byte]  
0x0000000000403176 41 89 74 85 00 mov %esi -> 0x00(%r13,%rax,4)[4byte]  
0x000000000040317b 49 83 c5 04 add $0x0000000000000004 %r13 -> %r13  
0x000000000040317f 4c 39 ea cmp %rdx %r13  
0x0000000000403182 75 e5 jnz $0x0000000000403169  
Actual: 403169 
Block 1283: 
0x0000000000403169 41 8b 75 00 mov 0x00(%r13)[4byte] -> %esi  
0x000000000040316d 45 8b 4c 85 00 mov 0x00(%r13,%rax,4)[4byte] -> %r9d  
0x0000000000403172 45 89 4d 00 mov %r9d -> 0x00(%r13)[4byte]  
0x0000000000403176 41 89 74 85 00 mov %esi -> 0x00(%r13,%rax,4)[4byte]  
0x000000000040317b 49 83 c5 04 add $0x0000000000000004 %r13 -> %r13  
0x000000000040317f 4c 39 ea cmp %rdx %r13  
0x0000000000403182 75 e5 jnz $0x0000000000403169  
Actual: 403169 
Block 1284: 
0x00000000004031b7 8b 38 mov (%rax)[4byte] -> %edi  
0x00000000004031b9 44 8b 0c 90 mov (%rax,%rdx,4)[4byte] -> %r9d  
0x00000000004031bd 44 89 08 mov %r9d -> (%rax)[4byte]  
0x00000000004031c0 89 3c 90 mov %edi -> (%rax,%rdx,4)[4byte]  
0x00000000004031c3 48 83 c0 04 add $0x0000000000000004 %rax -> %rax  
0x00000000004031c7 48 39 c1 cmp %rcx %rax  
0x00000000004031ca 75 eb jnz $0x00000000004031b7  
Actual: 4031cc 
Block 1305: 
0x00000000004041c5 c7 43 0c 01 00 00 00 mov $0x00000001 -> 0x0c(%rbx)[4byte]  
0x00000000004041cc e9 5d fd ff ff jmp $0x0000000000403f2e  
0x0000000000403f2e 48 8b 03 mov (%rbx)[8byte] -> %rax  
0x0000000000403f31 8b 53 78 mov 0x78(%rbx)[4byte] -> %edx  
0x0000000000403f34 31 ff xor %edi %edi -> %edi  
0x0000000000403f36 8b 48 20 mov 0x20(%rax)[4byte] -> %ecx  
0x0000000000403f39 eb 4f jmp $0x0000000000403f8a  
0x0000000000403f8a 85 c9 test %ecx %ecx  
0x0000000000403f8c 75 b2 jnz $0x0000000000403f40  
Actual: 403f40 
Block 1306: 
0x0000000000404644 84 c0 test %al %al  
0x0000000000404646 74 25 jz $0x000000000040466d  
Actual: 404648 
Block 1307: 
0x0000000000404648 8b 53 10 mov 0x10(%rbx)[4byte] -> %edx  
0x000000000040464b 85 d2 test %edx %edx  
0x000000000040464d 0f 84 f5 00 00 00 jz $0x0000000000404748  
Actual: 404748 
Block 1314: 
0x0000000000405c52 44 8b 54 24 08 mov 0x08(%rsp)[4byte] -> %r10d  
0x0000000000405c57 44 8b 4c 24 0c mov 0x0c(%rsp)[4byte] -> %r9d  
0x0000000000405c5c 41 39 c2 cmp %r10d %eax  
0x0000000000405c5f 74 87 jz $0x0000000000405be8  
Actual: 405be8 
Block 1315: 
0x0000000000405be8 41 83 f9 04 cmp %r9d $0x00000004  
0x0000000000405bec 0f 84 43 ff ff ff jz $0x0000000000405b35  
Actual: 405bf2 
Block 1316: 
0x0000000000405bf2 c7 85 b8 13 00 00 88 mov $0x00001388 -> 0x000013b8(%rbp)[4byte]  
13 00 00 
0x0000000000405bfc 4c 89 bd b0 13 00 00 mov %r15 -> 0x000013b0(%rbp)[8byte]  
0x0000000000405c03 be 02 00 00 00 mov $0x00000002 -> %esi  
0x0000000000405c08 4c 89 f7 mov %r14 -> %rdi  
0x0000000000405c0b e8 d0 e9 ff ff call $0x00000000004045e0 %rsp -> %rsp 0xfffffff8(%rsp)[8byte]  
0x00000000004045e0 55 push %rbp %rsp -> %rsp 0xfffffff8(%rsp)[8byte]  
0x00000000004045e1 53 push %rbx %rsp -> %rsp 0xfffffff8(%rsp)[8byte]  
0x00000000004045e2 48 83 ec 08 sub $0x0000000000000008 %rsp -> %rsp  
0x00000000004045e6 48 85 ff test %rdi %rdi  
0x00000000004045e9 0f 84 9d 00 00 00 jz $0x000000000040468c  
Actual: 4045ef 
Block 1317: 
0x000000000040411e 44 8b 53 10 mov 0x10(%rbx)[4byte] -> %r10d  
0x0000000000404122 45 85 d2 test %r10d %r10d  
0x0000000000404125 0f 85 7a fe ff ff jnz $0x0000000000403fa5  
Actual: 40412b 
Block 1321: 
0x0000000000405b35 4d 85 e4 test %r12 %r12  
0x0000000000405b38 74 0a jz $0x0000000000405b44  
Actual: 405b3a 
Block 1322: 
0x0000000000405b3a 8b 85 a4 13 00 00 mov 0x000013a4(%rbp)[4byte] -> %eax  
0x0000000000405b40 41 89 04 24 mov %eax -> (%r12)[4byte]  
0x0000000000405b44 48 8b 4c 24 10 mov 0x10(%rsp)[8byte] -> %rcx  
0x0000000000405b49 48 85 c9 test %rcx %rcx  
0x0000000000405b4c 74 08 jz $0x0000000000405b56  
Actual: 405b4e 
Block 1323: 
0x0000000000405b4e 8b 85 a8 13 00 00 mov 0x000013a8(%rbp)[4byte] -> %eax  
0x0000000000405b54 89 01 mov %eax -> (%rcx)[4byte]  
0x0000000000405b56 48 8b 54 24 18 mov 0x18(%rsp)[8byte] -> %rdx  
0x0000000000405b5b 48 85 d2 test %rdx %rdx  
0x0000000000405b5e 74 08 jz $0x0000000000405b68  
Actual: 405b60 
Block 1324: 
0x0000000000405b60 8b 85 bc 13 00 00 mov 0x000013bc(%rbp)[4byte] -> %eax  
0x0000000000405b66 89 02 mov %eax -> (%rdx)[4byte]  
0x0000000000405b68 4d 85 ed test %r13 %r13  
0x0000000000405b6b 74 0a jz $0x0000000000405b77  
Actual: 405b6d 
Block 1325: 
0x0000000000405b6d 8b 85 c0 13 00 00 mov 0x000013c0(%rbp)[4byte] -> %eax  
0x0000000000405b73 41 89 45 00 mov %eax -> 0x00(%r13)[4byte]  
0x0000000000405b77 48 85 db test %rbx %rbx  
0x0000000000405b7a 74 06 jz $0x0000000000405b82  
Actual: 405b7c 
Block 1326: 
0x0000000000405b7c c7 03 00 00 00 00 mov $0x00000000 -> (%rbx)[4byte]  
0x0000000000405b82 4c 89 f7 mov %r14 -> %rdi  
0x0000000000405b85 c7 85 e8 13 00 00 00 mov $0x00000000 -> 0x000013e8(%rbp)[4byte]  
00 00 00 
0x0000000000405b8f e8 ec eb ff ff call $0x0000000000404780 %rsp -> %rsp 0xfffffff8(%rsp)[8byte]  
0x0000000000404780 48 85 ff test %rdi %rdi  
0x0000000000404783 74 69 jz $0x00000000004047ee  
Actual: 404785 
Block 1327: 
0x0000000000404785 55 push %rbp %rsp -> %rsp 0xfffffff8(%rsp)[8byte]  
0x0000000000404786 53 push %rbx %rsp -> %rsp 0xfffffff8(%rsp)[8byte]  
0x0000000000404787 b8 fe ff ff ff mov $0xfffffffe -> %eax  
0x000000000040478c 48 83 ec 08 sub $0x0000000000000008 %rsp -> %rsp  
0x0000000000404790 48 8b 6f 30 mov 0x30(%rdi)[8byte] -> %rbp  
0x0000000000404794 48 85 ed test %rbp %rbp  
0x0000000000404797 74 4e jz $0x00000000004047e7  
Actual: 404799 
Block 1328: 
0x0000000000404799 48 3b 7d 00 cmp %rdi 0x00(%rbp)[8byte]  
0x000000000040479d 75 48 jnz $0x00000000004047e7  
Actual: 40479f 
Block 1329: 
0x000000000040479f 48 8b 75 18 mov 0x18(%rbp)[8byte] -> %rsi  
0x00000000004047a3 48 89 fb mov %rdi -> %rbx  
0x00000000004047a6 48 85 f6 test %rsi %rsi  
0x00000000004047a9 74 07 jz $0x00000000004047b2  
Actual: 4047ab 
Block 1331: 
0x0000000000403ed0 48 85 f6 test %rsi %rsi  
0x0000000000403ed3 74 0b jz $0x0000000000403ee0  
Actual: 403ed5 
Block 1334: 
0x00007f61cc203260 41 55 push %r13 %rsp -> %rsp 0xfffffff8(%rsp)[8byte]  
0x00007f61cc203262 41 54 push %r12 %rsp -> %rsp 0xfffffff8(%rsp)[8byte]  
0x00007f61cc203264 55 push %rbp %rsp -> %rsp 0xfffffff8(%rsp)[8byte]  
0x00007f61cc203265 53 push %rbx %rsp -> %rsp 0xfffffff8(%rsp)[8byte]  
0x00007f61cc203266 48 83 ec 28 sub $0x0000000000000028 %rsp -> %rsp  
0x00007f61cc20326a 48 8b 05 77 ac 33 00 mov <rel> 0x00007f61cc53dee8[8byte] -> %rax  
0x00007f61cc203271 48 8b 00 mov (%rax)[8byte] -> %rax  
0x00007f61cc203274 48 85 c0 test %rax %rax  
0x00007f61cc203277 0f 85 d3 00 00 00 jnz $0x00007f61cc203350  
Actual: 7f61cc20327d 
Block 1335: 
0x00007f61cc20327d 48 85 ff test %rdi %rdi  
0x00007f61cc203280 74 2a jz $0x00007f61cc2032ac  
Actual: 7f61cc203282 
Block 1336: 
0x00007f61cc203282 48 8b 47 f8 mov 0xfffffff8(%rdi)[8byte] -> %rax  
0x00007f61cc203286 48 8d 77 f0 lea 0xfffffff0(%rdi) -> %rsi  
0x00007f61cc20328a a8 02 test %al $0x02  
0x00007f61cc20328c 75 32 jnz $0x00007f61cc2032c0  
Actual: 7f61cc2032c0 
Block 1337: 
0x00007f61cc2032c0 8b 15 ae ae 33 00 mov <rel> 0x00007f61cc53e174[4byte] -> %edx  
0x00007f61cc2032c6 85 d2 test %edx %edx  
0x00007f61cc2032c8 75 2e jnz $0x00007f61cc2032f8  
Actual: 7f61cc2032ca 
Block 1338: 
0x00007f61cc2032ca 48 3b 05 7f ae 33 00 cmp %rax <rel> 0x00007f61cc53e150[8byte]  
0x00007f61cc2032d1 76 25 jbe $0x00007f61cc2032f8  
Actual: 7f61cc2032d3 
Block 1340: 
0x00007f61cc2032db 48 83 e0 f8 and $0xfffffffffffffff8 %rax -> %rax  
0x00007f61cc2032df 48 8d 14 00 lea (%rax,%rax,1) -> %rdx  
0x00007f61cc2032e3 48 89 05 66 ae 33 00 mov %rax -> <rel> 0x00007f61cc53e150[8byte]  
0x00007f61cc2032ea 48 89 15 4f ae 33 00 mov %rdx -> <rel> 0x00007f61cc53e140[8byte]  
0x00007f61cc2032f1 90 nop  
0x00007f61cc2032f2 eb 08 jmp $0x00007f61cc2032fc  
0x00007f61cc2032fc 48 8b 4f f0 mov 0xfffffff0(%rdi)[8byte] -> %rcx  
0x00007f61cc203300 48 89 f2 mov %rsi -> %rdx  
0x00007f61cc203303 48 8d 34 01 lea (%rcx,%rax,1) -> %rsi  
0x00007f61cc203307 48 8b 05 52 ab 33 00 mov <rel> 0x00007f61cc53de60[8byte] -> %rax  
0x00007f61cc20330e 48 29 ca sub %rcx %rdx -> %rdx  
0x00007f61cc203311 48 89 d1 mov %rdx -> %rcx  
0x00007f61cc203314 48 09 f1 or %rsi %rcx -> %rcx  
0x00007f61cc203317 48 8b 40 18 mov 0x18(%rax)[8byte] -> %rax  
0x00007f61cc20331b 48 83 e8 01 sub $0x0000000000000001 %rax -> %rax  
0x00007f61cc20331f 48 85 c8 test %rax %rcx  
0x00007f61cc203322 75 44 jnz $0x00007f61cc203368  
Actual: 7f61cc203324 
Block 1345: 
0x00000000004047b2 48 8b 75 20 mov 0x20(%rbp)[8byte] -> %rsi  
0x00000000004047b6 48 85 f6 test %rsi %rsi  
0x00000000004047b9 74 07 jz $0x00000000004047c2  
Actual: 4047bb 
Block 1347: 
0x00000000004047c2 48 8b 75 28 mov 0x28(%rbp)[8byte] -> %rsi  
0x00000000004047c6 48 85 f6 test %rsi %rsi  
0x00000000004047c9 74 07 jz $0x00000000004047d2  
Actual: 4047cb 
Block 1349: 
0x00007f61cc2032f8 48 83 e0 f8 and $0xfffffffffffffff8 %rax -> %rax  
0x00007f61cc2032fc 48 8b 4f f0 mov 0xfffffff0(%rdi)[8byte] -> %rcx  
0x00007f61cc203300 48 89 f2 mov %rsi -> %rdx  
0x00007f61cc203303 48 8d 34 01 lea (%rcx,%rax,1) -> %rsi  
0x00007f61cc203307 48 8b 05 52 ab 33 00 mov <rel> 0x00007f61cc53de60[8byte] -> %rax  
0x00007f61cc20330e 48 29 ca sub %rcx %rdx -> %rdx  
0x00007f61cc203311 48 89 d1 mov %rdx -> %rcx  
0x00007f61cc203314 48 09 f1 or %rsi %rcx -> %rcx  
0x00007f61cc203317 48 8b 40 18 mov 0x18(%rax)[8byte] -> %rax  
0x00007f61cc20331b 48 83 e8 01 sub $0x0000000000000001 %rax -> %rax  
0x00007f61cc20331f 48 85 c8 test %rax %rcx  
0x00007f61cc203322 75 44 jnz $0x00007f61cc203368  
Actual: 7f61cc203324 
Block 1351: 
0x00007f61cc20328e a8 04 test %al $0x04  
0x00007f61cc203290 48 8d 3d 69 b8 33 00 lea <rel> 0x00007f61cc53eb00 -> %rdi  
0x00007f61cc203297 74 0c jz $0x00007f61cc2032a5  
Actual: 7f61cc2032a5 
Block 1353: 
0x00007f61cc1ff811 40 f6 c6 0f test %sil $0x0f  
0x00007f61cc1ff815 0f 85 95 04 00 00 jnz $0x00007f61cc1ffcb0  
Actual: 7f61cc1ff81b 
Block 1354: 
0x00007f61cc1ff81b 49 83 fc 1f cmp %r12 $0x000000000000001f  
0x00007f61cc1ff81f 0f 86 3b 05 00 00 jbe $0x00007f61cc1ffd60  
Actual: 7f61cc1ff825 
Block 1355: 
0x00007f61cc1ff825 a8 08 test %al $0x08  
0x00007f61cc1ff827 0f 85 33 05 00 00 jnz $0x00007f61cc1ffd60  
Actual: 7f61cc1ff82d 
Block 1357: 
0x00007f61cc1ff938 a8 02 test %al $0x02  
0x00007f61cc1ff93a 0f 85 30 05 00 00 jnz $0x00007f61cc1ffe70  
Actual: 7f61cc1ff940 
Block 1358: 
0x00007f61cc1ff940 45 85 f6 test %r14d %r14d  
0x00007f61cc1ff943 0f 84 0f 03 00 00 jz $0x00007f61cc1ffc58  
Actual: 7f61cc1ffc58 
Block 1359: 
0x00007f61cc1ffc58 be 01 00 00 00 mov $0x00000001 -> %esi  
0x00007f61cc1ffc5d 44 89 f0 mov %r14d -> %eax  
0x00007f61cc1ffc60 83 3d 99 3a 34 00 00 cmp <rel> 0x00007f61cc543700[4byte] $0x00000000  
0x00007f61cc1ffc67 74 09 jz $0x00007f61cc1ffc72  
Actual: 7f61cc1ffc72 
Block 1360: 
0x00007f61cc1ffc72 0f b1 75 00 cmpxchg %esi 0x00(%rbp)[4byte] %eax -> 0x00(%rbp)[4byte] %eax  
0x00007f61cc1ffc76 74 17 jz $0x00007f61cc1ffc8f  
Actual: 7f61cc1ffc8f 
Block 1361: 
0x00007f61cc1ffc8f 48 8b 45 58 mov 0x58(%rbp)[8byte] -> %rax  
0x00007f61cc1ffc93 4e 8d 2c 23 lea (%rbx,%r12,1) -> %r13  
0x00007f61cc1ffc97 48 39 c3 cmp %rbx %rax  
0x00007f61cc1ffc9a 0f 84 18 04 00 00 jz $0x00007f61cc2000b8  
Actual: 7f61cc1ffca0 
Block 1362: 
0x00007f61cc1ffca0 41 b9 01 00 00 00 mov $0x00000001 -> %r9d  
0x00007f61cc1ffca6 e9 b2 fc ff ff jmp $0x00007f61cc1ff95d  
0x00007f61cc1ff95d f6 45 04 02 test 0x04(%rbp)[1byte] $0x02  
0x00007f61cc1ff961 0f 84 89 07 00 00 jz $0x00007f61cc2000f0  
Actual: 7f61cc2000f0 
Block 1363: 
0x00007f61cc2000f0 48 8b 50 08 mov 0x08(%rax)[8byte] -> %rdx  
0x00007f61cc2000f4 48 83 e2 f8 and $0xfffffffffffffff8 %rdx -> %rdx  
0x00007f61cc2000f8 48 01 d0 add %rdx %rax -> %rax  
0x00007f61cc2000fb 49 39 c5 cmp %r13 %rax  
0x00007f61cc2000fe 0f 82 63 f8 ff ff jb $0x00007f61cc1ff967  
Actual: 7f61cc1ff967 
Block 1364: 
0x00007f61cc1ff967 49 8b 45 08 mov 0x08(%r13)[8byte] -> %rax  
0x00007f61cc1ff96b a8 01 test %al $0x01  
0x00007f61cc1ff96d 0f 84 9d 07 00 00 jz $0x00007f61cc200110  
Actual: 7f61cc1ff973 
Block 1365: 
0x00007f61cc1ff973 49 89 c2 mov %rax -> %r10  
0x00007f61cc1ff976 49 83 e2 f8 and $0xfffffffffffffff8 %r10 -> %r10  
0x00007f61cc1ff97a 48 83 f8 10 cmp %rax $0x0000000000000010  
0x00007f61cc1ff97e 0f 86 b4 06 00 00 jbe $0x00007f61cc200038  
Actual: 7f61cc1ff984 
Block 1367: 
0x00007f61cc1ff991 8b 35 3d 0e 34 00 mov <rel> 0x00007f61cc5407d4[4byte] -> %esi  
0x00007f61cc1ff997 85 f6 test %esi %esi  
0x00007f61cc1ff999 0f 85 7d 07 00 00 jnz $0x00007f61cc20011c  
Actual: 7f61cc1ff99f 
Block 1368: 
0x00007f61cc1ff99f f6 43 08 01 test 0x08(%rbx)[1byte] $0x01  
0x00007f61cc1ff9a3 75 7b jnz $0x00007f61cc1ffa20  
Actual: 7f61cc1ffa20 
Block 1369: 
0x00007f61cc1ffa20 4c 39 6d 58 cmp 0x58(%rbp)[8byte] %r13  
0x00007f61cc1ffa24 0f 84 ae 06 00 00 jz $0x00007f61cc2000d8  
Actual: 7f61cc2000d8 
Block 1370: 
0x00007f61cc2000d8 4d 01 d4 add %r10 %r12 -> %r12  
0x00007f61cc2000db 4c 89 e0 mov %r12 -> %rax  
0x00007f61cc2000de 48 83 c8 01 or $0x0000000000000001 %rax -> %rax  
0x00007f61cc2000e2 48 89 43 08 mov %rax -> 0x08(%rbx)[8byte]  
0x00007f61cc2000e6 48 89 5d 58 mov %rbx -> 0x58(%rbp)[8byte]  
0x00007f61cc2000ea e9 c9 f9 ff ff jmp $0x00007f61cc1ffab8  
0x00007f61cc1ffab8 49 81 fc ff ff 00 00 cmp %r12 $0x000000000000ffff  
0x00007f61cc1ffabf 0f 86 6b 03 00 00 jbe $0x00007f61cc1ffe30  
Actual: 7f61cc1ffac5 
Block 1371: 
0x00007f61cc1ffac5 f6 45 04 01 test 0x04(%rbp)[1byte] $0x01  
0x00007f61cc1ffac9 0f 84 21 05 00 00 jz $0x00007f61cc1ffff0  
Actual: 7f61cc1ffacf 
Block 1372: 
0x00007f61cc1ffacf 48 8d 05 2a f0 33 00 lea <rel> 0x00007f61cc53eb00 -> %rax  
0x00007f61cc1ffad6 48 39 c5 cmp %rbp %rax  
0x00007f61cc1ffad9 0f 84 d9 04 00 00 jz $0x00007f61cc1fffb8  
Actual: 7f61cc1fffb8 
Block 1373: 
0x00007f61cc1fffb8 48 8b 45 58 mov 0x58(%rbp)[8byte] -> %rax  
0x00007f61cc1fffbc 48 8b 40 08 mov 0x08(%rax)[8byte] -> %rax  
0x00007f61cc1fffc0 48 83 e0 f8 and $0xfffffffffffffff8 %rax -> %rax  
0x00007f61cc1fffc4 48 3b 05 75 e1 33 00 cmp %rax <rel> 0x00007f61cc53e140[8byte]  
0x00007f61cc1fffcb 0f 82 5f fe ff ff jb $0x00007f61cc1ffe30  
Actual: 7f61cc1ffe30 
Block 1374: 
0x00007f61cc1ffe30 45 85 f6 test %r14d %r14d  
0x00007f61cc1ffe33 0f 85 eb fa ff ff jnz $0x00007f61cc1ff924  
Actual: 7f61cc1ffe39 
Block 1375: 
0x00007f61cc1ffe39 83 3d c0 38 34 00 00 cmp <rel> 0x00007f61cc543700[4byte] $0x00000000  
0x00007f61cc1ffe40 74 08 jz $0x00007f61cc1ffe4a  
Actual: 7f61cc1ffe4a 
Block 1376: 
0x00007f61cc1ffe4a ff 4d 00 dec 0x00(%rbp)[4byte] -> 0x00(%rbp)[4byte]  
0x00007f61cc1ffe4d 74 17 jz $0x00007f61cc1ffe66  
Actual: 7f61cc1ffe66 
Block 1381: 
0x0000000000403827 5e pop %rsp (%rsp)[8byte] -> %rsi %rsp  
0x0000000000403828 5f pop %rsp (%rsp)[8byte] -> %rdi %rsp  
0x0000000000403829 44 8b 44 24 1c mov 0x1c(%rsp)[4byte] -> %r8d  
0x000000000040382e 45 85 c0 test %r8d %r8d  
0x0000000000403831 0f 85 dd 01 00 00 jnz $0x0000000000403a14  
Actual: 403837 
Block 1388: 
0x00007f61cc20dd90 48 8b 15 c9 00 33 00 mov <rel> 0x00007f61cc53de60[8byte] -> %rdx  
0x00007f61cc20dd97 48 8d 05 82 00 00 00 lea <rel> 0x00007f61cc20de20 -> %rax  
0x00007f61cc20dd9e f7 82 b0 00 00 00 00 test 0x000000b0(%rdx)[4byte] $0x00000400  
04 00 00 
0x00007f61cc20dda8 74 26 jz $0x00007f61cc20ddd0  
Actual: 7f61cc20ddd0 
Block 1391: 
0x00007f61cc20de70 48 8d 4f 40 lea 0x40(%rdi) -> %rcx  
0x00007f61cc20de74 f3 0f 7f 07 movdqu %xmm0 -> (%rdi)[16byte]  
0x00007f61cc20de78 48 83 e1 c0 and $0xffffffffffffffc0 %rcx -> %rcx  
0x00007f61cc20de7c f3 0f 7f 44 17 f0 movdqu %xmm0 -> 0xfffffff0(%rdi,%rdx,1)[16byte]  
0x00007f61cc20de82 f3 0f 7f 47 10 movdqu %xmm0 -> 0x10(%rdi)[16byte]  
0x00007f61cc20de87 f3 0f 7f 44 17 e0 movdqu %xmm0 -> 0xffffffe0(%rdi,%rdx,1)[16byte]  
0x00007f61cc20de8d f3 0f 7f 47 20 movdqu %xmm0 -> 0x20(%rdi)[16byte]  
0x00007f61cc20de92 f3 0f 7f 44 17 d0 movdqu %xmm0 -> 0xffffffd0(%rdi,%rdx,1)[16byte]  
0x00007f61cc20de98 f3 0f 7f 47 30 movdqu %xmm0 -> 0x30(%rdi)[16byte]  
0x00007f61cc20de9d f3 0f 7f 44 17 c0 movdqu %xmm0 -> 0xffffffc0(%rdi,%rdx,1)[16byte]  
0x00007f61cc20dea3 48 01 fa add %rdi %rdx -> %rdx  
0x00007f61cc20dea6 48 83 e2 c0 and $0xffffffffffffffc0 %rdx -> %rdx  
0x00007f61cc20deaa 48 39 d1 cmp %rcx %rdx  
0x00007f61cc20dead 74 a5 jz $0x00007f61cc20de54  
Actual: 7f61cc20deaf 
Block 1392: 
0x00007f61cc20deaf 90 nop  
0x00007f61cc20deb0 66 0f 7f 01 movdqa %xmm0 -> (%rcx)[16byte]  
0x00007f61cc20deb4 66 0f 7f 41 10 movdqa %xmm0 -> 0x10(%rcx)[16byte]  
0x00007f61cc20deb9 66 0f 7f 41 20 movdqa %xmm0 -> 0x20(%rcx)[16byte]  
0x00007f61cc20debe 66 0f 7f 41 30 movdqa %xmm0 -> 0x30(%rcx)[16byte]  
0x00007f61cc20dec3 48 83 c1 40 add $0x0000000000000040 %rcx -> %rcx  
0x00007f61cc20dec7 48 39 ca cmp %rdx %rcx  
0x00007f61cc20deca 75 e4 jnz $0x00007f61cc20deb0  
Actual: 7f61cc20deb0 
Block 1393: 
0x00007f61cc20deb0 66 0f 7f 01 movdqa %xmm0 -> (%rcx)[16byte]  
0x00007f61cc20deb4 66 0f 7f 41 10 movdqa %xmm0 -> 0x10(%rcx)[16byte]  
0x00007f61cc20deb9 66 0f 7f 41 20 movdqa %xmm0 -> 0x20(%rcx)[16byte]  
0x00007f61cc20debe 66 0f 7f 41 30 movdqa %xmm0 -> 0x30(%rcx)[16byte]  
0x00007f61cc20dec3 48 83 c1 40 add $0x0000000000000040 %rcx -> %rcx  
0x00007f61cc20dec7 48 39 ca cmp %rdx %rcx  
0x00007f61cc20deca 75 e4 jnz $0x00007f61cc20deb0  
Actual: 7f61cc20deb0 
Block 1397: 
0x000000000040181a e9 ad fe ff ff jmp $0x00000000004016cc  
0x00000000004016cc 31 f6 xor %esi %esi -> %esi  
0x00000000004016ce bf 01 00 00 00 mov $0x00000001 -> %edi  
0x00000000004016d3 c7 05 ef ee 20 00 00 mov $0x00000000 -> <rel> 0x00000000006105cc[4byte]  
00 00 00 
0x00000000004016dd e8 ae 23 00 00 call $0x0000000000403a90 %rsp -> %rsp 0xfffffff8(%rsp)[8byte]  
0x0000000000403a90 41 55 push %r13 %rsp -> %rsp 0xfffffff8(%rsp)[8byte]  
0x0000000000403a92 41 54 push %r12 %rsp -> %rsp 0xfffffff8(%rsp)[8byte]  
0x0000000000403a94 45 31 c9 xor %r9d %r9d -> %r9d  
0x0000000000403a97 55 push %rbp %rsp -> %rsp 0xfffffff8(%rsp)[8byte]  
0x0000000000403a98 53 push %rbx %rsp -> %rsp 0xfffffff8(%rsp)[8byte]  
0x0000000000403a99 89 fd mov %edi -> %ebp  
0x0000000000403a9b 41 89 f4 mov %esi -> %r12d  
0x0000000000403a9e 45 31 ed xor %r13d %r13d -> %r13d  
0x0000000000403aa1 48 81 ec 48 27 00 00 sub $0x0000000000002748 %rsp -> %rsp  
0x0000000000403aa8 c7 44 24 14 00 00 00 mov $0x00000000 -> 0x14(%rsp)[4byte]  
0x0000000000403ab0 0f b6 0d fd ca 20 00 movzx <rel> 0x00000000006105b4[1byte] -> %ecx  
0x0000000000403ab7 8b 15 cf c6 20 00 mov <rel> 0x000000000061018c[4byte] -> %edx  
0x0000000000403abd 4c 8d 84 24 b0 13 00 lea 0x000013b0(%rsp) -> %r8  
0x0000000000403ac5 48 8d 7c 24 0c lea 0x0c(%rsp) -> %rdi  
0x0000000000403aca 89 ee mov %ebp -> %esi  
0x0000000000403acc e8 0f 22 00 00 call $0x0000000000405ce0 %rsp -> %rsp 0xfffffff8(%rsp)[8byte]  
0x0000000000405ce0 48 85 ff test %rdi %rdi  
0x0000000000405ce3 74 23 jz $0x0000000000405d08  
Actual: 405ce5 
Block 1398: 
0x0000000000405ce5 85 f6 test %esi %esi  
0x0000000000405ce7 c7 07 00 00 00 00 mov $0x00000000 -> (%rdi)[4byte]  
0x0000000000405ced 74 0a jz $0x0000000000405cf9  
Actual: 405cef 
Block 1400: 
0x0000000000405cf4 83 fa 04 cmp %edx $0x00000004  
0x0000000000405cf7 76 1d jbe $0x0000000000405d16  
Actual: 405d16 
Block 1401: 
0x0000000000405d16 4d 85 c0 test %r8 %r8  
0x0000000000405d19 75 15 jnz $0x0000000000405d30  
Actual: 405d30 
Block 1402: 
0x0000000000405d30 4d 85 c0 test %r8 %r8  
0x0000000000405d33 74 09 jz $0x0000000000405d3e  
Actual: 405d35 
Block 1405: 
0x0000000000405d6a 48 85 c0 test %rax %rax  
0x0000000000405d6d 48 89 c5 mov %rax -> %rbp  
0x0000000000405d70 44 8b 4c 24 0c mov 0x0c(%rsp)[4byte] -> %r9d  
0x0000000000405d75 0f 84 c4 00 00 00 jz $0x0000000000405e3f  
Actual: 405d7b 
Block 1406: 
0x0000000000405d7b 48 85 db test %rbx %rbx  
0x0000000000405d7e 74 06 jz $0x0000000000405d86  
Actual: 405d80 
Block 1408: 
0x0000000000405df9 48 8d bd 98 13 00 00 lea 0x00001398(%rbp) -> %rdi  
0x0000000000405e00 44 89 ea mov %r13d -> %edx  
0x0000000000405e03 44 89 f6 mov %r14d -> %esi  
0x0000000000405e06 e8 f5 e9 ff ff call $0x0000000000404800 %rsp -> %rsp 0xfffffff8(%rsp)[8byte]  
0x0000000000404800 48 85 ff test %rdi %rdi  
0x0000000000404803 b8 fe ff ff ff mov $0xfffffffe -> %eax  
0x0000000000404808 0f 84 ff 00 00 00 jz $0x000000000040490d  
Actual: 40480e 
Block 1411: 
0x0000000000404820 41 54 push %r12 %rsp -> %rsp 0xfffffff8(%rsp)[8byte]  
0x0000000000404822 55 push %rbp %rsp -> %rsp 0xfffffff8(%rsp)[8byte]  
0x0000000000404823 53 push %rbx %rsp -> %rsp 0xfffffff8(%rsp)[8byte]  
0x0000000000404824 48 8b 47 38 mov 0x38(%rdi)[8byte] -> %rax  
0x0000000000404828 48 85 c0 test %rax %rax  
0x000000000040482b 0f 84 af 00 00 00 jz $0x00000000004048e0  
Actual: 4048e0 
Block 1412: 
0x00000000004048e0 48 83 7f 40 00 cmp 0x40(%rdi)[8byte] $0x0000000000000000  
0x00000000004048e5 48 c7 47 38 f0 3e 40 mov $0x0000000000403ef0 -> 0x38(%rdi)[8byte]  
0x00000000004048ed b8 f0 3e 40 00 mov $0x00403ef0 -> %eax  
0x00000000004048f2 0f 85 44 ff ff ff jnz $0x000000000040483c  
Actual: 4048f8 
Block 1414: 
0x0000000000404854 48 85 c0 test %rax %rax  
0x0000000000404857 0f 84 b2 00 00 00 jz $0x000000000040490f  
Actual: 40485d 
Block 1416: 
0x0000000000405e0b 85 c0 test %eax %eax  
0x0000000000405e0d 75 3f jnz $0x0000000000405e4e  
Actual: 405e0f 
Block 1418: 
0x0000000000403ad1 48 85 c0 test %rax %rax  
0x0000000000403ad4 48 89 c3 mov %rax -> %rbx  
0x0000000000403ad7 0f 84 04 01 00 00 jz $0x0000000000403be1  
Actual: 403add 
Block 1419: 
0x0000000000403add 8b 4c 24 0c mov 0x0c(%rsp)[4byte] -> %ecx  
0x0000000000403ae1 85 c9 test %ecx %ecx  
0x0000000000403ae3 0f 85 f8 00 00 00 jnz $0x0000000000403be1  
Actual: 403ae9 
Block 1420: 
0x0000000000403ae9 41 83 c5 01 add $0x00000001 %r13d -> %r13d  
0x0000000000403aed 0f 1f 00 nop (%rax)[4byte]  
0x0000000000403af0 85 c9 test %ecx %ecx  
0x0000000000403af2 75 4c jnz $0x0000000000403b40  
Actual: 403af4 
Block 1421: 
0x0000000000403af4 48 8d 54 24 20 lea 0x20(%rsp) -> %rdx  
0x0000000000403af9 48 8d 7c 24 0c lea 0x0c(%rsp) -> %rdi  
0x0000000000403afe b9 88 13 00 00 mov $0x00001388 -> %ecx  
0x0000000000403b03 48 89 de mov %rbx -> %rsi  
0x0000000000403b06 e8 95 25 00 00 call $0x00000000004060a0 %rsp -> %rsp 0xfffffff8(%rsp)[8byte]  
0x00000000004060a0 48 85 ff test %rdi %rdi  
0x00000000004060a3 74 06 jz $0x00000000004060ab  
Actual: 4060a5 
Block 1422: 
0x00000000004060a5 c7 07 00 00 00 00 mov $0x00000000 -> (%rdi)[4byte]  
0x00000000004060ab 48 85 f6 test %rsi %rsi  
0x00000000004060ae 74 60 jz $0x0000000000406110  
Actual: 4060b0 
Block 1423: 
0x00000000004060b0 48 85 d2 test %rdx %rdx  
0x00000000004060b3 c7 86 e8 13 00 00 00 mov $0x00000000 -> 0x000013e8(%rsi)[4byte]  
00 00 00 
0x00000000004060bd 74 71 jz $0x0000000000406130  
Actual: 4060bf 
Block 1424: 
0x00000000004060bf 89 c8 mov %ecx -> %eax  
0x00000000004060c1 c1 e8 1f shr $0x0000001f %eax -> %eax  
0x00000000004060c4 84 c0 test %al %al  
0x00000000004060c6 75 68 jnz $0x0000000000406130  
Actual: 4060c8 
Block 1425: 
0x00000000004060c8 80 be 90 13 00 00 00 cmp 0x00001390(%rsi)[1byte] $0x00  
0x00000000004060cf 75 1f jnz $0x00000000004060f0  
Actual: 4060d1 
Block 1426: 
0x00000000004060d1 85 c9 test %ecx %ecx  
0x00000000004060d3 75 73 jnz $0x0000000000406148  
Actual: 406148 
Block 1427: 
0x0000000000406148 41 57 push %r15 %rsp -> %rsp 0xfffffff8(%rsp)[8byte]  
0x000000000040614a 41 56 push %r14 %rsp -> %rsp 0xfffffff8(%rsp)[8byte]  
0x000000000040614c 4c 8d 76 04 lea 0x04(%rsi) -> %r14  
0x0000000000406150 41 55 push %r13 %rsp -> %rsp 0xfffffff8(%rsp)[8byte]  
0x0000000000406152 41 54 push %r12 %rsp -> %rsp 0xfffffff8(%rsp)[8byte]  
0x0000000000406154 4c 8d ae 98 13 00 00 lea 0x00001398(%rsi) -> %r13  
0x000000000040615b 55 push %rbp %rsp -> %rsp 0xfffffff8(%rsp)[8byte]  
0x000000000040615c 53 push %rbx %rsp -> %rsp 0xfffffff8(%rsp)[8byte]  
0x000000000040615d 48 89 f3 mov %rsi -> %rbx  
0x0000000000406160 41 89 cc mov %ecx -> %r12d  
0x0000000000406163 48 89 fd mov %rdi -> %rbp  
0x0000000000406166 48 83 ec 08 sub $0x0000000000000008 %rsp -> %rsp  
0x000000000040616a 89 8b b8 13 00 00 mov %ecx -> 0x000013b8(%rbx)[4byte]  
0x0000000000406170 48 89 96 b0 13 00 00 mov %rdx -> 0x000013b0(%rsi)[8byte]  
0x0000000000406177 eb 35 jmp $0x00000000004061ae  
0x00000000004061ae 8b b3 a0 13 00 00 mov 0x000013a0(%rbx)[4byte] -> %esi  
0x00000000004061b4 85 f6 test %esi %esi  
0x00000000004061b6 75 c8 jnz $0x0000000000406180  
Actual: 4061b8 
Block 1429: 
0x00000000004061c3 83 f8 ff cmp %eax $0xffffffff  
0x00000000004061c6 74 b8 jz $0x0000000000406180  
Actual: 4061c8 
Block 1432: 
0x00000000004061e7 4c 89 b3 98 13 00 00 mov %r14 -> 0x00001398(%rbx)[8byte]  
0x00000000004061ee 89 83 8c 13 00 00 mov %eax -> 0x0000138c(%rbx)[4byte]  
0x00000000004061f4 89 83 a0 13 00 00 mov %eax -> 0x000013a0(%rbx)[4byte]  
0x00000000004061fa eb 84 jmp $0x0000000000406180  
0x0000000000406180 4c 89 ef mov %r13 -> %rdi  
0x0000000000406183 e8 d8 e7 ff ff call $0x0000000000404960 %rsp -> %rsp 0xfffffff8(%rsp)[8byte]  
0x0000000000404960 41 57 push %r15 %rsp -> %rsp 0xfffffff8(%rsp)[8byte]  
0x0000000000404962 41 56 push %r14 %rsp -> %rsp 0xfffffff8(%rsp)[8byte]  
0x0000000000404964 41 55 push %r13 %rsp -> %rsp 0xfffffff8(%rsp)[8byte]  
0x0000000000404966 41 54 push %r12 %rsp -> %rsp 0xfffffff8(%rsp)[8byte]  
0x0000000000404968 55 push %rbp %rsp -> %rsp 0xfffffff8(%rsp)[8byte]  
0x0000000000404969 53 push %rbx %rsp -> %rsp 0xfffffff8(%rsp)[8byte]  
0x000000000040496a 48 83 ec 18 sub $0x0000000000000018 %rsp -> %rsp  
0x000000000040496e 48 85 ff test %rdi %rdi  
0x0000000000404971 0f 84 93 0d 00 00 jz $0x000000000040570a  
Actual: 404977 
Block 1433: 
0x0000000000404977 48 8b 5f 30 mov 0x30(%rdi)[8byte] -> %rbx  
0x000000000040497b 41 bc fe ff ff ff mov $0xfffffffe -> %r12d  
0x0000000000404981 48 85 db test %rbx %rbx  
0x0000000000404984 74 37 jz $0x00000000004049bd  
Actual: 404986 
Block 1434: 
0x0000000000404986 48 3b 3b cmp %rdi (%rbx)[8byte]  
0x0000000000404989 75 32 jnz $0x00000000004049bd  
Actual: 40498b 
Block 1435: 
0x000000000040498b 8b 43 08 mov 0x08(%rbx)[4byte] -> %eax  
0x000000000040498e 48 8d ab 48 04 00 00 lea 0x00000448(%rbx) -> %rbp  
0x0000000000404995 83 f8 01 cmp %eax $0x00000001  
0x0000000000404998 74 1d jz $0x00000000004049b7  
Actual: 40499a 
Block 1436: 
0x000000000040499a 66 0f 1f 44 00 00 data16 nop 0x00(%rax,%rax,1)[4byte]  
0x00000000004049a0 83 f8 02 cmp %eax $0x00000002  
0x00000000004049a3 0f 84 3f 01 00 00 jz $0x0000000000404ae8  
Actual: 4049a9 
Block 1438: 
0x0000000000404ac5 48 89 df mov %rbx -> %rdi  
0x0000000000404ac8 e8 43 42 00 00 call $0x0000000000408d10 %rsp -> %rsp 0xfffffff8(%rsp)[8byte]  
0x0000000000408d10 41 57 push %r15 %rsp -> %rsp 0xfffffff8(%rsp)[8byte]  
0x0000000000408d12 41 56 push %r14 %rsp -> %rsp 0xfffffff8(%rsp)[8byte]  
0x0000000000408d14 41 55 push %r13 %rsp -> %rsp 0xfffffff8(%rsp)[8byte]  
0x0000000000408d16 41 54 push %r12 %rsp -> %rsp 0xfffffff8(%rsp)[8byte]  
0x0000000000408d18 55 push %rbp %rsp -> %rsp 0xfffffff8(%rsp)[8byte]  
0x0000000000408d19 53 push %rbx %rsp -> %rsp 0xfffffff8(%rsp)[8byte]  
0x0000000000408d1a 48 89 fb mov %rdi -> %rbx  
0x0000000000408d1d 48 81 ec 98 00 00 00 sub $0x0000000000000098 %rsp -> %rsp  
0x0000000000408d24 8b 47 08 mov 0x08(%rdi)[4byte] -> %eax  
0x0000000000408d27 4c 8b 17 mov (%rdi)[8byte] -> %r10  
0x0000000000408d2a 83 f8 0a cmp %eax $0x0000000a  
0x0000000000408d2d 0f 84 f5 00 00 00 jz $0x0000000000408e28  
Actual: 408e28 
Block 1442: 
0x000000000040a180 41 8b 52 08 mov 0x08(%r10)[4byte] -> %edx  
0x000000000040a184 85 d2 test %edx %edx  
0x000000000040a186 0f 84 44 09 00 00 jz $0x000000000040aad0  
Actual: 40a18c 
Block 1443: 
0x000000000040a18c 49 8b 32 mov (%r10)[8byte] -> %rsi  
0x000000000040a18f 8b 43 20 mov 0x20(%rbx)[4byte] -> %eax  
0x000000000040a192 83 c1 08 add $0x00000008 %ecx -> %ecx  
0x000000000040a195 83 ea 01 sub $0x00000001 %edx -> %edx  
0x000000000040a198 0f b6 3e movzx (%rsi)[1byte] -> %edi  
0x000000000040a19b c1 e0 08 shl $0x00000008 %eax -> %eax  
0x000000000040a19e 89 4b 24 mov %ecx -> 0x24(%rbx)[4byte]  
0x000000000040a1a1 48 83 c6 01 add $0x0000000000000001 %rsi -> %rsi  
0x000000000040a1a5 09 f8 or %edi %eax -> %eax  
0x000000000040a1a7 89 43 20 mov %eax -> 0x20(%rbx)[4byte]  
0x000000000040a1aa 41 83 42 0c 01 add $0x00000001 0x0c(%r10)[4byte] -> 0x0c(%r10)[4byte]  
0x000000000040a1af 49 89 32 mov %rsi -> (%r10)[8byte]  
0x000000000040a1b2 41 89 52 08 mov %edx -> 0x08(%r10)[4byte]  
0x000000000040a1b6 0f 84 bf 0a 00 00 jz $0x000000000040ac7b  
Actual: 40a1bc 
Block 1445: 
0x000000000040a1c1 8b 53 20 mov 0x20(%rbx)[4byte] -> %edx  
0x000000000040a1c4 83 e9 08 sub $0x00000008 %ecx -> %ecx  
0x000000000040a1c7 b8 fb ff ff ff mov $0xfffffffb -> %eax  
0x000000000040a1cc 89 4b 24 mov %ecx -> 0x24(%rbx)[4byte]  
0x000000000040a1cf d3 ea shr %cl %edx -> %edx  
0x000000000040a1d1 80 fa 42 cmp %dl $0x42  
0x000000000040a1d4 0f 84 27 ff ff ff jz $0x000000000040a101  
Actual: 40a101 
Block 1447: 
0x000000000040a110 41 8b 52 08 mov 0x08(%r10)[4byte] -> %edx  
0x000000000040a114 85 d2 test %edx %edx  
0x000000000040a116 0f 84 b4 09 00 00 jz $0x000000000040aad0  
Actual: 40a11c 
Block 1448: 
0x000000000040a11c 49 8b 32 mov (%r10)[8byte] -> %rsi  
0x000000000040a11f 8b 43 20 mov 0x20(%rbx)[4byte] -> %eax  
0x000000000040a122 83 c1 08 add $0x00000008 %ecx -> %ecx  
0x000000000040a125 83 ea 01 sub $0x00000001 %edx -> %edx  
0x000000000040a128 0f b6 3e movzx (%rsi)[1byte] -> %edi  
0x000000000040a12b c1 e0 08 shl $0x00000008 %eax -> %eax  
0x000000000040a12e 89 4b 24 mov %ecx -> 0x24(%rbx)[4byte]  
0x000000000040a131 48 83 c6 01 add $0x0000000000000001 %rsi -> %rsi  
0x000000000040a135 09 f8 or %edi %eax -> %eax  
0x000000000040a137 89 43 20 mov %eax -> 0x20(%rbx)[4byte]  
0x000000000040a13a 41 83 42 0c 01 add $0x00000001 0x0c(%r10)[4byte] -> 0x0c(%r10)[4byte]  
0x000000000040a13f 49 89 32 mov %rsi -> (%r10)[8byte]  
0x000000000040a142 41 89 52 08 mov %edx -> 0x08(%r10)[4byte]  
0x000000000040a146 0f 84 b9 0a 00 00 jz $0x000000000040ac05  
Actual: 40a14c 
Block 1450: 
0x000000000040a151 8b 53 20 mov 0x20(%rbx)[4byte] -> %edx  
0x000000000040a154 83 e9 08 sub $0x00000008 %ecx -> %ecx  
0x000000000040a157 b8 fb ff ff ff mov $0xfffffffb -> %eax  
0x000000000040a15c 89 4b 24 mov %ecx -> 0x24(%rbx)[4byte]  
0x000000000040a15f d3 ea shr %cl %edx -> %edx  
0x000000000040a161 80 fa 5a cmp %dl $0x5a  
0x000000000040a164 0f 84 79 02 00 00 jz $0x000000000040a3e3  
Actual: 40a3e3 
Block 1452: 
0x000000000040a3f0 41 8b 52 08 mov 0x08(%r10)[4byte] -> %edx  
0x000000000040a3f4 85 d2 test %edx %edx  
0x000000000040a3f6 0f 84 d4 06 00 00 jz $0x000000000040aad0  
Actual: 40a3fc 
Block 1453: 
0x000000000040a3fc 49 8b 32 mov (%r10)[8byte] -> %rsi  
0x000000000040a3ff 8b 43 20 mov 0x20(%rbx)[4byte] -> %eax  
0x000000000040a402 83 c1 08 add $0x00000008 %ecx -> %ecx  
0x000000000040a405 83 ea 01 sub $0x00000001 %edx -> %edx  
0x000000000040a408 0f b6 3e movzx (%rsi)[1byte] -> %edi  
0x000000000040a40b c1 e0 08 shl $0x00000008 %eax -> %eax  
0x000000000040a40e 89 4b 24 mov %ecx -> 0x24(%rbx)[4byte]  
0x000000000040a411 48 83 c6 01 add $0x0000000000000001 %rsi -> %rsi  
0x000000000040a415 09 f8 or %edi %eax -> %eax  
0x000000000040a417 89 43 20 mov %eax -> 0x20(%rbx)[4byte]  
0x000000000040a41a 41 83 42 0c 01 add $0x00000001 0x0c(%r10)[4byte] -> 0x0c(%r10)[4byte]  
0x000000000040a41f 49 89 32 mov %rsi -> (%r10)[8byte]  
0x000000000040a422 41 89 52 08 mov %edx -> 0x08(%r10)[4byte]  
0x000000000040a426 0f 84 ab 07 00 00 jz $0x000000000040abd7  
Actual: 40a42c 
Block 1455: 
0x000000000040a431 8b 53 20 mov 0x20(%rbx)[4byte] -> %edx  
0x000000000040a434 83 e9 08 sub $0x00000008 %ecx -> %ecx  
0x000000000040a437 b8 fb ff ff ff mov $0xfffffffb -> %eax  
0x000000000040a43c 89 4b 24 mov %ecx -> 0x24(%rbx)[4byte]  
0x000000000040a43f d3 ea shr %cl %edx -> %edx  
0x000000000040a441 80 fa 68 cmp %dl $0x68  
0x000000000040a444 0f 84 97 fe ff ff jz $0x000000000040a2e1  
Actual: 40a2e1 
Block 1457: 
0x000000000040a2f0 41 8b 52 08 mov 0x08(%r10)[4byte] -> %edx  
0x000000000040a2f4 85 d2 test %edx %edx  
0x000000000040a2f6 0f 84 d4 07 00 00 jz $0x000000000040aad0  
Actual: 40a2fc 
Block 1458: 
0x000000000040a2fc 49 8b 32 mov (%r10)[8byte] -> %rsi  
0x000000000040a2ff 8b 43 20 mov 0x20(%rbx)[4byte] -> %eax  
0x000000000040a302 83 c1 08 add $0x00000008 %ecx -> %ecx  
0x000000000040a305 83 ea 01 sub $0x00000001 %edx -> %edx  
0x000000000040a308 0f b6 3e movzx (%rsi)[1byte] -> %edi  
0x000000000040a30b c1 e0 08 shl $0x00000008 %eax -> %eax  
0x000000000040a30e 89 4b 24 mov %ecx -> 0x24(%rbx)[4byte]  
0x000000000040a311 48 83 c6 01 add $0x0000000000000001 %rsi -> %rsi  
0x000000000040a315 09 f8 or %edi %eax -> %eax  
0x000000000040a317 89 43 20 mov %eax -> 0x20(%rbx)[4byte]  
0x000000000040a31a 41 83 42 0c 01 add $0x00000001 0x0c(%r10)[4byte] -> 0x0c(%r10)[4byte]  
0x000000000040a31f 49 89 32 mov %rsi -> (%r10)[8byte]  
0x000000000040a322 41 89 52 08 mov %edx -> 0x08(%r10)[4byte]  
0x000000000040a326 0f 84 98 08 00 00 jz $0x000000000040abc4  
Actual: 40a32c 
Block 1461: 
0x000000000040a34b 83 e8 30 sub $0x00000030 %eax -> %eax  
0x000000000040a34e 80 7b 2c 00 cmp 0x2c(%rbx)[1byte] $0x00  
0x000000000040a352 89 43 28 mov %eax -> 0x28(%rbx)[4byte]  
0x000000000040a355 0f 84 5f ec ff ff jz $0x0000000000408fba  
Actual: 408fba 
Block 1463: 
0x00007f61cc200aec 4c 89 f6 mov %r14 -> %rsi  
0x00007f61cc200aef 48 03 35 8a e8 33 00 add <rel> 0x00007f61cc53f380[8byte] %rsi -> %rsi  
0x00007f61cc200af6 4b 8d 54 25 00 lea 0x00(%r13,%r12,1) -> %rdx  
0x00007f61cc200afb 4c 39 c2 cmp %rdx %r8  
0x00007f61cc200afe 48 89 35 7b e8 33 00 mov %rsi -> <rel> 0x00007f61cc53f380[8byte]  
0x00007f61cc200b05 0f 85 15 01 00 00 jnz $0x00007f61cc200c20  
Actual: 7f61cc200b0b 
Block 1464: 
0x00007f61cc200b0b 84 c9 test %cl %cl  
0x00007f61cc200b0d 0f 84 0d 01 00 00 jz $0x00007f61cc200c20  
Actual: 7f61cc200b13 
Block 1466: 
0x0000000000408fdc 48 85 c0 test %rax %rax  
0x0000000000408fdf 48 89 83 50 0c 00 00 mov %rax -> 0x00000c50(%rbx)[8byte]  
0x0000000000408fe6 44 8b 4c 24 58 mov 0x58(%rsp)[4byte] -> %r9d  
0x0000000000408feb 44 8b 5c 24 64 mov 0x64(%rsp)[4byte] -> %r11d  
0x0000000000408ff0 44 8b 44 24 68 mov 0x68(%rsp)[4byte] -> %r8d  
0x0000000000408ff5 0f 84 d2 13 00 00 jz $0x000000000040a3cd  
Actual: 408ffb 
Block 1468: 
0x0000000000409010 48 8b 03 mov (%rbx)[8byte] -> %rax  
0x0000000000409013 8b 70 08 mov 0x08(%rax)[4byte] -> %esi  
0x0000000000409016 85 f6 test %esi %esi  
0x0000000000409018 0f 84 b2 1a 00 00 jz $0x000000000040aad0  
Actual: 40901e 
Block 1469: 
0x000000000040901e 48 8b 38 mov (%rax)[8byte] -> %rdi  
0x0000000000409021 8b 53 20 mov 0x20(%rbx)[4byte] -> %edx  
0x0000000000409024 83 c1 08 add $0x00000008 %ecx -> %ecx  
0x0000000000409027 83 ee 01 sub $0x00000001 %esi -> %esi  
0x000000000040902a 44 0f b6 17 movzx (%rdi)[1byte] -> %r10d  
0x000000000040902e c1 e2 08 shl $0x00000008 %edx -> %edx  
0x0000000000409031 48 83 c7 01 add $0x0000000000000001 %rdi -> %rdi  
0x0000000000409035 89 4b 24 mov %ecx -> 0x24(%rbx)[4byte]  
0x0000000000409038 44 09 d2 or %r10d %edx -> %edx  
0x000000000040903b 89 53 20 mov %edx -> 0x20(%rbx)[4byte]  
0x000000000040903e 48 89 38 mov %rdi -> (%rax)[8byte]  
0x0000000000409041 8b 78 0c mov 0x0c(%rax)[4byte] -> %edi  
0x0000000000409044 89 70 08 mov %esi -> 0x08(%rax)[4byte]  
0x0000000000409047 8d 57 01 lea 0x01(%rdi) -> %edx  
0x000000000040904a 85 d2 test %edx %edx  
0x000000000040904c 89 50 0c mov %edx -> 0x0c(%rax)[4byte]  
0x000000000040904f 0f 84 1e 1b 00 00 jz $0x000000000040ab73  
Actual: 409055 
Block 1471: 
0x000000000040905a 8b 53 20 mov 0x20(%rbx)[4byte] -> %edx  
0x000000000040905d 83 e9 08 sub $0x00000008 %ecx -> %ecx  
0x0000000000409060 89 4b 24 mov %ecx -> 0x24(%rbx)[4byte]  
0x0000000000409063 d3 ea shr %cl %edx -> %edx  
0x0000000000409065 80 fa 17 cmp %dl $0x17  
0x0000000000409068 0f 84 f0 14 00 00 jz $0x000000000040a55e  
Actual: 40906e 
Block 1472: 
0x000000000040906e 80 fa 31 cmp %dl $0x31  
0x0000000000409071 b8 fc ff ff ff mov $0xfffffffc -> %eax  
0x0000000000409076 0f 84 c7 19 00 00 jz $0x000000000040aa43  
Actual: 40aa43 
Block 1474: 
0x000000000040aa50 48 8b 03 mov (%rbx)[8byte] -> %rax  
0x000000000040aa53 8b 70 08 mov 0x08(%rax)[4byte] -> %esi  
0x000000000040aa56 85 f6 test %esi %esi  
0x000000000040aa58 74 76 jz $0x000000000040aad0  
Actual: 40aa5a 
Block 1475: 
0x000000000040aa5a 48 8b 38 mov (%rax)[8byte] -> %rdi  
0x000000000040aa5d 8b 53 20 mov 0x20(%rbx)[4byte] -> %edx  
0x000000000040aa60 83 c1 08 add $0x00000008 %ecx -> %ecx  
0x000000000040aa63 83 ee 01 sub $0x00000001 %esi -> %esi  
0x000000000040aa66 44 0f b6 17 movzx (%rdi)[1byte] -> %r10d  
0x000000000040aa6a c1 e2 08 shl $0x00000008 %edx -> %edx  
0x000000000040aa6d 48 83 c7 01 add $0x0000000000000001 %rdi -> %rdi  
0x000000000040aa71 89 4b 24 mov %ecx -> 0x24(%rbx)[4byte]  
0x000000000040aa74 44 09 d2 or %r10d %edx -> %edx  
0x000000000040aa77 89 53 20 mov %edx -> 0x20(%rbx)[4byte]  
0x000000000040aa7a 48 89 38 mov %rdi -> (%rax)[8byte]  
0x000000000040aa7d 8b 78 0c mov 0x0c(%rax)[4byte] -> %edi  
0x000000000040aa80 89 70 08 mov %esi -> 0x08(%rax)[4byte]  
0x000000000040aa83 8d 57 01 lea 0x01(%rdi) -> %edx  
0x000000000040aa86 85 d2 test %edx %edx  
0x000000000040aa88 89 50 0c mov %edx -> 0x0c(%rax)[4byte]  
0x000000000040aa8b 0f 84 59 01 00 00 jz $0x000000000040abea  
Actual: 40aa91 
Block 1477: 
0x000000000040aa96 8b 53 20 mov 0x20(%rbx)[4byte] -> %edx  
0x000000000040aa99 83 e9 08 sub $0x00000008 %ecx -> %ecx  
0x000000000040aa9c b8 fc ff ff ff mov $0xfffffffc -> %eax  
0x000000000040aaa1 89 4b 24 mov %ecx -> 0x24(%rbx)[4byte]  
0x000000000040aaa4 d3 ea shr %cl %edx -> %edx  
0x000000000040aaa6 80 fa 41 cmp %dl $0x41  
0x000000000040aaa9 0f 84 19 ff ff ff jz $0x000000000040a9c8  
Actual: 40a9c8 
Block 1479: 
0x000000000040a9d8 48 8b 03 mov (%rbx)[8byte] -> %rax  
0x000000000040a9db 8b 70 08 mov 0x08(%rax)[4byte] -> %esi  
0x000000000040a9de 85 f6 test %esi %esi  
0x000000000040a9e0 0f 84 ea 00 00 00 jz $0x000000000040aad0  
Actual: 40a9e6 
Block 1480: 
0x000000000040a9e6 48 8b 38 mov (%rax)[8byte] -> %rdi  
0x000000000040a9e9 8b 53 20 mov 0x20(%rbx)[4byte] -> %edx  
0x000000000040a9ec 83 c1 08 add $0x00000008 %ecx -> %ecx  
0x000000000040a9ef 83 ee 01 sub $0x00000001 %esi -> %esi  
0x000000000040a9f2 44 0f b6 17 movzx (%rdi)[1byte] -> %r10d  
0x000000000040a9f6 c1 e2 08 shl $0x00000008 %edx -> %edx  
0x000000000040a9f9 48 83 c7 01 add $0x0000000000000001 %rdi -> %rdi  
0x000000000040a9fd 89 4b 24 mov %ecx -> 0x24(%rbx)[4byte]  
0x000000000040aa00 44 09 d2 or %r10d %edx -> %edx  
0x000000000040aa03 89 53 20 mov %edx -> 0x20(%rbx)[4byte]  
0x000000000040aa06 48 89 38 mov %rdi -> (%rax)[8byte]  
0x000000000040aa09 8b 78 0c mov 0x0c(%rax)[4byte] -> %edi  
0x000000000040aa0c 89 70 08 mov %esi -> 0x08(%rax)[4byte]  
0x000000000040aa0f 8d 57 01 lea 0x01(%rdi) -> %edx  
0x000000000040aa12 85 d2 test %edx %edx  
0x000000000040aa14 89 50 0c mov %edx -> 0x0c(%rax)[4byte]  
0x000000000040aa17 0f 84 b1 01 00 00 jz $0x000000000040abce  
Actual: 40aa1d 
Block 1482: 
0x000000000040aa22 8b 53 20 mov 0x20(%rbx)[4byte] -> %edx  
0x000000000040aa25 83 e9 08 sub $0x00000008 %ecx -> %ecx  
0x000000000040aa28 b8 fc ff ff ff mov $0xfffffffc -> %eax  
0x000000000040aa2d 89 4b 24 mov %ecx -> 0x24(%rbx)[4byte]  
0x000000000040aa30 d3 ea shr %cl %edx -> %edx  
0x000000000040aa32 80 fa 59 cmp %dl $0x59  
0x000000000040aa35 0f 84 b8 fd ff ff jz $0x000000000040a7f3  
Actual: 40a7f3 
Block 1484: 
0x000000000040a800 48 8b 03 mov (%rbx)[8byte] -> %rax  
0x000000000040a803 8b 70 08 mov 0x08(%rax)[4byte] -> %esi  
0x000000000040a806 85 f6 test %esi %esi  
0x000000000040a808 0f 84 c2 02 00 00 jz $0x000000000040aad0  
Actual: 40a80e 
Block 1485: 
0x000000000040a80e 48 8b 38 mov (%rax)[8byte] -> %rdi  
0x000000000040a811 8b 53 20 mov 0x20(%rbx)[4byte] -> %edx  
0x000000000040a814 83 c1 08 add $0x00000008 %ecx -> %ecx  
0x000000000040a817 83 ee 01 sub $0x00000001 %esi -> %esi  
0x000000000040a81a 44 0f b6 17 movzx (%rdi)[1byte] -> %r10d  
0x000000000040a81e c1 e2 08 shl $0x00000008 %edx -> %edx  
0x000000000040a821 48 83 c7 01 add $0x0000000000000001 %rdi -> %rdi  
0x000000000040a825 89 4b 24 mov %ecx -> 0x24(%rbx)[4byte]  
0x000000000040a828 44 09 d2 or %r10d %edx -> %edx  
0x000000000040a82b 89 53 20 mov %edx -> 0x20(%rbx)[4byte]  
0x000000000040a82e 48 89 38 mov %rdi -> (%rax)[8byte]  
0x000000000040a831 8b 78 0c mov 0x0c(%rax)[4byte] -> %edi  
0x000000000040a834 89 70 08 mov %esi -> 0x08(%rax)[4byte]  
0x000000000040a837 8d 57 01 lea 0x01(%rdi) -> %edx  
0x000000000040a83a 85 d2 test %edx %edx  
0x000000000040a83c 89 50 0c mov %edx -> 0x0c(%rax)[4byte]  
0x000000000040a83f 0f 84 6d 03 00 00 jz $0x000000000040abb2  
Actual: 40a845 
Block 1487: 
0x000000000040a84a 8b 53 20 mov 0x20(%rbx)[4byte] -> %edx  
0x000000000040a84d 83 e9 08 sub $0x00000008 %ecx -> %ecx  
0x000000000040a850 b8 fc ff ff ff mov $0xfffffffc -> %eax  
0x000000000040a855 89 4b 24 mov %ecx -> 0x24(%rbx)[4byte]  
0x000000000040a858 d3 ea shr %cl %edx -> %edx  
0x000000000040a85a 80 fa 26 cmp %dl $0x26  
0x000000000040a85d 0f 84 10 ff ff ff jz $0x000000000040a773  
Actual: 40a773 
Block 1489: 
0x000000000040a780 48 8b 03 mov (%rbx)[8byte] -> %rax  
0x000000000040a783 8b 70 08 mov 0x08(%rax)[4byte] -> %esi  
0x000000000040a786 85 f6 test %esi %esi  
0x000000000040a788 0f 84 42 03 00 00 jz $0x000000000040aad0  
Actual: 40a78e 
Block 1490: 
0x000000000040a78e 48 8b 38 mov (%rax)[8byte] -> %rdi  
0x000000000040a791 8b 53 20 mov 0x20(%rbx)[4byte] -> %edx  
0x000000000040a794 83 c1 08 add $0x00000008 %ecx -> %ecx  
0x000000000040a797 83 ee 01 sub $0x00000001 %esi -> %esi  
0x000000000040a79a 44 0f b6 17 movzx (%rdi)[1byte] -> %r10d  
0x000000000040a79e c1 e2 08 shl $0x00000008 %edx -> %edx  
0x000000000040a7a1 48 83 c7 01 add $0x0000000000000001 %rdi -> %rdi  
0x000000000040a7a5 89 4b 24 mov %ecx -> 0x24(%rbx)[4byte]  
0x000000000040a7a8 44 09 d2 or %r10d %edx -> %edx  
0x000000000040a7ab 89 53 20 mov %edx -> 0x20(%rbx)[4byte]  
0x000000000040a7ae 48 89 38 mov %rdi -> (%rax)[8byte]  
0x000000000040a7b1 8b 78 0c mov 0x0c(%rax)[4byte] -> %edi  
0x000000000040a7b4 89 70 08 mov %esi -> 0x08(%rax)[4byte]  
0x000000000040a7b7 8d 57 01 lea 0x01(%rdi) -> %edx  
0x000000000040a7ba 85 d2 test %edx %edx  
0x000000000040a7bc 89 50 0c mov %edx -> 0x0c(%rax)[4byte]  
0x000000000040a7bf 0f 84 e4 03 00 00 jz $0x000000000040aba9  
Actual: 40a7c5 
Block 1492: 
0x000000000040a7ca 8b 53 20 mov 0x20(%rbx)[4byte] -> %edx  
0x000000000040a7cd 83 e9 08 sub $0x00000008 %ecx -> %ecx  
0x000000000040a7d0 b8 fc ff ff ff mov $0xfffffffc -> %eax  
0x000000000040a7d5 89 4b 24 mov %ecx -> 0x24(%rbx)[4byte]  
0x000000000040a7d8 d3 ea shr %cl %edx -> %edx  
0x000000000040a7da 80 fa 53 cmp %dl $0x53  
0x000000000040a7dd 0f 84 1e 01 00 00 jz $0x000000000040a901  
Actual: 40a901 
Block 1494: 
0x000000000040a910 48 8b 03 mov (%rbx)[8byte] -> %rax  
0x000000000040a913 8b 70 08 mov 0x08(%rax)[4byte] -> %esi  
0x000000000040a916 85 f6 test %esi %esi  
0x000000000040a918 0f 84 b2 01 00 00 jz $0x000000000040aad0  
Actual: 40a91e 
Block 1495: 
0x000000000040a91e 48 8b 38 mov (%rax)[8byte] -> %rdi  
0x000000000040a921 8b 53 20 mov 0x20(%rbx)[4byte] -> %edx  
0x000000000040a924 83 ee 01 sub $0x00000001 %esi -> %esi  
0x000000000040a927 83 c1 08 add $0x00000008 %ecx -> %ecx  
0x000000000040a92a 44 0f b6 17 movzx (%rdi)[1byte] -> %r10d  
0x000000000040a92e c1 e2 08 shl $0x00000008 %edx -> %edx  
0x000000000040a931 89 4b 24 mov %ecx -> 0x24(%rbx)[4byte]  
0x000000000040a934 48 83 c7 01 add $0x0000000000000001 %rdi -> %rdi  
0x000000000040a938 44 09 d2 or %r10d %edx -> %edx  
0x000000000040a93b 89 53 20 mov %edx -> 0x20(%rbx)[4byte]  
0x000000000040a93e 89 70 08 mov %esi -> 0x08(%rax)[4byte]  
0x000000000040a941 8b 70 0c mov 0x0c(%rax)[4byte] -> %esi  
0x000000000040a944 48 89 38 mov %rdi -> (%rax)[8byte]  
0x000000000040a947 8d 56 01 lea 0x01(%rsi) -> %edx  
0x000000000040a94a 85 d2 test %edx %edx  
0x000000000040a94c 89 50 0c mov %edx -> 0x0c(%rax)[4byte]  
0x000000000040a94f 0f 84 39 02 00 00 jz $0x000000000040ab8e  
Actual: 40a955 
Block 1497: 
0x000000000040a95a 8b 53 20 mov 0x20(%rbx)[4byte] -> %edx  
0x000000000040a95d 83 e9 08 sub $0x00000008 %ecx -> %ecx  
0x000000000040a960 b8 fc ff ff ff mov $0xfffffffc -> %eax  
0x000000000040a965 89 4b 24 mov %ecx -> 0x24(%rbx)[4byte]  
0x000000000040a968 d3 ea shr %cl %edx -> %edx  
0x000000000040a96a 80 fa 59 cmp %dl $0x59  
0x000000000040a96d 0f 85 22 f6 ff ff jnz $0x0000000000409f95  
Actual: 40a973 
Block 1500: 
0x000000000040a890 48 8b 03 mov (%rbx)[8byte] -> %rax  
0x000000000040a893 8b 70 08 mov 0x08(%rax)[4byte] -> %esi  
0x000000000040a896 85 f6 test %esi %esi  
0x000000000040a898 0f 84 32 02 00 00 jz $0x000000000040aad0  
Actual: 40a89e 
Block 1501: 
0x000000000040a89e 48 8b 38 mov (%rax)[8byte] -> %rdi  
0x000000000040a8a1 8b 53 20 mov 0x20(%rbx)[4byte] -> %edx  
0x000000000040a8a4 83 c1 08 add $0x00000008 %ecx -> %ecx  
0x000000000040a8a7 83 ee 01 sub $0x00000001 %esi -> %esi  
0x000000000040a8aa 44 0f b6 17 movzx (%rdi)[1byte] -> %r10d  
0x000000000040a8ae c1 e2 08 shl $0x00000008 %edx -> %edx  
0x000000000040a8b1 48 83 c7 01 add $0x0000000000000001 %rdi -> %rdi  
0x000000000040a8b5 89 4b 24 mov %ecx -> 0x24(%rbx)[4byte]  
0x000000000040a8b8 44 09 d2 or %r10d %edx -> %edx  
0x000000000040a8bb 89 53 20 mov %edx -> 0x20(%rbx)[4byte]  
0x000000000040a8be 48 89 38 mov %rdi -> (%rax)[8byte]  
0x000000000040a8c1 8b 78 0c mov 0x0c(%rax)[4byte] -> %edi  
0x000000000040a8c4 89 70 08 mov %esi -> 0x08(%rax)[4byte]  
0x000000000040a8c7 8d 57 01 lea 0x01(%rdi) -> %edx  
0x000000000040a8ca 85 d2 test %edx %edx  
0x000000000040a8cc 89 50 0c mov %edx -> 0x0c(%rax)[4byte]  
0x000000000040a8cf 0f 84 a7 02 00 00 jz $0x000000000040ab7c  
Actual: 40a8d5 
Block 1504: 
0x000000000040a5f0 48 8b 03 mov (%rbx)[8byte] -> %rax  
0x000000000040a5f3 8b 70 08 mov 0x08(%rax)[4byte] -> %esi  
0x000000000040a5f6 85 f6 test %esi %esi  
0x000000000040a5f8 0f 84 d2 04 00 00 jz $0x000000000040aad0  
Actual: 40a5fe 
Block 1505: 
0x000000000040a5fe 48 8b 38 mov (%rax)[8byte] -> %rdi  
0x000000000040a601 8b 53 20 mov 0x20(%rbx)[4byte] -> %edx  
0x000000000040a604 83 c1 08 add $0x00000008 %ecx -> %ecx  
0x000000000040a607 83 ee 01 sub $0x00000001 %esi -> %esi  
0x000000000040a60a 44 0f b6 17 movzx (%rdi)[1byte] -> %r10d  
0x000000000040a60e c1 e2 08 shl $0x00000008 %edx -> %edx  
0x000000000040a611 48 83 c7 01 add $0x0000000000000001 %rdi -> %rdi  
0x000000000040a615 89 4b 24 mov %ecx -> 0x24(%rbx)[4byte]  
0x000000000040a618 44 09 d2 or %r10d %edx -> %edx  
0x000000000040a61b 89 53 20 mov %edx -> 0x20(%rbx)[4byte]  
0x000000000040a61e 48 89 38 mov %rdi -> (%rax)[8byte]  
0x000000000040a621 8b 78 0c mov 0x0c(%rax)[4byte] -> %edi  
0x000000000040a624 89 70 08 mov %esi -> 0x08(%rax)[4byte]  
0x000000000040a627 8d 57 01 lea 0x01(%rdi) -> %edx  
0x000000000040a62a 85 d2 test %edx %edx  
0x000000000040a62c 89 50 0c mov %edx -> 0x0c(%rax)[4byte]  
0x000000000040a62f 0f 84 35 05 00 00 jz $0x000000000040ab6a  
Actual: 40a635 
Block 1508: 
0x00000000004095f0 48 8b 03 mov (%rbx)[8byte] -> %rax  
0x00000000004095f3 8b 70 08 mov 0x08(%rax)[4byte] -> %esi  
0x00000000004095f6 85 f6 test %esi %esi  
0x00000000004095f8 0f 84 d2 14 00 00 jz $0x000000000040aad0  
Actual: 4095fe 
Block 1509: 
0x00000000004095fe 48 8b 38 mov (%rax)[8byte] -> %rdi  
0x0000000000409601 8b 53 20 mov 0x20(%rbx)[4byte] -> %edx  
0x0000000000409604 83 c1 08 add $0x00000008 %ecx -> %ecx  
0x0000000000409607 83 ee 01 sub $0x00000001 %esi -> %esi  
0x000000000040960a 44 0f b6 17 movzx (%rdi)[1byte] -> %r10d  
0x000000000040960e c1 e2 08 shl $0x00000008 %edx -> %edx  
0x0000000000409611 48 83 c7 01 add $0x0000000000000001 %rdi -> %rdi  
0x0000000000409615 89 4b 24 mov %ecx -> 0x24(%rbx)[4byte]  
0x0000000000409618 44 09 d2 or %r10d %edx -> %edx  
0x000000000040961b 89 53 20 mov %edx -> 0x20(%rbx)[4byte]  
0x000000000040961e 48 89 38 mov %rdi -> (%rax)[8byte]  
0x0000000000409621 8b 78 0c mov 0x0c(%rax)[4byte] -> %edi  
0x0000000000409624 89 70 08 mov %esi -> 0x08(%rax)[4byte]  
0x0000000000409627 8d 57 01 lea 0x01(%rdi) -> %edx  
0x000000000040962a 85 d2 test %edx %edx  
0x000000000040962c 89 50 0c mov %edx -> 0x0c(%rax)[4byte]  
0x000000000040962f 0f 84 23 15 00 00 jz $0x000000000040ab58  
Actual: 409635 
Block 1512: 
0x0000000000409668 48 8b 03 mov (%rbx)[8byte] -> %rax  
0x000000000040966b 8b 70 08 mov 0x08(%rax)[4byte] -> %esi  
0x000000000040966e 85 f6 test %esi %esi  
0x0000000000409670 0f 84 5a 14 00 00 jz $0x000000000040aad0  
Actual: 409676 
Block 1513: 
0x0000000000409676 48 8b 38 mov (%rax)[8byte] -> %rdi  
0x0000000000409679 8b 53 20 mov 0x20(%rbx)[4byte] -> %edx  
0x000000000040967c 83 c1 08 add $0x00000008 %ecx -> %ecx  
0x000000000040967f 83 ee 01 sub $0x00000001 %esi -> %esi  
0x0000000000409682 44 0f b6 17 movzx (%rdi)[1byte] -> %r10d  
0x0000000000409686 c1 e2 08 shl $0x00000008 %edx -> %edx  
0x0000000000409689 48 83 c7 01 add $0x0000000000000001 %rdi -> %rdi  
0x000000000040968d 89 4b 24 mov %ecx -> 0x24(%rbx)[4byte]  
0x0000000000409690 44 09 d2 or %r10d %edx -> %edx  
0x0000000000409693 89 53 20 mov %edx -> 0x20(%rbx)[4byte]  
0x0000000000409696 48 89 38 mov %rdi -> (%rax)[8byte]  
0x0000000000409699 8b 78 0c mov 0x0c(%rax)[4byte] -> %edi  
0x000000000040969c 89 70 08 mov %esi -> 0x08(%rax)[4byte]  
0x000000000040969f 8d 57 01 lea 0x01(%rdi) -> %edx  
0x00000000004096a2 85 d2 test %edx %edx  
0x00000000004096a4 89 50 0c mov %edx -> 0x0c(%rax)[4byte]  
0x00000000004096a7 0f 84 6c 14 00 00 jz $0x000000000040ab19  
Actual: 4096ad 
Block 1516: 
0x00000000004096e0 48 8b 03 mov (%rbx)[8byte] -> %rax  
0x00000000004096e3 8b 70 08 mov 0x08(%rax)[4byte] -> %esi  
0x00000000004096e6 85 f6 test %esi %esi  
0x00000000004096e8 0f 84 e2 13 00 00 jz $0x000000000040aad0  
Actual: 4096ee 
Block 1517: 
0x00000000004096ee 48 8b 38 mov (%rax)[8byte] -> %rdi  
0x00000000004096f1 8b 53 20 mov 0x20(%rbx)[4byte] -> %edx  
0x00000000004096f4 83 c1 08 add $0x00000008 %ecx -> %ecx  
0x00000000004096f7 83 ee 01 sub $0x00000001 %esi -> %esi  
0x00000000004096fa 44 0f b6 17 movzx (%rdi)[1byte] -> %r10d  
0x00000000004096fe c1 e2 08 shl $0x00000008 %edx -> %edx  
0x0000000000409701 48 83 c7 01 add $0x0000000000000001 %rdi -> %rdi  
0x0000000000409705 89 4b 24 mov %ecx -> 0x24(%rbx)[4byte]  
0x0000000000409708 44 09 d2 or %r10d %edx -> %edx  
0x000000000040970b 89 53 20 mov %edx -> 0x20(%rbx)[4byte]  
0x000000000040970e 48 89 38 mov %rdi -> (%rax)[8byte]  
0x0000000000409711 8b 78 0c mov 0x0c(%rax)[4byte] -> %edi  
0x0000000000409714 89 70 08 mov %esi -> 0x08(%rax)[4byte]  
0x0000000000409717 8d 57 01 lea 0x01(%rdi) -> %edx  
0x000000000040971a 85 d2 test %edx %edx  
0x000000000040971c 89 50 0c mov %edx -> 0x0c(%rax)[4byte]  
0x000000000040971f 0f 84 fd 13 00 00 jz $0x000000000040ab22  
Actual: 409725 
Block 1520: 
0x0000000000409750 48 8b 03 mov (%rbx)[8byte] -> %rax  
0x0000000000409753 8b 70 08 mov 0x08(%rax)[4byte] -> %esi  
0x0000000000409756 85 f6 test %esi %esi  
0x0000000000409758 0f 84 72 13 00 00 jz $0x000000000040aad0  
Actual: 40975e 
Block 1521: 
0x000000000040975e 48 8b 38 mov (%rax)[8byte] -> %rdi  
0x0000000000409761 8b 53 20 mov 0x20(%rbx)[4byte] -> %edx  
0x0000000000409764 83 c1 08 add $0x00000008 %ecx -> %ecx  
0x0000000000409767 83 ee 01 sub $0x00000001 %esi -> %esi  
0x000000000040976a 44 0f b6 17 movzx (%rdi)[1byte] -> %r10d  
0x000000000040976e c1 e2 08 shl $0x00000008 %edx -> %edx  
0x0000000000409771 48 83 c7 01 add $0x0000000000000001 %rdi -> %rdi  
0x0000000000409775 89 4b 24 mov %ecx -> 0x24(%rbx)[4byte]  
0x0000000000409778 44 09 d2 or %r10d %edx -> %edx  
0x000000000040977b 89 53 20 mov %edx -> 0x20(%rbx)[4byte]  
0x000000000040977e 48 89 38 mov %rdi -> (%rax)[8byte]  
0x0000000000409781 8b 78 0c mov 0x0c(%rax)[4byte] -> %edi  
0x0000000000409784 89 70 08 mov %esi -> 0x08(%rax)[4byte]  
0x0000000000409787 8d 57 01 lea 0x01(%rdi) -> %edx  
0x000000000040978a 85 d2 test %edx %edx  
0x000000000040978c 89 50 0c mov %edx -> 0x0c(%rax)[4byte]  
0x000000000040978f 0f 84 96 13 00 00 jz $0x000000000040ab2b  
Actual: 409795 
Block 1524: 
0x00000000004097c0 48 8b 03 mov (%rbx)[8byte] -> %rax  
0x00000000004097c3 8b 70 08 mov 0x08(%rax)[4byte] -> %esi  
0x00000000004097c6 85 f6 test %esi %esi  
0x00000000004097c8 0f 84 02 13 00 00 jz $0x000000000040aad0  
Actual: 4097ce 
Block 1525: 
0x00000000004097ce 48 8b 38 mov (%rax)[8byte] -> %rdi  
0x00000000004097d1 8b 53 20 mov 0x20(%rbx)[4byte] -> %edx  
0x00000000004097d4 83 c1 08 add $0x00000008 %ecx -> %ecx  
0x00000000004097d7 83 ee 01 sub $0x00000001 %esi -> %esi  
0x00000000004097da 44 0f b6 17 movzx (%rdi)[1byte] -> %r10d  
0x00000000004097de c1 e2 08 shl $0x00000008 %edx -> %edx  
0x00000000004097e1 48 83 c7 01 add $0x0000000000000001 %rdi -> %rdi  
0x00000000004097e5 89 4b 24 mov %ecx -> 0x24(%rbx)[4byte]  
0x00000000004097e8 44 09 d2 or %r10d %edx -> %edx  
0x00000000004097eb 89 53 20 mov %edx -> 0x20(%rbx)[4byte]  
0x00000000004097ee 48 89 38 mov %rdi -> (%rax)[8byte]  
0x00000000004097f1 8b 78 0c mov 0x0c(%rax)[4byte] -> %edi  
0x00000000004097f4 89 70 08 mov %esi -> 0x08(%rax)[4byte]  
0x00000000004097f7 8d 57 01 lea 0x01(%rdi) -> %edx  
0x00000000004097fa 85 d2 test %edx %edx  
0x00000000004097fc 89 50 0c mov %edx -> 0x0c(%rax)[4byte]  
0x00000000004097ff 0f 84 2f 13 00 00 jz $0x000000000040ab34  
Actual: 409805 
Block 1528: 
0x0000000000409830 48 8b 03 mov (%rbx)[8byte] -> %rax  
0x0000000000409833 8b 70 08 mov 0x08(%rax)[4byte] -> %esi  
0x0000000000409836 85 f6 test %esi %esi  
0x0000000000409838 0f 84 92 12 00 00 jz $0x000000000040aad0  
Actual: 40983e 
Block 1529: 
0x000000000040983e 48 8b 38 mov (%rax)[8byte] -> %rdi  
0x0000000000409841 8b 53 20 mov 0x20(%rbx)[4byte] -> %edx  
0x0000000000409844 83 c1 08 add $0x00000008 %ecx -> %ecx  
0x0000000000409847 83 ee 01 sub $0x00000001 %esi -> %esi  
0x000000000040984a 44 0f b6 17 movzx (%rdi)[1byte] -> %r10d  
0x000000000040984e c1 e2 08 shl $0x00000008 %edx -> %edx  
0x0000000000409851 48 83 c7 01 add $0x0000000000000001 %rdi -> %rdi  
0x0000000000409855 89 4b 24 mov %ecx -> 0x24(%rbx)[4byte]  
0x0000000000409858 44 09 d2 or %r10d %edx -> %edx  
0x000000000040985b 89 53 20 mov %edx -> 0x20(%rbx)[4byte]  
0x000000000040985e 48 89 38 mov %rdi -> (%rax)[8byte]  
0x0000000000409861 8b 78 0c mov 0x0c(%rax)[4byte] -> %edi  
0x0000000000409864 89 70 08 mov %esi -> 0x08(%rax)[4byte]  
0x0000000000409867 8d 57 01 lea 0x01(%rdi) -> %edx  
0x000000000040986a 85 d2 test %edx %edx  
0x000000000040986c 89 50 0c mov %edx -> 0x0c(%rax)[4byte]  
0x000000000040986f 0f 84 c8 12 00 00 jz $0x000000000040ab3d  
Actual: 409875 
Block 1536: 
0x00000000004098d0 48 8b 03 mov (%rbx)[8byte] -> %rax  
0x00000000004098d3 8b 70 08 mov 0x08(%rax)[4byte] -> %esi  
0x00000000004098d6 85 f6 test %esi %esi  
0x00000000004098d8 0f 84 f2 11 00 00 jz $0x000000000040aad0  
Actual: 4098de 
Block 1537: 
0x00000000004098de 48 8b 38 mov (%rax)[8byte] -> %rdi  
0x00000000004098e1 8b 53 20 mov 0x20(%rbx)[4byte] -> %edx  
0x00000000004098e4 83 ee 01 sub $0x00000001 %esi -> %esi  
0x00000000004098e7 83 c1 08 add $0x00000008 %ecx -> %ecx  
0x00000000004098ea 44 0f b6 17 movzx (%rdi)[1byte] -> %r10d  
0x00000000004098ee c1 e2 08 shl $0x00000008 %edx -> %edx  
0x00000000004098f1 89 4b 24 mov %ecx -> 0x24(%rbx)[4byte]  
0x00000000004098f4 48 83 c7 01 add $0x0000000000000001 %rdi -> %rdi  
0x00000000004098f8 44 09 d2 or %r10d %edx -> %edx  
0x00000000004098fb 89 53 20 mov %edx -> 0x20(%rbx)[4byte]  
0x00000000004098fe 89 70 08 mov %esi -> 0x08(%rax)[4byte]  
0x0000000000409901 8b 70 0c mov 0x0c(%rax)[4byte] -> %esi  
0x0000000000409904 48 89 38 mov %rdi -> (%rax)[8byte]  
0x0000000000409907 8d 56 01 lea 0x01(%rsi) -> %edx  
0x000000000040990a 85 d2 test %edx %edx  
0x000000000040990c 89 50 0c mov %edx -> 0x0c(%rax)[4byte]  
0x000000000040990f 0f 84 e7 12 00 00 jz $0x000000000040abfc  
Actual: 409915 
Block 1539: 
0x0000000000409945 48 8d 83 7c 0c 00 00 lea 0x00000c7c(%rbx) -> %rax  
0x000000000040994c 48 8d 93 7c 0d 00 00 lea 0x00000d7c(%rbx) -> %rdx  
0x0000000000409953 0f 1f 44 00 00 nop 0x00(%rax,%rax,1)[4byte]  
0x0000000000409958 c6 00 00 mov $0x00 -> (%rax)[1byte]  
0x000000000040995b 48 83 c0 01 add $0x0000000000000001 %rax -> %rax  
0x000000000040995f 48 39 d0 cmp %rax %rdx  
0x0000000000409962 75 f4 jnz $0x0000000000409958  
Actual: 409958 
Block 1540: 
0x0000000000409958 c6 00 00 mov $0x00 -> (%rax)[1byte]  
0x000000000040995b 48 83 c0 01 add $0x0000000000000001 %rax -> %rax  
0x000000000040995f 48 39 d0 cmp %rax %rdx  
0x0000000000409962 75 f4 jnz $0x0000000000409958  
Actual: 409958 
Block 1541: 
0x0000000000409964 45 31 c9 xor %r9d %r9d -> %r9d  
0x0000000000409967 49 63 c1 movsxd %r9d -> %rax  
0x000000000040996a 80 bc 03 7c 0d 00 00 cmp 0x00000d7c(%rbx,%rax,1)[1byte] $0x00  
0x0000000000409972 0f 84 85 00 00 00 jz $0x00000000004099fd  
Actual: 409978 
Block 1543: 
0x00000000004099e1 8b 43 20 mov 0x20(%rbx)[4byte] -> %eax  
0x00000000004099e4 83 ef 01 sub $0x00000001 %edi -> %edi  
0x00000000004099e7 89 7b 24 mov %edi -> 0x24(%rbx)[4byte]  
0x00000000004099ea 0f a3 f8 bt %eax %edi  
0x00000000004099ed 0f 82 3d 13 00 00 jb $0x000000000040ad30  
Actual: 40ad30 
Block 1546: 
0x0000000000409998 48 8b 03 mov (%rbx)[8byte] -> %rax  
0x000000000040999b 8b 48 08 mov 0x08(%rax)[4byte] -> %ecx  
0x000000000040999e 85 c9 test %ecx %ecx  
0x00000000004099a0 0f 84 2a 11 00 00 jz $0x000000000040aad0  
Actual: 4099a6 
Block 1547: 
0x00000000004099a6 48 8b 30 mov (%rax)[8byte] -> %rsi  
0x00000000004099a9 8b 53 20 mov 0x20(%rbx)[4byte] -> %edx  
0x00000000004099ac 83 e9 01 sub $0x00000001 %ecx -> %ecx  
0x00000000004099af 83 c7 08 add $0x00000008 %edi -> %edi  
0x00000000004099b2 44 0f b6 16 movzx (%rsi)[1byte] -> %r10d  
0x00000000004099b6 c1 e2 08 shl $0x00000008 %edx -> %edx  
0x00000000004099b9 89 7b 24 mov %edi -> 0x24(%rbx)[4byte]  
0x00000000004099bc 48 83 c6 01 add $0x0000000000000001 %rsi -> %rsi  
0x00000000004099c0 44 09 d2 or %r10d %edx -> %edx  
0x00000000004099c3 89 53 20 mov %edx -> 0x20(%rbx)[4byte]  
0x00000000004099c6 89 48 08 mov %ecx -> 0x08(%rax)[4byte]  
0x00000000004099c9 8b 48 0c mov 0x0c(%rax)[4byte] -> %ecx  
0x00000000004099cc 48 89 30 mov %rsi -> (%rax)[8byte]  
0x00000000004099cf 8d 51 01 lea 0x01(%rcx) -> %edx  
0x00000000004099d2 85 d2 test %edx %edx  
0x00000000004099d4 89 50 0c mov %edx -> 0x0c(%rax)[4byte]  
0x00000000004099d7 0f 84 8c 12 00 00 jz $0x000000000040ac69  
Actual: 4099dd 
Block 1550: 
0x0000000000409967 49 63 c1 movsxd %r9d -> %rax  
0x000000000040996a 80 bc 03 7c 0d 00 00 cmp 0x00000d7c(%rbx,%rax,1)[1byte] $0x00  
0x0000000000409972 0f 84 85 00 00 00 jz $0x00000000004099fd  
Actual: 409978 
Block 1551: 
0x0000000000409a0b c7 83 78 0c 00 00 00 mov $0x00000000 -> 0x00000c78(%rbx)[4byte]  
00 00 00 
0x0000000000409a15 31 c0 xor %eax %eax -> %eax  
0x0000000000409a17 31 d2 xor %edx %edx -> %edx  
0x0000000000409a19 0f 1f 80 00 00 00 00 nop 0x00000000(%rax)[4byte]  
0x0000000000409a20 80 bc 03 7c 0c 00 00 cmp 0x00000c7c(%rbx,%rax,1)[1byte] $0x00  
0x0000000000409a28 74 13 jz $0x0000000000409a3d  
Actual: 409a2a 
Block 1552: 
0x0000000000409a2a 48 63 ca movsxd %edx -> %rcx  
0x0000000000409a2d 83 c2 01 add $0x00000001 %edx -> %edx  
0x0000000000409a30 88 84 0b 8c 0d 00 00 mov %al -> 0x00000d8c(%rbx,%rcx,1)[1byte]  
0x0000000000409a37 89 93 78 0c 00 00 mov %edx -> 0x00000c78(%rbx)[4byte]  
0x0000000000409a3d 48 83 c0 01 add $0x0000000000000001 %rax -> %rax  
0x0000000000409a41 48 3d 00 01 00 00 cmp %rax $0x0000000000000100  
0x0000000000409a47 75 d7 jnz $0x0000000000409a20  
Actual: 409a20 
Block 1553: 
0x0000000000409a20 80 bc 03 7c 0c 00 00 cmp 0x00000c7c(%rbx,%rax,1)[1byte] $0x00  
0x0000000000409a28 74 13 jz $0x0000000000409a3d  
Actual: 409a2a 
Block 1554: 
0x0000000000409a49 85 d2 test %edx %edx  
0x0000000000409a4b 0f 84 83 0a 00 00 jz $0x000000000040a4d4  
Actual: 409a51 
Block 1556: 
0x0000000000409ab2 44 8b 6b 20 mov 0x20(%rbx)[4byte] -> %r13d  
0x0000000000409ab6 83 e9 03 sub $0x00000003 %ecx -> %ecx  
0x0000000000409ab9 89 4b 24 mov %ecx -> 0x24(%rbx)[4byte]  
0x0000000000409abc 41 d3 ed shr %cl %r13d -> %r13d  
0x0000000000409abf 41 83 e5 07 and $0x00000007 %r13d -> %r13d  
0x0000000000409ac3 41 8d 45 fe lea 0xfffffffe(%r13) -> %eax  
0x0000000000409ac7 83 f8 04 cmp %eax $0x00000004  
0x0000000000409aca 0f 86 11 0a 00 00 jbe $0x000000000040a4e1  
Actual: 40a4e1 
Block 1558: 
0x000000000040a4f0 48 8b 03 mov (%rbx)[8byte] -> %rax  
0x000000000040a4f3 8b 70 08 mov 0x08(%rax)[4byte] -> %esi  
0x000000000040a4f6 85 f6 test %esi %esi  
0x000000000040a4f8 0f 84 d2 05 00 00 jz $0x000000000040aad0  
Actual: 40a4fe 
Block 1559: 
0x000000000040a4fe 48 8b 38 mov (%rax)[8byte] -> %rdi  
0x000000000040a501 8b 53 20 mov 0x20(%rbx)[4byte] -> %edx  
0x000000000040a504 83 ee 01 sub $0x00000001 %esi -> %esi  
0x000000000040a507 83 c1 08 add $0x00000008 %ecx -> %ecx  
0x000000000040a50a 44 0f b6 17 movzx (%rdi)[1byte] -> %r10d  
0x000000000040a50e c1 e2 08 shl $0x00000008 %edx -> %edx  
0x000000000040a511 89 4b 24 mov %ecx -> 0x24(%rbx)[4byte]  
0x000000000040a514 48 83 c7 01 add $0x0000000000000001 %rdi -> %rdi  
0x000000000040a518 44 09 d2 or %r10d %edx -> %edx  
0x000000000040a51b 89 53 20 mov %edx -> 0x20(%rbx)[4byte]  
0x000000000040a51e 89 70 08 mov %esi -> 0x08(%rax)[4byte]  
0x000000000040a521 8b 70 0c mov 0x0c(%rax)[4byte] -> %esi  
0x000000000040a524 48 89 38 mov %rdi -> (%rax)[8byte]  
0x000000000040a527 8d 56 01 lea 0x01(%rsi) -> %edx  
0x000000000040a52a 85 d2 test %edx %edx  
0x000000000040a52c 89 50 0c mov %edx -> 0x0c(%rax)[4byte]  
0x000000000040a52f 0f 84 ac 06 00 00 jz $0x000000000040abe1  
Actual: 40a535 
Block 1561: 
0x000000000040a53a 8b 43 20 mov 0x20(%rbx)[4byte] -> %eax  
0x000000000040a53d 83 e9 0f sub $0x0000000f %ecx -> %ecx  
0x000000000040a540 89 4b 24 mov %ecx -> 0x24(%rbx)[4byte]  
0x000000000040a543 d3 e8 shr %cl %eax -> %eax  
0x000000000040a545 25 ff 7f 00 00 and $0x00007fff %eax -> %eax  
0x000000000040a54a 89 44 24 0c mov %eax -> 0x0c(%rsp)[4byte]  
0x000000000040a54e 74 84 jz $0x000000000040a4d4  
Actual: 40a550 
Block 1568: 
0x000000000040a470 48 8b 03 mov (%rbx)[8byte] -> %rax  
0x000000000040a473 8b 70 08 mov 0x08(%rax)[4byte] -> %esi  
0x000000000040a476 85 f6 test %esi %esi  
0x000000000040a478 0f 84 52 06 00 00 jz $0x000000000040aad0  
Actual: 40a47e 
Block 1569: 
0x000000000040a47e 48 8b 38 mov (%rax)[8byte] -> %rdi  
0x000000000040a481 8b 53 20 mov 0x20(%rbx)[4byte] -> %edx  
0x000000000040a484 83 c1 08 add $0x00000008 %ecx -> %ecx  
0x000000000040a487 83 ee 01 sub $0x00000001 %esi -> %esi  
0x000000000040a48a 44 0f b6 17 movzx (%rdi)[1byte] -> %r10d  
0x000000000040a48e c1 e2 08 shl $0x00000008 %edx -> %edx  
0x000000000040a491 48 83 c7 01 add $0x0000000000000001 %rdi -> %rdi  
0x000000000040a495 89 4b 24 mov %ecx -> 0x24(%rbx)[4byte]  
0x000000000040a498 44 09 d2 or %r10d %edx -> %edx  
0x000000000040a49b 89 53 20 mov %edx -> 0x20(%rbx)[4byte]  
0x000000000040a49e 48 89 38 mov %rdi -> (%rax)[8byte]  
0x000000000040a4a1 8b 78 0c mov 0x0c(%rax)[4byte] -> %edi  
0x000000000040a4a4 89 70 08 mov %esi -> 0x08(%rax)[4byte]  
0x000000000040a4a7 8d 57 01 lea 0x01(%rdi) -> %edx  
0x000000000040a4aa 85 d2 test %edx %edx  
0x000000000040a4ac 89 50 0c mov %edx -> 0x0c(%rax)[4byte]  
0x000000000040a4af 0f 84 22 06 00 00 jz $0x000000000040aad7  
Actual: 40a4b5 
Block 1575: 
0x000000000040b1e8 8b 44 24 0c mov 0x0c(%rsp)[4byte] -> %eax  
0x000000000040b1ec 4c 8d 8b cc 1e 00 00 lea 0x00001ecc(%rbx) -> %r9  
0x000000000040b1f3 83 e8 01 sub $0x00000001 %eax -> %eax  
0x000000000040b1f6 4c 8d 9c 03 cd 1e 00 lea 0x00001ecd(%rbx,%rax,1) -> %r11  
0x000000000040b1fe 66 90 nop  
0x000000000040b200 41 0f b6 b1 52 46 00 movzx 0x00004652(%r9)[1byte] -> %esi  
0x000000000040b208 48 63 c6 movsxd %esi -> %rax  
0x000000000040b20b 40 84 f6 test %sil %sil  
0x000000000040b20e 89 f2 mov %esi -> %edx  
0x000000000040b210 44 0f b6 94 04 80 00 movzx 0x00000080(%rsp,%rax,1)[1byte] -> %r10d  
00 00 
0x000000000040b219 74 4b jz $0x000000000040b266  
Actual: 40b21b 
Block 1576: 
0x000000000040b21b 40 0f b6 fe movzx %sil -> %edi  
0x000000000040b21f 83 ea 01 sub $0x00000001 %edx -> %edx  
0x000000000040b222 48 8d 84 24 80 00 00 lea 0x00000080(%rsp) -> %rax  
0x000000000040b22a 48 8d 4f ff lea 0xffffffff(%rdi) -> %rcx  
0x000000000040b22e 0f b6 d2 movzx %dl -> %edx  
0x000000000040b231 83 ee 01 sub $0x00000001 %esi -> %esi  
0x000000000040b234 48 01 f8 add %rdi %rax -> %rax  
0x000000000040b237 48 63 f6 movsxd %esi -> %rsi  
0x000000000040b23a 48 29 d1 sub %rdx %rcx -> %rcx  
0x000000000040b23d 48 8d 94 24 80 00 00 lea 0x00000080(%rsp) -> %rdx  
0x000000000040b245 48 01 d1 add %rdx %rcx -> %rcx  
0x000000000040b248 0f 1f 84 00 00 00 00 nop 0x00000000(%rax,%rax,1)[4byte]  
0x000000000040b250 48 89 c2 mov %rax -> %rdx  
0x000000000040b253 48 83 e8 01 sub $0x0000000000000001 %rax -> %rax  
0x000000000040b257 48 29 fa sub %rdi %rdx -> %rdx  
0x000000000040b25a 0f b6 14 32 movzx (%rdx,%rsi,1)[1byte] -> %edx  
0x000000000040b25e 88 50 01 mov %dl -> 0x01(%rax)[1byte]  
0x000000000040b261 48 39 c1 cmp %rcx %rax  
0x000000000040b264 75 ea jnz $0x000000000040b250  
Actual: 40b250 
Block 1577: 
0x000000000040b250 48 89 c2 mov %rax -> %rdx  
0x000000000040b253 48 83 e8 01 sub $0x0000000000000001 %rax -> %rax  
0x000000000040b257 48 29 fa sub %rdi %rdx -> %rdx  
0x000000000040b25a 0f b6 14 32 movzx (%rdx,%rsi,1)[1byte] -> %edx  
0x000000000040b25e 88 50 01 mov %dl -> 0x01(%rax)[1byte]  
0x000000000040b261 48 39 c1 cmp %rcx %rax  
0x000000000040b264 75 ea jnz $0x000000000040b250  
Actual: 40b250 
Block 1578: 
0x000000000040b266 45 88 11 mov %r10l -> (%r9)[1byte]  
0x000000000040b269 49 83 c1 01 add $0x0000000000000001 %r9 -> %r9  
0x000000000040b26d 44 88 94 24 80 00 00 mov %r10l -> 0x00000080(%rsp)[1byte]  
0x000000000040b275 4d 39 d9 cmp %r9 %r11  
0x000000000040b278 75 86 jnz $0x000000000040b200  
Actual: 40b200 
Block 1579: 
0x000000000040b200 41 0f b6 b1 52 46 00 movzx 0x00004652(%r9)[1byte] -> %esi  
0x000000000040b208 48 63 c6 movsxd %esi -> %rax  
0x000000000040b20b 40 84 f6 test %sil %sil  
0x000000000040b20e 89 f2 mov %esi -> %edx  
0x000000000040b210 44 0f b6 94 04 80 00 movzx 0x00000080(%rsp,%rax,1)[1byte] -> %r10d  
00 00 
0x000000000040b219 74 4b jz $0x000000000040b266  
Actual: 40b266 
Block 1582: 
0x0000000000409ae8 48 8b 03 mov (%rbx)[8byte] -> %rax  
0x0000000000409aeb 8b 48 08 mov 0x08(%rax)[4byte] -> %ecx  
0x0000000000409aee 85 c9 test %ecx %ecx  
0x0000000000409af0 0f 84 da 0f 00 00 jz $0x000000000040aad0  
Actual: 409af6 
Block 1583: 
0x0000000000409af6 48 8b 30 mov (%rax)[8byte] -> %rsi  
0x0000000000409af9 8b 53 20 mov 0x20(%rbx)[4byte] -> %edx  
0x0000000000409afc 83 e9 01 sub $0x00000001 %ecx -> %ecx  
0x0000000000409aff 41 83 c2 08 add $0x00000008 %r10d -> %r10d  
0x0000000000409b03 0f b6 3e movzx (%rsi)[1byte] -> %edi  
0x0000000000409b06 c1 e2 08 shl $0x00000008 %edx -> %edx  
0x0000000000409b09 44 89 53 24 mov %r10d -> 0x24(%rbx)[4byte]  
0x0000000000409b0d 48 83 c6 01 add $0x0000000000000001 %rsi -> %rsi  
0x0000000000409b11 09 fa or %edi %edx -> %edx  
0x0000000000409b13 89 53 20 mov %edx -> 0x20(%rbx)[4byte]  
0x0000000000409b16 89 48 08 mov %ecx -> 0x08(%rax)[4byte]  
0x0000000000409b19 8b 48 0c mov 0x0c(%rax)[4byte] -> %ecx  
0x0000000000409b1c 48 89 30 mov %rsi -> (%rax)[8byte]  
0x0000000000409b1f 8d 51 01 lea 0x01(%rcx) -> %edx  
0x0000000000409b22 85 d2 test %edx %edx  
0x0000000000409b24 89 50 0c mov %edx -> 0x0c(%rax)[4byte]  
0x0000000000409b27 0f 84 18 11 00 00 jz $0x000000000040ac45  
Actual: 409b2d 
Block 1588: 
0x00000000004091f2 8b 53 20 mov 0x20(%rbx)[4byte] -> %edx  
0x00000000004091f5 83 e8 01 sub $0x00000001 %eax -> %eax  
0x00000000004091f8 89 43 24 mov %eax -> 0x24(%rbx)[4byte]  
0x00000000004091fb 0f a3 c2 bt %edx %eax  
0x00000000004091fe 0f 82 1e ff ff ff jb $0x0000000000409122  
Actual: 409204 
Block 1592: 
0x00000000004091b0 48 8b 13 mov (%rbx)[8byte] -> %rdx  
0x00000000004091b3 8b 72 08 mov 0x08(%rdx)[4byte] -> %esi  
0x00000000004091b6 85 f6 test %esi %esi  
0x00000000004091b8 0f 84 12 19 00 00 jz $0x000000000040aad0  
Actual: 4091be 
Block 1593: 
0x00000000004091be 48 8b 3a mov (%rdx)[8byte] -> %rdi  
0x00000000004091c1 8b 4b 20 mov 0x20(%rbx)[4byte] -> %ecx  
0x00000000004091c4 83 c0 08 add $0x00000008 %eax -> %eax  
0x00000000004091c7 83 ee 01 sub $0x00000001 %esi -> %esi  
0x00000000004091ca 44 0f b6 17 movzx (%rdi)[1byte] -> %r10d  
0x00000000004091ce c1 e1 08 shl $0x00000008 %ecx -> %ecx  
0x00000000004091d1 89 43 24 mov %eax -> 0x24(%rbx)[4byte]  
0x00000000004091d4 48 83 c7 01 add $0x0000000000000001 %rdi -> %rdi  
0x00000000004091d8 44 09 d1 or %r10d %ecx -> %ecx  
0x00000000004091db 89 4b 20 mov %ecx -> 0x20(%rbx)[4byte]  
0x00000000004091de 83 42 0c 01 add $0x00000001 0x0c(%rdx)[4byte] -> 0x0c(%rdx)[4byte]  
0x00000000004091e2 48 89 3a mov %rdi -> (%rdx)[8byte]  
0x00000000004091e5 89 72 08 mov %esi -> 0x08(%rdx)[4byte]  
0x00000000004091e8 0f 84 2a 1a 00 00 jz $0x000000000040ac18  
Actual: 4091ee 
Block 1595: 
0x0000000000409130 48 8b 13 mov (%rbx)[8byte] -> %rdx  
0x0000000000409133 8b 72 08 mov 0x08(%rdx)[4byte] -> %esi  
0x0000000000409136 85 f6 test %esi %esi  
0x0000000000409138 0f 84 92 19 00 00 jz $0x000000000040aad0  
Actual: 40913e 
Block 1596: 
0x000000000040913e 48 8b 3a mov (%rdx)[8byte] -> %rdi  
0x0000000000409141 8b 4b 20 mov 0x20(%rbx)[4byte] -> %ecx  
0x0000000000409144 83 c0 08 add $0x00000008 %eax -> %eax  
0x0000000000409147 83 ee 01 sub $0x00000001 %esi -> %esi  
0x000000000040914a 44 0f b6 17 movzx (%rdi)[1byte] -> %r10d  
0x000000000040914e c1 e1 08 shl $0x00000008 %ecx -> %ecx  
0x0000000000409151 89 43 24 mov %eax -> 0x24(%rbx)[4byte]  
0x0000000000409154 48 83 c7 01 add $0x0000000000000001 %rdi -> %rdi  
0x0000000000409158 44 09 d1 or %r10d %ecx -> %ecx  
0x000000000040915b 89 4b 20 mov %ecx -> 0x20(%rbx)[4byte]  
0x000000000040915e 83 42 0c 01 add $0x00000001 0x0c(%rdx)[4byte] -> 0x0c(%rdx)[4byte]  
0x0000000000409162 48 89 3a mov %rdi -> (%rdx)[8byte]  
0x0000000000409165 89 72 08 mov %esi -> 0x08(%rdx)[4byte]  
0x0000000000409168 0f 84 a1 1a 00 00 jz $0x000000000040ac0f  
Actual: 40916e 
Block 1601: 
0x000000000040929a 48 8b 44 24 10 mov 0x10(%rsp)[8byte] -> %rax  
0x000000000040929f 4c 89 e1 mov %r12 -> %rcx  
0x00000000004092a2 45 31 c9 xor %r9d %r9d -> %r9d  
0x00000000004092a5 41 be 20 00 00 00 mov $0x00000020 -> %r14d  
0x00000000004092ab 4a 8d 34 20 lea (%rax,%r12,1) -> %rsi  
0x00000000004092af 90 nop  
0x00000000004092b0 0f b6 01 movzx (%rcx)[1byte] -> %eax  
0x00000000004092b3 41 39 c1 cmp %r9d %eax  
0x00000000004092b6 44 0f 4c c8 cmovl %eax %r9d -> %r9d  
0x00000000004092ba 41 39 c6 cmp %r14d %eax  
0x00000000004092bd 44 0f 4f f0 cmovnle %eax %r14d -> %r14d  
0x00000000004092c1 48 83 c1 01 add $0x0000000000000001 %rcx -> %rcx  
0x00000000004092c5 48 39 f1 cmp %rcx %rsi  
0x00000000004092c8 75 e6 jnz $0x00000000004092b0  
Actual: 4092b0 
Block 1602: 
0x00000000004092b0 0f b6 01 movzx (%rcx)[1byte] -> %eax  
0x00000000004092b3 41 39 c1 cmp %r9d %eax  
0x00000000004092b6 44 0f 4c c8 cmovl %eax %r9d -> %r9d  
0x00000000004092ba 41 39 c6 cmp %r14d %eax  
0x00000000004092bd 44 0f 4f f0 cmovnle %eax %r14d -> %r14d  
0x00000000004092c1 48 83 c1 01 add $0x0000000000000001 %rcx -> %rcx  
0x00000000004092c5 48 39 f1 cmp %rcx %rsi  
0x00000000004092c8 75 e6 jnz $0x00000000004092b0  
Actual: 4092b0 
Block 1605: 
0x000000000040bac8 44 0f b6 14 01 movzx (%rcx,%rax,1)[1byte] -> %r10d  
0x000000000040bacd 45 39 da cmp %r10d %r11d  
0x000000000040bad0 75 ee jnz $0x000000000040bac0  
Actual: 40bac0 
Block 1608: 
0x000000000040bae4 41 83 c3 01 add $0x00000001 %r11d -> %r11d  
0x000000000040bae8 45 39 e3 cmp %r11d %r12d  
0x000000000040baeb 75 c3 jnz $0x000000000040bab0  
Actual: 40bab0 
Block 1610: 
0x000000000040baed 48 8d 46 5c lea 0x5c(%rsi) -> %rax  
0x000000000040baf1 48 89 f2 mov %rsi -> %rdx  
0x000000000040baf4 0f 1f 40 00 nop 0x00(%rax)[4byte]  
0x000000000040baf8 c7 02 00 00 00 00 mov $0x00000000 -> (%rdx)[4byte]  
0x000000000040bafe 48 83 c2 04 add $0x0000000000000004 %rdx -> %rdx  
0x000000000040bb02 48 39 d0 cmp %rax %rdx  
0x000000000040bb05 75 f1 jnz $0x000000000040baf8  
Actual: 40baf8 
Block 1611: 
0x000000000040baf8 c7 02 00 00 00 00 mov $0x00000000 -> (%rdx)[4byte]  
0x000000000040bafe 48 83 c2 04 add $0x0000000000000004 %rdx -> %rdx  
0x000000000040bb02 48 39 d0 cmp %rax %rdx  
0x000000000040bb05 75 f1 jnz $0x000000000040baf8  
Actual: 40baf8 
Block 1613: 
0x000000000040bb13 0f 1f 44 00 00 nop 0x00(%rax,%rax,1)[4byte]  
0x000000000040bb18 0f b6 01 movzx (%rcx)[1byte] -> %eax  
0x000000000040bb1b 48 83 c1 01 add $0x0000000000000001 %rcx -> %rcx  
0x000000000040bb1f 83 44 86 04 01 add $0x00000001 0x04(%rsi,%rax,4)[4byte] -> 0x04(%rsi,%rax,4)[4byte]  
0x000000000040bb24 49 39 ca cmp %r10 %rcx  
0x000000000040bb27 75 ef jnz $0x000000000040bb18  
Actual: 40bb18 
Block 1614: 
0x000000000040bb18 0f b6 01 movzx (%rcx)[1byte] -> %eax  
0x000000000040bb1b 48 83 c1 01 add $0x0000000000000001 %rcx -> %rcx  
0x000000000040bb1f 83 44 86 04 01 add $0x00000001 0x04(%rsi,%rax,4)[4byte] -> 0x04(%rsi,%rax,4)[4byte]  
0x000000000040bb24 49 39 ca cmp %r10 %rcx  
0x000000000040bb27 75 ef jnz $0x000000000040bb18  
Actual: 40bb18 
Block 1615: 
0x000000000040bb29 48 8d 46 04 lea 0x04(%rsi) -> %rax  
0x000000000040bb2d 0f 1f 00 nop (%rax)[4byte]  
0x000000000040bb30 8b 48 fc mov 0xfffffffc(%rax)[4byte] -> %ecx  
0x000000000040bb33 01 08 add %ecx (%rax)[4byte] -> (%rax)[4byte]  
0x000000000040bb35 48 83 c0 04 add $0x0000000000000004 %rax -> %rax  
0x000000000040bb39 48 39 c2 cmp %rdx %rax  
0x000000000040bb3c 75 f2 jnz $0x000000000040bb30  
Actual: 40bb30 
Block 1616: 
0x000000000040bb30 8b 48 fc mov 0xfffffffc(%rax)[4byte] -> %ecx  
0x000000000040bb33 01 08 add %ecx (%rax)[4byte] -> (%rax)[4byte]  
0x000000000040bb35 48 83 c0 04 add $0x0000000000000004 %rax -> %rax  
0x000000000040bb39 48 39 c2 cmp %rdx %rax  
0x000000000040bb3c 75 f2 jnz $0x000000000040bb30  
Actual: 40bb30 
Block 1617: 
0x000000000040bb3e 48 8d 57 5c lea 0x5c(%rdi) -> %rdx  
0x000000000040bb42 48 89 f8 mov %rdi -> %rax  
0x000000000040bb45 0f 1f 00 nop (%rax)[4byte]  
0x000000000040bb48 c7 00 00 00 00 00 mov $0x00000000 -> (%rax)[4byte]  
0x000000000040bb4e 48 83 c0 04 add $0x0000000000000004 %rax -> %rax  
0x000000000040bb52 48 39 c2 cmp %rdx %rax  
0x000000000040bb55 75 f1 jnz $0x000000000040bb48  
Actual: 40bb48 
Block 1618: 
0x000000000040bb48 c7 00 00 00 00 00 mov $0x00000000 -> (%rax)[4byte]  
0x000000000040bb4e 48 83 c0 04 add $0x0000000000000004 %rax -> %rax  
0x000000000040bb52 48 39 c2 cmp %rdx %rax  
0x000000000040bb55 75 f1 jnz $0x000000000040bb48  
Actual: 40bb48 
Block 1628: 
0x000000000040930e 44 8b 6c 24 18 mov 0x18(%rsp)[4byte] -> %r13d  
0x0000000000409313 44 8b 74 24 2c mov 0x2c(%rsp)[4byte] -> %r14d  
0x0000000000409318 44 8b 7c 24 54 mov 0x54(%rsp)[4byte] -> %r15d  
0x000000000040931d 8b 6c 24 58 mov 0x58(%rsp)[4byte] -> %ebp  
0x0000000000409321 44 8b 64 24 64 mov 0x64(%rsp)[4byte] -> %r12d  
0x0000000000409326 45 89 eb mov %r13d -> %r11d  
0x0000000000409329 8b 83 78 0c 00 00 mov 0x00000c78(%rbx)[4byte] -> %eax  
0x000000000040932f 48 8d 93 44 04 00 00 lea 0x00000444(%rbx) -> %rdx  
0x0000000000409336 83 c0 01 add $0x00000001 %eax -> %eax  
0x0000000000409339 89 44 24 54 mov %eax -> 0x54(%rsp)[4byte]  
0x000000000040933d 69 43 28 a0 86 01 00 imul 0x28(%rbx)[4byte] $0x000186a0 -> %eax  
0x0000000000409344 89 44 24 2c mov %eax -> 0x2c(%rsp)[4byte]  
0x0000000000409348 48 8d 43 44 lea 0x44(%rbx) -> %rax  
0x000000000040934c 0f 1f 40 00 nop 0x00(%rax)[4byte]  
0x0000000000409350 c7 00 00 00 00 00 mov $0x00000000 -> (%rax)[4byte]  
0x0000000000409356 48 83 c0 04 add $0x0000000000000004 %rax -> %rax  
0x000000000040935a 48 39 c2 cmp %rdx %rax  
0x000000000040935d 75 f1 jnz $0x0000000000409350  
Actual: 409350 
Block 1629: 
0x0000000000409350 c7 00 00 00 00 00 mov $0x00000000 -> (%rax)[4byte]  
0x0000000000409356 48 83 c0 04 add $0x0000000000000004 %rax -> %rax  
0x000000000040935a 48 39 c2 cmp %rdx %rax  
0x000000000040935d 75 f1 jnz $0x0000000000409350  
Actual: 409350 
Block 1630: 
0x000000000040935f 4c 8d 8b c8 1e 00 00 lea 0x00001ec8(%rbx) -> %r9  
0x0000000000409366 4c 8d 83 8b 1e 00 00 lea 0x00001e8b(%rbx) -> %r8  
0x000000000040936d bf ef 0f 00 00 mov $0x00000fef -> %edi  
0x0000000000409372 be ff 0f 00 00 mov $0x00000fff -> %esi  
0x0000000000409377 66 0f 1f 84 00 00 00 data16 nop 0x00000000(%rax,%rax,1)[4byte]  
00 00 
0x0000000000409380 89 f0 mov %esi -> %eax  
0x0000000000409382 89 f9 mov %edi -> %ecx  
0x0000000000409384 4c 89 c2 mov %r8 -> %rdx  
0x0000000000409387 66 0f 1f 84 00 00 00 data16 nop 0x00000000(%rax,%rax,1)[4byte]  
00 00 
0x0000000000409390 88 02 mov %al -> (%rdx)[1byte]  
0x0000000000409392 83 e8 01 sub $0x00000001 %eax -> %eax  
0x0000000000409395 48 83 ea 01 sub $0x0000000000000001 %rdx -> %rdx  
0x0000000000409399 38 c1 cmp %cl %al  
0x000000000040939b 75 f3 jnz $0x0000000000409390  
Actual: 409390 
Block 1631: 
0x0000000000409390 88 02 mov %al -> (%rdx)[1byte]  
0x0000000000409392 83 e8 01 sub $0x00000001 %eax -> %eax  
0x0000000000409395 48 83 ea 01 sub $0x0000000000000001 %rdx -> %rdx  
0x0000000000409399 38 c1 cmp %cl %al  
0x000000000040939b 75 f3 jnz $0x0000000000409390  
Actual: 409390 
Block 1632: 
0x000000000040939d 83 ee 10 sub $0x00000010 %esi -> %esi  
0x00000000004093a0 83 ef 10 sub $0x00000010 %edi -> %edi  
0x00000000004093a3 49 83 e9 04 sub $0x0000000000000004 %r9 -> %r9  
0x00000000004093a7 8d 46 01 lea 0x01(%rsi) -> %eax  
0x00000000004093aa 49 83 e8 10 sub $0x0000000000000010 %r8 -> %r8  
0x00000000004093ae 41 89 41 04 mov %eax -> 0x04(%r9)[4byte]  
0x00000000004093b2 81 fe ff 0e 00 00 cmp %esi $0x00000eff  
0x00000000004093b8 75 c6 jnz $0x0000000000409380  
Actual: 409380 
Block 1633: 
0x0000000000409380 89 f0 mov %esi -> %eax  
0x0000000000409382 89 f9 mov %edi -> %ecx  
0x0000000000409384 4c 89 c2 mov %r8 -> %rdx  
0x0000000000409387 66 0f 1f 84 00 00 00 data16 nop 0x00000000(%rax,%rax,1)[4byte]  
00 00 
0x0000000000409390 88 02 mov %al -> (%rdx)[1byte]  
0x0000000000409392 83 e8 01 sub $0x00000001 %eax -> %eax  
0x0000000000409395 48 83 ea 01 sub $0x0000000000000001 %rdx -> %rdx  
0x0000000000409399 38 c1 cmp %cl %al  
0x000000000040939b 75 f3 jnz $0x0000000000409390  
Actual: 409390 
Block 1640: 
0x00000000004090d0 48 8b 03 mov (%rbx)[8byte] -> %rax  
0x00000000004090d3 8b 48 08 mov 0x08(%rax)[4byte] -> %ecx  
0x00000000004090d6 85 c9 test %ecx %ecx  
0x00000000004090d8 0f 84 f2 19 00 00 jz $0x000000000040aad0  
Actual: 4090de 
Block 1641: 
0x00000000004090de 48 8b 30 mov (%rax)[8byte] -> %rsi  
0x00000000004090e1 8b 53 20 mov 0x20(%rbx)[4byte] -> %edx  
0x00000000004090e4 83 e9 01 sub $0x00000001 %ecx -> %ecx  
0x00000000004090e7 41 83 c2 08 add $0x00000008 %r10d -> %r10d  
0x00000000004090eb 0f b6 3e movzx (%rsi)[1byte] -> %edi  
0x00000000004090ee c1 e2 08 shl $0x00000008 %edx -> %edx  
0x00000000004090f1 44 89 53 24 mov %r10d -> 0x24(%rbx)[4byte]  
0x00000000004090f5 48 83 c6 01 add $0x0000000000000001 %rsi -> %rsi  
0x00000000004090f9 09 fa or %edi %edx -> %edx  
0x00000000004090fb 89 53 20 mov %edx -> 0x20(%rbx)[4byte]  
0x00000000004090fe 89 48 08 mov %ecx -> 0x08(%rax)[4byte]  
0x0000000000409101 8b 48 0c mov 0x0c(%rax)[4byte] -> %ecx  
0x0000000000409104 48 89 30 mov %rsi -> (%rax)[8byte]  
0x0000000000409107 8d 51 01 lea 0x01(%rcx) -> %edx  
0x000000000040910a 85 d2 test %edx %edx  
0x000000000040910c 89 50 0c mov %edx -> 0x0c(%rax)[4byte]  
0x000000000040910f 0f 84 27 1b 00 00 jz $0x000000000040ac3c  
Actual: 409115 
Block 1644: 
0x0000000000409b67 48 8b 4c 24 38 mov 0x38(%rsp)[8byte] -> %rcx  
0x0000000000409b6c 8b 04 81 mov (%rcx,%rax,4)[4byte] -> %eax  
0x0000000000409b6f 89 44 24 1c mov %eax -> 0x1c(%rsp)[4byte]  
0x0000000000409b73 8b 44 24 1c mov 0x1c(%rsp)[4byte] -> %eax  
0x0000000000409b77 39 44 24 54 cmp 0x54(%rsp)[4byte] %eax  
0x0000000000409b7b 0f 84 3e 13 00 00 jz $0x000000000040aebf  
Actual: 409b81 
Block 1645: 
0x0000000000409b81 83 f8 01 cmp %eax $0x00000001  
0x0000000000409b84 0f 86 cd 01 00 00 jbe $0x0000000000409d57  
Actual: 409b8a 
Block 1649: 
0x000000000040ad84 8d 71 ff lea 0xffffffff(%rcx) -> %esi  
0x000000000040ad87 2b 4c 24 64 sub 0x64(%rsp)[4byte] %ecx -> %ecx  
0x000000000040ad8b 48 63 f6 movsxd %esi -> %rsi  
0x000000000040ad8e 48 8d 96 8b 0e 00 00 lea 0x00000e8b(%rsi) -> %rdx  
0x000000000040ad95 48 8d 84 33 8c 0e 00 lea 0x00000e8c(%rbx,%rsi,1) -> %rax  
0x000000000040ad9d 83 e9 01 sub $0x00000001 %ecx -> %ecx  
0x000000000040ada0 48 29 ca sub %rcx %rdx -> %rdx  
0x000000000040ada3 48 8d 0c 13 lea (%rbx,%rdx,1) -> %rcx  
0x000000000040ada7 66 0f 1f 84 00 00 00 data16 nop 0x00000000(%rax,%rax,1)[4byte]  
00 00 
0x000000000040adb0 44 0f b6 10 movzx (%rax)[1byte] -> %r10d  
0x000000000040adb4 48 89 c2 mov %rax -> %rdx  
0x000000000040adb7 48 83 e8 01 sub $0x0000000000000001 %rax -> %rax  
0x000000000040adbb 48 29 f2 sub %rsi %rdx -> %rdx  
0x000000000040adbe 48 39 c1 cmp %rcx %rax  
0x000000000040adc1 44 88 14 3a mov %r10l -> (%rdx,%rdi,1)[1byte]  
0x000000000040adc5 75 e9 jnz $0x000000000040adb0  
Actual: 40adb0 
Block 1650: 
0x000000000040adb0 44 0f b6 10 movzx (%rax)[1byte] -> %r10d  
0x000000000040adb4 48 89 c2 mov %rax -> %rdx  
0x000000000040adb7 48 83 e8 01 sub $0x0000000000000001 %rax -> %rax  
0x000000000040adbb 48 29 f2 sub %rsi %rdx -> %rdx  
0x000000000040adbe 48 39 c1 cmp %rcx %rax  
0x000000000040adc1 44 88 14 3a mov %r10l -> (%rdx,%rdi,1)[1byte]  
0x000000000040adc5 75 e9 jnz $0x000000000040adb0  
Actual: 40adb0 
Block 1651: 
0x000000000040adc7 8b 74 24 68 mov 0x68(%rsp)[4byte] -> %esi  
0x000000000040adcb 8b 4c 24 64 mov 0x64(%rsp)[4byte] -> %ecx  
0x000000000040adcf 48 8b 44 24 70 mov 0x70(%rsp)[8byte] -> %rax  
0x000000000040add4 48 8b 7c 24 78 mov 0x78(%rsp)[8byte] -> %rdi  
0x000000000040add9 8d 56 ff lea 0xffffffff(%rsi) -> %edx  
0x000000000040addc 83 c1 01 add $0x00000001 %ecx -> %ecx  
0x000000000040addf 89 88 8c 1e 00 00 mov %ecx -> 0x00001e8c(%rax)[4byte]  
0x000000000040ade5 48 8d 84 bb 8c 1e 00 lea 0x00001e8c(%rbx,%rdi,4) -> %rax  
0x000000000040aded 48 29 d7 sub %rdx %rdi -> %rdi  
0x000000000040adf0 48 8d bc bb 88 1e 00 lea 0x00001e88(%rbx,%rdi,4) -> %rdi  
0x000000000040adf8 8d 51 ff lea 0xffffffff(%rcx) -> %edx  
0x000000000040adfb 8b 48 fc mov 0xfffffffc(%rax)[4byte] -> %ecx  
0x000000000040adfe 48 83 e8 04 sub $0x0000000000000004 %rax -> %rax  
0x000000000040ae02 89 50 04 mov %edx -> 0x04(%rax)[4byte]  
0x000000000040ae05 48 63 d2 movsxd %edx -> %rdx  
0x000000000040ae08 48 39 c7 cmp %rdi %rax  
0x000000000040ae0b 8d 71 0f lea 0x0f(%rcx) -> %esi  
0x000000000040ae0e 48 63 f6 movsxd %esi -> %rsi  
0x000000000040ae11 0f b6 b4 33 8c 0e 00 movzx 0x00000e8c(%rbx,%rsi,1)[1byte] -> %esi  
0x000000000040ae19 40 88 b4 13 8c 0e 00 mov %sil -> 0x00000e8c(%rbx,%rdx,1)[1byte]  
0x000000000040ae21 75 d5 jnz $0x000000000040adf8  
Actual: 40adf8 
Block 1652: 
0x000000000040adf8 8d 51 ff lea 0xffffffff(%rcx) -> %edx  
0x000000000040adfb 8b 48 fc mov 0xfffffffc(%rax)[4byte] -> %ecx  
0x000000000040adfe 48 83 e8 04 sub $0x0000000000000004 %rax -> %rax  
0x000000000040ae02 89 50 04 mov %edx -> 0x04(%rax)[4byte]  
0x000000000040ae05 48 63 d2 movsxd %edx -> %rdx  
0x000000000040ae08 48 39 c7 cmp %rdi %rax  
0x000000000040ae0b 8d 71 0f lea 0x0f(%rcx) -> %esi  
0x000000000040ae0e 48 63 f6 movsxd %esi -> %rsi  
0x000000000040ae11 0f b6 b4 33 8c 0e 00 movzx 0x00000e8c(%rbx,%rsi,1)[1byte] -> %esi  
0x000000000040ae19 40 88 b4 13 8c 0e 00 mov %sil -> 0x00000e8c(%rbx,%rdx,1)[1byte]  
0x000000000040ae21 75 d5 jnz $0x000000000040adf8  
Actual: 40adf8 
Block 1653: 
0x000000000040ae23 8b 83 8c 1e 00 00 mov 0x00001e8c(%rbx)[4byte] -> %eax  
0x000000000040ae29 0f b6 4c 24 58 movzx 0x58(%rsp)[1byte] -> %ecx  
0x000000000040ae2e 83 e8 01 sub $0x00000001 %eax -> %eax  
0x000000000040ae31 48 63 d0 movsxd %eax -> %rdx  
0x000000000040ae34 85 c0 test %eax %eax  
0x000000000040ae36 89 83 8c 1e 00 00 mov %eax -> 0x00001e8c(%rbx)[4byte]  
0x000000000040ae3c 88 8c 13 8c 0e 00 00 mov %cl -> 0x00000e8c(%rbx,%rdx,1)[1byte]  
0x000000000040ae43 0f 85 3f ee ff ff jnz $0x0000000000409c88  
Actual: 409c88 
Block 1654: 
0x0000000000409c88 0f b6 44 24 58 movzx 0x58(%rsp)[1byte] -> %eax  
0x0000000000409c8d 49 63 c8 movsxd %r8d -> %rcx  
0x0000000000409c90 0f b6 94 03 8c 0d 00 movzx 0x00000d8c(%rbx,%rax,1)[1byte] -> %edx  
0x0000000000409c98 83 44 93 44 01 add $0x00000001 0x44(%rbx,%rdx,4)[4byte] -> 0x44(%rbx,%rdx,4)[4byte]  
0x0000000000409c9d 48 89 d0 mov %rdx -> %rax  
0x0000000000409ca0 80 7b 2c 00 cmp 0x2c(%rbx)[1byte] $0x00  
0x0000000000409ca4 0f 84 3e 14 00 00 jz $0x000000000040b0e8  
Actual: 40b0e8 
Block 1655: 
0x000000000040b0e8 48 8b 93 50 0c 00 00 mov 0x00000c50(%rbx)[8byte] -> %rdx  
0x000000000040b0ef 89 04 8a mov %eax -> (%rdx,%rcx,4)[4byte]  
0x000000000040b0f2 e9 be eb ff ff jmp $0x0000000000409cb5  
0x0000000000409cb5 8b 44 24 10 mov 0x10(%rsp)[4byte] -> %eax  
0x0000000000409cb9 41 83 c0 01 add $0x00000001 %r8d -> %r8d  
0x0000000000409cbd 85 c0 test %eax %eax  
0x0000000000409cbf 0f 84 69 13 00 00 jz $0x000000000040b02e  
Actual: 409cc5 
Block 1659: 
0x0000000000409d57 c7 44 24 4c 02 00 00 mov $0x00000002 -> 0x4c(%rsp)[4byte]  
0x0000000000409d5f b8 01 00 00 00 mov $0x00000001 -> %eax  
0x0000000000409d64 41 bf ff ff ff ff mov $0xffffffff -> %r15d  
0x0000000000409d6a 8b 54 24 1c mov 0x1c(%rsp)[4byte] -> %edx  
0x0000000000409d6e 85 d2 test %edx %edx  
0x0000000000409d70 0f 85 01 14 00 00 jnz $0x000000000040b177  
Actual: 409d76 
Block 1660: 
0x0000000000409d76 41 01 c7 add %eax %r15d -> %r15d  
0x0000000000409d79 8b 44 24 10 mov 0x10(%rsp)[4byte] -> %eax  
0x0000000000409d7d 85 c0 test %eax %eax  
0x0000000000409d7f 0f 84 83 13 00 00 jz $0x000000000040b108  
Actual: 409d85 
Block 1666: 
0x0000000000409590 48 8b 03 mov (%rbx)[8byte] -> %rax  
0x0000000000409593 8b 48 08 mov 0x08(%rax)[4byte] -> %ecx  
0x0000000000409596 85 c9 test %ecx %ecx  
0x0000000000409598 0f 84 32 15 00 00 jz $0x000000000040aad0  
Actual: 40959e 
Block 1667: 
0x000000000040959e 48 8b 30 mov (%rax)[8byte] -> %rsi  
0x00000000004095a1 8b 53 20 mov 0x20(%rbx)[4byte] -> %edx  
0x00000000004095a4 83 e9 01 sub $0x00000001 %ecx -> %ecx  
0x00000000004095a7 41 83 c2 08 add $0x00000008 %r10d -> %r10d  
0x00000000004095ab 0f b6 3e movzx (%rsi)[1byte] -> %edi  
0x00000000004095ae c1 e2 08 shl $0x00000008 %edx -> %edx  
0x00000000004095b1 44 89 53 24 mov %r10d -> 0x24(%rbx)[4byte]  
0x00000000004095b5 48 83 c6 01 add $0x0000000000000001 %rsi -> %rsi  
0x00000000004095b9 09 fa or %edi %edx -> %edx  
0x00000000004095bb 89 53 20 mov %edx -> 0x20(%rbx)[4byte]  
0x00000000004095be 89 48 08 mov %ecx -> 0x08(%rax)[4byte]  
0x00000000004095c1 8b 48 0c mov 0x0c(%rax)[4byte] -> %ecx  
0x00000000004095c4 48 89 30 mov %rsi -> (%rax)[8byte]  
0x00000000004095c7 8d 51 01 lea 0x01(%rcx) -> %edx  
0x00000000004095ca 85 d2 test %edx %edx  
0x00000000004095cc 89 50 0c mov %edx -> 0x0c(%rax)[4byte]  
0x00000000004095cf 0f 84 5e 16 00 00 jz $0x000000000040ac33  
Actual: 4095d5 
Block 1670: 
0x000000000040ac9e 48 8b 4c 24 38 mov 0x38(%rsp)[8byte] -> %rcx  
0x000000000040aca3 8b 04 81 mov (%rcx,%rax,4)[4byte] -> %eax  
0x000000000040aca6 83 f8 01 cmp %eax $0x00000001  
0x000000000040aca9 89 44 24 1c mov %eax -> 0x1c(%rsp)[4byte]  
0x000000000040acad 0f 86 44 04 00 00 jbe $0x000000000040b0f7  
Actual: 40acb3 
Block 1671: 
0x000000000040acb3 48 63 83 8c 1e 00 00 movsxd 0x00001e8c(%rbx)[4byte] -> %rax  
0x000000000040acba 41 83 c7 01 add $0x00000001 %r15d -> %r15d  
0x000000000040acbe 0f b6 84 03 8c 0e 00 movzx 0x00000e8c(%rbx,%rax,1)[1byte] -> %eax  
0x000000000040acc6 0f b6 84 03 8c 0d 00 movzx 0x00000d8c(%rbx,%rax,1)[1byte] -> %eax  
0x000000000040acce 44 01 7c 83 44 add %r15d 0x44(%rbx,%rax,4)[4byte] -> 0x44(%rbx,%rax,4)[4byte]  
0x000000000040acd3 48 89 c2 mov %rax -> %rdx  
0x000000000040acd6 80 7b 2c 00 cmp 0x2c(%rbx)[1byte] $0x00  
0x000000000040acda 0f 85 bd 03 00 00 jnz $0x000000000040b09d  
Actual: 40ace0 
Block 1674: 
0x000000000040acf9 48 8b 8b 50 0c 00 00 mov 0x00000c50(%rbx)[8byte] -> %rcx  
0x000000000040ad00 49 63 c0 movsxd %r8d -> %rax  
0x000000000040ad03 48 8d 04 81 lea (%rcx,%rax,4) -> %rax  
0x000000000040ad07 41 83 c0 01 add $0x00000001 %r8d -> %r8d  
0x000000000040ad0b 41 83 ef 01 sub $0x00000001 %r15d -> %r15d  
0x000000000040ad0f 89 10 mov %edx -> (%rax)[4byte]  
0x000000000040ad11 0f 84 5c ee ff ff jz $0x0000000000409b73  
Actual: 409b73 
Block 1675: 
0x0000000000409b73 8b 44 24 1c mov 0x1c(%rsp)[4byte] -> %eax  
0x0000000000409b77 39 44 24 54 cmp 0x54(%rsp)[4byte] %eax  
0x0000000000409b7b 0f 84 3e 13 00 00 jz $0x000000000040aebf  
Actual: 409b81 
Block 1676: 
0x0000000000409baa 48 63 83 8c 1e 00 00 movsxd 0x00001e8c(%rbx)[4byte] -> %rax  
0x0000000000409bb1 41 83 fa 03 cmp %r10d $0x00000003  
0x0000000000409bb5 41 8d 0c 02 lea (%r10,%rax,1) -> %ecx  
0x0000000000409bb9 0f b6 8c 0b 8c 0e 00 movzx 0x00000e8c(%rbx,%rcx,1)[1byte] -> %ecx  
0x0000000000409bc1 88 4c 24 58 mov %cl -> 0x58(%rsp)[1byte]  
0x0000000000409bc5 0f 86 86 00 00 00 jbe $0x0000000000409c51  
Actual: 409bcb 
Block 1679: 
0x0000000000409c3b 8b 4c 24 1c mov 0x1c(%rsp)[4byte] -> %ecx  
0x0000000000409c3f 44 8b 44 24 64 mov 0x64(%rsp)[4byte] -> %r8d  
0x0000000000409c44 8d 51 fb lea 0xfffffffb(%rcx) -> %edx  
0x0000000000409c47 83 e2 fc and $0xfffffffc %edx -> %edx  
0x0000000000409c4a f7 da neg %edx -> %edx  
0x0000000000409c4c 41 8d 54 12 fc lea 0xfffffffc(%r10,%rdx,1) -> %edx  
0x0000000000409c51 85 d2 test %edx %edx  
0x0000000000409c53 74 27 jz $0x0000000000409c7c  
Actual: 409c55 
Block 1680: 
0x0000000000409c55 01 c2 add %eax %edx -> %edx  
0x0000000000409c57 66 0f 1f 84 00 00 00 data16 nop 0x00000000(%rax,%rax,1)[4byte]  
00 00 
0x0000000000409c60 8d 72 ff lea 0xffffffff(%rdx) -> %esi  
0x0000000000409c63 48 89 f1 mov %rsi -> %rcx  
0x0000000000409c66 0f b6 b4 33 8c 0e 00 movzx 0x00000e8c(%rbx,%rsi,1)[1byte] -> %esi  
0x0000000000409c6e 40 88 b4 13 8c 0e 00 mov %sil -> 0x00000e8c(%rbx,%rdx,1)[1byte]  
0x0000000000409c76 89 ca mov %ecx -> %edx  
0x0000000000409c78 39 d0 cmp %eax %edx  
0x0000000000409c7a 75 e4 jnz $0x0000000000409c60  
Actual: 409c60 
Block 1681: 
0x0000000000409c60 8d 72 ff lea 0xffffffff(%rdx) -> %esi  
0x0000000000409c63 48 89 f1 mov %rsi -> %rcx  
0x0000000000409c66 0f b6 b4 33 8c 0e 00 movzx 0x00000e8c(%rbx,%rsi,1)[1byte] -> %esi  
0x0000000000409c6e 40 88 b4 13 8c 0e 00 mov %sil -> 0x00000e8c(%rbx,%rdx,1)[1byte]  
0x0000000000409c76 89 ca mov %ecx -> %edx  
0x0000000000409c78 39 d0 cmp %eax %edx  
0x0000000000409c7a 75 e4 jnz $0x0000000000409c60  
Actual: 409c60 
Block 1682: 
0x0000000000409c7c 0f b6 4c 24 58 movzx 0x58(%rsp)[1byte] -> %ecx  
0x0000000000409c81 88 8c 03 8c 0e 00 00 mov %cl -> 0x00000e8c(%rbx,%rax,1)[1byte]  
0x0000000000409c88 0f b6 44 24 58 movzx 0x58(%rsp)[1byte] -> %eax  
0x0000000000409c8d 49 63 c8 movsxd %r8d -> %rcx  
0x0000000000409c90 0f b6 94 03 8c 0d 00 movzx 0x00000d8c(%rbx,%rax,1)[1byte] -> %edx  
0x0000000000409c98 83 44 93 44 01 add $0x00000001 0x44(%rbx,%rdx,4)[4byte] -> 0x44(%rbx,%rdx,4)[4byte]  
0x0000000000409c9d 48 89 d0 mov %rdx -> %rax  
0x0000000000409ca0 80 7b 2c 00 cmp 0x2c(%rbx)[1byte] $0x00  
0x0000000000409ca4 0f 84 3e 14 00 00 jz $0x000000000040b0e8  
Actual: 40b0e8 
Block 1683: 
0x0000000000409c51 85 d2 test %edx %edx  
0x0000000000409c53 74 27 jz $0x0000000000409c7c  
Actual: 409c55 
Block 1684: 
0x000000000040b0f7 8b 4c 24 4c mov 0x4c(%rsp)[4byte] -> %ecx  
0x000000000040b0fb 89 c8 mov %ecx -> %eax  
0x000000000040b0fd 01 c9 add %ecx %ecx -> %ecx  
0x000000000040b0ff 89 4c 24 4c mov %ecx -> 0x4c(%rsp)[4byte]  
0x000000000040b103 e9 62 ec ff ff jmp $0x0000000000409d6a  
0x0000000000409d6a 8b 54 24 1c mov 0x1c(%rsp)[4byte] -> %edx  
0x0000000000409d6e 85 d2 test %edx %edx  
0x0000000000409d70 0f 85 01 14 00 00 jnz $0x000000000040b177  
Actual: 409d76 
Block 1685: 
0x000000000040ad17 48 83 c0 04 add $0x0000000000000004 %rax -> %rax  
0x000000000040ad1b 44 39 44 24 2c cmp 0x2c(%rsp)[4byte] %r8d  
0x000000000040ad20 75 e5 jnz $0x000000000040ad07  
Actual: 40ad07 
Block 1686: 
0x000000000040ad07 41 83 c0 01 add $0x00000001 %r8d -> %r8d  
0x000000000040ad0b 41 83 ef 01 sub $0x00000001 %r15d -> %r15d  
0x000000000040ad0f 89 10 mov %edx -> (%rax)[4byte]  
0x000000000040ad11 0f 84 5c ee ff ff jz $0x0000000000409b73  
Actual: 40ad17 
Block 1687: 
0x0000000000409da8 48 8b 03 mov (%rbx)[8byte] -> %rax  
0x0000000000409dab 8b 48 08 mov 0x08(%rax)[4byte] -> %ecx  
0x0000000000409dae 85 c9 test %ecx %ecx  
0x0000000000409db0 0f 84 1a 0d 00 00 jz $0x000000000040aad0  
Actual: 409db6 
Block 1688: 
0x0000000000409db6 48 8b 30 mov (%rax)[8byte] -> %rsi  
0x0000000000409db9 8b 53 20 mov 0x20(%rbx)[4byte] -> %edx  
0x0000000000409dbc 83 e9 01 sub $0x00000001 %ecx -> %ecx  
0x0000000000409dbf 41 83 c2 08 add $0x00000008 %r10d -> %r10d  
0x0000000000409dc3 0f b6 3e movzx (%rsi)[1byte] -> %edi  
0x0000000000409dc6 c1 e2 08 shl $0x00000008 %edx -> %edx  
0x0000000000409dc9 44 89 53 24 mov %r10d -> 0x24(%rbx)[4byte]  
0x0000000000409dcd 48 83 c6 01 add $0x0000000000000001 %rsi -> %rsi  
0x0000000000409dd1 09 fa or %edi %edx -> %edx  
0x0000000000409dd3 89 53 20 mov %edx -> 0x20(%rbx)[4byte]  
0x0000000000409dd6 89 48 08 mov %ecx -> 0x08(%rax)[4byte]  
0x0000000000409dd9 8b 48 0c mov 0x0c(%rax)[4byte] -> %ecx  
0x0000000000409ddc 48 89 30 mov %rsi -> (%rax)[8byte]  
0x0000000000409ddf 8d 51 01 lea 0x01(%rcx) -> %edx  
0x0000000000409de2 85 d2 test %edx %edx  
0x0000000000409de4 89 50 0c mov %edx -> 0x0c(%rax)[4byte]  
0x0000000000409de7 0f 84 85 0e 00 00 jz $0x000000000040ac72  
Actual: 409ded 
Block 1690: 
0x000000000040b177 8b 44 24 4c mov 0x4c(%rsp)[4byte] -> %eax  
0x000000000040b17b 44 01 f8 add %r15d %eax -> %eax  
0x000000000040b17e 83 7c 24 1c 01 cmp 0x1c(%rsp)[4byte] $0x00000001  
0x000000000040b183 44 0f 44 f8 cmovz %eax %r15d -> %r15d  
0x000000000040b187 e9 ed eb ff ff jmp $0x0000000000409d79  
0x0000000000409d79 8b 44 24 10 mov 0x10(%rsp)[4byte] -> %eax  
0x0000000000409d7d 85 c0 test %eax %eax  
0x0000000000409d7f 0f 84 83 13 00 00 jz $0x000000000040b108  
Actual: 409d85 
Block 1691: 
0x0000000000409ce8 48 8b 03 mov (%rbx)[8byte] -> %rax  
0x0000000000409ceb 8b 48 08 mov 0x08(%rax)[4byte] -> %ecx  
0x0000000000409cee 85 c9 test %ecx %ecx  
0x0000000000409cf0 0f 84 da 0d 00 00 jz $0x000000000040aad0  
Actual: 409cf6 
Block 1692: 
0x0000000000409cf6 48 8b 30 mov (%rax)[8byte] -> %rsi  
0x0000000000409cf9 8b 53 20 mov 0x20(%rbx)[4byte] -> %edx  
0x0000000000409cfc 83 e9 01 sub $0x00000001 %ecx -> %ecx  
0x0000000000409cff 41 83 c2 08 add $0x00000008 %r10d -> %r10d  
0x0000000000409d03 0f b6 3e movzx (%rsi)[1byte] -> %edi  
0x0000000000409d06 c1 e2 08 shl $0x00000008 %edx -> %edx  
0x0000000000409d09 44 89 53 24 mov %r10d -> 0x24(%rbx)[4byte]  
0x0000000000409d0d 48 83 c6 01 add $0x0000000000000001 %rsi -> %rsi  
0x0000000000409d11 09 fa or %edi %edx -> %edx  
0x0000000000409d13 89 53 20 mov %edx -> 0x20(%rbx)[4byte]  
0x0000000000409d16 89 48 08 mov %ecx -> 0x08(%rax)[4byte]  
0x0000000000409d19 8b 48 0c mov 0x0c(%rax)[4byte] -> %ecx  
0x0000000000409d1c 48 89 30 mov %rsi -> (%rax)[8byte]  
0x0000000000409d1f 8d 51 01 lea 0x01(%rcx) -> %edx  
0x0000000000409d22 85 d2 test %edx %edx  
0x0000000000409d24 89 50 0c mov %edx -> 0x0c(%rax)[4byte]  
0x0000000000409d27 0f 84 33 0f 00 00 jz $0x000000000040ac60  
Actual: 409d2d 
Block 1699: 
0x00000000004094f8 48 8b 03 mov (%rbx)[8byte] -> %rax  
0x00000000004094fb 8b 48 08 mov 0x08(%rax)[4byte] -> %ecx  
0x00000000004094fe 85 c9 test %ecx %ecx  
0x0000000000409500 0f 84 ca 15 00 00 jz $0x000000000040aad0  
Actual: 409506 
Block 1700: 
0x0000000000409506 48 8b 30 mov (%rax)[8byte] -> %rsi  
0x0000000000409509 8b 53 20 mov 0x20(%rbx)[4byte] -> %edx  
0x000000000040950c 83 e9 01 sub $0x00000001 %ecx -> %ecx  
0x000000000040950f 41 83 c2 08 add $0x00000008 %r10d -> %r10d  
0x0000000000409513 0f b6 3e movzx (%rsi)[1byte] -> %edi  
0x0000000000409516 c1 e2 08 shl $0x00000008 %edx -> %edx  
0x0000000000409519 44 89 53 24 mov %r10d -> 0x24(%rbx)[4byte]  
0x000000000040951d 48 83 c6 01 add $0x0000000000000001 %rsi -> %rsi  
0x0000000000409521 09 fa or %edi %edx -> %edx  
0x0000000000409523 89 53 20 mov %edx -> 0x20(%rbx)[4byte]  
0x0000000000409526 89 48 08 mov %ecx -> 0x08(%rax)[4byte]  
0x0000000000409529 8b 48 0c mov 0x0c(%rax)[4byte] -> %ecx  
0x000000000040952c 48 89 30 mov %rsi -> (%rax)[8byte]  
0x000000000040952f 8d 51 01 lea 0x01(%rcx) -> %edx  
0x0000000000409532 85 d2 test %edx %edx  
0x0000000000409534 89 50 0c mov %edx -> 0x0c(%rax)[4byte]  
0x0000000000409537 0f 84 ed 16 00 00 jz $0x000000000040ac2a  
Actual: 40953d 
Block 1704: 
0x0000000000404acd 83 f8 04 cmp %eax $0x00000004  
0x0000000000404ad0 41 89 c4 mov %eax -> %r12d  
0x0000000000404ad3 0f 84 78 08 00 00 jz $0x0000000000405351  
Actual: 404ad9 
Block 1705: 
0x0000000000404ad9 83 7b 08 02 cmp 0x08(%rbx)[4byte] $0x00000002  
0x0000000000404add 0f 85 da fe ff ff jnz $0x00000000004049bd  
Actual: 4049bd 
Block 1707: 
0x0000000000406188 a9 fb ff ff ff test %eax $0xfffffffb  
0x000000000040618d 0f 85 cd 00 00 00 jnz $0x0000000000406260  
Actual: 406193 
Block 1708: 
0x0000000000406193 85 c0 test %eax %eax  
0x0000000000406195 74 69 jz $0x0000000000406200  
Actual: 406200 
Block 1710: 
0x000000000040620b 83 f8 ff cmp %eax $0xffffffff  
0x000000000040620e 74 10 jz $0x0000000000406220  
Actual: 406210 
Block 1712: 
0x000000000040621b eb 83 jmp $0x00000000004061a0  
0x00000000004061a0 8b 93 b8 13 00 00 mov 0x000013b8(%rbx)[4byte] -> %edx  
0x00000000004061a6 85 d2 test %edx %edx  
0x00000000004061a8 0f 84 8a 00 00 00 jz $0x0000000000406238  
Actual: 4061ae 
Block 1713: 
0x00000000004061ae 8b b3 a0 13 00 00 mov 0x000013a0(%rbx)[4byte] -> %esi  
0x00000000004061b4 85 f6 test %esi %esi  
0x00000000004061b6 75 c8 jnz $0x0000000000406180  
Actual: 4061b8 
Block 1716: 
0x000000000040ae49 b8 f0 0f 00 00 mov $0x00000ff0 -> %eax  
0x000000000040ae4e 4c 8d 93 c8 1e 00 00 lea 0x00001ec8(%rbx) -> %r10  
0x000000000040ae55 44 89 44 24 68 mov %r8d -> 0x68(%rsp)[4byte]  
0x000000000040ae5a be ff 0f 00 00 mov $0x00000fff -> %esi  
0x000000000040ae5f 41 89 c0 mov %eax -> %r8d  
0x000000000040ae62 41 8b 02 mov (%r10)[4byte] -> %eax  
0x000000000040ae65 44 89 44 24 64 mov %r8d -> 0x64(%rsp)[4byte]  
0x000000000040ae6a 8d 48 0f lea 0x0f(%rax) -> %ecx  
0x000000000040ae6d 48 63 c9 movsxd %ecx -> %rcx  
0x000000000040ae70 48 8d 84 0b 8c 0e 00 lea 0x00000e8c(%rbx,%rcx,1) -> %rax  
0x000000000040ae78 48 8d bc 0b 7c 0e 00 lea 0x00000e7c(%rbx,%rcx,1) -> %rdi  
0x000000000040ae80 44 0f b6 00 movzx (%rax)[1byte] -> %r8d  
0x000000000040ae84 48 89 c2 mov %rax -> %rdx  
0x000000000040ae87 48 83 e8 01 sub $0x0000000000000001 %rax -> %rax  
0x000000000040ae8b 48 29 ca sub %rcx %rdx -> %rdx  
0x000000000040ae8e 48 39 c7 cmp %rdi %rax  
0x000000000040ae91 44 88 04 32 mov %r8l -> (%rdx,%rsi,1)[1byte]  
0x000000000040ae95 75 e9 jnz $0x000000000040ae80  
Actual: 40ae80 
Block 1717: 
0x000000000040ae80 44 0f b6 00 movzx (%rax)[1byte] -> %r8d  
0x000000000040ae84 48 89 c2 mov %rax -> %rdx  
0x000000000040ae87 48 83 e8 01 sub $0x0000000000000001 %rax -> %rax  
0x000000000040ae8b 48 29 ca sub %rcx %rdx -> %rdx  
0x000000000040ae8e 48 39 c7 cmp %rdi %rax  
0x000000000040ae91 44 88 04 32 mov %r8l -> (%rdx,%rsi,1)[1byte]  
0x000000000040ae95 75 e9 jnz $0x000000000040ae80  
Actual: 40ae80 
Block 1718: 
0x000000000040ae97 44 8b 44 24 64 mov 0x64(%rsp)[4byte] -> %r8d  
0x000000000040ae9c 49 83 ea 04 sub $0x0000000000000004 %r10 -> %r10  
0x000000000040aea0 48 83 ee 10 sub $0x0000000000000010 %rsi -> %rsi  
0x000000000040aea4 45 89 42 04 mov %r8d -> 0x04(%r10)[4byte]  
0x000000000040aea8 41 83 e8 10 sub $0x00000010 %r8d -> %r8d  
0x000000000040aeac 41 81 f8 f0 0e 00 00 cmp %r8d $0x00000ef0  
0x000000000040aeb3 75 ad jnz $0x000000000040ae62  
Actual: 40ae62 
Block 1719: 
0x000000000040ae62 41 8b 02 mov (%r10)[4byte] -> %eax  
0x000000000040ae65 44 89 44 24 64 mov %r8d -> 0x64(%rsp)[4byte]  
0x000000000040ae6a 8d 48 0f lea 0x0f(%rax) -> %ecx  
0x000000000040ae6d 48 63 c9 movsxd %ecx -> %rcx  
0x000000000040ae70 48 8d 84 0b 8c 0e 00 lea 0x00000e8c(%rbx,%rcx,1) -> %rax  
0x000000000040ae78 48 8d bc 0b 7c 0e 00 lea 0x00000e7c(%rbx,%rcx,1) -> %rdi  
0x000000000040ae80 44 0f b6 00 movzx (%rax)[1byte] -> %r8d  
0x000000000040ae84 48 89 c2 mov %rax -> %rdx  
0x000000000040ae87 48 83 e8 01 sub $0x0000000000000001 %rax -> %rax  
0x000000000040ae8b 48 29 ca sub %rcx %rdx -> %rdx  
0x000000000040ae8e 48 39 c7 cmp %rdi %rax  
0x000000000040ae91 44 88 04 32 mov %r8l -> (%rdx,%rsi,1)[1byte]  
0x000000000040ae95 75 e9 jnz $0x000000000040ae80  
Actual: 40ae80 
Block 1720: 
0x000000000040aeb5 44 8b 44 24 68 mov 0x68(%rsp)[4byte] -> %r8d  
0x000000000040aeba e9 c9 ed ff ff jmp $0x0000000000409c88  
0x0000000000409c88 0f b6 44 24 58 movzx 0x58(%rsp)[1byte] -> %eax  
0x0000000000409c8d 49 63 c8 movsxd %r8d -> %rcx  
0x0000000000409c90 0f b6 94 03 8c 0d 00 movzx 0x00000d8c(%rbx,%rax,1)[1byte] -> %edx  
0x0000000000409c98 83 44 93 44 01 add $0x00000001 0x44(%rbx,%rdx,4)[4byte] -> 0x44(%rbx,%rdx,4)[4byte]  
0x0000000000409c9d 48 89 d0 mov %rdx -> %rax  
0x0000000000409ca0 80 7b 2c 00 cmp 0x2c(%rbx)[1byte] $0x00  
0x0000000000409ca4 0f 84 3e 14 00 00 jz $0x000000000040b0e8  
Actual: 40b0e8 
Block 1725: 
0x000000000040aecb c1 e8 1f shr $0x0000001f %eax -> %eax  
0x000000000040aece 84 c0 test %al %al  
0x000000000040aed0 0f 85 fe f5 ff ff jnz $0x000000000040a4d4  
Actual: 40aed6 
Block 1726: 
0x000000000040aed6 48 8d 43 44 lea 0x44(%rbx) -> %rax  
0x000000000040aeda 48 8d 8b 44 04 00 00 lea 0x00000444(%rbx) -> %rcx  
0x000000000040aee1 c7 83 48 04 00 00 00 mov $0x00000000 -> 0x00000448(%rbx)[4byte]  
00 00 00 
0x000000000040aeeb 0f 1f 44 00 00 nop 0x00(%rax,%rax,1)[4byte]  
0x000000000040aef0 8b 10 mov (%rax)[4byte] -> %edx  
0x000000000040aef2 48 83 c0 04 add $0x0000000000000004 %rax -> %rax  
0x000000000040aef6 89 90 04 04 00 00 mov %edx -> 0x00000404(%rax)[4byte]  
0x000000000040aefc 48 39 c1 cmp %rcx %rax  
0x000000000040aeff 75 ef jnz $0x000000000040aef0  
Actual: 40aef0 
Block 1727: 
0x000000000040aef0 8b 10 mov (%rax)[4byte] -> %edx  
0x000000000040aef2 48 83 c0 04 add $0x0000000000000004 %rax -> %rax  
0x000000000040aef6 89 90 04 04 00 00 mov %edx -> 0x00000404(%rax)[4byte]  
0x000000000040aefc 48 39 c1 cmp %rcx %rax  
0x000000000040aeff 75 ef jnz $0x000000000040aef0  
Actual: 40aef0 
Block 1728: 
0x000000000040af01 4c 8d 93 4c 04 00 00 lea 0x0000044c(%rbx) -> %r10  
0x000000000040af08 48 8d 93 4c 08 00 00 lea 0x0000084c(%rbx) -> %rdx  
0x000000000040af0f 90 nop  
0x000000000040af10 41 8b 42 fc mov 0xfffffffc(%r10)[4byte] -> %eax  
0x000000000040af14 41 01 02 add %eax (%r10)[4byte] -> (%r10)[4byte]  
0x000000000040af17 49 83 c2 04 add $0x0000000000000004 %r10 -> %r10  
0x000000000040af1b 4c 39 d2 cmp %rdx %r10  
0x000000000040af1e 75 f0 jnz $0x000000000040af10  
Actual: 40af10 
Block 1729: 
0x000000000040af10 41 8b 42 fc mov 0xfffffffc(%r10)[4byte] -> %eax  
0x000000000040af14 41 01 02 add %eax (%r10)[4byte] -> (%r10)[4byte]  
0x000000000040af17 49 83 c2 04 add $0x0000000000000004 %r10 -> %r10  
0x000000000040af1b 4c 39 d2 cmp %rdx %r10  
0x000000000040af1e 75 f0 jnz $0x000000000040af10  
Actual: 40af10 
Block 1732: 
0x000000000040af3d 48 83 c0 01 add $0x0000000000000001 %rax -> %rax  
0x000000000040af41 48 3d 01 01 00 00 cmp %rax $0x0000000000000101  
0x000000000040af47 75 d9 jnz $0x000000000040af22  
Actual: 40af22 
Block 1735: 
0x000000000040afa4 80 7b 2c 00 cmp 0x2c(%rbx)[1byte] $0x00  
0x000000000040afa8 0f 84 17 03 00 00 jz $0x000000000040b2c5  
Actual: 40b2c5 
Block 1738: 
0x000000000040b2f8 48 63 43 38 movsxd 0x38(%rbx)[4byte] -> %rax  
0x000000000040b2fc 45 85 c0 test %r8d %r8d  
0x000000000040b2ff 41 b9 01 00 00 00 mov $0x00000001 -> %r9d  
0x000000000040b305 45 0f 4f c8 cmovnle %r8d %r9d -> %r9d  
0x000000000040b309 8b 04 82 mov (%rdx,%rax,4)[4byte] -> %eax  
0x000000000040b30c c7 83 44 04 00 00 00 mov $0x00000000 -> 0x00000444(%rbx)[4byte]  
00 00 00 
0x000000000040b316 c1 e8 08 shr $0x00000008 %eax -> %eax  
0x000000000040b319 80 7b 14 00 cmp 0x14(%rbx)[1byte] $0x00  
0x000000000040b31d 89 43 3c mov %eax -> 0x3c(%rbx)[4byte]  
0x000000000040b320 0f 84 41 02 00 00 jz $0x000000000040b567  
Actual: 40b567 
Block 1740: 
0x0000000000404ae3 0f 1f 44 00 00 nop 0x00(%rax,%rax,1)[4byte]  
0x0000000000404ae8 80 7b 2c 00 cmp 0x2c(%rbx)[1byte] $0x00  
0x0000000000404aec 0f 84 de fe ff ff jz $0x00000000004049d0  
Actual: 4049d0 
Block 1741: 
0x00000000004049d0 80 7b 14 00 cmp 0x14(%rbx)[1byte] $0x00  
0x00000000004049d4 0f 84 76 08 00 00 jz $0x0000000000405250  
Actual: 405250 
Block 1744: 
0x0000000000405378 0f 84 85 03 00 00 jz $0x0000000000405703  
Actual: 40537e 
Block 1745: 
0x000000000040537e 43 8b 14 8b mov (%r11,%r9,4)[4byte] -> %edx  
0x0000000000405382 44 89 d7 mov %r10d -> %edi  
0x0000000000405385 45 8d 60 01 lea 0x01(%r8) -> %r12d  
0x0000000000405389 41 89 d1 mov %edx -> %r9d  
0x000000000040538c 0f b6 d2 movzx %dl -> %edx  
0x000000000040538f 41 c1 e9 08 shr $0x00000008 %r9d -> %r9d  
0x0000000000405393 41 39 d2 cmp %r10d %edx  
0x0000000000405396 0f 84 f9 00 00 00 jz $0x0000000000405495  
Actual: 40539c 
Block 1746: 
0x000000000040539c 85 c9 test %ecx %ecx  
0x000000000040539e 0f 84 71 03 00 00 jz $0x0000000000405715  
Actual: 4053a4 
Block 1748: 
0x0000000000405495 45 39 e6 cmp %r14d %r12d  
0x0000000000405498 0f 84 fe fe ff ff jz $0x000000000040539c  
Actual: 40549e 
Block 1749: 
0x000000000040549e 47 8b 24 8b mov (%r11,%r9,4)[4byte] -> %r12d  
0x00000000004054a2 45 8d 68 02 lea 0x02(%r8) -> %r13d  
0x00000000004054a6 45 89 e1 mov %r12d -> %r9d  
0x00000000004054a9 41 c1 e9 08 shr $0x00000008 %r9d -> %r9d  
0x00000000004054ad 45 39 ee cmp %r14d %r13d  
0x00000000004054b0 0f 84 ec 01 00 00 jz $0x00000000004056a2  
Actual: 4054b6 
Block 1750: 
0x00000000004054b6 45 0f b6 e4 movzx %r12l -> %r12d  
0x00000000004054ba ba 02 00 00 00 mov $0x00000002 -> %edx  
0x00000000004054bf 45 39 e2 cmp %r10d %r12d  
0x00000000004054c2 0f 84 e7 01 00 00 jz $0x00000000004056af  
Actual: 4054c8 
Block 1752: 
0x0000000000405293 85 c9 test %ecx %ecx  
0x0000000000405295 74 41 jz $0x00000000004052d8  
Actual: 405297 
Block 1753: 
0x0000000000405297 83 fa 01 cmp %edx $0x00000001  
0x000000000040529a 44 0f b6 ef movzx %dil -> %r13d  
0x000000000040529e 75 11 jnz $0x00000000004052b1  
Actual: 4052b1 
Block 1754: 
0x00000000004052b1 41 89 c4 mov %eax -> %r12d  
0x00000000004052b4 c1 e8 18 shr $0x00000018 %eax -> %eax  
0x00000000004052b7 40 88 3e mov %dil -> (%rsi)[1byte]  
0x00000000004052ba 44 31 e8 xor %r13d %eax -> %eax  
0x00000000004052bd 41 c1 e4 08 shl $0x00000008 %r12d -> %r12d  
0x00000000004052c1 83 ea 01 sub $0x00000001 %edx -> %edx  
0x00000000004052c4 44 33 24 85 e0 f0 60 xor 0x0060f0e0(,%rax,4)[4byte] %r12d -> %r12d  
0x00000000004052cc 48 83 c6 01 add $0x0000000000000001 %rsi -> %rsi  
0x00000000004052d0 83 e9 01 sub $0x00000001 %ecx -> %ecx  
0x00000000004052d3 44 89 e0 mov %r12d -> %eax  
0x00000000004052d6 75 d0 jnz $0x00000000004052a8  
Actual: 4052a8 
Block 1755: 
0x00000000004052a8 83 fa 01 cmp %edx $0x00000001  
0x00000000004052ab 0f 84 fd 00 00 00 jz $0x00000000004053ae  
Actual: 4053ae 
Block 1757: 
0x00000000004056af 43 8b 14 8b mov (%r11,%r9,4)[4byte] -> %edx  
0x00000000004056b3 45 8d 68 03 lea 0x03(%r8) -> %r13d  
0x00000000004056b7 41 89 d1 mov %edx -> %r9d  
0x00000000004056ba 89 54 24 0c mov %edx -> 0x0c(%rsp)[4byte]  
0x00000000004056be ba 03 00 00 00 mov $0x00000003 -> %edx  
0x00000000004056c3 41 c1 e9 08 shr $0x00000008 %r9d -> %r9d  
0x00000000004056c7 45 39 ee cmp %r14d %r13d  
0x00000000004056ca 0f 84 f8 fd ff ff jz $0x00000000004054c8  
Actual: 4056d0 
Block 1758: 
0x00000000004056d0 44 0f b6 64 24 0c movzx 0x0c(%rsp)[1byte] -> %r12d  
0x00000000004056d6 45 39 e2 cmp %r10d %r12d  
0x00000000004056d9 0f 85 e9 fd ff ff jnz $0x00000000004054c8  
Actual: 4054c8 
Block 1760: 
0x0000000000405715 41 89 d2 mov %edx -> %r10d  
0x0000000000405718 45 89 e0 mov %r12d -> %r8d  
0x000000000040571b ba 01 00 00 00 mov $0x00000001 -> %edx  
0x0000000000405720 e9 b3 fb ff ff jmp $0x00000000004052d8  
0x00000000004052d8 4c 8b 23 mov (%rbx)[8byte] -> %r12  
0x00000000004052db 45 8b 6c 24 24 mov 0x24(%r12)[4byte] -> %r13d  
0x00000000004052e0 45 01 ef add %r13d %r15d -> %r15d  
0x00000000004052e3 41 29 cf sub %ecx %r15d -> %r15d  
0x00000000004052e6 45 39 fd cmp %r13d %r15d  
0x00000000004052e9 45 89 7c 24 24 mov %r15d -> 0x24(%r12)[4byte]  
0x00000000004052ee 76 06 jbe $0x00000000004052f6  
Actual: 4052f6 
Block 1761: 
0x00000000004052f6 89 83 70 0c 00 00 mov %eax -> 0x00000c70(%rbx)[4byte]  
0x00000000004052fc 40 88 7b 0c mov %dil -> 0x0c(%rbx)[1byte]  
0x0000000000405300 89 53 10 mov %edx -> 0x10(%rbx)[4byte]  
0x0000000000405303 44 89 83 44 04 00 00 mov %r8d -> 0x00000444(%rbx)[4byte]  
0x000000000040530a 44 89 53 40 mov %r10d -> 0x40(%rbx)[4byte]  
0x000000000040530e 4c 89 9b 50 0c 00 00 mov %r11 -> 0x00000c50(%rbx)[8byte]  
0x0000000000405315 44 89 4b 3c mov %r9d -> 0x3c(%rbx)[4byte]  
0x0000000000405319 49 89 74 24 18 mov %rsi -> 0x18(%r12)[8byte]  
0x000000000040531e 41 89 4c 24 20 mov %ecx -> 0x20(%r12)[4byte]  
0x0000000000405323 e9 27 f7 ff ff jmp $0x0000000000404a4f  
0x0000000000404a4f 8b 83 50 fa 00 00 mov 0x0000fa50(%rbx)[4byte] -> %eax  
0x0000000000404a55 83 c0 01 add $0x00000001 %eax -> %eax  
0x0000000000404a58 44 39 c0 cmp %eax %r8d  
0x0000000000404a5b 0f 85 72 0a 00 00 jnz $0x00000000004054d3  
Actual: 4054d3 
Block 1763: 
0x0000000000406238 48 85 ed test %rbp %rbp  
0x000000000040623b 74 07 jz $0x0000000000406244  
Actual: 40623d 
Block 1765: 
0x0000000000403b0b 8b 4c 24 0c mov 0x0c(%rsp)[4byte] -> %ecx  
0x0000000000403b0f 83 f9 fb cmp %ecx $0xfffffffb  
0x0000000000403b12 0f 84 c0 00 00 00 jz $0x0000000000403bd8  
Actual: 403b18 
Block 1766: 
0x0000000000403b18 f7 c1 fb ff ff ff test %ecx $0xfffffffb  
0x0000000000403b1e 75 d0 jnz $0x0000000000403af0  
Actual: 403b20 
Block 1769: 
0x0000000000403b38 8b 4c 24 0c mov 0x0c(%rsp)[4byte] -> %ecx  
0x0000000000403b3c 85 c9 test %ecx %ecx  
0x0000000000403b3e 74 b4 jz $0x0000000000403af4  
Actual: 403af4 
Block 1770: 
0x0000000000406180 4c 89 ef mov %r13 -> %rdi  
0x0000000000406183 e8 d8 e7 ff ff call $0x0000000000404960 %rsp -> %rsp 0xfffffff8(%rsp)[8byte]  
0x0000000000404960 41 57 push %r15 %rsp -> %rsp 0xfffffff8(%rsp)[8byte]  
0x0000000000404962 41 56 push %r14 %rsp -> %rsp 0xfffffff8(%rsp)[8byte]  
0x0000000000404964 41 55 push %r13 %rsp -> %rsp 0xfffffff8(%rsp)[8byte]  
0x0000000000404966 41 54 push %r12 %rsp -> %rsp 0xfffffff8(%rsp)[8byte]  
0x0000000000404968 55 push %rbp %rsp -> %rsp 0xfffffff8(%rsp)[8byte]  
0x0000000000404969 53 push %rbx %rsp -> %rsp 0xfffffff8(%rsp)[8byte]  
0x000000000040496a 48 83 ec 18 sub $0x0000000000000018 %rsp -> %rsp  
0x000000000040496e 48 85 ff test %rdi %rdi  
0x0000000000404971 0f 84 93 0d 00 00 jz $0x000000000040570a  
Actual: 404977 
Block 1771: 
0x0000000000404ae8 80 7b 2c 00 cmp 0x2c(%rbx)[1byte] $0x00  
0x0000000000404aec 0f 84 de fe ff ff jz $0x00000000004049d0  
Actual: 4049d0 
Block 1773: 
0x0000000000405703 31 d2 xor %edx %edx -> %edx  
0x0000000000405705 e9 ce fb ff ff jmp $0x00000000004052d8  
0x00000000004052d8 4c 8b 23 mov (%rbx)[8byte] -> %r12  
0x00000000004052db 45 8b 6c 24 24 mov 0x24(%r12)[4byte] -> %r13d  
0x00000000004052e0 45 01 ef add %r13d %r15d -> %r15d  
0x00000000004052e3 41 29 cf sub %ecx %r15d -> %r15d  
0x00000000004052e6 45 39 fd cmp %r13d %r15d  
0x00000000004052e9 45 89 7c 24 24 mov %r15d -> 0x24(%r12)[4byte]  
0x00000000004052ee 76 06 jbe $0x00000000004052f6  
Actual: 4052f6 
Block 1774: 
0x0000000000404a61 8b 43 10 mov 0x10(%rbx)[4byte] -> %eax  
0x0000000000404a64 85 c0 test %eax %eax  
0x0000000000404a66 0f 85 67 0a 00 00 jnz $0x00000000004054d3  
Actual: 404a6c 
Block 1777: 
0x0000000000404a9c 8b 93 70 0c 00 00 mov 0x00000c70(%rbx)[4byte] -> %edx  
0x0000000000404aa2 3b 93 68 0c 00 00 cmp %edx 0x00000c68(%rbx)[4byte]  
0x0000000000404aa8 0f 85 bf 08 00 00 jnz $0x000000000040536d  
Actual: 404aae 
Block 1778: 
0x0000000000404aae 8b 83 74 0c 00 00 mov 0x00000c74(%rbx)[4byte] -> %eax  
0x0000000000404ab4 c7 43 08 0e 00 00 00 mov $0x0000000e -> 0x08(%rbx)[4byte]  
0x0000000000404abb d1 c0 rol $0x00000001 %eax -> %eax  
0x0000000000404abd 31 d0 xor %edx %eax -> %eax  
0x0000000000404abf 89 83 74 0c 00 00 mov %eax -> 0x00000c74(%rbx)[4byte]  
0x0000000000404ac5 48 89 df mov %rbx -> %rdi  
0x0000000000404ac8 e8 43 42 00 00 call $0x0000000000408d10 %rsp -> %rsp 0xfffffff8(%rsp)[8byte]  
0x0000000000408d10 41 57 push %r15 %rsp -> %rsp 0xfffffff8(%rsp)[8byte]  
0x0000000000408d12 41 56 push %r14 %rsp -> %rsp 0xfffffff8(%rsp)[8byte]  
0x0000000000408d14 41 55 push %r13 %rsp -> %rsp 0xfffffff8(%rsp)[8byte]  
0x0000000000408d16 41 54 push %r12 %rsp -> %rsp 0xfffffff8(%rsp)[8byte]  
0x0000000000408d18 55 push %rbp %rsp -> %rsp 0xfffffff8(%rsp)[8byte]  
0x0000000000408d19 53 push %rbx %rsp -> %rsp 0xfffffff8(%rsp)[8byte]  
0x0000000000408d1a 48 89 fb mov %rdi -> %rbx  
0x0000000000408d1d 48 81 ec 98 00 00 00 sub $0x0000000000000098 %rsp -> %rsp  
0x0000000000408d24 8b 47 08 mov 0x08(%rdi)[4byte] -> %eax  
0x0000000000408d27 4c 8b 17 mov (%rdi)[8byte] -> %r10  
0x0000000000408d2a 83 f8 0a cmp %eax $0x0000000a  
0x0000000000408d2d 0f 84 f5 00 00 00 jz $0x0000000000408e28  
Actual: 408d33 
Block 1782: 
0x00000000004052d8 4c 8b 23 mov (%rbx)[8byte] -> %r12  
0x00000000004052db 45 8b 6c 24 24 mov 0x24(%r12)[4byte] -> %r13d  
0x00000000004052e0 45 01 ef add %r13d %r15d -> %r15d  
0x00000000004052e3 41 29 cf sub %ecx %r15d -> %r15d  
0x00000000004052e6 45 39 fd cmp %r13d %r15d  
0x00000000004052e9 45 89 7c 24 24 mov %r15d -> 0x24(%r12)[4byte]  
0x00000000004052ee 76 06 jbe $0x00000000004052f6  
Actual: 4052f6 
Block 1783: 
0x0000000000409440 48 8b 03 mov (%rbx)[8byte] -> %rax  
0x0000000000409443 8b 48 08 mov 0x08(%rax)[4byte] -> %ecx  
0x0000000000409446 85 c9 test %ecx %ecx  
0x0000000000409448 0f 84 82 16 00 00 jz $0x000000000040aad0  
Actual: 40944e 
Block 1784: 
0x000000000040944e 48 8b 30 mov (%rax)[8byte] -> %rsi  
0x0000000000409451 8b 53 20 mov 0x20(%rbx)[4byte] -> %edx  
0x0000000000409454 83 e9 01 sub $0x00000001 %ecx -> %ecx  
0x0000000000409457 41 83 c2 08 add $0x00000008 %r10d -> %r10d  
0x000000000040945b 0f b6 3e movzx (%rsi)[1byte] -> %edi  
0x000000000040945e c1 e2 08 shl $0x00000008 %edx -> %edx  
0x0000000000409461 44 89 53 24 mov %r10d -> 0x24(%rbx)[4byte]  
0x0000000000409465 48 83 c6 01 add $0x0000000000000001 %rsi -> %rsi  
0x0000000000409469 09 fa or %edi %edx -> %edx  
0x000000000040946b 89 53 20 mov %edx -> 0x20(%rbx)[4byte]  
0x000000000040946e 89 48 08 mov %ecx -> 0x08(%rax)[4byte]  
0x0000000000409471 8b 48 0c mov 0x0c(%rax)[4byte] -> %ecx  
0x0000000000409474 48 89 30 mov %rsi -> (%rax)[8byte]  
0x0000000000409477 8d 51 01 lea 0x01(%rcx) -> %edx  
0x000000000040947a 85 d2 test %edx %edx  
0x000000000040947c 89 50 0c mov %edx -> 0x0c(%rax)[4byte]  
0x000000000040947f 0f 84 d2 17 00 00 jz $0x000000000040ac57  
Actual: 409485 
Block 1786: 
0x0000000000406220 8b 83 a0 13 00 00 mov 0x000013a0(%rbx)[4byte] -> %eax  
0x0000000000406226 85 c0 test %eax %eax  
0x0000000000406228 0f 85 72 ff ff ff jnz $0x00000000004061a0  
Actual: 4061a0 
Block 1787: 
0x00000000004061a0 8b 93 b8 13 00 00 mov 0x000013b8(%rbx)[4byte] -> %edx  
0x00000000004061a6 85 d2 test %edx %edx  
0x00000000004061a8 0f 84 8a 00 00 00 jz $0x0000000000406238  
Actual: 406238 
Block 1789: 
0x000000000040a570 48 8b 03 mov (%rbx)[8byte] -> %rax  
0x000000000040a573 8b 70 08 mov 0x08(%rax)[4byte] -> %esi  
0x000000000040a576 85 f6 test %esi %esi  
0x000000000040a578 0f 84 52 05 00 00 jz $0x000000000040aad0  
Actual: 40a57e 
Block 1790: 
0x000000000040a57e 48 8b 38 mov (%rax)[8byte] -> %rdi  
0x000000000040a581 8b 53 20 mov 0x20(%rbx)[4byte] -> %edx  
0x000000000040a584 83 c1 08 add $0x00000008 %ecx -> %ecx  
0x000000000040a587 83 ee 01 sub $0x00000001 %esi -> %esi  
0x000000000040a58a 44 0f b6 17 movzx (%rdi)[1byte] -> %r10d  
0x000000000040a58e c1 e2 08 shl $0x00000008 %edx -> %edx  
0x000000000040a591 48 83 c7 01 add $0x0000000000000001 %rdi -> %rdi  
0x000000000040a595 89 4b 24 mov %ecx -> 0x24(%rbx)[4byte]  
0x000000000040a598 44 09 d2 or %r10d %edx -> %edx  
0x000000000040a59b 89 53 20 mov %edx -> 0x20(%rbx)[4byte]  
0x000000000040a59e 48 89 38 mov %rdi -> (%rax)[8byte]  
0x000000000040a5a1 8b 78 0c mov 0x0c(%rax)[4byte] -> %edi  
0x000000000040a5a4 89 70 08 mov %esi -> 0x08(%rax)[4byte]  
0x000000000040a5a7 8d 57 01 lea 0x01(%rdi) -> %edx  
0x000000000040a5aa 85 d2 test %edx %edx  
0x000000000040a5ac 89 50 0c mov %edx -> 0x0c(%rax)[4byte]  
0x000000000040a5af 0f 84 6c 06 00 00 jz $0x000000000040ac21  
Actual: 40a5b5 
Block 1792: 
0x000000000040a5ba 8b 53 20 mov 0x20(%rbx)[4byte] -> %edx  
0x000000000040a5bd 83 e9 08 sub $0x00000008 %ecx -> %ecx  
0x000000000040a5c0 b8 fc ff ff ff mov $0xfffffffc -> %eax  
0x000000000040a5c5 89 4b 24 mov %ecx -> 0x24(%rbx)[4byte]  
0x000000000040a5c8 d3 ea shr %cl %edx -> %edx  
0x000000000040a5ca 80 fa 72 cmp %dl $0x72  
0x000000000040a5cd 0f 84 c0 f8 ff ff jz $0x0000000000409e93  
Actual: 409e93 
Block 1794: 
0x0000000000409ea0 48 8b 03 mov (%rbx)[8byte] -> %rax  
0x0000000000409ea3 8b 70 08 mov 0x08(%rax)[4byte] -> %esi  
0x0000000000409ea6 85 f6 test %esi %esi  
0x0000000000409ea8 0f 84 22 0c 00 00 jz $0x000000000040aad0  
Actual: 409eae 
Block 1795: 
0x0000000000409eae 48 8b 38 mov (%rax)[8byte] -> %rdi  
0x0000000000409eb1 8b 53 20 mov 0x20(%rbx)[4byte] -> %edx  
0x0000000000409eb4 83 c1 08 add $0x00000008 %ecx -> %ecx  
0x0000000000409eb7 83 ee 01 sub $0x00000001 %esi -> %esi  
0x0000000000409eba 44 0f b6 17 movzx (%rdi)[1byte] -> %r10d  
0x0000000000409ebe c1 e2 08 shl $0x00000008 %edx -> %edx  
0x0000000000409ec1 48 83 c7 01 add $0x0000000000000001 %rdi -> %rdi  
0x0000000000409ec5 89 4b 24 mov %ecx -> 0x24(%rbx)[4byte]  
0x0000000000409ec8 44 09 d2 or %r10d %edx -> %edx  
0x0000000000409ecb 89 53 20 mov %edx -> 0x20(%rbx)[4byte]  
0x0000000000409ece 48 89 38 mov %rdi -> (%rax)[8byte]  
0x0000000000409ed1 8b 78 0c mov 0x0c(%rax)[4byte] -> %edi  
0x0000000000409ed4 89 70 08 mov %esi -> 0x08(%rax)[4byte]  
0x0000000000409ed7 8d 57 01 lea 0x01(%rdi) -> %edx  
0x0000000000409eda 85 d2 test %edx %edx  
0x0000000000409edc 89 50 0c mov %edx -> 0x0c(%rax)[4byte]  
0x0000000000409edf 0f 84 0e 0d 00 00 jz $0x000000000040abf3  
Actual: 409ee5 
Block 1797: 
0x0000000000409eea 8b 53 20 mov 0x20(%rbx)[4byte] -> %edx  
0x0000000000409eed 83 e9 08 sub $0x00000008 %ecx -> %ecx  
0x0000000000409ef0 b8 fc ff ff ff mov $0xfffffffc -> %eax  
0x0000000000409ef5 89 4b 24 mov %ecx -> 0x24(%rbx)[4byte]  
0x0000000000409ef8 d3 ea shr %cl %edx -> %edx  
0x0000000000409efa 80 fa 45 cmp %dl $0x45  
0x0000000000409efd 0f 84 17 ff ff ff jz $0x0000000000409e1a  
Actual: 409e1a 
Block 1799: 
0x0000000000409e28 48 8b 03 mov (%rbx)[8byte] -> %rax  
0x0000000000409e2b 8b 70 08 mov 0x08(%rax)[4byte] -> %esi  
0x0000000000409e2e 85 f6 test %esi %esi  
0x0000000000409e30 0f 84 9a 0c 00 00 jz $0x000000000040aad0  
Actual: 409e36 
Block 1800: 
0x0000000000409e36 48 8b 38 mov (%rax)[8byte] -> %rdi  
0x0000000000409e39 8b 53 20 mov 0x20(%rbx)[4byte] -> %edx  
0x0000000000409e3c 83 ee 01 sub $0x00000001 %esi -> %esi  
0x0000000000409e3f 83 c1 08 add $0x00000008 %ecx -> %ecx  
0x0000000000409e42 44 0f b6 17 movzx (%rdi)[1byte] -> %r10d  
0x0000000000409e46 c1 e2 08 shl $0x00000008 %edx -> %edx  
0x0000000000409e49 89 4b 24 mov %ecx -> 0x24(%rbx)[4byte]  
0x0000000000409e4c 48 83 c7 01 add $0x0000000000000001 %rdi -> %rdi  
0x0000000000409e50 44 09 d2 or %r10d %edx -> %edx  
0x0000000000409e53 89 53 20 mov %edx -> 0x20(%rbx)[4byte]  
0x0000000000409e56 89 70 08 mov %esi -> 0x08(%rax)[4byte]  
0x0000000000409e59 8b 70 0c mov 0x0c(%rax)[4byte] -> %esi  
0x0000000000409e5c 48 89 38 mov %rdi -> (%rax)[8byte]  
0x0000000000409e5f 8d 56 01 lea 0x01(%rsi) -> %edx  
0x0000000000409e62 85 d2 test %edx %edx  
0x0000000000409e64 89 50 0c mov %edx -> 0x0c(%rax)[4byte]  
0x0000000000409e67 0f 84 4e 0d 00 00 jz $0x000000000040abbb  
Actual: 409e6d 
Block 1802: 
0x0000000000409e72 8b 53 20 mov 0x20(%rbx)[4byte] -> %edx  
0x0000000000409e75 83 e9 08 sub $0x00000008 %ecx -> %ecx  
0x0000000000409e78 b8 fc ff ff ff mov $0xfffffffc -> %eax  
0x0000000000409e7d 89 4b 24 mov %ecx -> 0x24(%rbx)[4byte]  
0x0000000000409e80 d3 ea shr %cl %edx -> %edx  
0x0000000000409e82 80 fa 38 cmp %dl $0x38  
0x0000000000409e85 0f 84 6a 08 00 00 jz $0x000000000040a6f5  
Actual: 40a6f5 
Block 1804: 
0x000000000040a700 48 8b 03 mov (%rbx)[8byte] -> %rax  
0x000000000040a703 8b 70 08 mov 0x08(%rax)[4byte] -> %esi  
0x000000000040a706 85 f6 test %esi %esi  
0x000000000040a708 0f 84 c2 03 00 00 jz $0x000000000040aad0  
Actual: 40a70e 
Block 1805: 
0x000000000040a70e 48 8b 38 mov (%rax)[8byte] -> %rdi  
0x000000000040a711 8b 53 20 mov 0x20(%rbx)[4byte] -> %edx  
0x000000000040a714 83 ee 01 sub $0x00000001 %esi -> %esi  
0x000000000040a717 83 c1 08 add $0x00000008 %ecx -> %ecx  
0x000000000040a71a 44 0f b6 17 movzx (%rdi)[1byte] -> %r10d  
0x000000000040a71e c1 e2 08 shl $0x00000008 %edx -> %edx  
0x000000000040a721 89 4b 24 mov %ecx -> 0x24(%rbx)[4byte]  
0x000000000040a724 48 83 c7 01 add $0x0000000000000001 %rdi -> %rdi  
0x000000000040a728 44 09 d2 or %r10d %edx -> %edx  
0x000000000040a72b 89 53 20 mov %edx -> 0x20(%rbx)[4byte]  
0x000000000040a72e 89 70 08 mov %esi -> 0x08(%rax)[4byte]  
0x000000000040a731 8b 70 0c mov 0x0c(%rax)[4byte] -> %esi  
0x000000000040a734 48 89 38 mov %rdi -> (%rax)[8byte]  
0x000000000040a737 8d 56 01 lea 0x01(%rsi) -> %edx  
0x000000000040a73a 85 d2 test %edx %edx  
0x000000000040a73c 89 50 0c mov %edx -> 0x0c(%rax)[4byte]  
0x000000000040a73f 0f 84 5b 04 00 00 jz $0x000000000040aba0  
Actual: 40a745 
Block 1807: 
0x000000000040a74a 8b 53 20 mov 0x20(%rbx)[4byte] -> %edx  
0x000000000040a74d 83 e9 08 sub $0x00000008 %ecx -> %ecx  
0x000000000040a750 b8 fc ff ff ff mov $0xfffffffc -> %eax  
0x000000000040a755 89 4b 24 mov %ecx -> 0x24(%rbx)[4byte]  
0x000000000040a758 d3 ea shr %cl %edx -> %edx  
0x000000000040a75a 80 fa 50 cmp %dl $0x50  
0x000000000040a75d 0f 84 0e ff ff ff jz $0x000000000040a671  
Actual: 40a671 
Block 1809: 
0x000000000040a680 48 8b 03 mov (%rbx)[8byte] -> %rax  
0x000000000040a683 8b 70 08 mov 0x08(%rax)[4byte] -> %esi  
0x000000000040a686 85 f6 test %esi %esi  
0x000000000040a688 0f 84 42 04 00 00 jz $0x000000000040aad0  
Actual: 40a68e 
Block 1810: 
0x000000000040a68e 48 8b 38 mov (%rax)[8byte] -> %rdi  
0x000000000040a691 8b 53 20 mov 0x20(%rbx)[4byte] -> %edx  
0x000000000040a694 83 ee 01 sub $0x00000001 %esi -> %esi  
0x000000000040a697 83 c1 08 add $0x00000008 %ecx -> %ecx  
0x000000000040a69a 44 0f b6 17 movzx (%rdi)[1byte] -> %r10d  
0x000000000040a69e c1 e2 08 shl $0x00000008 %edx -> %edx  
0x000000000040a6a1 89 4b 24 mov %ecx -> 0x24(%rbx)[4byte]  
0x000000000040a6a4 48 83 c7 01 add $0x0000000000000001 %rdi -> %rdi  
0x000000000040a6a8 44 09 d2 or %r10d %edx -> %edx  
0x000000000040a6ab 89 53 20 mov %edx -> 0x20(%rbx)[4byte]  
0x000000000040a6ae 89 70 08 mov %esi -> 0x08(%rax)[4byte]  
0x000000000040a6b1 8b 70 0c mov 0x0c(%rax)[4byte] -> %esi  
0x000000000040a6b4 48 89 38 mov %rdi -> (%rax)[8byte]  
0x000000000040a6b7 8d 56 01 lea 0x01(%rsi) -> %edx  
0x000000000040a6ba 85 d2 test %edx %edx  
0x000000000040a6bc 89 50 0c mov %edx -> 0x0c(%rax)[4byte]  
0x000000000040a6bf 0f 84 d2 04 00 00 jz $0x000000000040ab97  
Actual: 40a6c5 
Block 1812: 
0x000000000040a6ca 8b 53 20 mov 0x20(%rbx)[4byte] -> %edx  
0x000000000040a6cd 83 e9 08 sub $0x00000008 %ecx -> %ecx  
0x000000000040a6d0 b8 fc ff ff ff mov $0xfffffffc -> %eax  
0x000000000040a6d5 89 4b 24 mov %ecx -> 0x24(%rbx)[4byte]  
0x000000000040a6d8 d3 ea shr %cl %edx -> %edx  
0x000000000040a6da 80 fa 90 cmp %dl $0x90  
0x000000000040a6dd 0f 85 b2 f8 ff ff jnz $0x0000000000409f95  
Actual: 40a6e3 
Block 1814: 
0x000000000040a270 48 8b 03 mov (%rbx)[8byte] -> %rax  
0x000000000040a273 8b 70 08 mov 0x08(%rax)[4byte] -> %esi  
0x000000000040a276 85 f6 test %esi %esi  
0x000000000040a278 0f 84 52 08 00 00 jz $0x000000000040aad0  
Actual: 40a27e 
Block 1815: 
0x000000000040a27e 48 8b 38 mov (%rax)[8byte] -> %rdi  
0x000000000040a281 8b 53 20 mov 0x20(%rbx)[4byte] -> %edx  
0x000000000040a284 83 ee 01 sub $0x00000001 %esi -> %esi  
0x000000000040a287 83 c1 08 add $0x00000008 %ecx -> %ecx  
0x000000000040a28a 44 0f b6 17 movzx (%rdi)[1byte] -> %r10d  
0x000000000040a28e c1 e2 08 shl $0x00000008 %edx -> %edx  
0x000000000040a291 89 4b 24 mov %ecx -> 0x24(%rbx)[4byte]  
0x000000000040a294 48 83 c7 01 add $0x0000000000000001 %rdi -> %rdi  
0x000000000040a298 44 09 d2 or %r10d %edx -> %edx  
0x000000000040a29b 89 53 20 mov %edx -> 0x20(%rbx)[4byte]  
0x000000000040a29e 89 70 08 mov %esi -> 0x08(%rax)[4byte]  
0x000000000040a2a1 8b 70 0c mov 0x0c(%rax)[4byte] -> %esi  
0x000000000040a2a4 48 89 38 mov %rdi -> (%rax)[8byte]  
0x000000000040a2a7 8d 56 01 lea 0x01(%rsi) -> %edx  
0x000000000040a2aa 85 d2 test %edx %edx  
0x000000000040a2ac 89 50 0c mov %edx -> 0x0c(%rax)[4byte]  
0x000000000040a2af 0f 84 d0 08 00 00 jz $0x000000000040ab85  
Actual: 40a2b5 
Block 1818: 
0x000000000040a1f0 48 8b 03 mov (%rbx)[8byte] -> %rax  
0x000000000040a1f3 8b 70 08 mov 0x08(%rax)[4byte] -> %esi  
0x000000000040a1f6 85 f6 test %esi %esi  
0x000000000040a1f8 0f 84 d2 08 00 00 jz $0x000000000040aad0  
Actual: 40a1fe 
Block 1819: 
0x000000000040a1fe 48 8b 38 mov (%rax)[8byte] -> %rdi  
0x000000000040a201 8b 53 20 mov 0x20(%rbx)[4byte] -> %edx  
0x000000000040a204 83 ee 01 sub $0x00000001 %esi -> %esi  
0x000000000040a207 83 c1 08 add $0x00000008 %ecx -> %ecx  
0x000000000040a20a 44 0f b6 17 movzx (%rdi)[1byte] -> %r10d  
0x000000000040a20e c1 e2 08 shl $0x00000008 %edx -> %edx  
0x000000000040a211 89 4b 24 mov %ecx -> 0x24(%rbx)[4byte]  
0x000000000040a214 48 83 c7 01 add $0x0000000000000001 %rdi -> %rdi  
0x000000000040a218 44 09 d2 or %r10d %edx -> %edx  
0x000000000040a21b 89 53 20 mov %edx -> 0x20(%rbx)[4byte]  
0x000000000040a21e 89 70 08 mov %esi -> 0x08(%rax)[4byte]  
0x000000000040a221 8b 70 0c mov 0x0c(%rax)[4byte] -> %esi  
0x000000000040a224 48 89 38 mov %rdi -> (%rax)[8byte]  
0x000000000040a227 8d 56 01 lea 0x01(%rsi) -> %edx  
0x000000000040a22a 85 d2 test %edx %edx  
0x000000000040a22c 89 50 0c mov %edx -> 0x0c(%rax)[4byte]  
0x000000000040a22f 0f 84 2c 09 00 00 jz $0x000000000040ab61  
Actual: 40a235 
Block 1822: 
0x000000000040a090 48 8b 03 mov (%rbx)[8byte] -> %rax  
0x000000000040a093 8b 70 08 mov 0x08(%rax)[4byte] -> %esi  
0x000000000040a096 85 f6 test %esi %esi  
0x000000000040a098 0f 84 32 0a 00 00 jz $0x000000000040aad0  
Actual: 40a09e 
Block 1823: 
0x000000000040a09e 48 8b 38 mov (%rax)[8byte] -> %rdi  
0x000000000040a0a1 8b 53 20 mov 0x20(%rbx)[4byte] -> %edx  
0x000000000040a0a4 83 ee 01 sub $0x00000001 %esi -> %esi  
0x000000000040a0a7 83 c1 08 add $0x00000008 %ecx -> %ecx  
0x000000000040a0aa 44 0f b6 17 movzx (%rdi)[1byte] -> %r10d  
0x000000000040a0ae c1 e2 08 shl $0x00000008 %edx -> %edx  
0x000000000040a0b1 89 4b 24 mov %ecx -> 0x24(%rbx)[4byte]  
0x000000000040a0b4 48 83 c7 01 add $0x0000000000000001 %rdi -> %rdi  
0x000000000040a0b8 44 09 d2 or %r10d %edx -> %edx  
0x000000000040a0bb 89 53 20 mov %edx -> 0x20(%rbx)[4byte]  
0x000000000040a0be 89 70 08 mov %esi -> 0x08(%rax)[4byte]  
0x000000000040a0c1 8b 70 0c mov 0x0c(%rax)[4byte] -> %esi  
0x000000000040a0c4 48 89 38 mov %rdi -> (%rax)[8byte]  
0x000000000040a0c7 8d 56 01 lea 0x01(%rsi) -> %edx  
0x000000000040a0ca 85 d2 test %edx %edx  
0x000000000040a0cc 89 50 0c mov %edx -> 0x0c(%rax)[4byte]  
0x000000000040a0cf 0f 84 7a 0a 00 00 jz $0x000000000040ab4f  
Actual: 40a0d5 
Block 1826: 
0x0000000000409f20 48 8b 03 mov (%rbx)[8byte] -> %rax  
0x0000000000409f23 8b 70 08 mov 0x08(%rax)[4byte] -> %esi  
0x0000000000409f26 85 f6 test %esi %esi  
0x0000000000409f28 0f 84 a2 0b 00 00 jz $0x000000000040aad0  
Actual: 409f2e 
Block 1827: 
0x0000000000409f2e 48 8b 38 mov (%rax)[8byte] -> %rdi  
0x0000000000409f31 8b 53 20 mov 0x20(%rbx)[4byte] -> %edx  
0x0000000000409f34 83 c1 08 add $0x00000008 %ecx -> %ecx  
0x0000000000409f37 83 ee 01 sub $0x00000001 %esi -> %esi  
0x0000000000409f3a 44 0f b6 17 movzx (%rdi)[1byte] -> %r10d  
0x0000000000409f3e c1 e2 08 shl $0x00000008 %edx -> %edx  
0x0000000000409f41 48 83 c7 01 add $0x0000000000000001 %rdi -> %rdi  
0x0000000000409f45 89 4b 24 mov %ecx -> 0x24(%rbx)[4byte]  
0x0000000000409f48 44 09 d2 or %r10d %edx -> %edx  
0x0000000000409f4b 89 53 20 mov %edx -> 0x20(%rbx)[4byte]  
0x0000000000409f4e 48 89 38 mov %rdi -> (%rax)[8byte]  
0x0000000000409f51 8b 78 0c mov 0x0c(%rax)[4byte] -> %edi  
0x0000000000409f54 89 70 08 mov %esi -> 0x08(%rax)[4byte]  
0x0000000000409f57 8d 57 01 lea 0x01(%rdi) -> %edx  
0x0000000000409f5a 85 d2 test %edx %edx  
0x0000000000409f5c 89 50 0c mov %edx -> 0x0c(%rax)[4byte]  
0x0000000000409f5f 0f 84 e1 0b 00 00 jz $0x000000000040ab46  
Actual: 409f65 
Block 1831: 
0x000000000040535b 8b 83 6c 0c 00 00 mov 0x00000c6c(%rbx)[4byte] -> %eax  
0x0000000000405361 39 83 74 0c 00 00 cmp 0x00000c74(%rbx)[4byte] %eax  
0x0000000000405367 0f 84 50 f6 ff ff jz $0x00000000004049bd  
Actual: 4049bd 
Block 1832: 
0x0000000000406197 83 f8 04 cmp %eax $0x00000004  
0x000000000040619a 0f 84 d8 00 00 00 jz $0x0000000000406278  
Actual: 406278 
Block 1833: 
0x0000000000406278 48 85 ed test %rbp %rbp  
0x000000000040627b 74 07 jz $0x0000000000406284  
Actual: 40627d 
Block 1835: 
0x0000000000403b40 83 f9 04 cmp %ecx $0x00000004  
0x0000000000403b43 0f 85 98 00 00 00 jnz $0x0000000000403be1  
Actual: 403b49 
Block 1836: 
0x0000000000403b49 48 8d 54 24 18 lea 0x18(%rsp) -> %rdx  
0x0000000000403b4e 48 8d 4c 24 14 lea 0x14(%rsp) -> %rcx  
0x0000000000403b53 48 8d 7c 24 0c lea 0x0c(%rsp) -> %rdi  
0x0000000000403b58 48 89 de mov %rbx -> %rsi  
0x0000000000403b5b e8 60 27 00 00 call $0x00000000004062c0 %rsp -> %rsp 0xfffffff8(%rsp)[8byte]  
0x00000000004062c0 48 85 f6 test %rsi %rsi  
0x00000000004062c3 74 7b jz $0x0000000000406340  
Actual: 4062c5 
Block 1837: 
0x00000000004062c5 83 be e8 13 00 00 04 cmp 0x000013e8(%rsi)[4byte] $0x00000004  
0x00000000004062cc 74 1a jz $0x00000000004062e8  
Actual: 4062e8 
Block 1838: 
0x00000000004062e8 48 85 d2 test %rdx %rdx  
0x00000000004062eb 74 33 jz $0x0000000000406320  
Actual: 4062ed 
Block 1839: 
0x00000000004062ed 48 85 c9 test %rcx %rcx  
0x00000000004062f0 74 2e jz $0x0000000000406320  
Actual: 4062f2 
Block 1840: 
0x00000000004062f2 48 85 ff test %rdi %rdi  
0x00000000004062f5 74 06 jz $0x00000000004062fd  
Actual: 4062f7 
Block 1842: 
0x0000000000403b60 8b 54 24 0c mov 0x0c(%rsp)[4byte] -> %edx  
0x0000000000403b64 85 d2 test %edx %edx  
0x0000000000403b66 0f 85 0d 02 00 00 jnz $0x0000000000403d79  
Actual: 403b6c 
Block 1844: 
0x0000000000403b9c 48 8d 7c 24 0c lea 0x0c(%rsp) -> %rdi  
0x0000000000403ba1 48 89 de mov %rbx -> %rsi  
0x0000000000403ba4 e8 57 24 00 00 call $0x0000000000406000 %rsp -> %rsp 0xfffffff8(%rsp)[8byte]  
0x0000000000406000 48 85 ff test %rdi %rdi  
0x0000000000406003 74 33 jz $0x0000000000406038  
Actual: 406005 
Block 1845: 
0x0000000000406005 48 85 f6 test %rsi %rsi  
0x0000000000406008 c7 07 00 00 00 00 mov $0x00000000 -> (%rdi)[4byte]  
0x000000000040600e 74 60 jz $0x0000000000406070  
Actual: 406010 
Block 1846: 
0x0000000000406010 80 be 90 13 00 00 00 cmp 0x00001390(%rsi)[1byte] $0x00  
0x0000000000406017 c7 86 e8 13 00 00 00 mov $0x00000000 -> 0x000013e8(%rsi)[4byte]  
00 00 00 
0x0000000000406021 74 2d jz $0x0000000000406050  
Actual: 406050 
Block 1847: 
0x0000000000406050 80 be ec 13 00 00 00 cmp 0x000013ec(%rsi)[1byte] $0x00  
0x0000000000406057 53 push %rbx %rsp -> %rsp 0xfffffff8(%rsp)[8byte]  
0x0000000000406058 48 89 f3 mov %rsi -> %rbx  
0x000000000040605b 75 1b jnz $0x0000000000406078  
Actual: 406078 
Block 1848: 
0x0000000000406078 48 8d be 98 13 00 00 lea 0x00001398(%rsi) -> %rdi  
0x000000000040607f e8 cc f6 ff ff call $0x0000000000405750 %rsp -> %rsp 0xfffffff8(%rsp)[8byte]  
0x0000000000405750 48 85 ff test %rdi %rdi  
0x0000000000405753 74 72 jz $0x00000000004057c7  
Actual: 405755 
Block 1849: 
0x0000000000405755 55 push %rbp %rsp -> %rsp 0xfffffff8(%rsp)[8byte]  
0x0000000000405756 53 push %rbx %rsp -> %rsp 0xfffffff8(%rsp)[8byte]  
0x0000000000405757 b8 fe ff ff ff mov $0xfffffffe -> %eax  
0x000000000040575c 48 83 ec 08 sub $0x0000000000000008 %rsp -> %rsp  
0x0000000000405760 48 8b 6f 30 mov 0x30(%rdi)[8byte] -> %rbp  
0x0000000000405764 48 85 ed test %rbp %rbp  
0x0000000000405767 74 57 jz $0x00000000004057c0  
Actual: 405769 
Block 1850: 
0x0000000000405769 48 3b 7d 00 cmp %rdi 0x00(%rbp)[8byte]  
0x000000000040576d 75 51 jnz $0x00000000004057c0  
Actual: 40576f 
Block 1851: 
0x000000000040576f 48 8b b5 50 0c 00 00 mov 0x00000c50(%rbp)[8byte] -> %rsi  
0x0000000000405776 48 89 fb mov %rdi -> %rbx  
0x0000000000405779 48 85 f6 test %rsi %rsi  
0x000000000040577c 74 07 jz $0x0000000000405785  
Actual: 40577e 
Block 1853: 
0x0000000000405785 48 8b b5 58 0c 00 00 mov 0x00000c58(%rbp)[8byte] -> %rsi  
0x000000000040578c 48 85 f6 test %rsi %rsi  
0x000000000040578f 74 07 jz $0x0000000000405798  
Actual: 405798 
Block 1854: 
0x0000000000405798 48 8b b5 60 0c 00 00 mov 0x00000c60(%rbp)[8byte] -> %rsi  
0x000000000040579f 48 85 f6 test %rsi %rsi  
0x00000000004057a2 74 07 jz $0x00000000004057ab  
Actual: 4057ab 
Block 1858: 
0x0000000000403ba9 8b 44 24 0c mov 0x0c(%rsp)[4byte] -> %eax  
0x0000000000403bad 85 c0 test %eax %eax  
0x0000000000403baf 0f 85 c4 01 00 00 jnz $0x0000000000403d79  
Actual: 403bb5 
Block 1859: 
0x0000000000403bb5 44 8b 4c 24 14 mov 0x14(%rsp)[4byte] -> %r9d  
0x0000000000403bba 45 85 c9 test %r9d %r9d  
0x0000000000403bbd 0f 85 ed fe ff ff jnz $0x0000000000403ab0  
Actual: 403bc3 
Block 1861: 
0x0000000000403bca 84 c0 test %al %al  
0x0000000000403bcc 75 67 jnz $0x0000000000403c35  
Actual: 403c35 
Block 1867: 
0x00000000004016f4 48 8b 05 35 e6 20 00 mov <rel> 0x000000000060fd30[8byte] -> %rax  
0x00000000004016fb 0f b6 38 movzx (%rax)[1byte] -> %edi  
0x00000000004016fe 40 38 7d 00 cmp 0x00(%rbp)[1byte] %dil  
0x0000000000401702 0f 85 a5 01 00 00 jnz $0x00000000004018ad  
Actual: 401708 
Block 1869: 
0x0000000000401720 0f b6 39 movzx (%rcx)[1byte] -> %edi  
0x0000000000401723 0f b6 30 movzx (%rax)[1byte] -> %esi  
0x0000000000401726 81 c2 03 04 00 00 add $0x00000403 %edx -> %edx  
0x000000000040172c 48 83 c1 01 add $0x0000000000000001 %rcx -> %rcx  
0x0000000000401730 48 05 03 04 00 00 add $0x0000000000000403 %rax -> %rax  
0x0000000000401736 40 38 f7 cmp %dil %sil  
0x0000000000401739 0f 85 6e 01 00 00 jnz $0x00000000004018ad  
Actual: 40173f 
Block 1873: 
0x00007f61cc20a240 48 83 e0 c0 and $0xffffffffffffffc0 %rax -> %rax  
0x00007f61cc20a244 66 0f 74 00 pcmpeqb (%rax)[16byte] %xmm0 -> %xmm0  
0x00007f61cc20a248 66 0f 74 48 10 pcmpeqb 0x10(%rax)[16byte] %xmm1 -> %xmm1  
0x00007f61cc20a24d 66 0f 74 50 20 pcmpeqb 0x20(%rax)[16byte] %xmm2 -> %xmm2  
0x00007f61cc20a252 66 0f 74 58 30 pcmpeqb 0x30(%rax)[16byte] %xmm3 -> %xmm3  
0x00007f61cc20a257 66 0f d7 f0 pmovmskb %xmm0 -> %esi  
0x00007f61cc20a25b 66 0f d7 d1 pmovmskb %xmm1 -> %edx  
0x00007f61cc20a25f 66 44 0f d7 c2 pmovmskb %xmm2 -> %r8d  
0x00007f61cc20a264 66 0f d7 cb pmovmskb %xmm3 -> %ecx  
0x00007f61cc20a268 48 c1 e2 10 shl $0x0000000000000010 %rdx -> %rdx  
0x00007f61cc20a26c 48 c1 e1 10 shl $0x0000000000000010 %rcx -> %rcx  
0x00007f61cc20a270 48 09 f2 or %rsi %rdx -> %rdx  
0x00007f61cc20a273 4c 09 c1 or %r8 %rcx -> %rcx  
0x00007f61cc20a276 48 c1 e1 20 shl $0x0000000000000020 %rcx -> %rcx  
0x00007f61cc20a27a 48 09 ca or %rcx %rdx -> %rdx  
0x00007f61cc20a27d 48 89 f9 mov %rdi -> %rcx  
0x00007f61cc20a280 48 31 c1 xor %rax %rcx -> %rcx  
0x00007f61cc20a283 48 83 e0 c0 and $0xffffffffffffffc0 %rax -> %rax  
0x00007f61cc20a287 48 d3 fa sar %cl %rdx -> %rdx  
0x00007f61cc20a28a 48 85 d2 test %rdx %rdx  
0x00007f61cc20a28d 74 11 jz $0x00007f61cc20a2a0  
Actual: 7f61cc20a2a0 
Block 1874: 
0x00007f61cc20a2a0 66 0f ef c9 pxor %xmm1 %xmm1 -> %xmm1  
0x00007f61cc20a2a4 66 0f ef d2 pxor %xmm2 %xmm2 -> %xmm2  
0x00007f61cc20a2a8 66 0f ef db pxor %xmm3 %xmm3 -> %xmm3  
0x00007f61cc20a2ac 0f 1f 40 00 nop 0x00(%rax)[4byte]  
0x00007f61cc20a2b0 66 0f 6f 40 40 movdqa 0x40(%rax)[16byte] -> %xmm0  
0x00007f61cc20a2b5 66 0f da 40 50 pminub 0x50(%rax)[16byte] %xmm0 -> %xmm0  
0x00007f61cc20a2ba 66 0f da 40 60 pminub 0x60(%rax)[16byte] %xmm0 -> %xmm0  
0x00007f61cc20a2bf 66 0f da 40 70 pminub 0x70(%rax)[16byte] %xmm0 -> %xmm0  
0x00007f61cc20a2c4 66 0f 74 c3 pcmpeqb %xmm3 %xmm0 -> %xmm0  
0x00007f61cc20a2c8 66 0f d7 d0 pmovmskb %xmm0 -> %edx  
0x00007f61cc20a2cc 85 d2 test %edx %edx  
0x00007f61cc20a2ce 75 30 jnz $0x00007f61cc20a300  
Actual: 7f61cc20a300 
Block 1876: 
0x00007f61cc20e010 89 f1 mov %esi -> %ecx  
0x00007f61cc20e012 83 e1 07 and $0x00000007 %ecx -> %ecx  
0x00007f61cc20e015 74 29 jz $0x00007f61cc20e040  
Actual: 7f61cc20e040 
Block 1878: 
0x00007f61cc20e049 89 d1 mov %edx -> %ecx  
0x00007f61cc20e04b c1 e9 05 shr $0x00000005 %ecx -> %ecx  
0x00007f61cc20e04e 74 60 jz $0x00007f61cc20e0b0  
Actual: 7f61cc20e050 
Block 1879: 
0x00007f61cc20e050 ff c9 dec %ecx -> %ecx  
0x00007f61cc20e052 48 8b 06 mov (%rsi)[8byte] -> %rax  
0x00007f61cc20e055 4c 8b 46 08 mov 0x08(%rsi)[8byte] -> %r8  
0x00007f61cc20e059 4c 8b 4e 10 mov 0x10(%rsi)[8byte] -> %r9  
0x00007f61cc20e05d 4c 8b 56 18 mov 0x18(%rsi)[8byte] -> %r10  
0x00007f61cc20e061 48 89 07 mov %rax -> (%rdi)[8byte]  
0x00007f61cc20e064 4c 89 47 08 mov %r8 -> 0x08(%rdi)[8byte]  
0x00007f61cc20e068 4c 89 4f 10 mov %r9 -> 0x10(%rdi)[8byte]  
0x00007f61cc20e06c 4c 89 57 18 mov %r10 -> 0x18(%rdi)[8byte]  
0x00007f61cc20e070 48 8d 76 20 lea 0x20(%rsi) -> %rsi  
0x00007f61cc20e074 48 8d 7f 20 lea 0x20(%rdi) -> %rdi  
0x00007f61cc20e078 74 36 jz $0x00007f61cc20e0b0  
Actual: 7f61cc20e0b0 
Block 1880: 
0x00007f61cc20e0b0 83 e2 1f and $0x0000001f %edx -> %edx  
0x00007f61cc20e0b3 0f 85 dd fe ff ff jnz $0x00007f61cc20df96  
Actual: 7f61cc20df96 
Block 1882: 
0x0000000000401769 83 fb 0b cmp %ebx $0x0000000b  
0x000000000040176c c7 05 c6 e5 20 00 00 mov $0x00000000 -> <rel> 0x000000000060fd3c[4byte]  
00 00 00 
0x0000000000401776 c7 05 c0 e5 20 00 00 mov $0x00000000 -> <rel> 0x000000000060fd40[4byte]  
00 00 00 
0x0000000000401780 c7 05 9e e5 20 00 00 mov $0x00000000 -> <rel> 0x000000000060fd28[4byte]  
00 00 00 
0x000000000040178a 0f 85 d0 fe ff ff jnz $0x0000000000401660  
Actual: 401660 
Block 1885: 
0x00000000004072b4 83 e8 02 sub $0x00000002 %eax -> %eax  
0x00000000004072b7 d1 f8 sar $0x00000001 %eax -> %eax  
0x00000000004072b9 a8 01 test %al $0x01  
0x00000000004072bb 75 d3 jnz $0x0000000000407290  
Actual: 4072bd 
Block 1887: 
0x0000000000409a68 48 8b 03 mov (%rbx)[8byte] -> %rax  
0x0000000000409a6b 8b 70 08 mov 0x08(%rax)[4byte] -> %esi  
0x0000000000409a6e 85 f6 test %esi %esi  
0x0000000000409a70 0f 84 5a 10 00 00 jz $0x000000000040aad0  
Actual: 409a76 
Block 1888: 
0x0000000000409a76 48 8b 38 mov (%rax)[8byte] -> %rdi  
0x0000000000409a79 8b 53 20 mov 0x20(%rbx)[4byte] -> %edx  
0x0000000000409a7c 83 ee 01 sub $0x00000001 %esi -> %esi  
0x0000000000409a7f 83 c1 08 add $0x00000008 %ecx -> %ecx  
0x0000000000409a82 44 0f b6 17 movzx (%rdi)[1byte] -> %r10d  
0x0000000000409a86 c1 e2 08 shl $0x00000008 %edx -> %edx  
0x0000000000409a89 89 4b 24 mov %ecx -> 0x24(%rbx)[4byte]  
0x0000000000409a8c 48 83 c7 01 add $0x0000000000000001 %rdi -> %rdi  
0x0000000000409a90 44 09 d2 or %r10d %edx -> %edx  
0x0000000000409a93 89 53 20 mov %edx -> 0x20(%rbx)[4byte]  
0x0000000000409a96 89 70 08 mov %esi -> 0x08(%rax)[4byte]  
0x0000000000409a99 8b 70 0c mov 0x0c(%rax)[4byte] -> %esi  
0x0000000000409a9c 48 89 38 mov %rdi -> (%rax)[8byte]  
0x0000000000409a9f 8d 56 01 lea 0x01(%rsi) -> %edx  
0x0000000000409aa2 85 d2 test %edx %edx  
0x0000000000409aa4 89 50 0c mov %edx -> 0x0c(%rax)[4byte]  
0x0000000000409aa7 0f 84 a1 11 00 00 jz $0x000000000040ac4e  
Actual: 409aad 
Block 1900: 
0x00007f61cc1a2731 89 c7 mov %eax -> %edi  
0x00007f61cc1a2733 e8 e8 8a 01 00 call $0x00007f61cc1bb220 %rsp -> %rsp 0xfffffff8(%rsp)[8byte]  
0x00007f61cc1bb220 48 8d 35 b1 33 38 00 lea <rel> 0x00007f61cc53e5d8 -> %rsi  
0x00007f61cc1bb227 48 83 ec 08 sub $0x0000000000000008 %rsp -> %rsp  
0x00007f61cc1bb22b ba 01 00 00 00 mov $0x00000001 -> %edx  
0x00007f61cc1bb230 e8 cb fe ff ff call $0x00007f61cc1bb100 %rsp -> %rsp 0xfffffff8(%rsp)[8byte]  
0x00007f61cc1bb100 41 55 push %r13 %rsp -> %rsp 0xfffffff8(%rsp)[8byte]  
0x00007f61cc1bb102 41 54 push %r12 %rsp -> %rsp 0xfffffff8(%rsp)[8byte]  
0x00007f61cc1bb104 41 89 d4 mov %edx -> %r12d  
0x00007f61cc1bb107 55 push %rbp %rsp -> %rsp 0xfffffff8(%rsp)[8byte]  
0x00007f61cc1bb108 53 push %rbx %rsp -> %rsp 0xfffffff8(%rsp)[8byte]  
0x00007f61cc1bb109 48 89 f5 mov %rsi -> %rbp  
0x00007f61cc1bb10c 89 fb mov %edi -> %ebx  
0x00007f61cc1bb10e 48 83 ec 08 sub $0x0000000000000008 %rsp -> %rsp  
0x00007f61cc1bb112 e8 79 06 00 00 call $0x00007f61cc1bb790 %rsp -> %rsp 0xfffffff8(%rsp)[8byte]  
0x00007f61cc1bb790 55 push %rbp %rsp -> %rsp 0xfffffff8(%rsp)[8byte]  
0x00007f61cc1bb791 53 push %rbx %rsp -> %rsp 0xfffffff8(%rsp)[8byte]  
0x00007f61cc1bb792 48 83 ec 08 sub $0x0000000000000008 %rsp -> %rsp  
0x00007f61cc1bb796 48 8b 2d b3 25 38 00 mov <rel> 0x00007f61cc53dd50[8byte] -> %rbp  
0x00007f61cc1bb79d 64 48 8b 5d 00 mov %fs:0x00(%rbp)[8byte] -> %rbx  
0x00007f61cc1bb7a2 48 85 db test %rbx %rbx  
0x00007f61cc1bb7a5 74 47 jz $0x00007f61cc1bb7ee  
Actual: 7f61cc1bb7ee 
Block 1902: 
0x00007f61cc1bb117 4c 8b 6d 00 mov 0x00(%rbp)[8byte] -> %r13  
0x00007f61cc1bb11b 4d 85 ed test %r13 %r13  
0x00007f61cc1bb11e 74 50 jz $0x00007f61cc1bb170  
Actual: 7f61cc1bb120 
Block 1903: 
0x00007f61cc1bb120 49 8b 45 08 mov 0x08(%r13)[8byte] -> %rax  
0x00007f61cc1bb124 48 89 c2 mov %rax -> %rdx  
0x00007f61cc1bb127 48 c1 e2 05 shl $0x0000000000000005 %rdx -> %rdx  
0x00007f61cc1bb12b 48 85 c0 test %rax %rax  
0x00007f61cc1bb12e 49 8d 4c 15 f0 lea 0xfffffff0(%r13,%rdx,1) -> %rcx  
0x00007f61cc1bb133 74 2a jz $0x00007f61cc1bb15f  
Actual: 7f61cc1bb135 
Block 1904: 
0x00007f61cc1bb135 48 83 e8 01 sub $0x0000000000000001 %rax -> %rax  
0x00007f61cc1bb139 49 89 45 08 mov %rax -> 0x08(%r13)[8byte]  
0x00007f61cc1bb13d 48 8b 11 mov (%rcx)[8byte] -> %rdx  
0x00007f61cc1bb140 48 83 fa 03 cmp %rdx $0x0000000000000003  
0x00007f61cc1bb144 0f 84 a6 00 00 00 jz $0x00007f61cc1bb1f0  
Actual: 7f61cc1bb14a 
Block 1905: 
0x00007f61cc1bb14a 48 83 fa 04 cmp %rdx $0x0000000000000004  
0x00007f61cc1bb14e 74 78 jz $0x00007f61cc1bb1c8  
Actual: 7f61cc1bb1c8 
Block 1909: 
0x00007f61cc98023c 41 8b 4f 08 mov 0x08(%r15)[4byte] -> %ecx  
0x00007f61cc980240 85 c9 test %ecx %ecx  
0x00007f61cc980242 74 c4 jz $0x00007f61cc980208  
Actual: 7f61cc980244 
Block 1910: 
0x00007f61cc980244 49 8b 07 mov (%r15)[8byte] -> %rax  
0x00007f61cc980247 0f b6 90 15 03 00 00 movzx 0x00000315(%rax)[1byte] -> %edx  
0x00007f61cc98024e c0 ea 03 shr $0x03 %dl -> %dl  
0x00007f61cc980251 89 d6 mov %edx -> %esi  
0x00007f61cc980253 83 e6 01 and $0x00000001 %esi -> %esi  
0x00007f61cc980256 3b 75 a4 cmp %esi 0xffffffa4(%rbp)[4byte]  
0x00007f61cc980259 89 75 b0 mov %esi -> 0xffffffb0(%rbp)[4byte]  
0x00007f61cc98025c 75 aa jnz $0x00007f61cc980208  
Actual: 7f61cc98025e 
Block 1911: 
0x00007f61cc98025e 48 8d 14 cd 16 00 00 lea 0x16(,%rcx,8) -> %rdx  
0x00007f61cc980266 48 89 65 98 mov %rsp -> 0xffffff98(%rbp)[8byte]  
0x00007f61cc98026a 48 c1 ea 04 shr $0x0000000000000004 %rdx -> %rdx  
0x00007f61cc98026e 48 c1 e2 04 shl $0x0000000000000004 %rdx -> %rdx  
0x00007f61cc980272 48 29 d4 sub %rdx %rsp -> %rsp  
0x00007f61cc980275 31 d2 xor %edx %edx -> %edx  
0x00007f61cc980277 48 89 65 b8 mov %rsp -> 0xffffffb8(%rbp)[8byte]  
0x00007f61cc98027b eb 0c jmp $0x00007f61cc980289  
0x00007f61cc980289 48 39 40 28 cmp 0x28(%rax)[8byte] %rax  
0x00007f61cc98028d 75 f1 jnz $0x00007f61cc980280  
Actual: 7f61cc98028f 
Block 1912: 
0x00007f61cc98028f 48 8b 75 b8 mov 0xffffffb8(%rbp)[8byte] -> %rsi  
0x00007f61cc980293 89 d1 mov %edx -> %ecx  
0x00007f61cc980295 89 90 dc 03 00 00 mov %edx -> 0x000003dc(%rax)[4byte]  
0x00007f61cc98029b 83 80 10 03 00 00 01 add $0x00000001 0x00000310(%rax)[4byte] -> 0x00000310(%rax)[4byte]  
0x00007f61cc9802a2 83 c2 01 add $0x00000001 %edx -> %edx  
0x00007f61cc9802a5 48 89 04 ce mov %rax -> (%rsi,%rcx,8)[8byte]  
0x00007f61cc9802a9 48 8b 40 18 mov 0x18(%rax)[8byte] -> %rax  
0x00007f61cc9802ad 48 85 c0 test %rax %rax  
0x00007f61cc9802b0 75 d7 jnz $0x00007f61cc980289  
Actual: 7f61cc980289 
Block 1913: 
0x00007f61cc980289 48 39 40 28 cmp 0x28(%rax)[8byte] %rax  
0x00007f61cc98028d 75 f1 jnz $0x00007f61cc980280  
Actual: 7f61cc98028f 
Block 1914: 
0x00007f61cc9802b2 66 0f 1f 44 00 00 data16 nop 0x00(%rax,%rax,1)[4byte]  
0x00007f61cc9802b8 89 d0 mov %edx -> %eax  
0x00007f61cc9802ba 48 89 a5 70 ff ff ff mov %rsp -> 0xffffff70(%rbp)[8byte]  
0x00007f61cc9802c1 48 83 f8 01 cmp %rax $0x0000000000000001  
0x00007f61cc9802c5 89 45 b4 mov %eax -> 0xffffffb4(%rbp)[4byte]  
0x00007f61cc9802c8 48 89 45 c0 mov %rax -> 0xffffffc0(%rbp)[8byte]  
0x00007f61cc9802cc 0f 84 d6 02 00 00 jz $0x00007f61cc9805a8  
Actual: 7f61cc9802d2 
Block 1916: 
0x00007f61cc98ce9a 48 83 fa 10 cmp %rdx $0x0000000000000010  
0x00007f61cc98ce9e 0f 86 8a 00 00 00 jbe $0x00007f61cc98cf2e  
Actual: 7f61cc98cea4 
Block 1919: 
0x00007f61cc980307 eb 35 jmp $0x00007f61cc98033e  
0x00007f61cc98033e 4d 8d 4c 5d 00 lea 0x00(%r13,%rbx,2) -> %r9  
0x00007f61cc980343 41 0f b7 01 movzx (%r9)[2byte] -> %eax  
0x00007f61cc980347 8d 48 01 lea 0x01(%rax) -> %ecx  
0x00007f61cc98034a 48 8b 45 b8 mov 0xffffffb8(%rbp)[8byte] -> %rax  
0x00007f61cc98034e 66 41 89 09 data16 mov %cx -> (%r9)[2byte]  
0x00007f61cc980352 48 8d 3c d8 lea (%rax,%rbx,8) -> %rdi  
0x00007f61cc980356 4c 8b 27 mov (%rdi)[8byte] -> %r12  
0x00007f61cc980359 4d 3b 64 24 28 cmp %r12 0x28(%r12)[8byte]  
0x00007f61cc98035e 75 b0 jnz $0x00007f61cc980310  
Actual: 7f61cc980360 
Block 1920: 
0x00007f61cc980360 41 83 bc 24 dc 03 00 cmp 0x000003dc(%r12)[4byte] $0xffffffff  
00 ff 
0x00007f61cc980369 74 a5 jz $0x00007f61cc980310  
Actual: 7f61cc98036b 
Block 1922: 
0x00007f61cc980378 48 8b 45 b8 mov 0xffffffb8(%rbp)[8byte] -> %rax  
0x00007f61cc98037c 44 89 d2 mov %r10d -> %edx  
0x00007f61cc98037f 4c 8d 1c d0 lea (%rax,%rdx,8) -> %r11  
0x00007f61cc980383 49 8b 03 mov (%r11)[8byte] -> %rax  
0x00007f61cc980386 48 8b b0 b8 03 00 00 mov 0x000003b8(%rax)[8byte] -> %rsi  
0x00007f61cc98038d 48 85 f6 test %rsi %rsi  
0x00007f61cc980390 0f 84 ea 01 00 00 jz $0x00007f61cc980580  
Actual: 7f61cc980580 
Block 1923: 
0x00007f61cc980580 48 8b b0 c0 03 00 00 mov 0x000003c0(%rax)[8byte] -> %rsi  
0x00007f61cc980587 48 85 f6 test %rsi %rsi  
0x00007f61cc98058a 0f 85 e5 00 00 00 jnz $0x00007f61cc980675  
Actual: 7f61cc980590 
Block 1924: 
0x00007f61cc980590 41 83 ea 01 sub $0x00000001 %r10d -> %r10d  
0x00007f61cc980594 44 39 55 a8 cmp 0xffffffa8(%rbp)[4byte] %r10d  
0x00007f61cc980598 0f 82 da fd ff ff jb $0x00007f61cc980378  
Actual: 7f61cc980378 
Block 1925: 
0x00007f61cc980396 66 2e 0f 1f 84 00 00 data16 nop %cs:0x00000000(%rax,%rax,1)[4byte]  
00 00 00 
0x00007f61cc9803a0 4c 8b 06 mov (%rsi)[8byte] -> %r8  
0x00007f61cc9803a3 4d 85 c0 test %r8 %r8  
0x00007f61cc9803a6 0f 84 d4 01 00 00 jz $0x00007f61cc980580  
Actual: 7f61cc9803ac 
Block 1926: 
0x00007f61cc9803ac 48 83 c6 08 add $0x0000000000000008 %rsi -> %rsi  
0x00007f61cc9803b0 4d 39 c4 cmp %r12 %r8  
0x00007f61cc9803b3 75 eb jnz $0x00007f61cc9803a0  
Actual: 7f61cc9803a0 
Block 1927: 
0x00007f61cc9803a0 4c 8b 06 mov (%rsi)[8byte] -> %r8  
0x00007f61cc9803a3 4d 85 c0 test %r8 %r8  
0x00007f61cc9803a6 0f 84 d4 01 00 00 jz $0x00007f61cc980580  
Actual: 7f61cc9803ac 
Block 1928: 
0x00007f61cc98059e e9 6d fd ff ff jmp $0x00007f61cc980310  
0x00007f61cc980310 44 89 f3 mov %r14d -> %ebx  
0x00007f61cc980313 48 39 5d c0 cmp 0xffffffc0(%rbp)[8byte] %rbx  
0x00007f61cc980317 44 89 75 a8 mov %r14d -> 0xffffffa8(%rbp)[4byte]  
0x00007f61cc98031b 49 89 d8 mov %rbx -> %r8  
0x00007f61cc98031e 0f 84 0c 01 00 00 jz $0x00007f61cc980430  
Actual: 7f61cc980324 
Block 1930: 
0x00007f61cc98cf2e 66 48 0f 7e c1 movd %xmm0[4byte] -> %rcx  
0x00007f61cc98cf33 f6 c2 18 test %dl $0x18  
0x00007f61cc98cf36 75 22 jnz $0x00007f61cc98cf5a  
Actual: 7f61cc98cf5a 
Block 1932: 
0x00007f61cc98033e 4d 8d 4c 5d 00 lea 0x00(%r13,%rbx,2) -> %r9  
0x00007f61cc980343 41 0f b7 01 movzx (%r9)[2byte] -> %eax  
0x00007f61cc980347 8d 48 01 lea 0x01(%rax) -> %ecx  
0x00007f61cc98034a 48 8b 45 b8 mov 0xffffffb8(%rbp)[8byte] -> %rax  
0x00007f61cc98034e 66 41 89 09 data16 mov %cx -> (%r9)[2byte]  
0x00007f61cc980352 48 8d 3c d8 lea (%rax,%rbx,8) -> %rdi  
0x00007f61cc980356 4c 8b 27 mov (%rdi)[8byte] -> %r12  
0x00007f61cc980359 4d 3b 64 24 28 cmp %r12 0x28(%r12)[8byte]  
0x00007f61cc98035e 75 b0 jnz $0x00007f61cc980310  
Actual: 7f61cc980360 
Block 1933: 
0x00007f61cc9803b5 44 2b 55 a8 sub 0xffffffa8(%rbp)[4byte] %r10d -> %r10d  
0x00007f61cc9803b9 48 8b 45 b8 mov 0xffffffb8(%rbp)[8byte] -> %rax  
0x00007f61cc9803bd 45 89 f0 mov %r14d -> %r8d  
0x00007f61cc9803c0 48 89 95 68 ff ff ff mov %rdx -> 0xffffff68(%rbp)[8byte]  
0x00007f61cc9803c7 4c 89 8d 78 ff ff ff mov %r9 -> 0xffffff78(%rbp)[8byte]  
0x00007f61cc9803ce 4c 89 5d 80 mov %r11 -> 0xffffff80(%rbp)[8byte]  
0x00007f61cc9803d2 89 4d a0 mov %ecx -> 0xffffffa0(%rbp)[4byte]  
0x00007f61cc9803d5 4a 8d 34 c0 lea (%rax,%r8,8) -> %rsi  
0x00007f61cc9803d9 4c 89 45 90 mov %r8 -> 0xffffff90(%rbp)[8byte]  
0x00007f61cc9803dd 4a 8d 14 d5 00 00 00 lea 0x00(,%r10,8) -> %rdx  
0x00007f61cc9803e5 4c 89 55 88 mov %r10 -> 0xffffff88(%rbp)[8byte]  
0x00007f61cc9803e9 e8 82 c7 00 00 call $0x00007f61cc98cb70 %rsp -> %rsp 0xfffffff8(%rsp)[8byte]  
0x00007f61cc98cb70 41 55 push %r13 %rsp -> %rsp 0xfffffff8(%rsp)[8byte]  
0x00007f61cc98cb72 48 89 f8 mov %rdi -> %rax  
0x00007f61cc98cb75 41 54 push %r12 %rsp -> %rsp 0xfffffff8(%rsp)[8byte]  
0x00007f61cc98cb77 55 push %rbp %rsp -> %rsp 0xfffffff8(%rsp)[8byte]  
0x00007f61cc98cb78 53 push %rbx %rsp -> %rsp 0xfffffff8(%rsp)[8byte]  
0x00007f61cc98cb79 48 29 f0 sub %rsi %rax -> %rax  
0x00007f61cc98cb7c 49 89 fc mov %rdi -> %r12  
0x00007f61cc98cb7f 48 83 ec 08 sub $0x0000000000000008 %rsp -> %rsp  
0x00007f61cc98cb83 48 39 d0 cmp %rax %rdx  
0x00007f61cc98cb86 0f 82 54 01 00 00 jb $0x00007f61cc98cce0  
Actual: 7f61cc98cb8c 
Block 1934: 
0x00007f61cc98cb8c 48 83 fa 0f cmp %rdx $0x000000000000000f  
0x00007f61cc98cb90 48 89 fd mov %rdi -> %rbp  
0x00007f61cc98cb93 48 89 f3 mov %rsi -> %rbx  
0x00007f61cc98cb96 76 5d jbe $0x00007f61cc98cbf5  
Actual: 7f61cc98cb98 
Block 1935: 
0x00007f61cc98cb98 48 89 f9 mov %rdi -> %rcx  
0x00007f61cc98cb9b 48 f7 d9 neg %rcx -> %rcx  
0x00007f61cc98cb9e 83 e1 07 and $0x00000007 %ecx -> %ecx  
0x00007f61cc98cba1 48 29 ca sub %rcx %rdx -> %rdx  
0x00007f61cc98cba4 48 85 c9 test %rcx %rcx  
0x00007f61cc98cba7 49 89 d5 mov %rdx -> %r13  
0x00007f61cc98cbaa 74 1b jz $0x00007f61cc98cbc7  
Actual: 7f61cc98cbc7 
Block 1936: 
0x00007f61cc98cbc7 4c 89 ea mov %r13 -> %rdx  
0x00007f61cc98cbca 48 89 de mov %rbx -> %rsi  
0x00007f61cc98cbcd 48 89 ef mov %rbp -> %rdi  
0x00007f61cc98cbd0 48 c1 ea 03 shr $0x0000000000000003 %rdx -> %rdx  
0x00007f61cc98cbd4 f6 c3 07 test %bl $0x07  
0x00007f61cc98cbd7 0f 84 83 02 00 00 jz $0x00007f61cc98ce60  
Actual: 7f61cc98ce60 
Block 1938: 
0x00007f61cc98d3c0 48 8b 06 mov (%rsi)[8byte] -> %rax  
0x00007f61cc98d3c3 48 83 c2 06 add $0x0000000000000006 %rdx -> %rdx  
0x00007f61cc98d3c7 48 83 ee 30 sub $0x0000000000000030 %rsi -> %rsi  
0x00007f61cc98d3cb 48 83 ef 38 sub $0x0000000000000038 %rdi -> %rdi  
0x00007f61cc98d3cf eb 87 jmp $0x00007f61cc98d358  
0x00007f61cc98d358 48 8b 4e 38 mov 0x38(%rsi)[8byte] -> %rcx  
0x00007f61cc98d35c 48 83 c7 40 add $0x0000000000000040 %rdi -> %rdi  
0x00007f61cc98d360 48 89 47 f8 mov %rax -> 0xfffffff8(%rdi)[8byte]  
0x00007f61cc98d364 48 83 ea 08 sub $0x0000000000000008 %rdx -> %rdx  
0x00007f61cc98d368 0f 84 ca 00 00 00 jz $0x00007f61cc98d438  
Actual: 7f61cc98d438 
Block 1940: 
0x00007f61cc98ce65 e9 78 fd ff ff jmp $0x00007f61cc98cbe2  
0x00007f61cc98cbe2 4c 89 e8 mov %r13 -> %rax  
0x00007f61cc98cbe5 4c 89 ea mov %r13 -> %rdx  
0x00007f61cc98cbe8 48 83 e0 f8 and $0xfffffffffffffff8 %rax -> %rax  
0x00007f61cc98cbec 83 e2 07 and $0x00000007 %edx -> %edx  
0x00007f61cc98cbef 48 01 c3 add %rax %rbx -> %rbx  
0x00007f61cc98cbf2 48 01 c5 add %rax %rbp -> %rbp  
0x00007f61cc98cbf5 48 85 d2 test %rdx %rdx  
0x00007f61cc98cbf8 0f 84 cc 00 00 00 jz $0x00007f61cc98ccca  
Actual: 7f61cc98ccca 
Block 1942: 
0x00007f61cc9803ee 4c 8b 45 90 mov 0xffffff90(%rbp)[8byte] -> %r8  
0x00007f61cc9803f2 48 8b 45 c0 mov 0xffffffc0(%rbp)[8byte] -> %rax  
0x00007f61cc9803f6 4c 8b 5d 80 mov 0xffffff80(%rbp)[8byte] -> %r11  
0x00007f61cc9803fa 4c 8b 55 88 mov 0xffffff88(%rbp)[8byte] -> %r10  
0x00007f61cc9803fe 8b 4d a0 mov 0xffffffa0(%rbp)[4byte] -> %ecx  
0x00007f61cc980401 4c 8b 8d 78 ff ff ff mov 0xffffff78(%rbp)[8byte] -> %r9  
0x00007f61cc980408 43 0f b7 54 45 00 movzx 0x00(%r13,%r8,2)[2byte] -> %edx  
0x00007f61cc98040e 48 29 d8 sub %rbx %rax -> %rax  
0x00007f61cc980411 4d 89 23 mov %r12 -> (%r11)[8byte]  
0x00007f61cc980414 48 39 c2 cmp %rdx %rax  
0x00007f61cc980417 0f 86 9d 01 00 00 jbe $0x00007f61cc9805ba  
Actual: 7f61cc9805ba 
Block 1943: 
0x00007f61cc9805ba 4b 8d 14 12 lea (%r10,%r10,1) -> %rdx  
0x00007f61cc9805be 4b 8d 74 45 00 lea 0x00(%r13,%r8,2) -> %rsi  
0x00007f61cc9805c3 4c 89 cf mov %r9 -> %rdi  
0x00007f61cc9805c6 89 4d 90 mov %ecx -> 0xffffff90(%rbp)[4byte]  
0x00007f61cc9805c9 e8 a2 c5 00 00 call $0x00007f61cc98cb70 %rsp -> %rsp 0xfffffff8(%rsp)[8byte]  
0x00007f61cc98cb70 41 55 push %r13 %rsp -> %rsp 0xfffffff8(%rsp)[8byte]  
0x00007f61cc98cb72 48 89 f8 mov %rdi -> %rax  
0x00007f61cc98cb75 41 54 push %r12 %rsp -> %rsp 0xfffffff8(%rsp)[8byte]  
0x00007f61cc98cb77 55 push %rbp %rsp -> %rsp 0xfffffff8(%rsp)[8byte]  
0x00007f61cc98cb78 53 push %rbx %rsp -> %rsp 0xfffffff8(%rsp)[8byte]  
0x00007f61cc98cb79 48 29 f0 sub %rsi %rax -> %rax  
0x00007f61cc98cb7c 49 89 fc mov %rdi -> %r12  
0x00007f61cc98cb7f 48 83 ec 08 sub $0x0000000000000008 %rsp -> %rsp  
0x00007f61cc98cb83 48 39 d0 cmp %rax %rdx  
0x00007f61cc98cb86 0f 82 54 01 00 00 jb $0x00007f61cc98cce0  
Actual: 7f61cc98cb8c 
Block 1944: 
0x00007f61cc98cbf5 48 85 d2 test %rdx %rdx  
0x00007f61cc98cbf8 0f 84 cc 00 00 00 jz $0x00007f61cc98ccca  
Actual: 7f61cc98cbfe 
Block 1945: 
0x00007f61cc98cbfe 0f b6 03 movzx (%rbx)[1byte] -> %eax  
0x00007f61cc98cc01 48 83 fa 01 cmp %rdx $0x0000000000000001  
0x00007f61cc98cc05 88 45 00 mov %al -> 0x00(%rbp)[1byte]  
0x00007f61cc98cc08 0f 84 bc 00 00 00 jz $0x00007f61cc98ccca  
Actual: 7f61cc98cc0e 
Block 1946: 
0x00007f61cc98cc0e 0f b6 43 01 movzx 0x01(%rbx)[1byte] -> %eax  
0x00007f61cc98cc12 48 83 fa 02 cmp %rdx $0x0000000000000002  
0x00007f61cc98cc16 88 45 01 mov %al -> 0x01(%rbp)[1byte]  
0x00007f61cc98cc19 0f 84 ab 00 00 00 jz $0x00007f61cc98ccca  
Actual: 7f61cc98cc1f 
Block 1947: 
0x00007f61cc98cc1f 0f b6 43 02 movzx 0x02(%rbx)[1byte] -> %eax  
0x00007f61cc98cc23 48 83 fa 03 cmp %rdx $0x0000000000000003  
0x00007f61cc98cc27 88 45 02 mov %al -> 0x02(%rbp)[1byte]  
0x00007f61cc98cc2a 0f 84 9a 00 00 00 jz $0x00007f61cc98ccca  
Actual: 7f61cc98cc30 
Block 1948: 
0x00007f61cc98cc30 0f b6 43 03 movzx 0x03(%rbx)[1byte] -> %eax  
0x00007f61cc98cc34 48 83 fa 04 cmp %rdx $0x0000000000000004  
0x00007f61cc98cc38 88 45 03 mov %al -> 0x03(%rbp)[1byte]  
0x00007f61cc98cc3b 0f 84 89 00 00 00 jz $0x00007f61cc98ccca  
Actual: 7f61cc98ccca 
Block 1949: 
0x00007f61cc9805ce 48 8b 85 68 ff ff ff mov 0xffffff68(%rbp)[8byte] -> %rax  
0x00007f61cc9805d5 8b 4d 90 mov 0xffffff90(%rbp)[4byte] -> %ecx  
0x00007f61cc9805d8 66 41 89 4c 45 00 data16 mov %cx -> 0x00(%r13,%rax,2)[2byte]  
0x00007f61cc9805de e9 5b fd ff ff jmp $0x00007f61cc98033e  
0x00007f61cc98033e 4d 8d 4c 5d 00 lea 0x00(%r13,%rbx,2) -> %r9  
0x00007f61cc980343 41 0f b7 01 movzx (%r9)[2byte] -> %eax  
0x00007f61cc980347 8d 48 01 lea 0x01(%rax) -> %ecx  
0x00007f61cc98034a 48 8b 45 b8 mov 0xffffffb8(%rbp)[8byte] -> %rax  
0x00007f61cc98034e 66 41 89 09 data16 mov %cx -> (%r9)[2byte]  
0x00007f61cc980352 48 8d 3c d8 lea (%rax,%rbx,8) -> %rdi  
0x00007f61cc980356 4c 8b 27 mov (%rdi)[8byte] -> %r12  
0x00007f61cc980359 4d 3b 64 24 28 cmp %r12 0x28(%r12)[8byte]  
0x00007f61cc98035e 75 b0 jnz $0x00007f61cc980310  
Actual: 7f61cc980360 
Block 1950: 
0x00007f61cc98cf38 f6 c2 04 test %dl $0x04  
0x00007f61cc98cf3b 75 16 jnz $0x00007f61cc98cf53  
Actual: 7f61cc98cf53 
Block 1952: 
0x00007f61cc98cf3d f6 c2 01 test %dl $0x01  
0x00007f61cc98cf40 74 02 jz $0x00007f61cc98cf44  
Actual: 7f61cc98cf44 
Block 1953: 
0x00007f61cc98cf44 f6 c2 02 test %dl $0x02  
0x00007f61cc98cf47 0f 84 67 ff ff ff jz $0x00007f61cc98ceb4  
Actual: 7f61cc98cf4d 
Block 1955: 
0x00007f61cc980310 44 89 f3 mov %r14d -> %ebx  
0x00007f61cc980313 48 39 5d c0 cmp 0xffffffc0(%rbp)[8byte] %rbx  
0x00007f61cc980317 44 89 75 a8 mov %r14d -> 0xffffffa8(%rbp)[4byte]  
0x00007f61cc98031b 49 89 d8 mov %rbx -> %r8  
0x00007f61cc98031e 0f 84 0c 01 00 00 jz $0x00007f61cc980430  
Actual: 7f61cc980430 
Block 1957: 
0x00007f61cc980444 8b 75 b4 mov 0xffffffb4(%rbp)[4byte] -> %esi  
0x00007f61cc980447 85 f6 test %esi %esi  
0x00007f61cc980449 0f 84 c7 00 00 00 jz $0x00007f61cc980516  
Actual: 7f61cc98044f 
Block 1958: 
0x00007f61cc98044f 4c 89 7d a8 mov %r15 -> 0xffffffa8(%rbp)[8byte]  
0x00007f61cc980453 4c 8b 7d b8 mov 0xffffffb8(%rbp)[8byte] -> %r15  
0x00007f61cc980457 45 31 ed xor %r13d %r13d -> %r13d  
0x00007f61cc98045a 66 0f 1f 44 00 00 data16 nop 0x00(%rax,%rax,1)[4byte]  
0x00007f61cc980460 4b 8b 1c ef mov (%r15,%r13,8)[8byte] -> %rbx  
0x00007f61cc980464 0f b6 83 14 03 00 00 movzx 0x00000314(%rbx)[1byte] -> %eax  
0x00007f61cc98046b a8 08 test %al $0x08  
0x00007f61cc98046d 0f 84 8a 00 00 00 jz $0x00007f61cc9804fd  
Actual: 7f61cc980473 
Block 1959: 
0x00007f61cc980473 83 e0 f7 and $0xfffffff7 %eax -> %eax  
0x00007f61cc980476 88 83 14 03 00 00 mov %al -> 0x00000314(%rbx)[1byte]  
0x00007f61cc98047c 48 8b 83 10 01 00 00 mov 0x00000110(%rbx)[8byte] -> %rax  
0x00007f61cc980483 48 85 c0 test %rax %rax  
0x00007f61cc980486 0f 84 94 00 00 00 jz $0x00007f61cc980520  
Actual: 7f61cc98048c 
Block 1960: 
0x00007f61cc98048c f6 05 ed 37 21 00 02 test <rel> 0x00007f61ccb93c80[1byte] $0x02  
0x00007f61cc980493 0f 85 9f 00 00 00 jnz $0x00007f61cc980538  
Actual: 7f61cc980499 
Block 1961: 
0x00007f61cc980499 4c 8b 60 08 mov 0x08(%rax)[8byte] -> %r12  
0x00007f61cc98049d 48 8b 83 20 01 00 00 mov 0x00000120(%rbx)[8byte] -> %rax  
0x00007f61cc9804a4 4c 03 23 add (%rbx)[8byte] %r12 -> %r12  
0x00007f61cc9804a7 48 8b 50 08 mov 0x08(%rax)[8byte] -> %rdx  
0x00007f61cc9804ab 48 c1 ea 03 shr $0x0000000000000003 %rdx -> %rdx  
0x00007f61cc9804af 85 d2 test %edx %edx  
0x00007f61cc9804b1 44 8d 72 ff lea 0xffffffff(%rdx) -> %r14d  
0x00007f61cc9804b5 75 0c jnz $0x00007f61cc9804c3  
Actual: 7f61cc9804c3 
Block 1963: 
0x0000000000400ae0 80 3d 01 f2 20 00 00 cmp <rel> 0x000000000060fce8[1byte] $0x00  
0x0000000000400ae7 75 11 jnz $0x0000000000400afa  
Actual: 400ae9 
Block 1964: 
0x0000000000400ae9 55 push %rbp %rsp -> %rsp 0xfffffff8(%rsp)[8byte]  
0x0000000000400aea 48 89 e5 mov %rsp -> %rbp  
0x0000000000400aed e8 6e ff ff ff call $0x0000000000400a60 %rsp -> %rsp 0xfffffff8(%rsp)[8byte]  
0x0000000000400a60 b8 e7 fc 60 00 mov $0x0060fce7 -> %eax  
0x0000000000400a65 55 push %rbp %rsp -> %rsp 0xfffffff8(%rsp)[8byte]  
0x0000000000400a66 48 2d e0 fc 60 00 sub $0x000000000060fce0 %rax -> %rax  
0x0000000000400a6c 48 83 f8 0e cmp %rax $0x000000000000000e  
0x0000000000400a70 48 89 e5 mov %rsp -> %rbp  
0x0000000000400a73 76 1b jbe $0x0000000000400a90  
Actual: 400a90 
Block 1967: 
0x00007f61cc9804ca 45 85 f6 test %r14d %r14d  
0x00007f61cc9804cd 41 8d 56 ff lea 0xffffffff(%r14) -> %edx  
0x00007f61cc9804d1 75 ed jnz $0x00007f61cc9804c0  
Actual: 7f61cc9804d3 
Block 1968: 
0x00007f61cc9804d3 48 8b 83 a8 00 00 00 mov 0x000000a8(%rbx)[8byte] -> %rax  
0x00007f61cc9804da 48 85 c0 test %rax %rax  
0x00007f61cc9804dd 74 09 jz $0x00007f61cc9804e8  
Actual: 7f61cc9804df 
Block 1971: 
0x00007f61cc9804e8 8b 4d b0 mov 0xffffffb0(%rbp)[4byte] -> %ecx  
0x00007f61cc9804eb 85 c9 test %ecx %ecx  
0x00007f61cc9804ed 75 0e jnz $0x00007f61cc9804fd  
Actual: 7f61cc9804ef 
Block 1972: 
0x00007f61cc9804ef 8b 05 f3 38 21 00 mov <rel> 0x00007f61ccb93de8[4byte] -> %eax  
0x00007f61cc9804f5 85 c0 test %eax %eax  
0x00007f61cc9804f7 0f 85 e6 00 00 00 jnz $0x00007f61cc9805e3  
Actual: 7f61cc9804fd 
Block 1974: 
0x00007f61cc980460 4b 8b 1c ef mov (%r15,%r13,8)[8byte] -> %rbx  
0x00007f61cc980464 0f b6 83 14 03 00 00 movzx 0x00000314(%rbx)[1byte] -> %eax  
0x00007f61cc98046b a8 08 test %al $0x08  
0x00007f61cc98046d 0f 84 8a 00 00 00 jz $0x00007f61cc9804fd  
Actual: 7f61cc9804fd 
Block 1975: 
0x00007f61cc980520 48 8b 83 a8 00 00 00 mov 0x000000a8(%rbx)[8byte] -> %rax  
0x00007f61cc980527 48 85 c0 test %rax %rax  
0x00007f61cc98052a 74 bc jz $0x00007f61cc9804e8  
Actual: 7f61cc98052c 
Block 1976: 
0x00007f61cc98052c f6 05 4d 37 21 00 02 test <rel> 0x00007f61ccb93c80[1byte] $0x02  
0x00007f61cc980533 74 aa jz $0x00007f61cc9804df  
Actual: 7f61cc9804df 
Block 1978: 
0x00007f61cc549a70 80 3d 29 18 21 00 00 cmp <rel> 0x00007f61cc75b2a0[1byte] $0x00  
0x00007f61cc549a77 75 27 jnz $0x00007f61cc549aa0  
Actual: 7f61cc549a79 
Block 1979: 
0x00007f61cc549a79 48 83 3d 67 15 21 00 cmp <rel> 0x00007f61cc75afe8[8byte] $0x0000000000000000  
0x00007f61cc549a81 55 push %rbp %rsp -> %rsp 0xfffffff8(%rsp)[8byte]  
0x00007f61cc549a82 48 89 e5 mov %rsp -> %rbp  
0x00007f61cc549a85 74 0c jz $0x00007f61cc549a93  
Actual: 7f61cc549a87 
Block 1981: 
0x00007f61cc1bb4a0 41 57 push %r15 %rsp -> %rsp 0xfffffff8(%rsp)[8byte]  
0x00007f61cc1bb4a2 41 56 push %r14 %rsp -> %rsp 0xfffffff8(%rsp)[8byte]  
0x00007f61cc1bb4a4 41 55 push %r13 %rsp -> %rsp 0xfffffff8(%rsp)[8byte]  
0x00007f61cc1bb4a6 41 54 push %r12 %rsp -> %rsp 0xfffffff8(%rsp)[8byte]  
0x00007f61cc1bb4a8 45 31 ed xor %r13d %r13d -> %r13d  
0x00007f61cc1bb4ab 55 push %rbp %rsp -> %rsp 0xfffffff8(%rsp)[8byte]  
0x00007f61cc1bb4ac 53 push %rbx %rsp -> %rsp 0xfffffff8(%rsp)[8byte]  
0x00007f61cc1bb4ad 48 89 fd mov %rdi -> %rbp  
0x00007f61cc1bb4b0 48 83 ec 08 sub $0x0000000000000008 %rsp -> %rsp  
0x00007f61cc1bb4b4 4c 8b 35 1d 31 38 00 mov <rel> 0x00007f61cc53e5d8[8byte] -> %r14  
0x00007f61cc1bb4bb 4d 85 f6 test %r14 %r14  
0x00007f61cc1bb4be 0f 84 98 00 00 00 jz $0x00007f61cc1bb55c  
Actual: 7f61cc1bb4c4 
Block 1982: 
0x00007f61cc1bb4c4 0f 1f 40 00 nop 0x00(%rax)[4byte]  
0x00007f61cc1bb4c8 49 8b 46 08 mov 0x08(%r14)[8byte] -> %rax  
0x00007f61cc1bb4cc 4d 8d 66 10 lea 0x10(%r14) -> %r12  
0x00007f61cc1bb4d0 48 c1 e0 05 shl $0x0000000000000005 %rax -> %rax  
0x00007f61cc1bb4d4 49 8d 5c 06 f0 lea 0xfffffff0(%r14,%rax,1) -> %rbx  
0x00007f61cc1bb4d9 4c 39 e3 cmp %rbx %r12  
0x00007f61cc1bb4dc 72 72 jb $0x00007f61cc1bb550  
Actual: 7f61cc1bb550 
Block 1983: 
0x00007f61cc1bb550 4d 8b 36 mov (%r14)[8byte] -> %r14  
0x00007f61cc1bb553 4d 85 f6 test %r14 %r14  
0x00007f61cc1bb556 0f 85 6c ff ff ff jnz $0x00007f61cc1bb4c8  
Actual: 7f61cc1bb55c 
Block 1984: 
0x00007f61cc1bb55c 48 8b 0d 7d 30 38 00 mov <rel> 0x00007f61cc53e5e0[8byte] -> %rcx  
0x00007f61cc1bb563 48 85 c9 test %rcx %rcx  
0x00007f61cc1bb566 74 4f jz $0x00007f61cc1bb5b7  
Actual: 7f61cc1bb568 
Block 1985: 
0x00007f61cc1bb568 0f 1f 84 00 00 00 00 nop 0x00000000(%rax,%rax,1)[4byte]  
0x00007f61cc1bb570 48 8b 41 08 mov 0x08(%rcx)[8byte] -> %rax  
0x00007f61cc1bb574 48 8d 51 10 lea 0x10(%rcx) -> %rdx  
0x00007f61cc1bb578 48 c1 e0 05 shl $0x0000000000000005 %rax -> %rax  
0x00007f61cc1bb57c 48 8d 44 01 f0 lea 0xfffffff0(%rcx,%rax,1) -> %rax  
0x00007f61cc1bb581 48 39 d0 cmp %rax %rdx  
0x00007f61cc1bb584 72 29 jb $0x00007f61cc1bb5af  
Actual: 7f61cc1bb5af 
Block 1986: 
0x00007f61cc1bb5af 48 8b 09 mov (%rcx)[8byte] -> %rcx  
0x00007f61cc1bb5b2 48 85 c9 test %rcx %rcx  
0x00007f61cc1bb5b5 75 b9 jnz $0x00007f61cc1bb570  
Actual: 7f61cc1bb5b7 
Block 1987: 
0x00007f61cc1bb5b7 48 85 ed test %rbp %rbp  
0x00007f61cc1bb5ba 0f 84 a9 00 00 00 jz $0x00007f61cc1bb669  
Actual: 7f61cc1bb5c0 
Block 1988: 
0x00007f61cc1bb5c0 48 83 c4 08 add $0x0000000000000008 %rsp -> %rsp  
0x00007f61cc1bb5c4 48 89 ef mov %rbp -> %rdi  
0x00007f61cc1bb5c7 5b pop %rsp (%rsp)[8byte] -> %rbx %rsp  
0x00007f61cc1bb5c8 5d pop %rsp (%rsp)[8byte] -> %rbp %rsp  
0x00007f61cc1bb5c9 41 5c pop %rsp (%rsp)[8byte] -> %r12 %rsp  
0x00007f61cc1bb5cb 41 5d pop %rsp (%rsp)[8byte] -> %r13 %rsp  
0x00007f61cc1bb5cd 41 5e pop %rsp (%rsp)[8byte] -> %r14 %rsp  
0x00007f61cc1bb5cf 41 5f pop %rsp (%rsp)[8byte] -> %r15 %rsp  
0x00007f61cc1bb5d1 e9 9a 79 0d 00 jmp $0x00007f61cc292f70  
0x00007f61cc292f70 4c 8b 0d 91 07 2b 00 mov <rel> 0x00007f61cc543708[8byte] -> %r9  
0x00007f61cc292f77 4d 85 c9 test %r9 %r9  
0x00007f61cc292f7a 0f 84 76 01 00 00 jz $0x00007f61cc2930f6  
Actual: 7f61cc292f80 
Block 1989: 
0x00007f61cc292f80 49 3b 79 20 cmp %rdi 0x20(%r9)[8byte]  
0x00007f61cc292f84 49 89 fa mov %rdi -> %r10  
0x00007f61cc292f87 75 10 jnz $0x00007f61cc292f99  
Actual: 7f61cc292f99 
Block 1990: 
0x00007f61cc292f99 49 8b 11 mov (%r9)[8byte] -> %rdx  
0x00007f61cc292f9c 48 85 d2 test %rdx %rdx  
0x00007f61cc292f9f 75 ef jnz $0x00007f61cc292f90  
Actual: 7f61cc292fa1 
Block 1992: 
0x00007f61cc549a93 e8 48 ff ff ff call $0x00007f61cc5499e0 %rsp -> %rsp 0xfffffff8(%rsp)[8byte]  
0x00007f61cc5499e0 48 8d 3d b9 18 21 00 lea <rel> 0x00007f61cc75b2a0 -> %rdi  
0x00007f61cc5499e7 48 8d 05 b9 18 21 00 lea <rel> 0x00007f61cc75b2a7 -> %rax  
0x00007f61cc5499ee 55 push %rbp %rsp -> %rsp 0xfffffff8(%rsp)[8byte]  
0x00007f61cc5499ef 48 29 f8 sub %rdi %rax -> %rax  
0x00007f61cc5499f2 48 89 e5 mov %rsp -> %rbp  
0x00007f61cc5499f5 48 83 f8 0e cmp %rax $0x000000000000000e  
0x00007f61cc5499f9 76 15 jbe $0x00007f61cc549a10  
Actual: 7f61cc549a10 
Block 1996: 
0x00007f61cbf7eda0 48 8d 3d 19 23 20 00 lea <rel> 0x00007f61cc1810c0 -> %rdi  
0x00007f61cbf7eda7 e9 24 04 00 00 jmp $0x00007f61cbf7f1d0  
0x00007f61cbf7f1d0 48 8b 77 18 mov 0x18(%rdi)[8byte] -> %rsi  
0x00007f61cbf7f1d4 48 85 f6 test %rsi %rsi  
0x00007f61cbf7f1d7 74 1d jz $0x00007f61cbf7f1f6  
Actual: 7f61cbf7f1f6 
Block 1999: 
0x00007f61cbf7ee40 80 3d 39 22 20 00 00 cmp <rel> 0x00007f61cc181080[1byte] $0x00  
0x00007f61cbf7ee47 75 27 jnz $0x00007f61cbf7ee70  
Actual: 7f61cbf7ee49 
Block 2000: 
0x00007f61cbf7ee49 48 83 3d a7 21 20 00 cmp <rel> 0x00007f61cc180ff8[8byte] $0x0000000000000000  
0x00007f61cbf7ee51 55 push %rbp %rsp -> %rsp 0xfffffff8(%rsp)[8byte]  
0x00007f61cbf7ee52 48 89 e5 mov %rsp -> %rbp  
0x00007f61cbf7ee55 74 0c jz $0x00007f61cbf7ee63  
Actual: 7f61cbf7ee57 
Block 2002: 
0x00007f61cbf7ee63 e8 48 ff ff ff call $0x00007f61cbf7edb0 %rsp -> %rsp 0xfffffff8(%rsp)[8byte]  
0x00007f61cbf7edb0 48 8d 3d b1 22 20 00 lea <rel> 0x00007f61cc181068 -> %rdi  
0x00007f61cbf7edb7 48 8d 05 b1 22 20 00 lea <rel> 0x00007f61cc18106f -> %rax  
0x00007f61cbf7edbe 55 push %rbp %rsp -> %rsp 0xfffffff8(%rsp)[8byte]  
0x00007f61cbf7edbf 48 29 f8 sub %rdi %rax -> %rax  
0x00007f61cbf7edc2 48 89 e5 mov %rsp -> %rbp  
0x00007f61cbf7edc5 48 83 f8 0e cmp %rax $0x000000000000000e  
0x00007f61cbf7edc9 76 15 jbe $0x00007f61cbf7ede0  
Actual: 7f61cbf7ede0 
Block 2006: 
0x00007f61cbc79640 80 3d 95 3a 30 00 00 cmp <rel> 0x00007f61cbf7d0dc[1byte] $0x00  
0x00007f61cbc79647 75 27 jnz $0x00007f61cbc79670  
Actual: 7f61cbc79649 
Block 2007: 
0x00007f61cbc79649 48 83 3d 9f 39 30 00 cmp <rel> 0x00007f61cbf7cff0[8byte] $0x0000000000000000  
0x00007f61cbc79651 55 push %rbp %rsp -> %rsp 0xfffffff8(%rsp)[8byte]  
0x00007f61cbc79652 48 89 e5 mov %rsp -> %rbp  
0x00007f61cbc79655 74 0c jz $0x00007f61cbc79663  
Actual: 7f61cbc79657 
Block 2009: 
0x00007f61cbc79663 e8 48 ff ff ff call $0x00007f61cbc795b0 %rsp -> %rsp 0xfffffff8(%rsp)[8byte]  
0x00007f61cbc795b0 48 8d 3d 29 3b 30 00 lea <rel> 0x00007f61cbf7d0e0 -> %rdi  
0x00007f61cbc795b7 48 8d 05 29 3b 30 00 lea <rel> 0x00007f61cbf7d0e7 -> %rax  
0x00007f61cbc795be 55 push %rbp %rsp -> %rsp 0xfffffff8(%rsp)[8byte]  
0x00007f61cbc795bf 48 29 f8 sub %rdi %rax -> %rax  
0x00007f61cbc795c2 48 89 e5 mov %rsp -> %rbp  
0x00007f61cbc795c5 48 83 f8 0e cmp %rax $0x000000000000000e  
0x00007f61cbc795c9 76 15 jbe $0x00007f61cbc795e0  
Actual: 7f61cbc795e0 
Block 2013: 
0x00007f61cc980512 4c 8b 7d a8 mov 0xffffffa8(%rbp)[8byte] -> %r15  
0x00007f61cc980516 48 8b 65 98 mov 0xffffff98(%rbp)[8byte] -> %rsp  
0x00007f61cc98051a e9 f6 fc ff ff jmp $0x00007f61cc980215  
0x00007f61cc980215 48 83 6d c8 01 sub $0x0000000000000001 0xffffffc8(%rbp)[8byte] -> 0xffffffc8(%rbp)[8byte]  
0x00007f61cc98021a 49 81 ef 90 00 00 00 sub $0x0000000000000090 %r15 -> %r15  
0x00007f61cc980221 48 8b 45 c8 mov 0xffffffc8(%rbp)[8byte] -> %rax  
0x00007f61cc980225 48 83 f8 ff cmp %rax $0xffffffffffffffff  
0x00007f61cc980229 0f 84 01 04 00 00 jz $0x00007f61cc980630  
Actual: 7f61cc980630 
Block 2014: 
0x00007f61cc980630 8b 55 a4 mov 0xffffffa4(%rbp)[4byte] -> %edx  
0x00007f61cc980633 85 d2 test %edx %edx  
0x00007f61cc980635 75 26 jnz $0x00007f61cc98065d  
Actual: 7f61cc980637 
Block 2015: 
0x00007f61cc980637 8b 05 ab 37 21 00 mov <rel> 0x00007f61ccb93de8[4byte] -> %eax  
0x00007f61cc98063d 85 c0 test %eax %eax  
0x00007f61cc98063f 74 1c jz $0x00007f61cc98065d  
Actual: 7f61cc98065d 
Block 2016: 
0x00007f61cc98065d f6 05 1c 36 21 00 80 test <rel> 0x00007f61ccb93c80[1byte] $0x80  
0x00007f61cc980664 75 6d jnz $0x00007f61cc9806d3  
Actual: 7f61cc980666 
Block 2018: 
0x00007f61cc1bb1e8 e9 33 ff ff ff jmp $0x00007f61cc1bb120  
0x00007f61cc1bb120 49 8b 45 08 mov 0x08(%r13)[8byte] -> %rax  
0x00007f61cc1bb124 48 89 c2 mov %rax -> %rdx  
0x00007f61cc1bb127 48 c1 e2 05 shl $0x0000000000000005 %rdx -> %rdx  
0x00007f61cc1bb12b 48 85 c0 test %rax %rax  
0x00007f61cc1bb12e 49 8d 4c 15 f0 lea 0xfffffff0(%r13,%rdx,1) -> %rcx  
0x00007f61cc1bb133 74 2a jz $0x00007f61cc1bb15f  
Actual: 7f61cc1bb15f 
Block 2019: 
0x00007f61cc1bb15f 49 8b 45 00 mov 0x00(%r13)[8byte] -> %rax  
0x00007f61cc1bb163 48 85 c0 test %rax %rax  
0x00007f61cc1bb166 48 89 45 00 mov %rax -> 0x00(%rbp)[8byte]  
0x00007f61cc1bb16a 0f 85 9d 00 00 00 jnz $0x00007f61cc1bb20d  
Actual: 7f61cc1bb170 
Block 2020: 
0x00007f61cc1bb170 45 84 e4 test %r12l %r12l  
0x00007f61cc1bb173 74 1f jz $0x00007f61cc1bb194  
Actual: 7f61cc1bb175 
Block 2023: 
0x00007f61cc1fc1a0 41 55 push %r13 %rsp -> %rsp 0xfffffff8(%rsp)[8byte]  
0x00007f61cc1fc1a2 41 54 push %r12 %rsp -> %rsp 0xfffffff8(%rsp)[8byte]  
0x00007f61cc1fc1a4 31 ff xor %edi %edi -> %edi  
0x00007f61cc1fc1a6 55 push %rbp %rsp -> %rsp 0xfffffff8(%rsp)[8byte]  
0x00007f61cc1fc1a7 53 push %rbx %rsp -> %rsp 0xfffffff8(%rsp)[8byte]  
0x00007f61cc1fc1a8 64 4c 8b 24 25 10 00 mov %fs:0x10[8byte] -> %r12  
00 00 
0x00007f61cc1fc1b1 48 83 ec 08 sub $0x0000000000000008 %rsp -> %rsp  
0x00007f61cc1fc1b5 e8 e6 fc ff ff call $0x00007f61cc1fbea0 %rsp -> %rsp 0xfffffff8(%rsp)[8byte]  
0x00007f61cc1fbea0 41 57 push %r15 %rsp -> %rsp 0xfffffff8(%rsp)[8byte]  
0x00007f61cc1fbea2 41 56 push %r14 %rsp -> %rsp 0xfffffff8(%rsp)[8byte]  
0x00007f61cc1fbea4 41 89 fe mov %edi -> %r14d  
0x00007f61cc1fbea7 41 55 push %r13 %rsp -> %rsp 0xfffffff8(%rsp)[8byte]  
0x00007f61cc1fbea9 41 54 push %r12 %rsp -> %rsp 0xfffffff8(%rsp)[8byte]  
0x00007f61cc1fbeab 55 push %rbp %rsp -> %rsp 0xfffffff8(%rsp)[8byte]  
0x00007f61cc1fbeac 53 push %rbx %rsp -> %rsp 0xfffffff8(%rsp)[8byte]  
0x00007f61cc1fbead 48 83 ec 28 sub $0x0000000000000028 %rsp -> %rsp  
0x00007f61cc1fbeb1 85 ff test %edi %edi  
0x00007f61cc1fbeb3 0f 84 2f 02 00 00 jz $0x00007f61cc1fc0e8  
Actual: 7f61cc1fc0e8 
Block 2024: 
0x00007f61cc1fc0e8 48 8b 1d 11 34 34 00 mov <rel> 0x00007f61cc53f500[8byte] -> %rbx  
0x00007f61cc1fc0ef 45 31 ed xor %r13d %r13d -> %r13d  
0x00007f61cc1fc0f2 44 8b 3d 3f 46 34 00 mov <rel> 0x00007f61cc540738[4byte] -> %r15d  
0x00007f61cc1fc0f9 48 85 db test %rbx %rbx  
0x00007f61cc1fc0fc 0f 85 59 fe ff ff jnz $0x00007f61cc1fbf5b  
Actual: 7f61cc1fbf5b 
Block 2025: 
0x00007f61cc1fbf5b 31 ed xor %ebp %ebp -> %ebp  
0x00007f61cc1fbf5d 64 4c 8b 24 25 10 00 mov %fs:0x10[8byte] -> %r12  
00 00 
0x00007f61cc1fbf66 eb 1b jmp $0x00007f61cc1fbf83  
0x00007f61cc1fbf83 45 85 f6 test %r14d %r14d  
0x00007f61cc1fbf86 48 89 1d a3 47 34 00 mov %rbx -> <rel> 0x00007f61cc540730[8byte]  
0x00007f61cc1fbf8d 74 56 jz $0x00007f61cc1fbfe5  
Actual: 7f61cc1fbfe5 
Block 2028: 
0x00007f61cc1fc11e e9 fe fe ff ff jmp $0x00007f61cc1fc021  
0x00007f61cc1fc021 45 85 f6 test %r14d %r14d  
0x00007f61cc1fc024 74 4a jz $0x00007f61cc1fc070  
Actual: 7f61cc1fc070 
Block 2029: 
0x00007f61cc1fc070 8b 05 c2 46 34 00 mov <rel> 0x00007f61cc540738[4byte] -> %eax  
0x00007f61cc1fc076 48 c7 05 af 46 34 00 mov $0x0000000000000000 -> <rel> 0x00007f61cc540730[8byte]  
00 00 00 00 
0x00007f61cc1fc081 44 39 f8 cmp %eax %r15d  
0x00007f61cc1fc084 0f 85 e6 fe ff ff jnz $0x00007f61cc1fbf70  
Actual: 7f61cc1fc08a 
Block 2030: 
0x00007f61cc1fc08a 48 8b 5b 68 mov 0x68(%rbx)[8byte] -> %rbx  
0x00007f61cc1fc08e 41 89 c7 mov %eax -> %r15d  
0x00007f61cc1fc091 48 85 db test %rbx %rbx  
0x00007f61cc1fc094 0f 85 e9 fe ff ff jnz $0x00007f61cc1fbf83  
Actual: 7f61cc1fbf83 
Block 2031: 
0x00007f61cc1fbf83 45 85 f6 test %r14d %r14d  
0x00007f61cc1fbf86 48 89 1d a3 47 34 00 mov %rbx -> <rel> 0x00007f61cc540730[8byte]  
0x00007f61cc1fbf8d 74 56 jz $0x00007f61cc1fbfe5  
Actual: 7f61cc1fbfe5 
Block 2033: 
0x00007f61cc1fa5a9 48 8b 77 20 mov 0x20(%rdi)[8byte] -> %rsi  
0x00007f61cc1fa5ad 48 85 f6 test %rsi %rsi  
0x00007f61cc1fa5b0 0f 84 aa 01 00 00 jz $0x00007f61cc1fa760  
Actual: 7f61cc1fa5b6 
Block 2034: 
0x00007f61cc1fa5b6 48 8b 57 28 mov 0x28(%rdi)[8byte] -> %rdx  
0x00007f61cc1fa5ba 83 fd ff cmp %ebp $0xffffffff  
0x00007f61cc1fa5bd 0f 84 55 01 00 00 jz $0x00007f61cc1fa718  
Actual: 7f61cc1fa718 
Block 2035: 
0x00007f61cc1fa200 41 55 push %r13 %rsp -> %rsp 0xfffffff8(%rsp)[8byte]  
0x00007f61cc1fa202 41 54 push %r12 %rsp -> %rsp 0xfffffff8(%rsp)[8byte]  
0x00007f61cc1fa204 49 89 f4 mov %rsi -> %r12  
0x00007f61cc1fa207 55 push %rbp %rsp -> %rsp 0xfffffff8(%rsp)[8byte]  
0x00007f61cc1fa208 53 push %rbx %rsp -> %rsp 0xfffffff8(%rsp)[8byte]  
0x00007f61cc1fa209 48 89 d5 mov %rdx -> %rbp  
0x00007f61cc1fa20c 48 89 fb mov %rdi -> %rbx  
0x00007f61cc1fa20f 48 83 ec 08 sub $0x0000000000000008 %rsp -> %rsp  
0x00007f61cc1fa213 f7 07 00 10 00 00 test (%rdi)[4byte] $0x00001000  
0x00007f61cc1fa219 0f 85 a1 00 00 00 jnz $0x00007f61cc1fa2c0  
Actual: 7f61cc1fa21f 
Block 2036: 
0x00007f61cc1fa21f 48 8b 47 10 mov 0x10(%rdi)[8byte] -> %rax  
0x00007f61cc1fa223 48 8b 77 20 mov 0x20(%rdi)[8byte] -> %rsi  
0x00007f61cc1fa227 48 39 f0 cmp %rax %rsi  
0x00007f61cc1fa22a 74 2a jz $0x00007f61cc1fa256  
Actual: 7f61cc1fa256 
Block 2039: 
0x00007f61cc1f8a94 48 89 f5 mov %rsi -> %rbp  
0x00007f61cc1f8a97 49 89 d4 mov %rdx -> %r12  
0x00007f61cc1f8a9a 48 89 d3 mov %rdx -> %rbx  
0x00007f61cc1f8a9d 41 bd 01 00 00 00 mov $0x00000001 -> %r13d  
0x00007f61cc1f8aa3 0f 1f 44 00 00 nop 0x00(%rax,%rax,1)[4byte]  
0x00007f61cc1f8aa8 41 f6 46 74 02 test 0x74(%r14)[1byte] $0x02  
0x00007f61cc1f8aad 74 51 jz $0x00007f61cc1f8b00  
Actual: 7f61cc1f8b00 
Block 2040: 
0x00007f61cc1f8b00 41 8b 7e 70 mov 0x70(%r14)[4byte] -> %edi  
0x00007f61cc1f8b04 48 89 da mov %rbx -> %rdx  
0x00007f61cc1f8b07 48 89 ee mov %rbp -> %rsi  
0x00007f61cc1f8b0a e8 b1 c4 07 00 call $0x00007f61cc274fc0 %rsp -> %rsp 0xfffffff8(%rsp)[8byte]  
0x00007f61cc274fc0 83 3d 39 e7 2c 00 00 cmp <rel> 0x00007f61cc543700[4byte] $0x00000000  
0x00007f61cc274fc7 75 10 jnz $0x00007f61cc274fd9  
Actual: 7f61cc274fc9 
Block 2047: 
0x00007f61cc1fa269 49 89 c5 mov %rax -> %r13  
0x00007f61cc1fa26c 0f b7 83 80 00 00 00 movzx 0x00000080(%rbx)[2byte] -> %eax  
0x00007f61cc1fa273 4d 85 ed test %r13 %r13  
0x00007f61cc1fa276 74 05 jz $0x00007f61cc1fa27d  
Actual: 7f61cc1fa278 
Block 2048: 
0x00007f61cc1fa278 66 85 c0 data16 test %ax %ax  
0x00007f61cc1fa27b 75 63 jnz $0x00007f61cc1fa2e0  
Actual: 7f61cc1fa27d 
Block 2050: 
0x00007f61cc1fa2d0 f7 03 02 02 00 00 test (%rbx)[4byte] $0x00000202  
0x00007f61cc1fa2d6 75 cb jnz $0x00007f61cc1fa2a3  
Actual: 7f61cc1fa2d8 
Block 2052: 
0x00007f61cc1fc016 83 f8 ff cmp %eax $0xffffffff  
0x00007f61cc1fc019 b8 ff ff ff ff mov $0xffffffff -> %eax  
0x00007f61cc1fc01e 0f 44 e8 cmovz %eax %ebp -> %ebp  
0x00007f61cc1fc021 45 85 f6 test %r14d %r14d  
0x00007f61cc1fc024 74 4a jz $0x00007f61cc1fc070  
Actual: 7f61cc1fc070 
Block 2053: 
0x00007f61cc1fc09a 45 85 f6 test %r14d %r14d  
0x00007f61cc1fc09d 74 13 jz $0x00007f61cc1fc0b2  
Actual: 7f61cc1fc0b2 
Block 2054: 
0x00007f61cc1fc0b2 45 85 ed test %r13d %r13d  
0x00007f61cc1fc0b5 74 1b jz $0x00007f61cc1fc0d2  
Actual: 7f61cc1fc0d2 
Block 2056: 
0x00007f61cc1fc1ba 48 8b 1d 3f 33 34 00 mov <rel> 0x00007f61cc53f500[8byte] -> %rbx  
0x00007f61cc1fc1c1 41 89 c5 mov %eax -> %r13d  
0x00007f61cc1fc1c4 48 85 db test %rbx %rbx  
0x00007f61cc1fc1c7 0f 85 96 00 00 00 jnz $0x00007f61cc1fc263  
Actual: 7f61cc1fc263 
Block 2057: 
0x00007f61cc1fc263 8b 2b mov (%rbx)[4byte] -> %ebp  
0x00007f61cc1fc265 83 e5 02 and $0x00000002 %ebp -> %ebp  
0x00007f61cc1fc268 75 e6 jnz $0x00007f61cc1fc250  
Actual: 7f61cc1fc250 
Block 2058: 
0x00007f61cc1fc250 c7 83 c0 00 00 00 ff mov $0xffffffff -> 0x000000c0(%rbx)[4byte]  
ff ff ff 
0x00007f61cc1fc25a 48 8b 5b 68 mov 0x68(%rbx)[8byte] -> %rbx  
0x00007f61cc1fc25e 48 85 db test %rbx %rbx  
0x00007f61cc1fc261 74 65 jz $0x00007f61cc1fc2c8  
Actual: 7f61cc1fc263 
Block 2059: 
0x00007f61cc1fc26a 8b 93 c0 00 00 00 mov 0x000000c0(%rbx)[4byte] -> %edx  
0x00007f61cc1fc270 85 d2 test %edx %edx  
0x00007f61cc1fc272 74 dc jz $0x00007f61cc1fc250  
Actual: 7f61cc1fc274 
Block 2060: 
0x00007f61cc1fc274 48 8b 93 88 00 00 00 mov 0x00000088(%rbx)[8byte] -> %rdx  
0x00007f61cc1fc27b 48 85 d2 test %rdx %rdx  
0x00007f61cc1fc27e 0f 84 66 ff ff ff jz $0x00007f61cc1fc1ea  
Actual: 7f61cc1fc284 
Block 2061: 
0x00007f61cc1fc284 4c 3b 62 08 cmp %r12 0x08(%rdx)[8byte]  
0x00007f61cc1fc288 0f 84 aa 00 00 00 jz $0x00007f61cc1fc338  
Actual: 7f61cc1fc28e 
Block 2062: 
0x00007f61cc1fc28e 31 c0 xor %eax %eax -> %eax  
0x00007f61cc1fc290 b9 01 00 00 00 mov $0x00000001 -> %ecx  
0x00007f61cc1fc295 83 3d 64 74 34 00 00 cmp <rel> 0x00007f61cc543700[4byte] $0x00000000  
0x00007f61cc1fc29c 74 06 jz $0x00007f61cc1fc2a4  
Actual: 7f61cc1fc2a4 
Block 2063: 
0x00007f61cc1fc2a4 0f b1 0a cmpxchg %ecx (%rdx)[4byte] %eax -> (%rdx)[4byte] %eax  
0x00007f61cc1fc2a7 85 c0 test %eax %eax  
0x00007f61cc1fc2a9 0f 84 29 ff ff ff jz $0x00007f61cc1fc1d8  
Actual: 7f61cc1fc1d8 
Block 2064: 
0x00007f61cc1fc1d8 48 8b 83 88 00 00 00 mov 0x00000088(%rbx)[8byte] -> %rax  
0x00007f61cc1fc1df 4c 89 60 08 mov %r12 -> 0x08(%rax)[8byte]  
0x00007f61cc1fc1e3 c7 40 04 01 00 00 00 mov $0x00000001 -> 0x04(%rax)[4byte]  
0x00007f61cc1fc1ea 80 3d 37 45 34 00 00 cmp <rel> 0x00007f61cc540728[1byte] $0x00  
0x00007f61cc1fc1f1 75 2b jnz $0x00007f61cc1fc21e  
Actual: 7f61cc1fc1f3 
Block 2065: 
0x00007f61cc1fc1f3 8b 03 mov (%rbx)[4byte] -> %eax  
0x00007f61cc1fc1f5 a8 01 test %al $0x01  
0x00007f61cc1fc1f7 75 25 jnz $0x00007f61cc1fc21e  
Actual: 7f61cc1fc1f9 
Block 2068: 
0x00007f61cc1f8270 53 push %rbx %rsp -> %rsp 0xfffffff8(%rsp)[8byte]  
0x00007f61cc1f8271 48 8b 57 28 mov 0x28(%rdi)[8byte] -> %rdx  
0x00007f61cc1f8275 48 89 fb mov %rdi -> %rbx  
0x00007f61cc1f8278 48 8b 77 20 mov 0x20(%rdi)[8byte] -> %rsi  
0x00007f61cc1f827c 48 39 f2 cmp %rdx %rsi  
0x00007f61cc1f827f 76 2e jbe $0x00007f61cc1f82af  
Actual: 7f61cc1f82af 
Block 2069: 
0x00007f61cc1f82af 48 8b 73 08 mov 0x08(%rbx)[8byte] -> %rsi  
0x00007f61cc1f82b3 48 2b 73 10 sub 0x10(%rbx)[8byte] %rsi -> %rsi  
0x00007f61cc1f82b7 75 17 jnz $0x00007f61cc1f82d0  
Actual: 7f61cc1f82b9 
Block 2071: 
0x00007f61cc1fb7d7 83 f8 ff cmp %eax $0xffffffff  
0x00007f61cc1fb7da 0f 84 a0 00 00 00 jz $0x00007f61cc1fb880  
Actual: 7f61cc1fb7e0 
Block 2072: 
0x00007f61cc1fb7e0 8b 13 mov (%rbx)[4byte] -> %edx  
0x00007f61cc1fb7e2 4d 85 e4 test %r12 %r12  
0x00007f61cc1fb7e5 89 d0 mov %edx -> %eax  
0x00007f61cc1fb7e7 74 67 jz $0x00007f61cc1fb850  
Actual: 7f61cc1fb850 
Block 2073: 
0x00007f61cc1fb850 48 8b 7b 38 mov 0x38(%rbx)[8byte] -> %rdi  
0x00007f61cc1fb854 83 c8 02 or $0x00000002 %eax -> %eax  
0x00007f61cc1fb857 48 8d ab 84 00 00 00 lea 0x00000084(%rbx) -> %rbp  
0x00007f61cc1fb85e 89 03 mov %eax -> (%rbx)[4byte]  
0x00007f61cc1fb860 4c 8d a3 83 00 00 00 lea 0x00000083(%rbx) -> %r12  
0x00007f61cc1fb867 48 85 ff test %rdi %rdi  
0x00007f61cc1fb86a 74 98 jz $0x00007f61cc1fb804  
Actual: 7f61cc1fb86c 
Block 2074: 
0x00007f61cc1fb86c 83 e2 01 and $0x00000001 %edx -> %edx  
0x00007f61cc1fb86f 75 93 jnz $0x00007f61cc1fb804  
Actual: 7f61cc1fb804 
Block 2076: 
0x00007f61cc1f8339 48 85 c0 test %rax %rax  
0x00007f61cc1f833c 74 1f jz $0x00007f61cc1f835d  
Actual: 7f61cc1f833e 
Block 2079: 
0x00007f61cc1fc247 83 fd 02 cmp %ebp $0x00000002  
0x00007f61cc1fc24a 0f 85 90 00 00 00 jnz $0x00007f61cc1fc2e0  
Actual: 7f61cc1fc2e0 
Block 2080: 
0x00007f61cc1fc2e0 48 8b 93 88 00 00 00 mov 0x00000088(%rbx)[8byte] -> %rdx  
0x00007f61cc1fc2e7 48 85 d2 test %rdx %rdx  
0x00007f61cc1fc2ea 0f 84 60 ff ff ff jz $0x00007f61cc1fc250  
Actual: 7f61cc1fc2f0 
Block 2081: 
0x00007f61cc1fc2f0 83 6a 04 01 sub $0x00000001 0x04(%rdx)[4byte] -> 0x04(%rdx)[4byte]  
0x00007f61cc1fc2f4 0f 85 56 ff ff ff jnz $0x00007f61cc1fc250  
Actual: 7f61cc1fc2fa 
Block 2082: 
0x00007f61cc1fc2fa 48 c7 42 08 00 00 00 mov $0x0000000000000000 -> 0x08(%rdx)[8byte]  
0x00007f61cc1fc302 83 3d f7 73 34 00 00 cmp <rel> 0x00007f61cc543700[4byte] $0x00000000  
0x00007f61cc1fc309 74 07 jz $0x00007f61cc1fc312  
Actual: 7f61cc1fc312 
Block 2083: 
0x00007f61cc1fc312 ff 0a dec (%rdx)[4byte] -> (%rdx)[4byte]  
0x00007f61cc1fc314 74 16 jz $0x00007f61cc1fc32c  
Actual: 7f61cc1fc32c 
Block 2084: 
0x00007f61cc1fc32c e9 1f ff ff ff jmp $0x00007f61cc1fc250  
0x00007f61cc1fc250 c7 83 c0 00 00 00 ff mov $0xffffffff -> 0x000000c0(%rbx)[4byte]  
ff ff ff 
0x00007f61cc1fc25a 48 8b 5b 68 mov 0x68(%rbx)[8byte] -> %rbx  
0x00007f61cc1fc25e 48 85 db test %rbx %rbx  
0x00007f61cc1fc261 74 65 jz $0x00007f61cc1fc2c8  
Actual: 7f61cc1fc263 
Block 2086: 
0x00007f61cc1bb18b 48 83 c5 08 add $0x0000000000000008 %rbp -> %rbp  
0x00007f61cc1bb18f 4c 39 e5 cmp %rbp %r12  
0x00007f61cc1bb192 72 f4 jb $0x00007f61cc1bb188  
Actual: 7f61cc1bb194 
